0000000181022410 (__TEXT,__gcc_except_tab) non-external GCC_except_table0
0000000181022554 (__TEXT,__gcc_except_tab) non-external GCC_except_table0
0000000181022adc (__TEXT,__gcc_except_tab) non-external GCC_except_table0
0000000181022bf0 (__TEXT,__gcc_except_tab) non-external GCC_except_table0
000000018102231c (__TEXT,__gcc_except_tab) non-external GCC_except_table1
0000000181022c18 (__TEXT,__gcc_except_tab) non-external GCC_except_table1
0000000181022524 (__TEXT,__gcc_except_tab) non-external GCC_except_table10
000000018102258c (__TEXT,__gcc_except_tab) non-external GCC_except_table10
0000000181022a6c (__TEXT,__gcc_except_tab) non-external GCC_except_table103
0000000181022a84 (__TEXT,__gcc_except_tab) non-external GCC_except_table107
00000001810225e8 (__TEXT,__gcc_except_tab) non-external GCC_except_table11
0000000181022a9c (__TEXT,__gcc_except_tab) non-external GCC_except_table118
0000000181022ab4 (__TEXT,__gcc_except_tab) non-external GCC_except_table119
0000000181022404 (__TEXT,__gcc_except_tab) non-external GCC_except_table12
00000001810225fc (__TEXT,__gcc_except_tab) non-external GCC_except_table12
0000000181022afc (__TEXT,__gcc_except_tab) non-external GCC_except_table12
00000001810231d0 (__TEXT,__gcc_except_tab) non-external GCC_except_table128
0000000181022530 (__TEXT,__gcc_except_tab) non-external GCC_except_table13
000000018102263c (__TEXT,__gcc_except_tab) non-external GCC_except_table13
00000001810231e4 (__TEXT,__gcc_except_tab) non-external GCC_except_table147
0000000181022b10 (__TEXT,__gcc_except_tab) non-external GCC_except_table15
0000000181022d8c (__TEXT,__gcc_except_tab) non-external GCC_except_table15
00000001810231f8 (__TEXT,__gcc_except_tab) non-external GCC_except_table150
000000018102253c (__TEXT,__gcc_except_tab) non-external GCC_except_table16
0000000181022668 (__TEXT,__gcc_except_tab) non-external GCC_except_table16
0000000181022da4 (__TEXT,__gcc_except_tab) non-external GCC_except_table16
0000000181022548 (__TEXT,__gcc_except_tab) non-external GCC_except_table17
0000000181022b24 (__TEXT,__gcc_except_tab) non-external GCC_except_table17
000000018102320c (__TEXT,__gcc_except_tab) non-external GCC_except_table171
00000001810226a8 (__TEXT,__gcc_except_tab) non-external GCC_except_table18
0000000181022dc4 (__TEXT,__gcc_except_tab) non-external GCC_except_table18
0000000181022de4 (__TEXT,__gcc_except_tab) non-external GCC_except_table19
00000001810224a0 (__TEXT,__gcc_except_tab) non-external GCC_except_table2
00000001810226e8 (__TEXT,__gcc_except_tab) non-external GCC_except_table20
0000000181022b34 (__TEXT,__gcc_except_tab) non-external GCC_except_table20
0000000181022744 (__TEXT,__gcc_except_tab) non-external GCC_except_table21
0000000181022b44 (__TEXT,__gcc_except_tab) non-external GCC_except_table21
0000000181022758 (__TEXT,__gcc_except_tab) non-external GCC_except_table22
0000000181022b94 (__TEXT,__gcc_except_tab) non-external GCC_except_table22
00000001810227e4 (__TEXT,__gcc_except_tab) non-external GCC_except_table23
0000000181022ba4 (__TEXT,__gcc_except_tab) non-external GCC_except_table24
0000000181022eac (__TEXT,__gcc_except_tab) non-external GCC_except_table24
0000000181022bb8 (__TEXT,__gcc_except_tab) non-external GCC_except_table25
0000000181022ebc (__TEXT,__gcc_except_tab) non-external GCC_except_table25
0000000181022bc8 (__TEXT,__gcc_except_tab) non-external GCC_except_table26
0000000181022ee4 (__TEXT,__gcc_except_tab) non-external GCC_except_table27
0000000181022800 (__TEXT,__gcc_except_tab) non-external GCC_except_table29
0000000181022354 (__TEXT,__gcc_except_tab) non-external GCC_except_table3
00000001810224b4 (__TEXT,__gcc_except_tab) non-external GCC_except_table3
0000000181022aec (__TEXT,__gcc_except_tab) non-external GCC_except_table3
0000000181022c40 (__TEXT,__gcc_except_tab) non-external GCC_except_table3
0000000181022838 (__TEXT,__gcc_except_tab) non-external GCC_except_table31
0000000181022f04 (__TEXT,__gcc_except_tab) non-external GCC_except_table31
000000018102284c (__TEXT,__gcc_except_tab) non-external GCC_except_table32
0000000181022be0 (__TEXT,__gcc_except_tab) non-external GCC_except_table32
0000000181022cc4 (__TEXT,__gcc_except_tab) non-external GCC_except_table32
0000000181022f88 (__TEXT,__gcc_except_tab) non-external GCC_except_table32
0000000181022880 (__TEXT,__gcc_except_tab) non-external GCC_except_table33
0000000181022890 (__TEXT,__gcc_except_tab) non-external GCC_except_table38
00000001810228b0 (__TEXT,__gcc_except_tab) non-external GCC_except_table39
0000000181022fa8 (__TEXT,__gcc_except_tab) non-external GCC_except_table40
00000001810228cc (__TEXT,__gcc_except_tab) non-external GCC_except_table42
0000000181022d68 (__TEXT,__gcc_except_tab) non-external GCC_except_table5
0000000181022918 (__TEXT,__gcc_except_tab) non-external GCC_except_table53
0000000181022928 (__TEXT,__gcc_except_tab) non-external GCC_except_table58
0000000181022d0c (__TEXT,__gcc_except_tab) non-external GCC_except_table58
0000000181022940 (__TEXT,__gcc_except_tab) non-external GCC_except_table59
00000001810224c8 (__TEXT,__gcc_except_tab) non-external GCC_except_table6
0000000181022d78 (__TEXT,__gcc_except_tab) non-external GCC_except_table6
0000000181022950 (__TEXT,__gcc_except_tab) non-external GCC_except_table65
0000000181022d30 (__TEXT,__gcc_except_tab) non-external GCC_except_table65
000000018102299c (__TEXT,__gcc_except_tab) non-external GCC_except_table66
0000000181023004 (__TEXT,__gcc_except_tab) non-external GCC_except_table67
00000001810229a8 (__TEXT,__gcc_except_tab) non-external GCC_except_table68
00000001810223e8 (__TEXT,__gcc_except_tab) non-external GCC_except_table7
000000018102250c (__TEXT,__gcc_except_tab) non-external GCC_except_table7
00000001810229c0 (__TEXT,__gcc_except_tab) non-external GCC_except_table71
0000000181022d48 (__TEXT,__gcc_except_tab) non-external GCC_except_table72
0000000181023020 (__TEXT,__gcc_except_tab) non-external GCC_except_table73
00000001810229cc (__TEXT,__gcc_except_tab) non-external GCC_except_table74
0000000181023070 (__TEXT,__gcc_except_tab) non-external GCC_except_table75
00000001810230c0 (__TEXT,__gcc_except_tab) non-external GCC_except_table76
00000001810230f8 (__TEXT,__gcc_except_tab) non-external GCC_except_table77
00000001810229d8 (__TEXT,__gcc_except_tab) non-external GCC_except_table78
0000000181023130 (__TEXT,__gcc_except_tab) non-external GCC_except_table78
00000001810229e8 (__TEXT,__gcc_except_tab) non-external GCC_except_table79
0000000181022a00 (__TEXT,__gcc_except_tab) non-external GCC_except_table80
0000000181022a10 (__TEXT,__gcc_except_tab) non-external GCC_except_table81
0000000181022a24 (__TEXT,__gcc_except_tab) non-external GCC_except_table88
00000001810223f8 (__TEXT,__gcc_except_tab) non-external GCC_except_table9
0000000181022564 (__TEXT,__gcc_except_tab) non-external GCC_except_table9
0000000181022a34 (__TEXT,__gcc_except_tab) non-external GCC_except_table91
0000000181022a4c (__TEXT,__gcc_except_tab) non-external GCC_except_table93
0000000181022a58 (__TEXT,__gcc_except_tab) non-external GCC_except_table95
0000000181023180 (__TEXT,__gcc_except_tab) non-external GCC_except_table96
                 (undefined) external _CFBinaryHeapAddValue (from CoreFoundation)
                 (undefined) external _CFBinaryHeapContainsValue (from CoreFoundation)
                 (undefined) external _CFBinaryHeapCreate (from CoreFoundation)
                 (undefined) external _CFBinaryHeapGetCount (from CoreFoundation)
                 (undefined) external _CFBinaryHeapGetMinimum (from CoreFoundation)
                 (undefined) external _CFBinaryHeapRemoveMinimumValue (from CoreFoundation)
                 (undefined) external _CFRelease (from CoreFoundation)
                 (undefined) external _CFStringGetBytes (from CoreFoundation)
                 (undefined) external _CFStringGetLength (from CoreFoundation)
                 (undefined) external __NSConcreteGlobalBlock (from libSystem)
                 (undefined) external __Unwind_Resume (from libSystem)
0000000181009bd8 (__TEXT,__text) non-external (was a private external) __Z14approximate_HgiRK3VecPS0_S2_PKd
0000000181002724 (__TEXT,__text) non-external (was a private external) __Z5prunePvPN3nlp15_TrieCompletionEPb
00000001d64dfdd0 (__DATA,__bss) non-external __ZL12max_line_len
00000001810112c8 (__TEXT,__text) non-external __ZL13svm_train_onePK11svm_problemPK13svm_parameterdd
00000001d197b660 (__DATA_CONST,__const) non-external __ZL14svm_type_table
00000001d9218010 (__AUTH,__data) non-external __ZL16svm_print_string
00000001d197b690 (__DATA_CONST,__const) non-external __ZL17kernel_type_table
0000000181011b68 (__TEXT,__text) non-external __ZL17svm_group_classesPK11svm_problemPiPS2_S3_S3_S2_
000000018101415c (__TEXT,__text) non-external __ZL19print_string_stdoutPKc
000000018100ead8 (__TEXT,__text) non-external __ZL4infoPKcz
00000001d64dfdd8 (__DATA,__bss) non-external __ZL4line
0000000181013b7c (__TEXT,__text) non-external __ZL8readlineP7__sFILE
0000000181014590 (__TEXT,__text) non-external (was a private external) __ZN11ONE_CLASS_QC2ERK11svm_problemRK13svm_parameter
0000000181014848 (__TEXT,__text) non-external (was a private external) __ZN11ONE_CLASS_QD0Ev
000000018101458c (__TEXT,__text) non-external (was a private external) __ZN11ONE_CLASS_QD1Ev
0000000181014870 (__TEXT,__text) non-external (was a private external) __ZN11ONE_CLASS_QD2Ev
0000000181003018 (__TEXT,__text) non-external (was a private external) __ZN18ME_Efficient_Model14load_from_fileERKNSt3__112basic_stringIcNS0_11char_traitsIcEENS0_9allocatorIcEEEEb
00000001810032cc (__TEXT,__text) non-external (was a private external) __ZN18ME_Efficient_Model15load_with_bytesEPKc
0000000181002ebc (__TEXT,__text) non-external (was a private external) __ZN18ME_Efficient_ModelD1Ev
0000000181002e48 (__TEXT,__text) non-external (was a private external) __ZN18ME_Efficient_ModelD2Ev
0000000181003b6c (__TEXT,__text) non-external (was a private external) __ZN26ME_Efficient_Model_Trainer10ME_FeatureC2Eii
000000018101e934 (__TEXT,__text) non-external __ZN26ME_Efficient_Model_Trainer10ME_FeatureC2Eii.cold.1
000000018101e960 (__TEXT,__text) non-external __ZN26ME_Efficient_Model_Trainer10ME_FeatureC2Eii.cold.2
00000001810001c0 (__TEXT,__text) non-external (was a private external) __ZN26ME_Efficient_Model_Trainer11perform_GISEi
0000000180ffbc3c (__TEXT,__text) non-external (was a private external) __ZN26ME_Efficient_Model_Trainer11perform_SGDEv
0000000181000f54 (__TEXT,__text) non-external (was a private external) __ZN26ME_Efficient_Model_Trainer13ME_FeatureBag3PutERKNS_10ME_FeatureE
0000000180fffd5c (__TEXT,__text) non-external (was a private external) __ZN26ME_Efficient_Model_Trainer13ME_FeatureBagD1Ev
000000018100a048 (__TEXT,__text) non-external (was a private external) __ZN26ME_Efficient_Model_Trainer13perform_LBFGSERKNSt3__16vectorIdNS0_9allocatorIdEEEE
0000000180ff585c (__TEXT,__text) non-external (was a private external) __ZN26ME_Efficient_Model_Trainer13perform_OWLQNERKNSt3__16vectorIdNS0_9allocatorIdEEEEd
0000000180fffdd8 (__TEXT,__text) non-external (was a private external) __ZN26ME_Efficient_Model_Trainer16FunctionGradientERKNSt3__16vectorIdNS0_9allocatorIdEEEERS4_
000000018101e800 (__TEXT,__text) non-external __ZN26ME_Efficient_Model_Trainer16FunctionGradientERKNSt3__16vectorIdNS0_9allocatorIdEEEERS4_.cold.1
00000001810010a8 (__TEXT,__text) non-external (was a private external) __ZN26ME_Efficient_Model_Trainer16init_feature2mefEv
0000000181000cac (__TEXT,__text) non-external (was a private external) __ZN26ME_Efficient_Model_Trainer16make_feature_bagEi
0000000181000608 (__TEXT,__text) non-external (was a private external) __ZN26ME_Efficient_Model_Trainer18heldout_likelihoodEv
0000000181001388 (__TEXT,__text) non-external (was a private external) __ZN26ME_Efficient_Model_Trainer19add_training_sampleERK9ME_Sample
0000000181000714 (__TEXT,__text) non-external (was a private external) __ZN26ME_Efficient_Model_Trainer20perform_QUASI_NEWTONEv
0000000180ff53dc (__TEXT,__text) non-external (was a private external) __ZN26ME_Efficient_Model_Trainer21regularized_func_gradEdRK3VecRS0_
0000000180ff544c (__TEXT,__text) non-external (was a private external) __ZN26ME_Efficient_Model_Trainer23constrained_line_searchEdRK3VecS2_dS2_RS0_S3_
0000000181009998 (__TEXT,__text) non-external (was a private external) __ZN26ME_Efficient_Model_Trainer24backtracking_line_searchERK3VecS2_dS2_RS0_S3_
0000000180fffef8 (__TEXT,__text) non-external (was a private external) __ZN26ME_Efficient_Model_Trainer24update_model_expectationEv
00000001810026a0 (__TEXT,__text) non-external (was a private external) __ZN26ME_Efficient_Model_Trainer5clearEv
00000001810018d4 (__TEXT,__text) non-external (was a private external) __ZN26ME_Efficient_Model_Trainer5trainEv
0000000181001808 (__TEXT,__text) non-external (was a private external) __ZN26ME_Efficient_Model_Trainer9StringBag3PutERKNSt3__112basic_stringIcNS1_11char_traitsIcEENS1_9allocatorIcEEEE
0000000180fffda0 (__TEXT,__text) non-external (was a private external) __ZN26ME_Efficient_Model_Trainer9StringBagD1Ev
0000000181004a7c (__TEXT,__text) non-external (was a private external) __ZN26ME_Efficient_Model_TrainerC2ERKS_
00000001810084b8 (__TEXT,__text) non-external (was a private external) __ZN26ME_Efficient_Model_TrainerC2Ev
000000018101e98c (__TEXT,__text) non-external __ZN26ME_Efficient_Model_TrainerC2Ev.cold.1
0000000180fffdd4 (__TEXT,__text) non-external (was a private external) __ZN26ME_Efficient_Model_TrainerD1Ev
0000000180fffc1c (__TEXT,__text) non-external (was a private external) __ZN26ME_Efficient_Model_TrainerD2Ev
0000000180ff5808 (__TEXT,__text) non-external (was a private external) __ZN3Vec7ProjectERKS_
0000000180ff6380 (__TEXT,__text) non-external (was a private external) __ZN3VecC2Emd
0000000181009fe0 (__TEXT,__text) non-external (was a private external) __ZN3VecpLERKS_
000000018101ea30 (__TEXT,__text) non-external __ZN3VecpLERKS_.cold.1
0000000181014d44 (__TEXT,__text) non-external (was a private external) __ZN3nlp12BurstTrieAddEPNS_10_BurstTrieEPKhjj
0000000181015948 (__TEXT,__text) non-external (was a private external) __ZN3nlp15BurstTrieRemoveEPNS_10_BurstTrieEPKhj
00000001810156c8 (__TEXT,__text) non-external (was a private external) __ZN3nlp15BurstTrieRetainEPKNS_10_BurstTrieE
0000000181015574 (__TEXT,__text) non-external (was a private external) __ZN3nlp15BurstTrieSearchEPKNS_10_BurstTrieEPKhjPvNSt3__18functionIFvS5_PNS_15_TrieCompletionEPbEEEi
0000000181015358 (__TEXT,__text) non-external (was a private external) __ZN3nlp16BurstTrieReleaseEPKNS_10_BurstTrieE
0000000181014d20 (__TEXT,__text) non-external (was a private external) __ZN3nlp16traverseCallbackEPvPNS_15_TrieCompletionEPb
00000001810163cc (__TEXT,__text) non-external (was a private external) __ZN3nlp17BurstTrieContainsEPKNS_10_BurstTrieEPKhjPjPf
00000001810153f0 (__TEXT,__text) non-external (was a private external) __ZN3nlp17BurstTrieGetCountEPKNS_10_BurstTrieE
00000001810173a4 (__TEXT,__text) non-external (was a private external) __ZN3nlp17SetMapCursorScoreIPNS_10_TrieLevelEEEvRNS_9MapCursorET_
00000001810168d0 (__TEXT,__text) non-external (was a private external) __ZN3nlp17enumerateListNodeIPNS_9_ListNodeEEEvT_PhjRbPvNSt3__18functionIFvS6_PKhjjfPbEEE
0000000181018e18 (__TEXT,__text) non-external (was a private external) __ZN3nlp20BurstTrieWriteToFileEPNS_10_BurstTrieEPK10__CFString
0000000181016364 (__TEXT,__text) non-external (was a private external) __ZN3nlp20TrieCompletionRetainEPNS_15_TrieCompletionE
0000000181014fb8 (__TEXT,__text) non-external (was a private external) __ZN3nlp21BurstTrieAddWithScoreEPNS_10_BurstTrieEPKhjjfPvNSt3__18functionIFfS4_ffEEE
0000000181018898 (__TEXT,__text) non-external (was a private external) __ZN3nlp21BurstTrieRankedSearchEPKNS_10_BurstTrieEPKhjiP14__CFBinaryHeapS6_
0000000181016390 (__TEXT,__text) non-external (was a private external) __ZN3nlp21TrieCompletionReleaseEPNS_15_TrieCompletionE
0000000181018024 (__TEXT,__text) non-external (was a private external) __ZN3nlp21TrieCursorQueueCreateEv
00000001810150f8 (__TEXT,__text) non-external (was a private external) __ZN3nlp22BurstTrieCreateMutableEv
0000000181017f64 (__TEXT,__text) non-external (was a private external) __ZN3nlp22BurstTrieCursorIsEqualEPNS_16_BurstTrieCursorES1_
00000001810168c4 (__TEXT,__text) non-external (was a private external) __ZN3nlp22BurstTrieCursorReleaseEPNS_16_BurstTrieCursorE
00000001810150e4 (__TEXT,__text) non-external (was a private external) __ZN3nlp22TrieCompletionGetScoreEPNS_15_TrieCompletionE
0000000181018128 (__TEXT,__text) non-external (was a private external) __ZN3nlp22TrieCursorQueueReleaseEP14__CFBinaryHeap
0000000181014f0c (__TEXT,__text) non-external (was a private external) __ZN3nlp22rankedTraverseCallbackEPvPNS_15_TrieCompletionEPb
0000000181015190 (__TEXT,__text) non-external (was a private external) __ZN3nlp23BurstTrieCreateFromFileEPK10__CFString
0000000181014ef4 (__TEXT,__text) non-external (was a private external) __ZN3nlp23TrieCompletionGetLengthEPNS_15_TrieCompletionE
00000001810153e8 (__TEXT,__text) non-external (was a private external) __ZN3nlp24BurstTrieCreateWithBytesEPKc
0000000181014f00 (__TEXT,__text) non-external (was a private external) __ZN3nlp24TrieCompletionGetPayloadEPNS_15_TrieCompletionE
0000000181017ed8 (__TEXT,__text) non-external (was a private external) __ZN3nlp25BurstTrieCursorCreateCopyEPNS_16_BurstTrieCursorE
0000000181017fec (__TEXT,__text) non-external (was a private external) __ZN3nlp25BurstTrieCursorGetPayloadEPNS_16_BurstTrieCursorEPj
0000000181018134 (__TEXT,__text) non-external (was a private external) __ZN3nlp25TrieCompletionQueueCreateEv
00000001810153fc (__TEXT,__text) non-external (was a private external) __ZN3nlp26BurstTrieCreateMutableCopyEPKNS_10_BurstTrieE
000000018101821c (__TEXT,__text) non-external (was a private external) __ZN3nlp26TrieCompletionQueueReleaseEP14__CFBinaryHeap
00000001810171e8 (__TEXT,__text) non-external (was a private external) __ZN3nlp27BurstTrieSetCursorWithBytesEPKNS_10_BurstTrieEPNS_16_BurstTrieCursorEPKhj
0000000181016764 (__TEXT,__text) non-external (was a private external) __ZN3nlp27BurstTrieTraverseFromCursorEPNS_16_BurstTrieCursorEPvNSt3__18functionIFvS2_PKhjjfPbEEEi
0000000181014ee4 (__TEXT,__text) non-external (was a private external) __ZN3nlp27TrieCompletionGetCompletionEPNS_15_TrieCompletionE
0000000181016970 (__TEXT,__text) non-external (was a private external) __ZN3nlp28traverseFromCompactMapCursorEPKNS_10_BurstTrieEPNS_17_CompactMapCursorEPhjjPbPvNSt3__18functionIFvS7_PKhjjfS6_EEE
00000001810188b4 (__TEXT,__text) non-external (was a private external) __ZN3nlp29BurstTrieContinueRankedSearchEPKNS_10_BurstTrieEiP14__CFBinaryHeapS4_
00000001810166f8 (__TEXT,__text) non-external (was a private external) __ZN3nlp30BurstTrieCreateCursorWithBytesEPKNS_10_BurstTrieEPKhj
0000000181018c20 (__TEXT,__text) non-external (was a private external) __ZN3nlp30BurstTrieWriteToFileDescriptorEPNS_10_BurstTrieEiPi
00000001810172dc (__TEXT,__text) non-external (was a private external) __ZN3nlp31BurstTrieCursorAdvanceWithBytesEPNS_16_BurstTrieCursorEPKhj
000000018101513c (__TEXT,__text) non-external (was a private external) __ZN3nlp33BurstTrieCreateMutableWithOptionsEjNS_16BurstTrieOptionsE
0000000181018228 (__TEXT,__text) non-external (was a private external) __ZN3nlp34BurstTrieRankedSearchWithSelectionEPKNS_10_BurstTrieEPNS_13_TrieSelectorEPKhjiP14__CFBinaryHeapS8_
000000018101df9c (__TEXT,__text) non-external (was a private external) __ZN3nlp37burstTrieCreateCursorWithTrieLevelRefIPNS_10_TrieLevelEEEPNS_16_BurstTrieCursorEPKNS_10_BurstTrieET_
000000018101ebbc (__TEXT,__text) non-external __ZN3nlp37burstTrieCreateCursorWithTrieLevelRefIPNS_10_TrieLevelEEEPNS_16_BurstTrieCursorEPKNS_10_BurstTrieET_.cold.1
000000018101d8c4 (__TEXT,__text) non-external (was a private external) __ZN3nlp37burstTrieCreateCursorWithTrieLevelRefIPNS_16_RankedTrieLevelEEEPNS_16_BurstTrieCursorEPKNS_10_BurstTrieET_
000000018101eb90 (__TEXT,__text) non-external __ZN3nlp37burstTrieCreateCursorWithTrieLevelRefIPNS_16_RankedTrieLevelEEEPNS_16_BurstTrieCursorEPKNS_10_BurstTrieET_.cold.1
00000001810191b4 (__TEXT,__text) non-external __ZN3nlpL10burstLevelEPNS_10_BurstTrieEPNS_9_ListNodeERNS_16BurstTrieAddCodeE
000000018101b984 (__TEXT,__text) non-external __ZN3nlpL10searchListEPKNS_10_BurstTrieEPNS_9_ListNodeEPhjjbPvNSt3__18functionIFvS6_PNS_15_TrieCompletionEbPbEEE
000000018101900c (__TEXT,__text) non-external __ZN3nlpL11addListNodeEPNS_10_BurstTrieEPPNS_9_ListNodeEPKhjjjRNS_16BurstTrieAddCodeE
000000018101eab4 (__TEXT,__text) non-external __ZN3nlpL11addListNodeEPNS_10_BurstTrieEPPNS_9_ListNodeEPKhjjjRNS_16BurstTrieAddCodeE.cold.1
0000000181019c5c (__TEXT,__text) non-external __ZN3nlpL11containsKeyEPvPNS_15_TrieCompletionEbPb
0000000181018f8c (__TEXT,__text) non-external __ZN3nlpL11finishLevelIPNS_10_TrieLevelEPNS_9_ListNodeEEEvT_
0000000181018f0c (__TEXT,__text) non-external __ZN3nlpL11finishLevelIPNS_16_RankedTrieLevelEPNS_15_RankedListNodeEEEvT_
000000018101a37c (__TEXT,__text) non-external __ZN3nlpL11searchLevelEPKNS_10_BurstTrieEPNS_10_TrieLevelEPhjjbPvNSt3__18functionIFvS6_PNS_15_TrieCompletionEbPbEEE
00000001810179c0 (__TEXT,__text) non-external __ZN3nlpL12sharedBufferEv
00000001810156dc (__TEXT,__text) non-external __ZN3nlpL14addLevelRankedEPNS_10_BurstTrieEPNS_16_RankedTrieLevelEPKhjjjfPfRNS_16BurstTrieAddCodeEPvNSt3__18functionIFfS9_ffEEE
000000018101cb44 (__TEXT,__text) non-external __ZN3nlpL14rankSearchListEPKNS_10_BurstTrieEPNS_15_RankedListNodeEPKhjjP14__CFBinaryHeapS8_iPNS_13_TrieSelectorE
000000018101b3f8 (__TEXT,__text) non-external __ZN3nlpL14searchDiskPageEPKNS_10_BurstTrieEPNS_5_PageEPhjjbPvNSt3__18functionIFvS6_PNS_15_TrieCompletionEbPbEEE
000000018101cec4 (__TEXT,__text) non-external __ZN3nlpL14serializeListsEPKNS_10_BurstTrieEPNS_10_TrieLevelExi
0000000181018674 (__TEXT,__text) non-external __ZN3nlpL15rankSearchLevelEPKNS_10_BurstTrieEPNS_16_RankedTrieLevelEPKhjjP14__CFBinaryHeapS8_iPNS_13_TrieSelectorE
0000000181019ce8 (__TEXT,__text) non-external __ZN3nlpL15searchDiskLevelEPKNS_10_BurstTrieEPNS_14_DiskTrieLevelEPhjjbPvNSt3__18functionIFvS6_PNS_15_TrieCompletionEbPbEEE
000000018101d494 (__TEXT,__text) non-external __ZN3nlpL15serializeLevelsEPKNS_10_BurstTrieEPNS_10_TrieLevelExibbPj
000000018101eb64 (__TEXT,__text) non-external __ZN3nlpL15serializeLevelsEPKNS_10_BurstTrieEPNS_10_TrieLevelExibbPj.cold.1
000000018101808c (__TEXT,__text) non-external __ZN3nlpL16TrieCursorRetainEPK13__CFAllocatorPKv
00000001810178d4 (__TEXT,__text) non-external __ZN3nlpL16advanceMapCursorEPKNS_10_BurstTrieEPNS_9MapCursorEPKhj
0000000181019570 (__TEXT,__text) non-external __ZN3nlpL16burstLevelRankedEPNS_10_BurstTrieEPNS_15_RankedListNodeEPfRNS_16BurstTrieAddCodeE
00000001810197dc (__TEXT,__text) non-external __ZN3nlpL16nodeScoreCompareEPKvS1_
000000018101b800 (__TEXT,__text) non-external __ZN3nlpL16searchListRankedEPKNS_10_BurstTrieEPNS_15_RankedListNodeEPhjjbPvNSt3__18functionIFvS6_PNS_15_TrieCompletionEbPbEEE
00000001810180c4 (__TEXT,__text) non-external __ZN3nlpL17TrieCursorCompareEPKvS1_Pv
00000001810180a4 (__TEXT,__text) non-external __ZN3nlpL17TrieCursorReleaseEPK13__CFAllocatorPKv
000000018101933c (__TEXT,__text) non-external __ZN3nlpL17addListNodeRankedEPNS_10_BurstTrieEPPNS_15_RankedListNodeEPKhjjjfPfRNS_16BurstTrieAddCodeEPvNSt3__18functionIFfSA_ffEEE
000000018101eae0 (__TEXT,__text) non-external __ZN3nlpL17addListNodeRankedEPNS_10_BurstTrieEPPNS_15_RankedListNodeEPKhjjjfPfRNS_16BurstTrieAddCodeEPvNSt3__18functionIFfSA_ffEEE.cold.1
00000001810192f4 (__TEXT,__text) non-external __ZN3nlpL17nodeStringCompareEPKvS1_
00000001810189cc (__TEXT,__text) non-external __ZN3nlpL17rankSearchCursorsEPKNS_10_BurstTrieEP14__CFBinaryHeapS4_iPNS_13_TrieSelectorE
000000018101a0a4 (__TEXT,__text) non-external __ZN3nlpL17searchLevelRankedEPKNS_10_BurstTrieEPNS_16_RankedTrieLevelEPhjjbPvNSt3__18functionIFvS6_PNS_15_TrieCompletionEbPbEEE
00000001810164a8 (__TEXT,__text) non-external __ZN3nlpL17searchWithContextEPKNS_10_BurstTrieEPKhjbPNS_14_SearchContextE
000000018101c794 (__TEXT,__text) non-external __ZN3nlpL17updateCompletionsEPNS_15_TrieCompletionEPNS_13_TrieSelectorEP14__CFBinaryHeapS5_j
000000018101725c (__TEXT,__text) non-external __ZN3nlpL18burstTrieSetCursorEPKNS_10_BurstTrieEPNS_16_BurstTrieCursorE
000000018101c3a0 (__TEXT,__text) non-external __ZN3nlpL18rankSearchDiskPageEPKNS_10_BurstTrieEPNS_11_RankedPageEPKhjjP14__CFBinaryHeapS8_iPNS_13_TrieSelectorE
0000000181018414 (__TEXT,__text) non-external __ZN3nlpL19rankSearchDiskLevelEPKNS_10_BurstTrieEPNS_20_RankedDiskTrieLevelEPKhjjP14__CFBinaryHeapS8_iPNS_13_TrieSelectorE
000000018101ca04 (__TEXT,__text) non-external __ZN3nlpL19rankSearchGetCursorEPKNS_10_BurstTrieEmPhjP14__CFBinaryHeap
000000018101aae8 (__TEXT,__text) non-external __ZN3nlpL20searchDiskPageRankedEPKNS_10_BurstTrieEPNS_11_RankedPageEPhjjbPvNSt3__18functionIFvS6_PNS_15_TrieCompletionEbPbEEE
000000018101ccb0 (__TEXT,__text) non-external __ZN3nlpL20serializeListsRankedEPKNS_10_BurstTrieEPNS_16_RankedTrieLevelExi
0000000181016378 (__TEXT,__text) non-external __ZN3nlpL20trieCompletionRetainEPK13__CFAllocatorPKv
000000018101989c (__TEXT,__text) non-external __ZN3nlpL21searchDiskLevelRankedEPKNS_10_BurstTrieEPNS_20_RankedDiskTrieLevelEPhjjbPvNSt3__18functionIFvS6_PNS_15_TrieCompletionEbPbEEE
000000018101d1cc (__TEXT,__text) non-external __ZN3nlpL21serializeLevelsRankedEPKNS_10_BurstTrieEPNS_16_RankedTrieLevelExibbPj
000000018101eb38 (__TEXT,__text) non-external __ZN3nlpL21serializeLevelsRankedEPKNS_10_BurstTrieEPNS_16_RankedTrieLevelExibbPj.cold.1
0000000181017a34 (__TEXT,__text) non-external __ZN3nlpL21traverseFromMapCursorEPKNS_10_BurstTrieERNS_9MapCursorEPhjRbiPvNSt3__18functionIFvS7_PKhjjfPbEEE
00000001810163ac (__TEXT,__text) non-external __ZN3nlpL21trieCompletionReleaseEPK13__CFAllocatorPKv
000000018101af5c (__TEXT,__text) non-external __ZN3nlpL22searchCompactDiskLevelEPKNS_10_BurstTrieEPNS_21_CompactDiskTrieLevelEPhjjbPvNSt3__18functionIFvS6_PNS_15_TrieCompletionEbPbEEE
000000018101bf74 (__TEXT,__text) non-external __ZN3nlpL22updateMapCursorPointerEPKNS_10_BurstTrieERNS_9MapCursorEm
00000001810173a8 (__TEXT,__text) non-external __ZN3nlpL23advanceCompactMapCursorEPKNS_10_BurstTrieEPNS_17_CompactMapCursorEPKhj
000000018101bca4 (__TEXT,__text) non-external __ZN3nlpL24advanceMapCursorTrieListEPKNS_10_BurstTrieEPNS_9MapCursorEPKhj
000000018101eb0c (__TEXT,__text) non-external __ZN3nlpL24advanceMapCursorTrieListEPKNS_10_BurstTrieEPNS_9MapCursorEPKhj.cold.1
00000001810152ac (__TEXT,__text) non-external __ZN3nlpL24burstTrieCreateWithBytesEPKcb
000000018101c02c (__TEXT,__text) non-external __ZN3nlpL26rankSearchCompactDiskLevelEPKNS_10_BurstTrieEPNS_27_RankedCompactDiskTrieLevelEPKhjjP14__CFBinaryHeapS8_iPNS_13_TrieSelectorE
000000018101819c (__TEXT,__text) non-external __ZN3nlpL26trieCompletionCompareScoreEPKvS1_Pv
000000018101a648 (__TEXT,__text) non-external __ZN3nlpL28searchCompactDiskLevelRankedEPKNS_10_BurstTrieEPNS_27_RankedCompactDiskTrieLevelEPhjjbPvNSt3__18functionIFvS6_PNS_15_TrieCompletionEbPbEEE
000000018101bbb8 (__TEXT,__text) non-external __ZN3nlpL29updateCompactMapCursorPointerEPKNS_10_BurstTrieEPNS_17_CompactMapCursorEm
000000018101bafc (__TEXT,__text) non-external __ZN3nlpL34advanceCompactMapCursorMappedLevelEPKNS_10_BurstTrieEPNS_17_CompactMapCursorEPKhj
0000000181018394 (__TEXT,__text) non-external __ZN3nlpL34trieCompletionInternalCompareScoreEPKvS1_Pv
0000000181016fac (__TEXT,__text) non-external __ZN3nlpL39traverseFromCompactMapCursorMappedLevelEPKNS_10_BurstTrieEPNS_17_CompactMapCursorEPhjjPbPvNSt3__18functionIFvS7_PKhjjfS6_EEE
000000018100dd8c (__TEXT,__text) non-external (was a private external) __ZN5Cache10lru_deleteEPNS_6head_tE
000000018100dda0 (__TEXT,__text) non-external (was a private external) __ZN5Cache10lru_insertEPNS_6head_tE
000000018100ded8 (__TEXT,__text) non-external (was a private external) __ZN5Cache10swap_indexEii
000000018100ddb8 (__TEXT,__text) non-external (was a private external) __ZN5Cache8get_dataEiPPfi
000000018100dcc8 (__TEXT,__text) non-external (was a private external) __ZN5CacheC1Eil
000000018100dc5c (__TEXT,__text) non-external (was a private external) __ZN5CacheC2Eil
000000018100dd88 (__TEXT,__text) non-external (was a private external) __ZN5CacheD1Ev
000000018100dd34 (__TEXT,__text) non-external (was a private external) __ZN5CacheD2Ev
00000001810141e8 (__TEXT,__text) non-external (was a private external) __ZN5SVC_QC2ERK11svm_problemRK13svm_parameterPKa
00000001810144ec (__TEXT,__text) non-external (was a private external) __ZN5SVC_QD0Ev
00000001810141e4 (__TEXT,__text) non-external (was a private external) __ZN5SVC_QD1Ev
0000000181014514 (__TEXT,__text) non-external (was a private external) __ZN5SVC_QD2Ev
00000001810148e0 (__TEXT,__text) non-external (was a private external) __ZN5SVR_QC2ERK11svm_problemRK13svm_parameter
0000000181014c5c (__TEXT,__text) non-external (was a private external) __ZN5SVR_QD0Ev
00000001810148dc (__TEXT,__text) non-external (was a private external) __ZN5SVR_QD1Ev
0000000181014c84 (__TEXT,__text) non-external (was a private external) __ZN5SVR_QD2Ev
000000018100e55c (__TEXT,__text) non-external (was a private external) __ZN6Kernel10k_functionEPK8svm_nodeS2_RK13svm_parameter
000000018100e4a0 (__TEXT,__text) non-external (was a private external) __ZN6Kernel3dotEPK8svm_nodeS2_
000000018100e04c (__TEXT,__text) non-external (was a private external) __ZN6KernelC2EiPKP8svm_nodeRK13svm_parameter
000000018100e558 (__TEXT,__text) non-external (was a private external) __ZN6KernelD0Ev
000000018100e554 (__TEXT,__text) non-external (was a private external) __ZN6KernelD1Ev
000000018100e4fc (__TEXT,__text) non-external (was a private external) __ZN6KernelD2Ev
000000018100e7dc (__TEXT,__text) non-external (was a private external) __ZN6Solver10swap_indexEii
000000018100f77c (__TEXT,__text) non-external (was a private external) __ZN6Solver12do_shrinkingEv
000000018100f900 (__TEXT,__text) non-external (was a private external) __ZN6Solver13calculate_rhoEv
000000018100f4c0 (__TEXT,__text) non-external (was a private external) __ZN6Solver18select_working_setERiS0_
000000018100e8b8 (__TEXT,__text) non-external (was a private external) __ZN6Solver20reconstruct_gradientEv
000000018100eb50 (__TEXT,__text) non-external (was a private external) __ZN6Solver5SolveEiRK7QMatrixPKdPKaPddddPNS_12SolutionInfoEi
000000018100f71c (__TEXT,__text) non-external (was a private external) __ZN6Solver9be_shrunkEidd
00000001810141d8 (__TEXT,__text) non-external (was a private external) __ZN6SolverD0Ev
00000001810141d4 (__TEXT,__text) non-external (was a private external) __ZN6SolverD1Ev
0000000181008160 (__TEXT,__text) non-external (was a private external) __ZN9ME_Sample11add_featureERKNSt3__112basic_stringIcNS0_11char_traitsIcEENS0_9allocatorIcEEEEd
0000000181008318 (__TEXT,__text) non-external (was a private external) __ZN9ME_Sample5clearEv
000000018100fd14 (__TEXT,__text) non-external (was a private external) __ZN9Solver_NU12do_shrinkingEv
000000018100fecc (__TEXT,__text) non-external (was a private external) __ZN9Solver_NU13calculate_rhoEv
000000018100f9e4 (__TEXT,__text) non-external (was a private external) __ZN9Solver_NU18select_working_setERiS0_
000000018100fca4 (__TEXT,__text) non-external (was a private external) __ZN9Solver_NU9be_shrunkEidddd
00000001810141e0 (__TEXT,__text) non-external (was a private external) __ZN9Solver_NUD0Ev
00000001810141dc (__TEXT,__text) non-external (was a private external) __ZN9Solver_NUD1Ev
00000001810147c8 (__TEXT,__text) non-external (was a private external) __ZNK11ONE_CLASS_Q10swap_indexEii
00000001810146e8 (__TEXT,__text) non-external (was a private external) __ZNK11ONE_CLASS_Q5get_QEii
00000001810147c0 (__TEXT,__text) non-external (was a private external) __ZNK11ONE_CLASS_Q6get_QDEv
0000000181002ec0 (__TEXT,__text) non-external (was a private external) __ZNK18ME_Efficient_Model11num_classesEv
0000000181002f28 (__TEXT,__text) non-external (was a private external) __ZNK18ME_Efficient_Model12get_class_idERKNSt3__112basic_stringIcNS0_11char_traitsIcEENS0_9allocatorIcEEEE
0000000181002ed8 (__TEXT,__text) non-external (was a private external) __ZNK18ME_Efficient_Model15get_class_labelEi
00000001810034f8 (__TEXT,__text) non-external (was a private external) __ZNK18ME_Efficient_Model23conditional_probabilityERKNSt3__16vectorIdNS0_9allocatorIdEEEERS4_
000000018101e8b0 (__TEXT,__text) non-external __ZNK18ME_Efficient_Model23conditional_probabilityERKNSt3__16vectorIdNS0_9allocatorIdEEEERS4_.cold.1
000000018101e8dc (__TEXT,__text) non-external __ZNK18ME_Efficient_Model23conditional_probabilityERKNSt3__16vectorIdNS0_9allocatorIdEEEERS4_.cold.2
00000001810036c0 (__TEXT,__text) non-external (was a private external) __ZNK18ME_Efficient_Model8classifyER9ME_SamplePi
0000000181003624 (__TEXT,__text) non-external (was a private external) __ZNK18ME_Efficient_Model8classifyERKNSt3__16vectorIdNS0_9allocatorIdEEEERS4_
000000018101e908 (__TEXT,__text) non-external __ZNK18ME_Efficient_Model8classifyERKNSt3__16vectorIdNS0_9allocatorIdEEEERS4_.cold.1
00000001810023c4 (__TEXT,__text) non-external (was a private external) __ZNK26ME_Efficient_Model_Trainer10get_labelsERNSt3__16vectorINS0_12basic_stringIcNS0_11char_traitsIcEENS0_9allocatorIcEEEENS5_IS7_EEEE
0000000181002988 (__TEXT,__text) non-external (was a private external) __ZNK26ME_Efficient_Model_Trainer12save_to_fileERKNSt3__112basic_stringIcNS0_11char_traitsIcEENS0_9allocatorIcEEEEd
0000000180ffc698 (__TEXT,__text) non-external (was a private external) __ZNK26ME_Efficient_Model_Trainer13ME_FeatureBag7FeatureEi
000000018101e7d4 (__TEXT,__text) non-external __ZNK26ME_Efficient_Model_Trainer13ME_FeatureBag7FeatureEi.cold.1
000000018101e82c (__TEXT,__text) non-external __ZNK26ME_Efficient_Model_Trainer13ME_FeatureBag7FeatureEi.cold.1
000000018100261c (__TEXT,__text) non-external (was a private external) __ZNK26ME_Efficient_Model_Trainer14get_feature_idEii
0000000181002670 (__TEXT,__text) non-external (was a private external) __ZNK26ME_Efficient_Model_Trainer14ignore_featureEid
0000000181002694 (__TEXT,__text) non-external (was a private external) __ZNK26ME_Efficient_Model_Trainer18get_feature_weightEi
0000000181000964 (__TEXT,__text) non-external (was a private external) __ZNK26ME_Efficient_Model_Trainer23conditional_probabilityERKNS_6SampleERNSt3__16vectorIdNS3_9allocatorIdEEEE
0000000181002aec (__TEXT,__text) non-external (was a private external) __ZNK26ME_Efficient_Model_Trainer23save_to_file_descriptorEid
0000000181007534 (__TEXT,__text) non-external (was a private external) __ZNK26ME_Efficient_Model_Trainer6SampleltERKS0_
0000000181000c24 (__TEXT,__text) non-external (was a private external) __ZNK26ME_Efficient_Model_Trainer8classifyERKNS_6SampleERNSt3__16vectorIdNS3_9allocatorIdEEEE
000000018101e858 (__TEXT,__text) non-external __ZNK26ME_Efficient_Model_Trainer8classifyERKNS_6SampleERNSt3__16vectorIdNS3_9allocatorIdEEEE.cold.1
00000001810025c4 (__TEXT,__text) non-external (was a private external) __ZNK26ME_Efficient_Model_Trainer9StringBag3StrEi
000000018101e884 (__TEXT,__text) non-external __ZNK26ME_Efficient_Model_Trainer9StringBag3StrEi.cold.1
0000000181014458 (__TEXT,__text) non-external (was a private external) __ZNK5SVC_Q10swap_indexEii
000000018101435c (__TEXT,__text) non-external (was a private external) __ZNK5SVC_Q5get_QEii
0000000181014450 (__TEXT,__text) non-external (was a private external) __ZNK5SVC_Q6get_QDEv
0000000181014c1c (__TEXT,__text) non-external (was a private external) __ZNK5SVR_Q10swap_indexEii
0000000181014ad0 (__TEXT,__text) non-external (was a private external) __ZNK5SVR_Q5get_QEii
0000000181014c14 (__TEXT,__text) non-external (was a private external) __ZNK5SVR_Q6get_QDEv
000000018100e364 (__TEXT,__text) non-external (was a private external) __ZNK6Kernel10kernel_rbfEii
000000018101419c (__TEXT,__text) non-external (was a private external) __ZNK6Kernel10swap_indexEii
000000018100e2ac (__TEXT,__text) non-external (was a private external) __ZNK6Kernel11kernel_polyEii
000000018100e238 (__TEXT,__text) non-external (was a private external) __ZNK6Kernel13kernel_linearEii
000000018100e3fc (__TEXT,__text) non-external (was a private external) __ZNK6Kernel14kernel_sigmoidEii
000000018100e480 (__TEXT,__text) non-external (was a private external) __ZNK6Kernel18kernel_precomputedEii
000000018101d810 (__TEXT,__text) non-external (was a private external) __ZNKSt3__110__function6__funcIPFvPvPN3nlp15_TrieCompletionEPbENS_9allocatorIS8_EES7_E11target_typeEv
000000018101d7d0 (__TEXT,__text) non-external (was a private external) __ZNKSt3__110__function6__funcIPFvPvPN3nlp15_TrieCompletionEPbENS_9allocatorIS8_EES7_E6targetERKSt9type_info
000000018101d790 (__TEXT,__text) non-external (was a private external) __ZNKSt3__110__function6__funcIPFvPvPN3nlp15_TrieCompletionEPbENS_9allocatorIS8_EES7_E7__cloneEPNS0_6__baseIS7_EE
000000018101d748 (__TEXT,__text) non-external (was a private external) __ZNKSt3__110__function6__funcIPFvPvPN3nlp15_TrieCompletionEPbENS_9allocatorIS8_EES7_E7__cloneEv
000000018101aed0 (__TEXT,__text) non-external (was a private external) __ZNKSt3__110__function6__funcIPFvPvPN3nlp15_TrieCompletionEbPbENS_9allocatorIS8_EES7_E11target_typeEv
000000018101ae90 (__TEXT,__text) non-external (was a private external) __ZNKSt3__110__function6__funcIPFvPvPN3nlp15_TrieCompletionEbPbENS_9allocatorIS8_EES7_E6targetERKSt9type_info
000000018101ae4c (__TEXT,__text) non-external (was a private external) __ZNKSt3__110__function6__funcIPFvPvPN3nlp15_TrieCompletionEbPbENS_9allocatorIS8_EES7_E7__cloneEPNS0_6__baseIS7_EE
000000018101ae04 (__TEXT,__text) non-external (was a private external) __ZNKSt3__110__function6__funcIPFvPvPN3nlp15_TrieCompletionEbPbENS_9allocatorIS8_EES7_E7__cloneEv
000000018101e550 (__TEXT,__text) non-external __ZNKSt3__110__function6__funcIZN3nlp15BurstTrieSearchEPKNS2_10_BurstTrieEPKhjPvNS_8functionIFvS8_PNS2_15_TrieCompletionEPbEEEiE3$_0NS_9allocatorISF_EEFvS8_S7_jjfSC_EE11target_typeEv
000000018101e510 (__TEXT,__text) non-external __ZNKSt3__110__function6__funcIZN3nlp15BurstTrieSearchEPKNS2_10_BurstTrieEPKhjPvNS_8functionIFvS8_PNS2_15_TrieCompletionEPbEEEiE3$_0NS_9allocatorISF_EEFvS8_S7_jjfSC_EE6targetERKSt9type_info
000000018101e3dc (__TEXT,__text) non-external __ZNKSt3__110__function6__funcIZN3nlp15BurstTrieSearchEPKNS2_10_BurstTrieEPKhjPvNS_8functionIFvS8_PNS2_15_TrieCompletionEPbEEEiE3$_0NS_9allocatorISF_EEFvS8_S7_jjfSC_EE7__cloneEPNS0_6__baseISI_EE
000000018101e388 (__TEXT,__text) non-external __ZNKSt3__110__function6__funcIZN3nlp15BurstTrieSearchEPKNS2_10_BurstTrieEPKhjPvNS_8functionIFvS8_PNS2_15_TrieCompletionEPbEEEiE3$_0NS_9allocatorISF_EEFvS8_S7_jjfSC_EE7__cloneEv
000000018101e2dc (__TEXT,__text) non-external __ZNKSt3__110__function6__funcIZN3nlpL12reverseBurstIPNS2_10_TrieLevelEPNS2_9_ListNodeEEEvPNS2_10_BurstTrieERKNS_6vectorIT_NS_9allocatorISB_EEEEPKhjEUlPvSI_jjfPbE0_NSC_ISL_EEFvSJ_SI_jjfSK_EE11target_typeEv
000000018101e29c (__TEXT,__text) non-external __ZNKSt3__110__function6__funcIZN3nlpL12reverseBurstIPNS2_10_TrieLevelEPNS2_9_ListNodeEEEvPNS2_10_BurstTrieERKNS_6vectorIT_NS_9allocatorISB_EEEEPKhjEUlPvSI_jjfPbE0_NSC_ISL_EEFvSJ_SI_jjfSK_EE6targetERKSt9type_info
000000018101e154 (__TEXT,__text) non-external __ZNKSt3__110__function6__funcIZN3nlpL12reverseBurstIPNS2_10_TrieLevelEPNS2_9_ListNodeEEEvPNS2_10_BurstTrieERKNS_6vectorIT_NS_9allocatorISB_EEEEPKhjEUlPvSI_jjfPbE0_NSC_ISL_EEFvSJ_SI_jjfSK_EE7__cloneEPNS0_6__baseISN_EE
000000018101e10c (__TEXT,__text) non-external __ZNKSt3__110__function6__funcIZN3nlpL12reverseBurstIPNS2_10_TrieLevelEPNS2_9_ListNodeEEEvPNS2_10_BurstTrieERKNS_6vectorIT_NS_9allocatorISB_EEEEPKhjEUlPvSI_jjfPbE0_NSC_ISL_EEFvSJ_SI_jjfSK_EE7__cloneEv
000000018101e0f8 (__TEXT,__text) non-external __ZNKSt3__110__function6__funcIZN3nlpL12reverseBurstIPNS2_10_TrieLevelEPNS2_9_ListNodeEEEvPNS2_10_BurstTrieERKNS_6vectorIT_NS_9allocatorISB_EEEEPKhjEUlPvSI_jjfPbE_NSC_ISL_EEFvSJ_SI_jjfSK_EE11target_typeEv
000000018101e0b8 (__TEXT,__text) non-external __ZNKSt3__110__function6__funcIZN3nlpL12reverseBurstIPNS2_10_TrieLevelEPNS2_9_ListNodeEEEvPNS2_10_BurstTrieERKNS_6vectorIT_NS_9allocatorISB_EEEEPKhjEUlPvSI_jjfPbE_NSC_ISL_EEFvSJ_SI_jjfSK_EE6targetERKSt9type_info
000000018101e078 (__TEXT,__text) non-external __ZNKSt3__110__function6__funcIZN3nlpL12reverseBurstIPNS2_10_TrieLevelEPNS2_9_ListNodeEEEvPNS2_10_BurstTrieERKNS_6vectorIT_NS_9allocatorISB_EEEEPKhjEUlPvSI_jjfPbE_NSC_ISL_EEFvSJ_SI_jjfSK_EE7__cloneEPNS0_6__baseISN_EE
000000018101e030 (__TEXT,__text) non-external __ZNKSt3__110__function6__funcIZN3nlpL12reverseBurstIPNS2_10_TrieLevelEPNS2_9_ListNodeEEEvPNS2_10_BurstTrieERKNS_6vectorIT_NS_9allocatorISB_EEEEPKhjEUlPvSI_jjfPbE_NSC_ISL_EEFvSJ_SI_jjfSK_EE7__cloneEv
000000018101ddcc (__TEXT,__text) non-external __ZNKSt3__110__function6__funcIZN3nlpL12reverseBurstIPNS2_16_RankedTrieLevelEPNS2_15_RankedListNodeEEEvPNS2_10_BurstTrieERKNS_6vectorIT_NS_9allocatorISB_EEEEPKhjEUlPvSI_jjfPbE0_NSC_ISL_EEFvSJ_SI_jjfSK_EE11target_typeEv
000000018101dd8c (__TEXT,__text) non-external __ZNKSt3__110__function6__funcIZN3nlpL12reverseBurstIPNS2_16_RankedTrieLevelEPNS2_15_RankedListNodeEEEvPNS2_10_BurstTrieERKNS_6vectorIT_NS_9allocatorISB_EEEEPKhjEUlPvSI_jjfPbE0_NSC_ISL_EEFvSJ_SI_jjfSK_EE6targetERKSt9type_info
000000018101dc44 (__TEXT,__text) non-external __ZNKSt3__110__function6__funcIZN3nlpL12reverseBurstIPNS2_16_RankedTrieLevelEPNS2_15_RankedListNodeEEEvPNS2_10_BurstTrieERKNS_6vectorIT_NS_9allocatorISB_EEEEPKhjEUlPvSI_jjfPbE0_NSC_ISL_EEFvSJ_SI_jjfSK_EE7__cloneEPNS0_6__baseISN_EE
000000018101dbfc (__TEXT,__text) non-external __ZNKSt3__110__function6__funcIZN3nlpL12reverseBurstIPNS2_16_RankedTrieLevelEPNS2_15_RankedListNodeEEEvPNS2_10_BurstTrieERKNS_6vectorIT_NS_9allocatorISB_EEEEPKhjEUlPvSI_jjfPbE0_NSC_ISL_EEFvSJ_SI_jjfSK_EE7__cloneEv
000000018101dad4 (__TEXT,__text) non-external __ZNKSt3__110__function6__funcIZN3nlpL12reverseBurstIPNS2_16_RankedTrieLevelEPNS2_15_RankedListNodeEEEvPNS2_10_BurstTrieERKNS_6vectorIT_NS_9allocatorISB_EEEEPKhjEUlPvSI_jjfPbE_NSC_ISL_EEFvSJ_SI_jjfSK_EE11target_typeEv
000000018101da94 (__TEXT,__text) non-external __ZNKSt3__110__function6__funcIZN3nlpL12reverseBurstIPNS2_16_RankedTrieLevelEPNS2_15_RankedListNodeEEEvPNS2_10_BurstTrieERKNS_6vectorIT_NS_9allocatorISB_EEEEPKhjEUlPvSI_jjfPbE_NSC_ISL_EEFvSJ_SI_jjfSK_EE6targetERKSt9type_info
000000018101da54 (__TEXT,__text) non-external __ZNKSt3__110__function6__funcIZN3nlpL12reverseBurstIPNS2_16_RankedTrieLevelEPNS2_15_RankedListNodeEEEvPNS2_10_BurstTrieERKNS_6vectorIT_NS_9allocatorISB_EEEEPKhjEUlPvSI_jjfPbE_NSC_ISL_EEFvSJ_SI_jjfSK_EE7__cloneEPNS0_6__baseISN_EE
000000018101da0c (__TEXT,__text) non-external __ZNKSt3__110__function6__funcIZN3nlpL12reverseBurstIPNS2_16_RankedTrieLevelEPNS2_15_RankedListNodeEEEvPNS2_10_BurstTrieERKNS_6vectorIT_NS_9allocatorISB_EEEEPKhjEUlPvSI_jjfPbE_NSC_ISL_EEFvSJ_SI_jjfSK_EE7__cloneEv
0000000181003ba0 (__TEXT,__text) non-external (was a private external) __ZNKSt3__112__hash_tableINS_17__hash_value_typeIjiEENS_22__unordered_map_hasherIjS2_NS_4hashIjEENS_8equal_toIjEELb1EEENS_21__unordered_map_equalIjS2_S7_S5_Lb1EEENS_9allocatorIS2_EEE4findIjEENS_21__hash_const_iteratorIPNS_11__hash_nodeIS2_PvEEEERKT_
0000000181005cf4 (__TEXT,__text) non-external (was a private external) __ZNKSt3__112basic_stringIcNS_11char_traitsIcEENS_9allocatorIcEEE20__throw_length_errorEv
0000000181003c54 (__TEXT,__text) non-external (was a private external) __ZNKSt3__113__vector_baseIN26ME_Efficient_Model_Trainer10ME_FeatureENS_9allocatorIS2_EEE20__throw_length_errorEv
0000000181004e78 (__TEXT,__text) non-external (was a private external) __ZNKSt3__113__vector_baseIN26ME_Efficient_Model_Trainer6SampleENS_9allocatorIS2_EEE20__throw_length_errorEv
0000000181005524 (__TEXT,__text) non-external (was a private external) __ZNKSt3__113__vector_baseINS_12basic_stringIcNS_11char_traitsIcEENS_9allocatorIcEEEENS4_IS6_EEE20__throw_length_errorEv
00000001810085a0 (__TEXT,__text) non-external (was a private external) __ZNKSt3__113__vector_baseINS_4pairINS_12basic_stringIcNS_11char_traitsIcEENS_9allocatorIcEEEEdEENS5_IS8_EEE20__throw_length_errorEv
0000000181004ff8 (__TEXT,__text) non-external (was a private external) __ZNKSt3__113__vector_baseINS_4pairIidEENS_9allocatorIS2_EEE20__throw_length_errorEv
000000018101dee8 (__TEXT,__text) non-external (was a private external) __ZNKSt3__113__vector_baseINS_5tupleIJNS_12basic_stringIcNS_11char_traitsIcEENS_9allocatorIcEEEEjfEEENS5_IS8_EEE20__throw_length_errorEv
0000000181005c8c (__TEXT,__text) non-external (was a private external) __ZNKSt3__113__vector_baseINS_6vectorIiNS_9allocatorIiEEEENS2_IS4_EEE20__throw_length_errorEv
000000018101df8c (__TEXT,__text) non-external (was a private external) __ZNKSt3__113__vector_baseIPN3nlp10_TrieLevelENS_9allocatorIS3_EEE20__throw_length_errorEv
000000018101d8b4 (__TEXT,__text) non-external (was a private external) __ZNKSt3__113__vector_baseIPN3nlp16_RankedTrieLevelENS_9allocatorIS3_EEE20__throw_length_errorEv
0000000180ff62e0 (__TEXT,__text) non-external (was a private external) __ZNKSt3__113__vector_baseIdNS_9allocatorIdEEE20__throw_length_errorEv
0000000180ffcaf0 (__TEXT,__text) non-external (was a private external) __ZNKSt3__113__vector_baseIiNS_9allocatorIiEEE20__throw_length_errorEv
                 (undefined) external __ZNKSt3__120__vector_base_commonILb1EE20__throw_length_errorEv (from libc++)
                 (undefined) external __ZNKSt3__121__basic_string_commonILb1EE20__throw_length_errorEv (from libc++)
0000000181003d68 (__TEXT,__text) non-external (was a private external) __ZNKSt3__121__unordered_map_equalINS_12basic_stringIcNS_11char_traitsIcEENS_9allocatorIcEEEENS_17__hash_value_typeIS6_iEENS_8equal_toIS6_EENS_4hashIS6_EELb1EEclERKS8_RKS6_
0000000181003e34 (__TEXT,__text) non-external (was a private external) __ZNKSt3__14hashINS_12basic_stringIcNS_11char_traitsIcEENS_9allocatorIcEEEEEclERKS6_
                 (undefined) external __ZNKSt3__16locale9use_facetERNS0_2idE (from libc++)
000000018101977c (__TEXT,__text) non-external (was a private external) __ZNKSt3__18functionIFfPvffEEclES1_ff
00000001810168f8 (__TEXT,__text) non-external (was a private external) __ZNKSt3__18functionIFvPvPKhjjfPbEEclES1_S3_jjfS4_
000000018101ad9c (__TEXT,__text) non-external (was a private external) __ZNKSt3__18functionIFvPvPN3nlp15_TrieCompletionEPbEEclES1_S4_S5_
000000018101ac98 (__TEXT,__text) non-external (was a private external) __ZNKSt3__18functionIFvPvPN3nlp15_TrieCompletionEbPbEEclES1_S4_bS5_
                 (undefined) external __ZNKSt3__18ios_base6getlocEv (from libc++)
                 (undefined) external __ZNKSt9exception4whatEv (from libc++)
000000018100761c (__TEXT,__text) non-external (was a private external) __ZNKSt9type_infoeqERKS_
                 (undefined) external __ZNSt11logic_errorC2EPKc (from libc++)
0000000180ff634c (__TEXT,__text) non-external (was a private external) __ZNSt12length_errorC1EPKc
                 (undefined) external __ZNSt12length_errorD1Ev (from libc++)
000000018101d81c (__TEXT,__text) non-external (was a private external) __ZNSt3__110__function12__value_funcIFfPvffEEC2ERKS4_
0000000181007594 (__TEXT,__text) non-external (was a private external) __ZNSt3__110__function12__value_funcIFfPvffEED2Ev
000000018101e5dc (__TEXT,__text) non-external (was a private external) __ZNSt3__110__function12__value_funcIFvPvPKhjjfPbEEC2ERKS7_
000000018101e55c (__TEXT,__text) non-external (was a private external) __ZNSt3__110__function12__value_funcIFvPvPKhjjfPbEED2Ev
000000018101e2e8 (__TEXT,__text) non-external (was a private external) __ZNSt3__110__function12__value_funcIFvPvPN3nlp15_TrieCompletionEPbEEC2ERKS8_
0000000181007668 (__TEXT,__text) non-external (was a private external) __ZNSt3__110__function12__value_funcIFvPvPN3nlp15_TrieCompletionEPbEED2Ev
000000018101ad04 (__TEXT,__text) non-external (was a private external) __ZNSt3__110__function12__value_funcIFvPvPN3nlp15_TrieCompletionEbPbEEC2ERKS8_
000000018101aedc (__TEXT,__text) non-external (was a private external) __ZNSt3__110__function12__value_funcIFvPvPN3nlp15_TrieCompletionEbPbEED2Ev
000000018101d7b8 (__TEXT,__text) non-external (was a private external) __ZNSt3__110__function6__funcIPFvPvPN3nlp15_TrieCompletionEPbENS_9allocatorIS8_EES7_E18destroy_deallocateEv
000000018101d7b4 (__TEXT,__text) non-external (was a private external) __ZNSt3__110__function6__funcIPFvPvPN3nlp15_TrieCompletionEPbENS_9allocatorIS8_EES7_E7destroyEv
0000000181007618 (__TEXT,__text) non-external (was a private external) __ZNSt3__110__function6__funcIPFvPvPN3nlp15_TrieCompletionEPbENS_9allocatorIS8_EES7_ED0Ev
0000000181007614 (__TEXT,__text) non-external (was a private external) __ZNSt3__110__function6__funcIPFvPvPN3nlp15_TrieCompletionEPbENS_9allocatorIS8_EES7_ED1Ev
000000018101d7bc (__TEXT,__text) non-external (was a private external) __ZNSt3__110__function6__funcIPFvPvPN3nlp15_TrieCompletionEPbENS_9allocatorIS8_EES7_EclEOS2_OS5_OS6_
000000018101ae74 (__TEXT,__text) non-external (was a private external) __ZNSt3__110__function6__funcIPFvPvPN3nlp15_TrieCompletionEbPbENS_9allocatorIS8_EES7_E18destroy_deallocateEv
000000018101ae70 (__TEXT,__text) non-external (was a private external) __ZNSt3__110__function6__funcIPFvPvPN3nlp15_TrieCompletionEbPbENS_9allocatorIS8_EES7_E7destroyEv
000000018101ae00 (__TEXT,__text) non-external (was a private external) __ZNSt3__110__function6__funcIPFvPvPN3nlp15_TrieCompletionEbPbENS_9allocatorIS8_EES7_ED0Ev
000000018101adfc (__TEXT,__text) non-external (was a private external) __ZNSt3__110__function6__funcIPFvPvPN3nlp15_TrieCompletionEbPbENS_9allocatorIS8_EES7_ED1Ev
000000018101ae78 (__TEXT,__text) non-external (was a private external) __ZNSt3__110__function6__funcIPFvPvPN3nlp15_TrieCompletionEbPbENS_9allocatorIS8_EES7_EclEOS2_OS5_ObOS6_
000000018101e410 (__TEXT,__text) non-external __ZNSt3__110__function6__funcIZN3nlp15BurstTrieSearchEPKNS2_10_BurstTrieEPKhjPvNS_8functionIFvS8_PNS2_15_TrieCompletionEPbEEEiE3$_0NS_9allocatorISF_EEFvS8_S7_jjfSC_EE18destroy_deallocateEv
000000018101e40c (__TEXT,__text) non-external __ZNSt3__110__function6__funcIZN3nlp15BurstTrieSearchEPKNS2_10_BurstTrieEPKhjPvNS_8functionIFvS8_PNS2_15_TrieCompletionEPbEEEiE3$_0NS_9allocatorISF_EEFvS8_S7_jjfSC_EE7destroyEv
000000018101e384 (__TEXT,__text) non-external __ZNSt3__110__function6__funcIZN3nlp15BurstTrieSearchEPKNS2_10_BurstTrieEPKhjPvNS_8functionIFvS8_PNS2_15_TrieCompletionEPbEEEiE3$_0NS_9allocatorISF_EEFvS8_S7_jjfSC_EED0Ev
000000018101e380 (__TEXT,__text) non-external __ZNSt3__110__function6__funcIZN3nlp15BurstTrieSearchEPKNS2_10_BurstTrieEPKhjPvNS_8functionIFvS8_PNS2_15_TrieCompletionEPbEEEiE3$_0NS_9allocatorISF_EEFvS8_S7_jjfSC_EED1Ev
000000018101e414 (__TEXT,__text) non-external __ZNSt3__110__function6__funcIZN3nlp15BurstTrieSearchEPKNS2_10_BurstTrieEPKhjPvNS_8functionIFvS8_PNS2_15_TrieCompletionEPbEEEiE3$_0NS_9allocatorISF_EEFvS8_S7_jjfSC_EEclEOS8_OS7_OjSM_OfOSC_
000000018101e17c (__TEXT,__text) non-external __ZNSt3__110__function6__funcIZN3nlpL12reverseBurstIPNS2_10_TrieLevelEPNS2_9_ListNodeEEEvPNS2_10_BurstTrieERKNS_6vectorIT_NS_9allocatorISB_EEEEPKhjEUlPvSI_jjfPbE0_NSC_ISL_EEFvSJ_SI_jjfSK_EE18destroy_deallocateEv
000000018101e178 (__TEXT,__text) non-external __ZNSt3__110__function6__funcIZN3nlpL12reverseBurstIPNS2_10_TrieLevelEPNS2_9_ListNodeEEEvPNS2_10_BurstTrieERKNS_6vectorIT_NS_9allocatorISB_EEEEPKhjEUlPvSI_jjfPbE0_NSC_ISL_EEFvSJ_SI_jjfSK_EE7destroyEv
000000018101e108 (__TEXT,__text) non-external __ZNSt3__110__function6__funcIZN3nlpL12reverseBurstIPNS2_10_TrieLevelEPNS2_9_ListNodeEEEvPNS2_10_BurstTrieERKNS_6vectorIT_NS_9allocatorISB_EEEEPKhjEUlPvSI_jjfPbE0_NSC_ISL_EEFvSJ_SI_jjfSK_EED0Ev
000000018101e104 (__TEXT,__text) non-external __ZNSt3__110__function6__funcIZN3nlpL12reverseBurstIPNS2_10_TrieLevelEPNS2_9_ListNodeEEEvPNS2_10_BurstTrieERKNS_6vectorIT_NS_9allocatorISB_EEEEPKhjEUlPvSI_jjfPbE0_NSC_ISL_EEFvSJ_SI_jjfSK_EED1Ev
000000018101e180 (__TEXT,__text) non-external __ZNSt3__110__function6__funcIZN3nlpL12reverseBurstIPNS2_10_TrieLevelEPNS2_9_ListNodeEEEvPNS2_10_BurstTrieERKNS_6vectorIT_NS_9allocatorISB_EEEEPKhjEUlPvSI_jjfPbE0_NSC_ISL_EEFvSJ_SI_jjfSK_EEclEOSJ_OSI_OjSR_OfOSK_
000000018101e0a0 (__TEXT,__text) non-external __ZNSt3__110__function6__funcIZN3nlpL12reverseBurstIPNS2_10_TrieLevelEPNS2_9_ListNodeEEEvPNS2_10_BurstTrieERKNS_6vectorIT_NS_9allocatorISB_EEEEPKhjEUlPvSI_jjfPbE_NSC_ISL_EEFvSJ_SI_jjfSK_EE18destroy_deallocateEv
000000018101e09c (__TEXT,__text) non-external __ZNSt3__110__function6__funcIZN3nlpL12reverseBurstIPNS2_10_TrieLevelEPNS2_9_ListNodeEEEvPNS2_10_BurstTrieERKNS_6vectorIT_NS_9allocatorISB_EEEEPKhjEUlPvSI_jjfPbE_NSC_ISL_EEFvSJ_SI_jjfSK_EE7destroyEv
000000018101e02c (__TEXT,__text) non-external __ZNSt3__110__function6__funcIZN3nlpL12reverseBurstIPNS2_10_TrieLevelEPNS2_9_ListNodeEEEvPNS2_10_BurstTrieERKNS_6vectorIT_NS_9allocatorISB_EEEEPKhjEUlPvSI_jjfPbE_NSC_ISL_EEFvSJ_SI_jjfSK_EED0Ev
000000018101e028 (__TEXT,__text) non-external __ZNSt3__110__function6__funcIZN3nlpL12reverseBurstIPNS2_10_TrieLevelEPNS2_9_ListNodeEEEvPNS2_10_BurstTrieERKNS_6vectorIT_NS_9allocatorISB_EEEEPKhjEUlPvSI_jjfPbE_NSC_ISL_EEFvSJ_SI_jjfSK_EED1Ev
000000018101e0a4 (__TEXT,__text) non-external __ZNSt3__110__function6__funcIZN3nlpL12reverseBurstIPNS2_10_TrieLevelEPNS2_9_ListNodeEEEvPNS2_10_BurstTrieERKNS_6vectorIT_NS_9allocatorISB_EEEEPKhjEUlPvSI_jjfPbE_NSC_ISL_EEFvSJ_SI_jjfSK_EEclEOSJ_OSI_OjSR_OfOSK_
000000018101dc6c (__TEXT,__text) non-external __ZNSt3__110__function6__funcIZN3nlpL12reverseBurstIPNS2_16_RankedTrieLevelEPNS2_15_RankedListNodeEEEvPNS2_10_BurstTrieERKNS_6vectorIT_NS_9allocatorISB_EEEEPKhjEUlPvSI_jjfPbE0_NSC_ISL_EEFvSJ_SI_jjfSK_EE18destroy_deallocateEv
000000018101dc68 (__TEXT,__text) non-external __ZNSt3__110__function6__funcIZN3nlpL12reverseBurstIPNS2_16_RankedTrieLevelEPNS2_15_RankedListNodeEEEvPNS2_10_BurstTrieERKNS_6vectorIT_NS_9allocatorISB_EEEEPKhjEUlPvSI_jjfPbE0_NSC_ISL_EEFvSJ_SI_jjfSK_EE7destroyEv
000000018101dbf8 (__TEXT,__text) non-external __ZNSt3__110__function6__funcIZN3nlpL12reverseBurstIPNS2_16_RankedTrieLevelEPNS2_15_RankedListNodeEEEvPNS2_10_BurstTrieERKNS_6vectorIT_NS_9allocatorISB_EEEEPKhjEUlPvSI_jjfPbE0_NSC_ISL_EEFvSJ_SI_jjfSK_EED0Ev
000000018101dbf4 (__TEXT,__text) non-external __ZNSt3__110__function6__funcIZN3nlpL12reverseBurstIPNS2_16_RankedTrieLevelEPNS2_15_RankedListNodeEEEvPNS2_10_BurstTrieERKNS_6vectorIT_NS_9allocatorISB_EEEEPKhjEUlPvSI_jjfPbE0_NSC_ISL_EEFvSJ_SI_jjfSK_EED1Ev
000000018101dc70 (__TEXT,__text) non-external __ZNSt3__110__function6__funcIZN3nlpL12reverseBurstIPNS2_16_RankedTrieLevelEPNS2_15_RankedListNodeEEEvPNS2_10_BurstTrieERKNS_6vectorIT_NS_9allocatorISB_EEEEPKhjEUlPvSI_jjfPbE0_NSC_ISL_EEFvSJ_SI_jjfSK_EEclEOSJ_OSI_OjSR_OfOSK_
000000018101da7c (__TEXT,__text) non-external __ZNSt3__110__function6__funcIZN3nlpL12reverseBurstIPNS2_16_RankedTrieLevelEPNS2_15_RankedListNodeEEEvPNS2_10_BurstTrieERKNS_6vectorIT_NS_9allocatorISB_EEEEPKhjEUlPvSI_jjfPbE_NSC_ISL_EEFvSJ_SI_jjfSK_EE18destroy_deallocateEv
000000018101da78 (__TEXT,__text) non-external __ZNSt3__110__function6__funcIZN3nlpL12reverseBurstIPNS2_16_RankedTrieLevelEPNS2_15_RankedListNodeEEEvPNS2_10_BurstTrieERKNS_6vectorIT_NS_9allocatorISB_EEEEPKhjEUlPvSI_jjfPbE_NSC_ISL_EEFvSJ_SI_jjfSK_EE7destroyEv
000000018101da08 (__TEXT,__text) non-external __ZNSt3__110__function6__funcIZN3nlpL12reverseBurstIPNS2_16_RankedTrieLevelEPNS2_15_RankedListNodeEEEvPNS2_10_BurstTrieERKNS_6vectorIT_NS_9allocatorISB_EEEEPKhjEUlPvSI_jjfPbE_NSC_ISL_EEFvSJ_SI_jjfSK_EED0Ev
000000018101da04 (__TEXT,__text) non-external __ZNSt3__110__function6__funcIZN3nlpL12reverseBurstIPNS2_16_RankedTrieLevelEPNS2_15_RankedListNodeEEEvPNS2_10_BurstTrieERKNS_6vectorIT_NS_9allocatorISB_EEEEPKhjEUlPvSI_jjfPbE_NSC_ISL_EEFvSJ_SI_jjfSK_EED1Ev
000000018101da80 (__TEXT,__text) non-external __ZNSt3__110__function6__funcIZN3nlpL12reverseBurstIPNS2_16_RankedTrieLevelEPNS2_15_RankedListNodeEEEvPNS2_10_BurstTrieERKNS_6vectorIT_NS_9allocatorISB_EEEEPKhjEUlPvSI_jjfPbE_NSC_ISL_EEFvSJ_SI_jjfSK_EEclEOSJ_OSI_OjSR_OfOSK_
0000000181003b24 (__TEXT,__text) non-external (was a private external) __ZNSt3__112__hash_tableINS_17__hash_value_typeINS_12basic_stringIcNS_11char_traitsIcEENS_9allocatorIcEEEEiEENS_22__unordered_map_hasherIS7_S8_NS_4hashIS7_EENS_8equal_toIS7_EELb1EEENS_21__unordered_map_equalIS7_S8_SD_SB_Lb1EEENS5_IS8_EEE17__deallocate_nodeEPNS_16__hash_node_baseIPNS_11__hash_nodeIS8_PvEEEE
0000000181004574 (__TEXT,__text) non-external (was a private external) __ZNSt3__112__hash_tableINS_17__hash_value_typeINS_12basic_stringIcNS_11char_traitsIcEENS_9allocatorIcEEEEiEENS_22__unordered_map_hasherIS7_S8_NS_4hashIS7_EENS_8equal_toIS7_EELb1EEENS_21__unordered_map_equalIS7_S8_SD_SB_Lb1EEENS5_IS8_EEE21__construct_node_hashIRKNS_21piecewise_construct_tEJNS_5tupleIJRKS7_EEENSN_IJEEEEEENS_10unique_ptrINS_11__hash_nodeIS8_PvEENS_22__hash_node_destructorINS5_ISV_EEEEEEmOT_DpOT0_
0000000181005360 (__TEXT,__text) non-external (was a private external) __ZNSt3__112__hash_tableINS_17__hash_value_typeINS_12basic_stringIcNS_11char_traitsIcEENS_9allocatorIcEEEEiEENS_22__unordered_map_hasherIS7_S8_NS_4hashIS7_EENS_8equal_toIS7_EELb1EEENS_21__unordered_map_equalIS7_S8_SD_SB_Lb1EEENS5_IS8_EEE21__construct_node_hashIRKNS_4pairIKS7_iEEJEEENS_10unique_ptrINS_11__hash_nodeIS8_PvEENS_22__hash_node_destructorINS5_ISS_EEEEEEmOT_DpOT0_
00000001810042f4 (__TEXT,__text) non-external (was a private external) __ZNSt3__112__hash_tableINS_17__hash_value_typeINS_12basic_stringIcNS_11char_traitsIcEENS_9allocatorIcEEEEiEENS_22__unordered_map_hasherIS7_S8_NS_4hashIS7_EENS_8equal_toIS7_EELb1EEENS_21__unordered_map_equalIS7_S8_SD_SB_Lb1EEENS5_IS8_EEE25__emplace_unique_key_argsIS7_JRKNS_21piecewise_construct_tENS_5tupleIJRKS7_EEENSN_IJEEEEEENS_4pairINS_15__hash_iteratorIPNS_11__hash_nodeIS8_PvEEEEbEERKT_DpOT0_
00000001810050f8 (__TEXT,__text) non-external (was a private external) __ZNSt3__112__hash_tableINS_17__hash_value_typeINS_12basic_stringIcNS_11char_traitsIcEENS_9allocatorIcEEEEiEENS_22__unordered_map_hasherIS7_S8_NS_4hashIS7_EENS_8equal_toIS7_EELb1EEENS_21__unordered_map_equalIS7_S8_SD_SB_Lb1EEENS5_IS8_EEE25__emplace_unique_key_argsIS7_JRKNS_4pairIKS7_iEEEEENSK_INS_15__hash_iteratorIPNS_11__hash_nodeIS8_PvEEEEbEERKT_DpOT0_
0000000181003c64 (__TEXT,__text) non-external (was a private external) __ZNSt3__112__hash_tableINS_17__hash_value_typeINS_12basic_stringIcNS_11char_traitsIcEENS_9allocatorIcEEEEiEENS_22__unordered_map_hasherIS7_S8_NS_4hashIS7_EENS_8equal_toIS7_EELb1EEENS_21__unordered_map_equalIS7_S8_SD_SB_Lb1EEENS5_IS8_EEE4findIS7_EENS_15__hash_iteratorIPNS_11__hash_nodeIS8_PvEEEERKT_
00000001810049cc (__TEXT,__text) non-external (was a private external) __ZNSt3__112__hash_tableINS_17__hash_value_typeINS_12basic_stringIcNS_11char_traitsIcEENS_9allocatorIcEEEEiEENS_22__unordered_map_hasherIS7_S8_NS_4hashIS7_EENS_8equal_toIS7_EELb1EEENS_21__unordered_map_equalIS7_S8_SD_SB_Lb1EEENS5_IS8_EEE5clearEv
00000001810045fc (__TEXT,__text) non-external (was a private external) __ZNSt3__112__hash_tableINS_17__hash_value_typeINS_12basic_stringIcNS_11char_traitsIcEENS_9allocatorIcEEEEiEENS_22__unordered_map_hasherIS7_S8_NS_4hashIS7_EENS_8equal_toIS7_EELb1EEENS_21__unordered_map_equalIS7_S8_SD_SB_Lb1EEENS5_IS8_EEE6rehashEm
00000001810046ec (__TEXT,__text) non-external (was a private external) __ZNSt3__112__hash_tableINS_17__hash_value_typeINS_12basic_stringIcNS_11char_traitsIcEENS_9allocatorIcEEEEiEENS_22__unordered_map_hasherIS7_S8_NS_4hashIS7_EENS_8equal_toIS7_EELb1EEENS_21__unordered_map_equalIS7_S8_SD_SB_Lb1EEENS5_IS8_EEE8__rehashEm
0000000181003ae8 (__TEXT,__text) non-external (was a private external) __ZNSt3__112__hash_tableINS_17__hash_value_typeINS_12basic_stringIcNS_11char_traitsIcEENS_9allocatorIcEEEEiEENS_22__unordered_map_hasherIS7_S8_NS_4hashIS7_EENS_8equal_toIS7_EELb1EEENS_21__unordered_map_equalIS7_S8_SD_SB_Lb1EEENS5_IS8_EEED2Ev
0000000181005f4c (__TEXT,__text) non-external (was a private external) __ZNSt3__112__hash_tableINS_17__hash_value_typeIjiEENS_22__unordered_map_hasherIjS2_NS_4hashIjEENS_8equal_toIjEELb1EEENS_21__unordered_map_equalIjS2_S7_S5_Lb1EEENS_9allocatorIS2_EEE25__emplace_unique_key_argsIjJRKNS_21piecewise_construct_tENS_5tupleIJOjEEENSI_IJEEEEEENS_4pairINS_15__hash_iteratorIPNS_11__hash_nodeIS2_PvEEEEbEERKT_DpOT0_
0000000181005818 (__TEXT,__text) non-external (was a private external) __ZNSt3__112__hash_tableINS_17__hash_value_typeIjiEENS_22__unordered_map_hasherIjS2_NS_4hashIjEENS_8equal_toIjEELb1EEENS_21__unordered_map_equalIjS2_S7_S5_Lb1EEENS_9allocatorIS2_EEE25__emplace_unique_key_argsIjJRKNS_4pairIKjiEEEEENSF_INS_15__hash_iteratorIPNS_11__hash_nodeIS2_PvEEEEbEERKT_DpOT0_
0000000181003ba0 (__TEXT,__text) non-external (was a private external) __ZNSt3__112__hash_tableINS_17__hash_value_typeIjiEENS_22__unordered_map_hasherIjS2_NS_4hashIjEENS_8equal_toIjEELb1EEENS_21__unordered_map_equalIjS2_S7_S5_Lb1EEENS_9allocatorIS2_EEE4findIjEENS_15__hash_iteratorIPNS_11__hash_nodeIS2_PvEEEERKT_
0000000181006164 (__TEXT,__text) non-external (was a private external) __ZNSt3__112__hash_tableINS_17__hash_value_typeIjiEENS_22__unordered_map_hasherIjS2_NS_4hashIjEENS_8equal_toIjEELb1EEENS_21__unordered_map_equalIjS2_S7_S5_Lb1EEENS_9allocatorIS2_EEE5clearEv
00000001810055ac (__TEXT,__text) non-external (was a private external) __ZNSt3__112__hash_tableINS_17__hash_value_typeIjiEENS_22__unordered_map_hasherIjS2_NS_4hashIjEENS_8equal_toIjEELb1EEENS_21__unordered_map_equalIjS2_S7_S5_Lb1EEENS_9allocatorIS2_EEE6rehashEm
000000018100569c (__TEXT,__text) non-external (was a private external) __ZNSt3__112__hash_tableINS_17__hash_value_typeIjiEENS_22__unordered_map_hasherIjS2_NS_4hashIjEENS_8equal_toIjEELb1EEENS_21__unordered_map_equalIjS2_S7_S5_Lb1EEENS_9allocatorIS2_EEE8__rehashEm
0000000181005a2c (__TEXT,__text) non-external (was a private external) __ZNSt3__112__hash_tableINS_17__hash_value_typeIjiEENS_22__unordered_map_hasherIjS2_NS_4hashIjEENS_8equal_toIjEELb1EEENS_21__unordered_map_equalIjS2_S7_S5_Lb1EEENS_9allocatorIS2_EEED2Ev
                 (undefined) external __ZNSt3__112__next_primeEm (from libc++)
                 (undefined) external __ZNSt3__112__rs_defaultD1Ev (from libc++)
                 (undefined) external __ZNSt3__112__rs_defaultclEv (from libc++)
                 (undefined) external __ZNSt3__112basic_stringIcNS_11char_traitsIcEENS_9allocatorIcEEE6appendEPKc (from libc++)
                 (undefined) external __ZNSt3__112basic_stringIcNS_11char_traitsIcEENS_9allocatorIcEEE6appendEPKcm (from libc++)
                 (undefined) external __ZNSt3__112basic_stringIcNS_11char_traitsIcEENS_9allocatorIcEEE6assignEPKc (from libc++)
                 (undefined) external __ZNSt3__112basic_stringIcNS_11char_traitsIcEENS_9allocatorIcEEEC1ERKS5_ (from libc++)
0000000181007824 (__TEXT,__text) non-external (was a private external) __ZNSt3__112basic_stringIcNS_11char_traitsIcEENS_9allocatorIcEEEC1IDnEEPKc
                 (undefined) external __ZNSt3__112basic_stringIcNS_11char_traitsIcEENS_9allocatorIcEEEaSERKS5_ (from libc++)
0000000181005008 (__TEXT,__text) non-external (was a private external) __ZNSt3__113__vector_baseIN26ME_Efficient_Model_Trainer6SampleENS_9allocatorIS2_EEE5clearEv
0000000181004e3c (__TEXT,__text) non-external (was a private external) __ZNSt3__113__vector_baseIN26ME_Efficient_Model_Trainer6SampleENS_9allocatorIS2_EEED2Ev
0000000181004a24 (__TEXT,__text) non-external (was a private external) __ZNSt3__113__vector_baseINS_12basic_stringIcNS_11char_traitsIcEENS_9allocatorIcEEEENS4_IS6_EEE5clearEv
00000001810054e8 (__TEXT,__text) non-external (was a private external) __ZNSt3__113__vector_baseINS_12basic_stringIcNS_11char_traitsIcEENS_9allocatorIcEEEENS4_IS6_EEED2Ev
0000000181008640 (__TEXT,__text) non-external (was a private external) __ZNSt3__113__vector_baseINS_4pairINS_12basic_stringIcNS_11char_traitsIcEENS_9allocatorIcEEEEdEENS5_IS8_EEE5clearEv
0000000181008698 (__TEXT,__text) non-external (was a private external) __ZNSt3__113__vector_baseINS_4pairINS_12basic_stringIcNS_11char_traitsIcEENS_9allocatorIcEEEEdEENS5_IS8_EEED2Ev
000000018101df34 (__TEXT,__text) non-external (was a private external) __ZNSt3__113__vector_baseINS_5tupleIJNS_12basic_stringIcNS_11char_traitsIcEENS_9allocatorIcEEEEjfEEENS5_IS8_EEE5clearEv
000000018101def8 (__TEXT,__text) non-external (was a private external) __ZNSt3__113__vector_baseINS_5tupleIJNS_12basic_stringIcNS_11char_traitsIcEENS_9allocatorIcEEEEjfEEENS5_IS8_EEED2Ev
0000000181005c9c (__TEXT,__text) non-external (was a private external) __ZNSt3__113__vector_baseINS_6vectorIiNS_9allocatorIiEEEENS2_IS4_EEE5clearEv
0000000181005c50 (__TEXT,__text) non-external (was a private external) __ZNSt3__113__vector_baseINS_6vectorIiNS_9allocatorIiEEEENS2_IS4_EEED2Ev
                 (undefined) external __ZNSt3__113basic_ostreamIcNS_11char_traitsIcEEE3putEc (from libc++)
                 (undefined) external __ZNSt3__113basic_ostreamIcNS_11char_traitsIcEEE5flushEv (from libc++)
                 (undefined) external __ZNSt3__113basic_ostreamIcNS_11char_traitsIcEEE6sentryC1ERS3_ (from libc++)
                 (undefined) external __ZNSt3__113basic_ostreamIcNS_11char_traitsIcEEE6sentryD1Ev (from libc++)
                 (undefined) external __ZNSt3__113basic_ostreamIcNS_11char_traitsIcEEElsEd (from libc++)
                 (undefined) external __ZNSt3__113basic_ostreamIcNS_11char_traitsIcEEElsEi (from libc++)
                 (undefined) external __ZNSt3__113basic_ostreamIcNS_11char_traitsIcEEElsEm (from libc++)
0000000181005080 (__TEXT,__text) non-external (was a private external) __ZNSt3__113unordered_mapINS_12basic_stringIcNS_11char_traitsIcEENS_9allocatorIcEEEEiNS_4hashIS6_EENS_8equal_toIS6_EENS4_INS_4pairIKS6_iEEEEEC2ERKSF_
0000000181005534 (__TEXT,__text) non-external (was a private external) __ZNSt3__113unordered_mapIjiNS_4hashIjEENS_8equal_toIjEENS_9allocatorINS_4pairIKjiEEEEEC2ERKSA_
00000001810066bc (__TEXT,__text) non-external (was a private external) __ZNSt3__114__split_bufferIN26ME_Efficient_Model_Trainer6SampleERNS_9allocatorIS2_EEEC2EmmS5_
00000001810067cc (__TEXT,__text) non-external (was a private external) __ZNSt3__114__split_bufferIN26ME_Efficient_Model_Trainer6SampleERNS_9allocatorIS2_EEED2Ev
0000000181005ef4 (__TEXT,__text) non-external (was a private external) __ZNSt3__114__split_bufferINS_12basic_stringIcNS_11char_traitsIcEENS_9allocatorIcEEEERNS4_IS6_EEE17__destruct_at_endEPS6_
0000000181005e38 (__TEXT,__text) non-external (was a private external) __ZNSt3__114__split_bufferINS_12basic_stringIcNS_11char_traitsIcEENS_9allocatorIcEEEERNS4_IS6_EEEC2EmmS8_
0000000181005ebc (__TEXT,__text) non-external (was a private external) __ZNSt3__114__split_bufferINS_12basic_stringIcNS_11char_traitsIcEENS_9allocatorIcEEEERNS4_IS6_EEED2Ev
00000001810085e8 (__TEXT,__text) non-external (was a private external) __ZNSt3__114__split_bufferINS_4pairINS_12basic_stringIcNS_11char_traitsIcEENS_9allocatorIcEEEEdEERNS5_IS8_EEE17__destruct_at_endEPS8_
00000001810085b0 (__TEXT,__text) non-external (was a private external) __ZNSt3__114__split_bufferINS_4pairINS_12basic_stringIcNS_11char_traitsIcEENS_9allocatorIcEEEEdEERNS5_IS8_EEED2Ev
000000018101db9c (__TEXT,__text) non-external (was a private external) __ZNSt3__114__split_bufferINS_5tupleIJNS_12basic_stringIcNS_11char_traitsIcEENS_9allocatorIcEEEEjfEEERNS5_IS8_EEE17__destruct_at_endEPS8_
000000018101db64 (__TEXT,__text) non-external (was a private external) __ZNSt3__114__split_bufferINS_5tupleIJNS_12basic_stringIcNS_11char_traitsIcEENS_9allocatorIcEEEEjfEEERNS5_IS8_EEED2Ev
0000000181006400 (__TEXT,__text) non-external (was a private external) __ZNSt3__114__split_bufferINS_6vectorIiNS_9allocatorIiEEEERNS2_IS4_EEE17__destruct_at_endEPS4_
0000000181005e38 (__TEXT,__text) non-external (was a private external) __ZNSt3__114__split_bufferINS_6vectorIiNS_9allocatorIiEEEERNS2_IS4_EEEC2EmmS6_
00000001810063c8 (__TEXT,__text) non-external (was a private external) __ZNSt3__114__split_bufferINS_6vectorIiNS_9allocatorIiEEEERNS2_IS4_EEED2Ev
0000000180ffc5dc (__TEXT,__text) non-external (was a private external) __ZNSt3__114random_shuffleINS_11__wrap_iterIPiEEEEvT_S4_
0000000180ffc87c (__TEXT,__text) non-external (was a private external) __ZNSt3__116__pad_and_outputIcNS_11char_traitsIcEEEENS_19ostreambuf_iteratorIT_T0_EES6_PKS4_S8_S8_RNS_8ios_baseES4_
0000000181019874 (__TEXT,__text) non-external (was a private external) __ZNSt3__117bad_function_callD0Ev
0000000181019870 (__TEXT,__text) non-external (was a private external) __ZNSt3__117bad_function_callD1Ev
0000000181007018 (__TEXT,__text) non-external (was a private external) __ZNSt3__118__insertion_sort_3IRNS_6__lessIN26ME_Efficient_Model_Trainer6SampleES3_EEPS3_EEvT0_S7_T_
0000000180ff62f0 (__TEXT,__text) non-external (was a private external) __ZNSt3__120__throw_length_errorEPKc
0000000181004084 (__TEXT,__text) non-external (was a private external) __ZNSt3__121__murmur2_or_cityhashImLm64EE18__hash_len_0_to_16EPKcm
0000000181004188 (__TEXT,__text) non-external (was a private external) __ZNSt3__121__murmur2_or_cityhashImLm64EE19__hash_len_17_to_32EPKcm
0000000181004234 (__TEXT,__text) non-external (was a private external) __ZNSt3__121__murmur2_or_cityhashImLm64EE19__hash_len_33_to_64EPKcm
0000000181003e74 (__TEXT,__text) non-external (was a private external) __ZNSt3__121__murmur2_or_cityhashImLm64EEclEPKvm
000000018100496c (__TEXT,__text) non-external (was a private external) __ZNSt3__122__hash_node_destructorINS_9allocatorINS_11__hash_nodeINS_17__hash_value_typeINS_12basic_stringIcNS_11char_traitsIcEENS1_IcEEEEiEEPvEEEEEclEPSB_
0000000180ffc6d8 (__TEXT,__text) non-external (was a private external) __ZNSt3__124__put_character_sequenceIcNS_11char_traitsIcEEEERNS_13basic_ostreamIT_T0_EES7_PKS4_m
0000000180ffcc74 (__TEXT,__text) non-external (was a private external) __ZNSt3__124uniform_int_distributionIlEclINS_12__rs_defaultEEElRT_RKNS1_10param_typeE
0000000180ffcde8 (__TEXT,__text) non-external (was a private external) __ZNSt3__125__independent_bits_engineINS_12__rs_defaultEyE6__evalENS_17integral_constantIbLb1EEE
0000000180ffcd00 (__TEXT,__text) non-external (was a private external) __ZNSt3__125__independent_bits_engineINS_12__rs_defaultEyEC2ERS1_m
0000000181019824 (__TEXT,__text) non-external (was a private external) __ZNSt3__125__throw_bad_function_callEv
0000000181007228 (__TEXT,__text) non-external (was a private external) __ZNSt3__127__insertion_sort_incompleteIRNS_6__lessIN26ME_Efficient_Model_Trainer6SampleES3_EEPS3_EEbT0_S7_T_
0000000181006740 (__TEXT,__text) non-external (was a private external) __ZNSt3__146__construct_backward_with_exception_guaranteesINS_9allocatorIN26ME_Efficient_Model_Trainer6SampleEEEPS3_EEvRT_T0_S8_RS8_
                 (undefined) external __ZNSt3__14cerrE (from libc++)
0000000180ffc524 (__TEXT,__text) non-external (was a private external) __ZNSt3__14endlIcNS_11char_traitsIcEEEERNS_13basic_ostreamIT_T0_EES7_
0000000181006cb0 (__TEXT,__text) non-external (was a private external) __ZNSt3__14swapIN26ME_Efficient_Model_Trainer6SampleEEENS_9enable_ifIXaasr21is_move_constructibleIT_EE5valuesr18is_move_assignableIS4_EE5valueEvE4typeERS4_S7_
                 (undefined) external __ZNSt3__15ctypeIcE2idE (from libc++)
0000000181006850 (__TEXT,__text) non-external (was a private external) __ZNSt3__16__sortIRNS_6__lessIN26ME_Efficient_Model_Trainer6SampleES3_EEPS3_EEvT0_S7_T_
                 (undefined) external __ZNSt3__16localeD1Ev (from libc++)
0000000181005b0c (__TEXT,__text) non-external (was a private external) __ZNSt3__16vectorIN26ME_Efficient_Model_Trainer10ME_FeatureENS_9allocatorIS2_EEE11__vallocateEm
0000000181005a78 (__TEXT,__text) non-external (was a private external) __ZNSt3__16vectorIN26ME_Efficient_Model_Trainer10ME_FeatureENS_9allocatorIS2_EEEC2ERKS5_
0000000181004cf8 (__TEXT,__text) non-external (was a private external) __ZNSt3__16vectorIN26ME_Efficient_Model_Trainer6SampleENS_9allocatorIS2_EEE11__vallocateEm
0000000181004d4c (__TEXT,__text) non-external (was a private external) __ZNSt3__16vectorIN26ME_Efficient_Model_Trainer6SampleENS_9allocatorIS2_EEE18__construct_at_endIPS2_EENS_9enable_ifIXsr27__is_cpp17_forward_iteratorIT_EE5valueEvE4typeES9_S9_m
000000018100650c (__TEXT,__text) non-external (was a private external) __ZNSt3__16vectorIN26ME_Efficient_Model_Trainer6SampleENS_9allocatorIS2_EEE21__push_back_slow_pathIRKS2_EEvOT_
000000018100645c (__TEXT,__text) non-external (was a private external) __ZNSt3__16vectorIN26ME_Efficient_Model_Trainer6SampleENS_9allocatorIS2_EEE22__construct_one_at_endIJRKS2_EEEvDpOT_
0000000181006650 (__TEXT,__text) non-external (was a private external) __ZNSt3__16vectorIN26ME_Efficient_Model_Trainer6SampleENS_9allocatorIS2_EEE26__swap_out_circular_bufferERNS_14__split_bufferIS2_RS4_EE
0000000181004c74 (__TEXT,__text) non-external (was a private external) __ZNSt3__16vectorIN26ME_Efficient_Model_Trainer6SampleENS_9allocatorIS2_EEEC2ERKS5_
0000000180fffd54 (__TEXT,__text) non-external (was a private external) __ZNSt3__16vectorIN26ME_Efficient_Model_Trainer6SampleENS_9allocatorIS2_EEED1Ev
0000000181005bfc (__TEXT,__text) non-external (was a private external) __ZNSt3__16vectorINS0_IiNS_9allocatorIiEEEENS1_IS3_EEE11__vallocateEm
000000018100634c (__TEXT,__text) non-external (was a private external) __ZNSt3__16vectorINS0_IiNS_9allocatorIiEEEENS1_IS3_EEE26__swap_out_circular_bufferERNS_14__split_bufferIS3_RS4_EE
0000000181005b54 (__TEXT,__text) non-external (was a private external) __ZNSt3__16vectorINS0_IiNS_9allocatorIiEEEENS1_IS3_EEEC2ERKS5_
0000000180fffd58 (__TEXT,__text) non-external (was a private external) __ZNSt3__16vectorINS0_IiNS_9allocatorIiEEEENS1_IS3_EEED1Ev
0000000181005494 (__TEXT,__text) non-external (was a private external) __ZNSt3__16vectorINS_12basic_stringIcNS_11char_traitsIcEENS_9allocatorIcEEEENS4_IS6_EEE11__vallocateEm
0000000181005d04 (__TEXT,__text) non-external (was a private external) __ZNSt3__16vectorINS_12basic_stringIcNS_11char_traitsIcEENS_9allocatorIcEEEENS4_IS6_EEE21__push_back_slow_pathIRKS6_EEvOT_
00000001810053ec (__TEXT,__text) non-external (was a private external) __ZNSt3__16vectorINS_12basic_stringIcNS_11char_traitsIcEENS_9allocatorIcEEEENS4_IS6_EEEC2ERKS8_
0000000181002984 (__TEXT,__text) non-external (was a private external) __ZNSt3__16vectorINS_12basic_stringIcNS_11char_traitsIcEENS_9allocatorIcEEEENS4_IS6_EEED1Ev
0000000181004fb0 (__TEXT,__text) non-external (was a private external) __ZNSt3__16vectorINS_4pairIidEENS_9allocatorIS2_EEE11__vallocateEm
00000001810061cc (__TEXT,__text) non-external (was a private external) __ZNSt3__16vectorINS_4pairIidEENS_9allocatorIS2_EEE13__move_assignERS5_NS_17integral_constantIbLb1EEE
0000000181004f1c (__TEXT,__text) non-external (was a private external) __ZNSt3__16vectorINS_4pairIidEENS_9allocatorIS2_EEEC2ERKS5_
000000018101ddd8 (__TEXT,__text) non-external (was a private external) __ZNSt3__16vectorINS_5tupleIJNS_12basic_stringIcNS_11char_traitsIcEENS_9allocatorIcEEEEjfEEENS5_IS8_EEE24__emplace_back_slow_pathIJS7_RjRfEEEvDpOT_
000000018101dae0 (__TEXT,__text) non-external (was a private external) __ZNSt3__16vectorINS_5tupleIJNS_12basic_stringIcNS_11char_traitsIcEENS_9allocatorIcEEEEjfEEENS5_IS8_EEE26__swap_out_circular_bufferERNS_14__split_bufferIS8_RS9_EE
000000018101d958 (__TEXT,__text) non-external (was a private external) __ZNSt3__16vectorINS_5tupleIJNS_12basic_stringIcNS_11char_traitsIcEENS_9allocatorIcEEEEjfEEENS5_IS8_EEE7reserveEm
0000000180ff6298 (__TEXT,__text) non-external (was a private external) __ZNSt3__16vectorIdNS_9allocatorIdEEE11__vallocateEm
00000001810061cc (__TEXT,__text) non-external (was a private external) __ZNSt3__16vectorIdNS_9allocatorIdEEE13__move_assignERS3_NS_17integral_constantIbLb1EEE
0000000180ff6160 (__TEXT,__text) non-external (was a private external) __ZNSt3__16vectorIdNS_9allocatorIdEEE6assignIPdEENS_9enable_ifIXaasr27__is_cpp17_forward_iteratorIT_EE5valuesr16is_constructibleIdNS_15iterator_traitsIS7_E9referenceEEE5valueEvE4typeES7_S7_
000000018100135c (__TEXT,__text) non-external (was a private external) __ZNSt3__16vectorIdNS_9allocatorIdEEE6resizeEm
0000000180ff63dc (__TEXT,__text) non-external (was a private external) __ZNSt3__16vectorIdNS_9allocatorIdEEE6resizeEmRKd
0000000181006220 (__TEXT,__text) non-external (was a private external) __ZNSt3__16vectorIdNS_9allocatorIdEEE8__appendEm
0000000180ff6408 (__TEXT,__text) non-external (was a private external) __ZNSt3__16vectorIdNS_9allocatorIdEEE8__appendEmRKd
0000000180ff6564 (__TEXT,__text) non-external (was a private external) __ZNSt3__16vectorIdNS_9allocatorIdEEEC2ERKS3_
0000000180ffcb00 (__TEXT,__text) non-external (was a private external) __ZNSt3__16vectorIdNS_9allocatorIdEEEC2Em
0000000180ffcb6c (__TEXT,__text) non-external (was a private external) __ZNSt3__16vectorIdNS_9allocatorIdEEEC2EmRKd
0000000180fffd20 (__TEXT,__text) non-external (was a private external) __ZNSt3__16vectorIdNS_9allocatorIdEEED1Ev
0000000180ffcaa8 (__TEXT,__text) non-external (was a private external) __ZNSt3__16vectorIiNS_9allocatorIiEEE11__vallocateEm
00000001810061cc (__TEXT,__text) non-external (was a private external) __ZNSt3__16vectorIiNS_9allocatorIiEEE13__move_assignERS3_NS_17integral_constantIbLb1EEE
0000000181004e88 (__TEXT,__text) non-external (was a private external) __ZNSt3__16vectorIiNS_9allocatorIiEEEC2ERKS3_
0000000180ffca3c (__TEXT,__text) non-external (was a private external) __ZNSt3__16vectorIiNS_9allocatorIiEEEC2Em
0000000180ffcbf0 (__TEXT,__text) non-external (was a private external) __ZNSt3__16vectorIiNS_9allocatorIiEEEC2EmRKi
0000000181006dc4 (__TEXT,__text) non-external (was a private external) __ZNSt3__17__sort3IRNS_6__lessIN26ME_Efficient_Model_Trainer6SampleES3_EEPS3_EEjT0_S7_S7_T_
0000000181006e88 (__TEXT,__text) non-external (was a private external) __ZNSt3__17__sort4IRNS_6__lessIN26ME_Efficient_Model_Trainer6SampleES3_EEPS3_EEjT0_S7_S7_S7_T_
0000000181006f3c (__TEXT,__text) non-external (was a private external) __ZNSt3__17__sort5IRNS_6__lessIN26ME_Efficient_Model_Trainer6SampleES3_EEPS3_EEjT0_S7_S7_S7_S7_T_
                 (undefined) external __ZNSt3__18__rs_getEv (from libc++)
                 (undefined) external __ZNSt3__18ios_base33__set_badbit_and_consider_rethrowEv (from libc++)
                 (undefined) external __ZNSt3__18ios_base5clearEj (from libc++)
                 (undefined) external __ZNSt3__19to_stringEi (from libc++)
                 (undefined) external __ZNSt3__19to_stringEj (from libc++)
0000000181021988 (__TEXT,__const) non-external __ZNSt3__1L19piecewise_constructE
0000000180ffc4dc (__TEXT,__text) non-external (was a private external) __ZNSt3__1lsINS_11char_traitsIcEEEERNS_13basic_ostreamIcT_EES6_PKc
                 (undefined) external __ZNSt9exceptionD2Ev (from libc++)
                 (undefined) external __ZSt9terminatev (from libc++)
00000001da3fba20 (__AUTH_CONST,__const) non-external (was a private external) __ZTI11ONE_CLASS_Q
00000001da3fb9d0 (__AUTH_CONST,__const) non-external (was a private external) __ZTI5SVC_Q
00000001da3fba70 (__AUTH_CONST,__const) non-external (was a private external) __ZTI5SVR_Q
00000001da3fb8e8 (__AUTH_CONST,__const) non-external (was a private external) __ZTI6Kernel
00000001da3fb938 (__AUTH_CONST,__const) non-external (was a private external) __ZTI6Solver
00000001da3fb8d8 (__AUTH_CONST,__const) non-external (was a private external) __ZTI7QMatrix
00000001da3fb980 (__AUTH_CONST,__const) non-external (was a private external) __ZTI9Solver_NU
00000001da3fb870 (__AUTH_CONST,__const) non-external (was a private external) __ZTIFvPvPN3nlp15_TrieCompletionEPbE
00000001da3fbb48 (__AUTH_CONST,__const) non-external (was a private external) __ZTIFvPvPN3nlp15_TrieCompletionEbPbE
00000001da3fbc48 (__AUTH_CONST,__const) non-external (was a private external) __ZTINSt3__110__function6__baseIFvPvPKhjjfPbEEE
00000001da3fb848 (__AUTH_CONST,__const) non-external (was a private external) __ZTINSt3__110__function6__baseIFvPvPN3nlp15_TrieCompletionEPbEEE
00000001da3fbb20 (__AUTH_CONST,__const) non-external (was a private external) __ZTINSt3__110__function6__baseIFvPvPN3nlp15_TrieCompletionEbPbEEE
00000001da3fb858 (__AUTH_CONST,__const) non-external (was a private external) __ZTINSt3__110__function6__funcIPFvPvPN3nlp15_TrieCompletionEPbENS_9allocatorIS8_EES7_EE
00000001da3fbb30 (__AUTH_CONST,__const) non-external (was a private external) __ZTINSt3__110__function6__funcIPFvPvPN3nlp15_TrieCompletionEbPbENS_9allocatorIS8_EES7_EE
00000001da3fbe58 (__AUTH_CONST,__const) non-external __ZTINSt3__110__function6__funcIZN3nlp15BurstTrieSearchEPKNS2_10_BurstTrieEPKhjPvNS_8functionIFvS8_PNS2_15_TrieCompletionEPbEEEiE3$_0NS_9allocatorISF_EEFvS8_S7_jjfSC_EEE
00000001da3fbdd8 (__AUTH_CONST,__const) non-external __ZTINSt3__110__function6__funcIZN3nlpL12reverseBurstIPNS2_10_TrieLevelEPNS2_9_ListNodeEEEvPNS2_10_BurstTrieERKNS_6vectorIT_NS_9allocatorISB_EEEEPKhjEUlPvSI_jjfPbE0_NSC_ISL_EEFvSJ_SI_jjfSK_EEE
00000001da3fbd58 (__AUTH_CONST,__const) non-external __ZTINSt3__110__function6__funcIZN3nlpL12reverseBurstIPNS2_10_TrieLevelEPNS2_9_ListNodeEEEvPNS2_10_BurstTrieERKNS_6vectorIT_NS_9allocatorISB_EEEEPKhjEUlPvSI_jjfPbE_NSC_ISL_EEFvSJ_SI_jjfSK_EEE
00000001da3fbcd8 (__AUTH_CONST,__const) non-external __ZTINSt3__110__function6__funcIZN3nlpL12reverseBurstIPNS2_16_RankedTrieLevelEPNS2_15_RankedListNodeEEEvPNS2_10_BurstTrieERKNS_6vectorIT_NS_9allocatorISB_EEEEPKhjEUlPvSI_jjfPbE0_NSC_ISL_EEFvSJ_SI_jjfSK_EEE
00000001da3fbc58 (__AUTH_CONST,__const) non-external __ZTINSt3__110__function6__funcIZN3nlpL12reverseBurstIPNS2_16_RankedTrieLevelEPNS2_15_RankedListNodeEEEvPNS2_10_BurstTrieERKNS_6vectorIT_NS_9allocatorISB_EEEEPKhjEUlPvSI_jjfPbE_NSC_ISL_EEFvSJ_SI_jjfSK_EEE
00000001da3fba88 (__AUTH_CONST,__const) non-external (was a private external) __ZTINSt3__117bad_function_callE
00000001da3fb880 (__AUTH_CONST,__const) non-external (was a private external) __ZTIPFvPvPN3nlp15_TrieCompletionEPbE
00000001da3fbb58 (__AUTH_CONST,__const) non-external (was a private external) __ZTIPFvPvPN3nlp15_TrieCompletionEbPbE
                 (undefined) weak external __ZTISt12length_error (from libc++)
                 (undefined) external __ZTISt9exception (from libc++)
00000001da3fbe70 (__AUTH_CONST,__const) non-external __ZTIZN3nlp15BurstTrieSearchEPKNS_10_BurstTrieEPKhjPvNSt3__18functionIFvS5_PNS_15_TrieCompletionEPbEEEiE3$_0
00000001da3fbdf0 (__AUTH_CONST,__const) non-external __ZTIZN3nlpL12reverseBurstIPNS_10_TrieLevelEPNS_9_ListNodeEEEvPNS_10_BurstTrieERKNSt3__16vectorIT_NS7_9allocatorIS9_EEEEPKhjEUlPvSG_jjfPbE0_
00000001da3fbd70 (__AUTH_CONST,__const) non-external __ZTIZN3nlpL12reverseBurstIPNS_10_TrieLevelEPNS_9_ListNodeEEEvPNS_10_BurstTrieERKNSt3__16vectorIT_NS7_9allocatorIS9_EEEEPKhjEUlPvSG_jjfPbE_
00000001da3fbcf0 (__AUTH_CONST,__const) non-external __ZTIZN3nlpL12reverseBurstIPNS_16_RankedTrieLevelEPNS_15_RankedListNodeEEEvPNS_10_BurstTrieERKNSt3__16vectorIT_NS7_9allocatorIS9_EEEEPKhjEUlPvSG_jjfPbE0_
00000001da3fbc70 (__AUTH_CONST,__const) non-external __ZTIZN3nlpL12reverseBurstIPNS_16_RankedTrieLevelEPNS_15_RankedListNodeEEEvPNS_10_BurstTrieERKNSt3__16vectorIT_NS7_9allocatorIS9_EEEEPKhjEUlPvSG_jjfPbE_
0000000181021b8b (__TEXT,__const) non-external (was a private external) __ZTS11ONE_CLASS_Q
0000000181021b84 (__TEXT,__const) non-external (was a private external) __ZTS5SVC_Q
0000000181021b99 (__TEXT,__const) non-external (was a private external) __ZTS5SVR_Q
0000000181021b60 (__TEXT,__const) non-external (was a private external) __ZTS6Kernel
0000000181021b71 (__TEXT,__const) non-external (was a private external) __ZTS6Solver
0000000181021b68 (__TEXT,__const) non-external (was a private external) __ZTS7QMatrix
0000000181021b79 (__TEXT,__const) non-external (was a private external) __ZTS9Solver_NU
0000000181021a3b (__TEXT,__const) non-external (was a private external) __ZTSFvPvPN3nlp15_TrieCompletionEPbE
0000000181021c81 (__TEXT,__const) non-external (was a private external) __ZTSFvPvPN3nlp15_TrieCompletionEbPbE
0000000181021d6a (__TEXT,__const) non-external (was a private external) __ZTSNSt3__110__function6__baseIFvPvPKhjjfPbEEE
00000001810219dd (__TEXT,__const) non-external (was a private external) __ZTSNSt3__110__function6__baseIFvPvPN3nlp15_TrieCompletionEPbEEE
0000000181021c21 (__TEXT,__const) non-external (was a private external) __ZTSNSt3__110__function6__baseIFvPvPN3nlp15_TrieCompletionEbPbEEE
0000000181021989 (__TEXT,__const) non-external (was a private external) __ZTSNSt3__110__function6__funcIPFvPvPN3nlp15_TrieCompletionEPbENS_9allocatorIS8_EES7_EE
0000000181021bcc (__TEXT,__const) non-external (was a private external) __ZTSNSt3__110__function6__funcIPFvPvPN3nlp15_TrieCompletionEbPbENS_9allocatorIS8_EES7_EE
000000018102220d (__TEXT,__const) non-external __ZTSNSt3__110__function6__funcIZN3nlp15BurstTrieSearchEPKNS2_10_BurstTrieEPKhjPvNS_8functionIFvS8_PNS2_15_TrieCompletionEPbEEEiE3$_0NS_9allocatorISF_EEFvS8_S7_jjfSC_EEE
00000001810220c9 (__TEXT,__const) non-external __ZTSNSt3__110__function6__funcIZN3nlpL12reverseBurstIPNS2_10_TrieLevelEPNS2_9_ListNodeEEEvPNS2_10_BurstTrieERKNS_6vectorIT_NS_9allocatorISB_EEEEPKhjEUlPvSI_jjfPbE0_NSC_ISL_EEFvSJ_SI_jjfSK_EEE
0000000181021f87 (__TEXT,__const) non-external __ZTSNSt3__110__function6__funcIZN3nlpL12reverseBurstIPNS2_10_TrieLevelEPNS2_9_ListNodeEEEvPNS2_10_BurstTrieERKNS_6vectorIT_NS_9allocatorISB_EEEEPKhjEUlPvSI_jjfPbE_NSC_ISL_EEFvSJ_SI_jjfSK_EEE
0000000181021e29 (__TEXT,__const) non-external __ZTSNSt3__110__function6__funcIZN3nlpL12reverseBurstIPNS2_16_RankedTrieLevelEPNS2_15_RankedListNodeEEEvPNS2_10_BurstTrieERKNS_6vectorIT_NS_9allocatorISB_EEEEPKhjEUlPvSI_jjfPbE0_NSC_ISL_EEFvSJ_SI_jjfSK_EEE
0000000181021ca2 (__TEXT,__const) non-external __ZTSNSt3__110__function6__funcIZN3nlpL12reverseBurstIPNS2_16_RankedTrieLevelEPNS2_15_RankedListNodeEEEvPNS2_10_BurstTrieERKNS_6vectorIT_NS_9allocatorISB_EEEEPKhjEUlPvSI_jjfPbE_NSC_ISL_EEFvSJ_SI_jjfSK_EEE
0000000181021bb0 (__TEXT,__const) non-external (was a private external) __ZTSNSt3__117bad_function_callE
0000000181021a1a (__TEXT,__const) non-external (was a private external) __ZTSPFvPvPN3nlp15_TrieCompletionEPbE
0000000181021c5f (__TEXT,__const) non-external (was a private external) __ZTSPFvPvPN3nlp15_TrieCompletionEbPbE
00000001810222b2 (__TEXT,__const) non-external __ZTSZN3nlp15BurstTrieSearchEPKNS_10_BurstTrieEPKhjPvNSt3__18functionIFvS5_PNS_15_TrieCompletionEPbEEEiE3$_0
0000000181022185 (__TEXT,__const) non-external __ZTSZN3nlpL12reverseBurstIPNS_10_TrieLevelEPNS_9_ListNodeEEEvPNS_10_BurstTrieERKNSt3__16vectorIT_NS7_9allocatorIS9_EEEEPKhjEUlPvSG_jjfPbE0_
0000000181022042 (__TEXT,__const) non-external __ZTSZN3nlpL12reverseBurstIPNS_10_TrieLevelEPNS_9_ListNodeEEEvPNS_10_BurstTrieERKNSt3__16vectorIT_NS7_9allocatorIS9_EEEEPKhjEUlPvSG_jjfPbE_
0000000181021ef2 (__TEXT,__const) non-external __ZTSZN3nlpL12reverseBurstIPNS_16_RankedTrieLevelEPNS_15_RankedListNodeEEEvPNS_10_BurstTrieERKNSt3__16vectorIT_NS7_9allocatorIS9_EEEEPKhjEUlPvSG_jjfPbE0_
0000000181021d95 (__TEXT,__const) non-external __ZTSZN3nlpL12reverseBurstIPNS_16_RankedTrieLevelEPNS_15_RankedListNodeEEEvPNS_10_BurstTrieERKNSt3__16vectorIT_NS7_9allocatorIS9_EEEEPKhjEUlPvSG_jjfPbE_
00000001da3fb9e8 (__AUTH_CONST,__const) non-external (was a private external) __ZTV11ONE_CLASS_Q
00000001da3fb998 (__AUTH_CONST,__const) non-external (was a private external) __ZTV5SVC_Q
00000001da3fba38 (__AUTH_CONST,__const) non-external (was a private external) __ZTV5SVR_Q
00000001da3fb8a0 (__AUTH_CONST,__const) non-external (was a private external) __ZTV6Kernel
00000001da3fb900 (__AUTH_CONST,__const) non-external (was a private external) __ZTV6Solver
00000001da3fb948 (__AUTH_CONST,__const) non-external (was a private external) __ZTV9Solver_NU
                 (undefined) external __ZTVN10__cxxabiv117__class_type_infoE (from libc++)
                 (undefined) external __ZTVN10__cxxabiv119__pointer_type_infoE (from libc++)
                 (undefined) external __ZTVN10__cxxabiv120__function_type_infoE (from libc++)
                 (undefined) external __ZTVN10__cxxabiv120__si_class_type_infoE (from libc++)
00000001da3fbb98 (__AUTH_CONST,__const) non-external (was a private external) __ZTVNSt3__110__function6__funcIPFvPvPN3nlp15_TrieCompletionEPbENS_9allocatorIS8_EES7_EE
00000001da3fbac8 (__AUTH_CONST,__const) non-external (was a private external) __ZTVNSt3__110__function6__funcIPFvPvPN3nlp15_TrieCompletionEbPbENS_9allocatorIS8_EES7_EE
00000001da3fbe00 (__AUTH_CONST,__const) non-external __ZTVNSt3__110__function6__funcIZN3nlp15BurstTrieSearchEPKNS2_10_BurstTrieEPKhjPvNS_8functionIFvS8_PNS2_15_TrieCompletionEPbEEEiE3$_0NS_9allocatorISF_EEFvS8_S7_jjfSC_EEE
00000001da3fbd80 (__AUTH_CONST,__const) non-external __ZTVNSt3__110__function6__funcIZN3nlpL12reverseBurstIPNS2_10_TrieLevelEPNS2_9_ListNodeEEEvPNS2_10_BurstTrieERKNS_6vectorIT_NS_9allocatorISB_EEEEPKhjEUlPvSI_jjfPbE0_NSC_ISL_EEFvSJ_SI_jjfSK_EEE
00000001da3fbd00 (__AUTH_CONST,__const) non-external __ZTVNSt3__110__function6__funcIZN3nlpL12reverseBurstIPNS2_10_TrieLevelEPNS2_9_ListNodeEEEvPNS2_10_BurstTrieERKNS_6vectorIT_NS_9allocatorISB_EEEEPKhjEUlPvSI_jjfPbE_NSC_ISL_EEFvSJ_SI_jjfSK_EEE
00000001da3fbc80 (__AUTH_CONST,__const) non-external __ZTVNSt3__110__function6__funcIZN3nlpL12reverseBurstIPNS2_16_RankedTrieLevelEPNS2_15_RankedListNodeEEEvPNS2_10_BurstTrieERKNS_6vectorIT_NS_9allocatorISB_EEEEPKhjEUlPvSI_jjfPbE0_NSC_ISL_EEFvSJ_SI_jjfSK_EEE
00000001da3fbbf0 (__AUTH_CONST,__const) non-external __ZTVNSt3__110__function6__funcIZN3nlpL12reverseBurstIPNS2_16_RankedTrieLevelEPNS2_15_RankedListNodeEEEvPNS2_10_BurstTrieERKNS_6vectorIT_NS_9allocatorISB_EEEEPKhjEUlPvSI_jjfPbE_NSC_ISL_EEFvSJ_SI_jjfSK_EEE
00000001da3fbaa0 (__AUTH_CONST,__const) non-external (was a private external) __ZTVNSt3__117bad_function_callE
                 (undefined) external __ZTVSt12length_error (from libc++)
00000001d64dfde8 (__DATA,__bss) non-external __ZZN3nlpL12sharedBufferEvE3key
00000001d64dfde0 (__DATA,__bss) non-external __ZZN3nlpL12sharedBufferEvE4once
                 (undefined) weak external __ZdaPv (from libc++)
                 (undefined) weak external __ZdlPv (from libc++)
                 (undefined) weak external __Znam (from libc++)
                 (undefined) weak external __Znwm (from libc++)
000000018101c010 (__TEXT,__text) non-external ____ZN3nlpL12sharedBufferEv_block_invoke
                 (undefined) external ___assert_rtn (from libSystem)
00000001d197b6c0 (__DATA_CONST,__const) non-external ___block_descriptor_tmp
00000001da3fbb78 (__AUTH_CONST,__const) non-external ___block_literal_global
                 (undefined) external ___chkstk_darwin (from libSystem)
0000000180ffc6cc (__TEXT,__text) non-external (was a private external) ___clang_call_terminate
                 (undefined) external ___cxa_allocate_exception (from libc++)
                 (undefined) external ___cxa_begin_catch (from libc++)
                 (undefined) external ___cxa_end_catch (from libc++)
                 (undefined) external ___cxa_free_exception (from libc++)
                 (undefined) external ___cxa_pure_virtual (from libc++)
                 (undefined) external ___cxa_throw (from libc++)
                 (undefined) external ___gxx_personality_v0 (from libc++)
                 (undefined) external ___stack_chk_fail (from libSystem)
                 (undefined) external ___stack_chk_guard (from libSystem)
                 (undefined) external ___stderrp (from libSystem)
                 (undefined) external ___stdoutp (from libSystem)
0000000181021aa0 (__TEXT,__const) non-external __defparam
                 (undefined) external _atof (from libSystem)
                 (undefined) external _atoi (from libSystem)
0000000180fff0a8 (__TEXT,__text) non-external _balance
                 (undefined) external _bzero (from libSystem)
                 (undefined) external _calloc (from libSystem)
0000000180ff39c4 (__TEXT,__text) non-external _check_values
                 (undefined) external _clock (from libSystem)
                 (undefined) external _close (from libSystem)
0000000180ff9658 (__TEXT,__text) non-external (was a private external) _close_writer
0000000180ff8c64 (__TEXT,__text) non-external (was a private external) _cmw_close
0000000180ff8d48 (__TEXT,__text) non-external (was a private external) _cmw_create_from_file_pointer
0000000180ff8c1c (__TEXT,__text) non-external (was a private external) _cmw_initialize_header
0000000180ff8f78 (__TEXT,__text) non-external (was a private external) _cmw_open_attribute_features
0000000180ff8ff8 (__TEXT,__text) non-external (was a private external) _cmw_write_attribute_feature
000000018101e6f8 (__TEXT,__text) non-external _cmw_write_attribute_feature.cold.1
0000000180ff8e8c (__TEXT,__text) non-external (was a private external) _cmw_write_attribute_feature_counts_and_offsets
0000000180ff8dd4 (__TEXT,__text) non-external (was a private external) _cmw_write_label_features
000000018100b868 (__TEXT,__text) non-external _cost_insensitive
000000018100b85c (__TEXT,__text) non-external _cost_sensitive
0000000180ff1d40 (__TEXT,__text) non-external (was a private external) _cqdb_delete
0000000180ff1ebc (__TEXT,__text) non-external (was a private external) _cqdb_num
0000000180ff1bb4 (__TEXT,__text) non-external (was a private external) _cqdb_reader
0000000180ff1da8 (__TEXT,__text) non-external (was a private external) _cqdb_to_id
0000000180ff1e88 (__TEXT,__text) non-external (was a private external) _cqdb_to_string
0000000180ff1564 (__TEXT,__text) non-external (was a private external) _cqdb_writer
0000000180ff17d0 (__TEXT,__text) non-external (was a private external) _cqdb_writer_close
0000000180ff1b54 (__TEXT,__text) non-external _cqdb_writer_delete
0000000180ff1604 (__TEXT,__text) non-external (was a private external) _cqdb_writer_put
0000000180ff7c4c (__TEXT,__text) non-external (was a private external) _create_buffer_from_file
0000000180ff9218 (__TEXT,__text) non-external (was a private external) _create_compact_model_writer_from_file_pointer
0000000180ff95a0 (__TEXT,__text) non-external (was a private external) _create_quantized_model_writer_from_file_pointer
0000000180ff3a14 (__TEXT,__text) non-external (was a private external) _crf1d_create_encoder
0000000180ff2b14 (__TEXT,__text) non-external (was a private external) _crf1dc_alpha_score
0000000180ff2d34 (__TEXT,__text) non-external (was a private external) _crf1dc_beta_score
0000000180ff33c4 (__TEXT,__text) non-external (was a private external) _crf1dc_debug_context
0000000180ff2950 (__TEXT,__text) non-external (was a private external) _crf1dc_delete
0000000180ff2a64 (__TEXT,__text) non-external (was a private external) _crf1dc_exp_state
0000000180ff2ac0 (__TEXT,__text) non-external (was a private external) _crf1dc_exp_transition
0000000180ff3240 (__TEXT,__text) non-external (was a private external) _crf1dc_lognorm
0000000180ff3114 (__TEXT,__text) non-external (was a private external) _crf1dc_marginal_path
0000000180ff30e4 (__TEXT,__text) non-external (was a private external) _crf1dc_marginal_point
0000000180ff2ef4 (__TEXT,__text) non-external (was a private external) _crf1dc_marginals
0000000180ff270c (__TEXT,__text) non-external (was a private external) _crf1dc_new
0000000180ff29e0 (__TEXT,__text) non-external (was a private external) _crf1dc_reset
0000000180ff31e0 (__TEXT,__text) non-external (was a private external) _crf1dc_score
0000000180ff27e0 (__TEXT,__text) non-external (was a private external) _crf1dc_set_num_items
0000000180ff3248 (__TEXT,__text) non-external (was a private external) _crf1dc_viterbi
0000000180ffa104 (__TEXT,__text) non-external (was a private external) _crf1de_create_instance
0000000180ffa648 (__TEXT,__text) non-external (was a private external) _crf1de_create_trainer
0000000180ff4950 (__TEXT,__text) non-external _crf1de_finish
0000000180ff4b80 (__TEXT,__text) non-external _crf1de_model_expectation
0000000180ff4ac4 (__TEXT,__text) non-external _crf1de_state_score
0000000180ff4a50 (__TEXT,__text) non-external _crf1de_transition_score
0000000180ff4cc4 (__TEXT,__text) non-external _crf1de_write_model
0000000180ff65f8 (__TEXT,__text) non-external (was a private external) _crf1df_generate
0000000180ff69b0 (__TEXT,__text) non-external (was a private external) _crf1df_init_references
0000000180ff7fac (__TEXT,__text) non-external (was a private external) _crf1dm_close
0000000180ff8248 (__TEXT,__text) non-external (was a private external) _crf1dm_dump
0000000180ff81c8 (__TEXT,__text) non-external (was a private external) _crf1dm_get_attrref
0000000180ff8204 (__TEXT,__text) non-external (was a private external) _crf1dm_get_feature
0000000180ff81f8 (__TEXT,__text) non-external (was a private external) _crf1dm_get_featureid
0000000180ff8198 (__TEXT,__text) non-external (was a private external) _crf1dm_get_labelref
0000000180ff80a8 (__TEXT,__text) non-external (was a private external) _crf1dm_get_num_attrs
0000000180ff80f0 (__TEXT,__text) non-external (was a private external) _crf1dm_get_num_labels
0000000180ff8730 (__TEXT,__text) non-external (was a private external) _crf1dm_get_number_of_attributes
0000000180ff8724 (__TEXT,__text) non-external (was a private external) _crf1dm_get_number_of_labels
0000000180ff871c (__TEXT,__text) non-external (was a private external) _crf1dm_get_version
0000000180ff7dbc (__TEXT,__text) non-external (was a private external) _crf1dm_initialize_header
0000000180ff8918 (__TEXT,__text) non-external (was a private external) _crf1dm_initialize_state_scores
000000018101e6a0 (__TEXT,__text) non-external _crf1dm_initialize_state_scores.cold.1
000000018101e6cc (__TEXT,__text) non-external _crf1dm_initialize_state_scores.cold.2
0000000180ff873c (__TEXT,__text) non-external (was a private external) _crf1dm_initialize_transition_scores
0000000180ff7eb0 (__TEXT,__text) non-external (was a private external) _crf1dm_instantiate_internal
0000000180ff7f28 (__TEXT,__text) non-external (was a private external) _crf1dm_new
0000000180ff8040 (__TEXT,__text) non-external (was a private external) _crf1dm_new_from_buffer
0000000180ff8158 (__TEXT,__text) non-external (was a private external) _crf1dm_to_aid
0000000180ff8178 (__TEXT,__text) non-external (was a private external) _crf1dm_to_attr
0000000180ff8134 (__TEXT,__text) non-external (was a private external) _crf1dm_to_label
0000000180ff8144 (__TEXT,__text) non-external (was a private external) _crf1dm_to_lid
0000000180ff6f9c (__TEXT,__text) non-external (was a private external) _crf1dmw_close
0000000180ff76c8 (__TEXT,__text) non-external (was a private external) _crf1dmw_close_attrrefs
0000000180ff71f4 (__TEXT,__text) non-external (was a private external) _crf1dmw_close_attrs
0000000180ff79d0 (__TEXT,__text) non-external (was a private external) _crf1dmw_close_features
0000000180ff7374 (__TEXT,__text) non-external (was a private external) _crf1dmw_close_labelrefs
0000000180ff70e8 (__TEXT,__text) non-external (was a private external) _crf1dmw_close_labels
0000000180ff75d4 (__TEXT,__text) non-external (was a private external) _crf1dmw_open_attrrefs
0000000180ff7180 (__TEXT,__text) non-external (was a private external) _crf1dmw_open_attrs
0000000180ff7934 (__TEXT,__text) non-external (was a private external) _crf1dmw_open_features
0000000180ff7280 (__TEXT,__text) non-external (was a private external) _crf1dmw_open_labelrefs
0000000180ff7074 (__TEXT,__text) non-external (was a private external) _crf1dmw_open_labels
0000000180ff723c (__TEXT,__text) non-external (was a private external) _crf1dmw_put_attr
0000000180ff7814 (__TEXT,__text) non-external (was a private external) _crf1dmw_put_attrref
0000000180ff7ae0 (__TEXT,__text) non-external (was a private external) _crf1dmw_put_feature
0000000180ff7130 (__TEXT,__text) non-external (was a private external) _crf1dmw_put_label
0000000180ff74c0 (__TEXT,__text) non-external (was a private external) _crf1dmw_put_labelref
0000000180ff7928 (__TEXT,__text) non-external (was a private external) _crf1dmw_set_no_attributes
0000000180ff7174 (__TEXT,__text) non-external (was a private external) _crf1dmw_set_no_labels
0000000180ffa074 (__TEXT,__text) non-external _crf1dt_delete
0000000180ffa0b4 (__TEXT,__text) non-external _crf1dt_set_level
0000000180ff96e4 (__TEXT,__text) non-external (was a private external) _crf1m_create_instance_from_buffer
0000000180ff9690 (__TEXT,__text) non-external (was a private external) _crf1m_create_instance_from_file
0000000180ff9738 (__TEXT,__text) non-external _crf1m_model_initialize
0000000180ff6ca0 (__TEXT,__text) non-external (was a private external) _crf1mmw
0000000180ff6c3c (__TEXT,__text) non-external (was a private external) _crf1mmw_close_file_pointer
0000000180ff6d38 (__TEXT,__text) non-external (was a private external) _crf1mmw_from_file_pointer
0000000180ff6c0c (__TEXT,__text) non-external (was a private external) _crf1mmw_get_offset_from_beginning_of_model
0000000180ff6c00 (__TEXT,__text) non-external (was a private external) _crf1mmw_get_offset_in_file
0000000180ff6c54 (__TEXT,__text) non-external (was a private external) _crf1mmw_initialize_header
000000018100daf8 (__TEXT,__text) external _crf_content_copy
000000018100db1c (__TEXT,__text) external _crf_content_init
000000018100db0c (__TEXT,__text) external _crf_content_set
000000018100d730 (__TEXT,__text) external _crf_create_instance
000000018100d824 (__TEXT,__text) external _crf_data_append
000000018100d744 (__TEXT,__text) external _crf_data_finish
000000018100d738 (__TEXT,__text) external _crf_data_init
000000018100d934 (__TEXT,__text) external _crf_data_maxlength
000000018100d96c (__TEXT,__text) external _crf_data_totalitems
000000018100dc58 (__TEXT,__text) external _crf_evaluation_init
000000018100db28 (__TEXT,__text) external _crf_item_append_content
000000018100da6c (__TEXT,__text) external _crf_item_copy
000000018100d9a8 (__TEXT,__text) external _crf_item_finish
000000018100daec (__TEXT,__text) external _crf_item_init
000000018100d514 (__TEXT,__text) external _crf_output_finish
000000018100d4c4 (__TEXT,__text) external _crf_output_init
000000018100d4d0 (__TEXT,__text) external _crf_output_init_n
000000018100dc0c (__TEXT,__text) external _crf_paragraph_finish
000000018100d5a8 (__TEXT,__text) external _crf_paragraph_get_id
000000018101ea5c (__TEXT,__text) non-external _crf_paragraph_get_id.cold.1
000000018100d544 (__TEXT,__text) external _crf_paragraph_get_item_count
000000018100d568 (__TEXT,__text) external _crf_paragraph_get_item_count_for_sentence
000000018100dba0 (__TEXT,__text) external _crf_paragraph_init_with_attrs
000000018100d608 (__TEXT,__text) external _crf_paragraph_set_id
000000018101ea88 (__TEXT,__text) non-external _crf_paragraph_set_id.cold.1
000000018100d9d8 (__TEXT,__text) external _crf_sequence_append
000000018100d8a0 (__TEXT,__text) external _crf_sequence_copy
000000018100d7b0 (__TEXT,__text) external _crf_sequence_finish
000000018100d9a0 (__TEXT,__text) external _crf_sequence_init
0000000180ffa98c (__TEXT,__text) external _crfsuite_attribute_copy
0000000180ffa970 (__TEXT,__text) external _crfsuite_attribute_init
0000000180ffa97c (__TEXT,__text) external _crfsuite_attribute_set
0000000180ffa9a0 (__TEXT,__text) external _crfsuite_attribute_swap
0000000180ffa924 (__TEXT,__text) external _crfsuite_create_instance
0000000180ffa96c (__TEXT,__text) external _crfsuite_create_instance_from_file
0000000180ffb75c (__TEXT,__text) external _crfsuite_create_tokenizer_from_feature_file
0000000180ffaf8c (__TEXT,__text) external _crfsuite_data_append
0000000180ffaed4 (__TEXT,__text) external _crfsuite_data_copy
0000000180ffae68 (__TEXT,__text) external _crfsuite_data_finish
0000000180ffae20 (__TEXT,__text) external _crfsuite_data_init
0000000180ffae2c (__TEXT,__text) external _crfsuite_data_init_n
0000000180ffb00c (__TEXT,__text) external _crfsuite_data_maxlength
0000000180ffaf68 (__TEXT,__text) external _crfsuite_data_swap
0000000180ffb044 (__TEXT,__text) external _crfsuite_data_totalitems
0000000180ffb7c8 (__TEXT,__text) external _crfsuite_delete_feature_tokenizer
0000000180ffb6ec (__TEXT,__text) external _crfsuite_dictioanry_addref
0000000180ffb6b0 (__TEXT,__text) external _crfsuite_dictionary_create
0000000180ffba84 (__TEXT,__text) non-external (was a private external) _crfsuite_dictionary_create_instance
0000000180ffb74c (__TEXT,__text) external _crfsuite_dictionary_get_count
0000000180ffb6fc (__TEXT,__text) external _crfsuite_dictionary_get_id_for_string
0000000180ffb714 (__TEXT,__text) external _crfsuite_dictionary_get_string_for_id
0000000180ffb6f4 (__TEXT,__text) external _crfsuite_dictionary_release
0000000180ffb148 (__TEXT,__text) external _crfsuite_evaluation_accmulate
0000000180ffb0c8 (__TEXT,__text) external _crfsuite_evaluation_clear
0000000180ffb210 (__TEXT,__text) external _crfsuite_evaluation_finalize
0000000180ffb110 (__TEXT,__text) external _crfsuite_evaluation_finish
0000000180ffb078 (__TEXT,__text) external _crfsuite_evaluation_init
0000000180ffb34c (__TEXT,__text) external _crfsuite_evaluation_output
0000000180ffb844 (__TEXT,__text) external _crfsuite_feature_token_get_attribute
0000000180ffb82c (__TEXT,__text) external _crfsuite_feature_token_get_type
0000000180ffb850 (__TEXT,__text) external _crfsuite_feature_token_get_value
0000000180ffb81c (__TEXT,__text) external _crfsuite_feature_tokenizer_get_next_token
0000000180ffb754 (__TEXT,__text) external _crfsuite_get_id_from_dictionary
0000000180ffad74 (__TEXT,__text) external _crfsuite_instance_append
0000000180ffac60 (__TEXT,__text) external _crfsuite_instance_copy
0000000180ffae10 (__TEXT,__text) external _crfsuite_instance_empty
0000000180ffabe4 (__TEXT,__text) external _crfsuite_instance_finish
0000000180ffab88 (__TEXT,__text) external _crfsuite_instance_init
0000000180ffab94 (__TEXT,__text) external _crfsuite_instance_init_n
0000000180ffad40 (__TEXT,__text) external _crfsuite_instance_swap
0000000180ffb4e0 (__TEXT,__text) external _crfsuite_interlocked_decrement
0000000180ffb4cc (__TEXT,__text) external _crfsuite_interlocked_increment
0000000180ffab00 (__TEXT,__text) external _crfsuite_item_append_attribute
0000000180ffaa64 (__TEXT,__text) external _crfsuite_item_copy
0000000180ffab78 (__TEXT,__text) external _crfsuite_item_empty
0000000180ffaa38 (__TEXT,__text) external _crfsuite_item_finish
0000000180ffa9c4 (__TEXT,__text) external _crfsuite_item_init
0000000180ffa9cc (__TEXT,__text) external _crfsuite_item_init_n
0000000180ffaa04 (__TEXT,__text) external _crfsuite_item_init_with_capacity
0000000180ffaadc (__TEXT,__text) external _crfsuite_item_swap
0000000180ffb55c (__TEXT,__text) external _crfsuite_model_addref
0000000180ffb528 (__TEXT,__text) external _crfsuite_model_create_from_buffer
0000000180ffb4f4 (__TEXT,__text) external _crfsuite_model_create_from_file
0000000180ffb624 (__TEXT,__text) external _crfsuite_model_dump
0000000180ffb5dc (__TEXT,__text) external _crfsuite_model_get_attrs
0000000180ffb5a4 (__TEXT,__text) external _crfsuite_model_get_labels
0000000180ffb61c (__TEXT,__text) external _crfsuite_model_get_number_of_attributes
0000000180ffb614 (__TEXT,__text) external _crfsuite_model_get_number_of_labels
0000000180ffb56c (__TEXT,__text) external _crfsuite_model_get_tagger
0000000180ffb564 (__TEXT,__text) external _crfsuite_model_release
0000000180ffb660 (__TEXT,__text) external _crfsuite_tagger_addref
0000000180ffb678 (__TEXT,__text) external _crfsuite_tagger_instance_length
0000000180ffb690 (__TEXT,__text) external _crfsuite_tagger_lognorm
0000000180ffb6a0 (__TEXT,__text) external _crfsuite_tagger_marginal_path
0000000180ffb698 (__TEXT,__text) external _crfsuite_tagger_marginal_point
0000000180ffb668 (__TEXT,__text) external _crfsuite_tagger_release
0000000180ffb688 (__TEXT,__text) external _crfsuite_tagger_score
0000000180ffb670 (__TEXT,__text) external _crfsuite_tagger_set_instance
0000000180ffb6a8 (__TEXT,__text) external _crfsuite_tagger_tag_paragraph
0000000180ffb680 (__TEXT,__text) external _crfsuite_tagger_viterbi
0000000180ffa38c (__TEXT,__text) non-external _crfsuite_train_addref
0000000180fff464 (__TEXT,__text) non-external (was a private external) _crfsuite_train_arow
0000000180fff33c (__TEXT,__text) non-external (was a private external) _crfsuite_train_arow_init
0000000181008734 (__TEXT,__text) non-external (was a private external) _crfsuite_train_averaged_perceptron
00000001810086d4 (__TEXT,__text) non-external (was a private external) _crfsuite_train_averaged_perceptron_init
0000000181008f44 (__TEXT,__text) non-external (was a private external) _crfsuite_train_l2sgd
0000000181008f38 (__TEXT,__text) non-external (was a private external) _crfsuite_train_l2sgd_init
000000018100a9a0 (__TEXT,__text) non-external (was a private external) _crfsuite_train_lbfgs
000000018100a75c (__TEXT,__text) non-external (was a private external) _crfsuite_train_lbfgs_init
0000000180ffa298 (__TEXT,__text) non-external _crfsuite_train_new
0000000180ffa410 (__TEXT,__text) non-external _crfsuite_train_params
000000018100b108 (__TEXT,__text) non-external (was a private external) _crfsuite_train_passive_aggressive
000000018100af78 (__TEXT,__text) non-external (was a private external) _crfsuite_train_passive_aggressive_init
0000000180ffa394 (__TEXT,__text) non-external _crfsuite_train_release
0000000180ffa41c (__TEXT,__text) non-external _crfsuite_train_set_message_callback
0000000180ffa42c (__TEXT,__text) non-external _crfsuite_train_to_file
0000000180ffa4f8 (__TEXT,__text) non-external _crfsuite_train_to_file_pointer
0000000180ffa718 (__TEXT,__text) non-external _crfsuite_train_train
0000000180ffb630 (__TEXT,__text) external _crfsuite_trainer_addref
0000000180ffb62c (__TEXT,__text) external _crfsuite_trainer_create
0000000180ffb640 (__TEXT,__text) external _crfsuite_trainer_get_params
0000000180ffb638 (__TEXT,__text) external _crfsuite_trainer_release
0000000180ffb648 (__TEXT,__text) external _crfsuite_trainer_set_message_callback
0000000180ffb650 (__TEXT,__text) external _crfsuite_trainer_train
0000000180ffb658 (__TEXT,__text) external _crfsuite_trainer_train_model_to_file_pointer
0000000180ffba04 (__TEXT,__text) non-external (was a private external) _dataset_finish
0000000180ffba70 (__TEXT,__text) non-external (was a private external) _dataset_get
0000000180ffb930 (__TEXT,__text) non-external (was a private external) _dataset_init_testset
0000000180ffb85c (__TEXT,__text) non-external (was a private external) _dataset_init_trainset
0000000180ffba0c (__TEXT,__text) non-external (was a private external) _dataset_shuffle
0000000180ffe018 (__TEXT,__text) non-external _delcb
0000000180fffb50 (__TEXT,__text) non-external _delta_collect
000000018100b8a0 (__TEXT,__text) non-external _delta_collect
0000000180fffbd8 (__TEXT,__text) non-external _delta_finish
000000018100b928 (__TEXT,__text) non-external _delta_finish
0000000180ffbb6c (__TEXT,__text) non-external _dictionary_addref
0000000180ffbc34 (__TEXT,__text) non-external _dictionary_free
0000000180ffbbb8 (__TEXT,__text) non-external _dictionary_get
0000000180ffbc2c (__TEXT,__text) non-external _dictionary_num
0000000180ffbb74 (__TEXT,__text) non-external _dictionary_release
0000000180ffbbc0 (__TEXT,__text) non-external _dictionary_to_id
0000000180ffbbc8 (__TEXT,__text) non-external _dictionary_to_string
                 (undefined) external _dispatch_once (from libSystem)
0000000180ff3b2c (__TEXT,__text) non-external _encoder_exchange_options
0000000180ff44e4 (__TEXT,__text) non-external _encoder_features_on_path
0000000180ff3c48 (__TEXT,__text) non-external _encoder_initialize
0000000180ff4778 (__TEXT,__text) non-external _encoder_objective_and_gradients
0000000180ff3e60 (__TEXT,__text) non-external _encoder_objective_and_gradients_batch
0000000180ff473c (__TEXT,__text) non-external _encoder_partition_factor
0000000180ff4908 (__TEXT,__text) non-external _encoder_release
0000000180ff3fbc (__TEXT,__text) non-external _encoder_save_model
0000000180ff404c (__TEXT,__text) non-external _encoder_save_model_to_file_pointer
000000018101e674 (__TEXT,__text) non-external _encoder_save_model_to_file_pointer.cold.1
0000000180ff46d0 (__TEXT,__text) non-external _encoder_score
0000000180ff46a4 (__TEXT,__text) non-external _encoder_set_instance
0000000180ff4678 (__TEXT,__text) non-external _encoder_set_weights
0000000180ff4704 (__TEXT,__text) non-external _encoder_viterbi
0000000180fff348 (__TEXT,__text) non-external _exchange_options
0000000181008c4c (__TEXT,__text) non-external (was a private external) _exchange_options
000000018100a768 (__TEXT,__text) non-external _exchange_options
000000018100af84 (__TEXT,__text) non-external _exchange_options
                 (undefined) external _exit (from libSystem)
                 (undefined) external _exp (from libSystem)
                 (undefined) external _fclose (from libSystem)
0000000180ff6954 (__TEXT,__text) non-external _featureset_add
0000000180ff6ba8 (__TEXT,__text) non-external _featureset_comp
                 (undefined) external _ferror (from libSystem)
                 (undefined) external _fflush (from libSystem)
                 (undefined) external _fgets (from libSystem)
                 (undefined) external _fileno (from libSystem)
0000000180ffdf20 (__TEXT,__text) non-external _find_param
                 (undefined) external _fopen (from libSystem)
                 (undefined) external _fprintf (from libSystem)
                 (undefined) external _fputc (from libSystem)
                 (undefined) external _fputs (from libSystem)
                 (undefined) external _fread (from libSystem)
                 (undefined) external _free (from libSystem)
                 (undefined) external _fscanf (from libSystem)
                 (undefined) external _fseek (from libSystem)
                 (undefined) external _ftell (from libSystem)
                 (undefined) external _fwrite (from libSystem)
0000000180ff88d4 (__TEXT,__text) non-external (was a private external) _get_quantized_weight
0000000180ff8908 (__TEXT,__text) non-external (was a private external) _get_unquantized_weight
                 (undefined) external _getc (from libSystem)
                 (undefined) external _gmtime (from libSystem)
0000000180ff250c (__TEXT,__text) non-external (was a private external) _hashbig
0000000180ff210c (__TEXT,__text) non-external (was a private external) _hashlittle
0000000180ff230c (__TEXT,__text) non-external (was a private external) _hashlittle2
0000000180ff1ec4 (__TEXT,__text) non-external (was a private external) _hashword
0000000180ff1fe8 (__TEXT,__text) non-external (was a private external) _hashword2
0000000180ffcec4 (__TEXT,__text) non-external (was a private external) _holdout_evaluation
0000000180ffe8e4 (__TEXT,__text) non-external _insert_cb
0000000180ffd0d4 (__TEXT,__text) non-external (was a private external) _iwa_delete
0000000180ffd134 (__TEXT,__text) non-external (was a private external) _iwa_read
0000000180ffd018 (__TEXT,__text) non-external (was a private external) _iwa_reader
                 (undefined) external _kCFAllocatorDefault (from CoreFoundation)
0000000180ffe00c (__TEXT,__text) non-external _keycmp
00000001810094c8 (__TEXT,__text) non-external _l2sgd
000000018100b9dc (__TEXT,__text) non-external (was a private external) _lbfgs
000000018100ad0c (__TEXT,__text) non-external _lbfgs_evaluate
000000018100b9ac (__TEXT,__text) non-external (was a private external) _lbfgs_free
000000018100b96c (__TEXT,__text) non-external (was a private external) _lbfgs_malloc
000000018100b9b0 (__TEXT,__text) non-external (was a private external) _lbfgs_parameter_init
000000018100add0 (__TEXT,__text) non-external _lbfgs_progress
00000001d64dfdc8 (__DATA,__data) external _libsvm_version
000000018100cda4 (__TEXT,__text) non-external _line_search_backtracking
000000018100cb34 (__TEXT,__text) non-external _line_search_backtracking_owlqn
000000018100c664 (__TEXT,__text) non-external _line_search_morethuente
                 (undefined) external _log (from libSystem)
0000000180ffd490 (__TEXT,__text) non-external (was a private external) _logging
0000000180ffd57c (__TEXT,__text) non-external (was a private external) _logging_progress
0000000180ffd62c (__TEXT,__text) non-external (was a private external) _logging_progress_end
0000000180ffd56c (__TEXT,__text) non-external (was a private external) _logging_progress_start
0000000180ffd4cc (__TEXT,__text) non-external (was a private external) _logging_timestamp
                 (undefined) external _lseek (from libSystem)
                 (undefined) external _malloc (from libSystem)
0000000181007934 (__TEXT,__text) external _maxent_add_training_sample
0000000181007a98 (__TEXT,__text) external _maxent_classify
0000000181008490 (__TEXT,__text) external _maxent_copy_loaded_model_data
00000001810083cc (__TEXT,__text) external _maxent_copy_trained_model_data
0000000181007b7c (__TEXT,__text) external _maxent_get_class_id
0000000181007b64 (__TEXT,__text) external _maxent_get_class_label
000000018100795c (__TEXT,__text) external _maxent_load_from_file
0000000181007a18 (__TEXT,__text) external _maxent_load_with_bytes
00000001810076e8 (__TEXT,__text) external _maxent_model_create
0000000181007c0c (__TEXT,__text) external _maxent_model_release
0000000181007bf8 (__TEXT,__text) external _maxent_model_retain
0000000181007744 (__TEXT,__text) external _maxent_mutable_model_release
0000000181007a84 (__TEXT,__text) external _maxent_num_classes
0000000181008044 (__TEXT,__text) external _maxent_sample_add_feature
00000001810080e4 (__TEXT,__text) external _maxent_sample_add_feature_with_value
0000000181008308 (__TEXT,__text) external _maxent_sample_clear
0000000181007c70 (__TEXT,__text) external _maxent_sample_create
0000000181007ce4 (__TEXT,__text) external _maxent_sample_description
000000018100801c (__TEXT,__text) external _maxent_sample_get_label
0000000181008360 (__TEXT,__text) external _maxent_sample_release
0000000181007fb0 (__TEXT,__text) external _maxent_sample_set_label
0000000181007790 (__TEXT,__text) external _maxent_save_to_file
0000000181007798 (__TEXT,__text) external _maxent_save_to_file_with_threshold
00000001810078c4 (__TEXT,__text) external _maxent_set_heldout
000000018100794c (__TEXT,__text) external _maxent_train
00000001810078fc (__TEXT,__text) external _maxent_use_SGD
00000001810078d8 (__TEXT,__text) external _maxent_use_default_SGD
0000000181007914 (__TEXT,__text) external _maxent_use_l1_regularizer
0000000181007924 (__TEXT,__text) external _maxent_use_l2_regularizer
0000000180fff038 (__TEXT,__text) non-external _mem_mgr
                 (undefined) external _memcmp (from libSystem)
                 (undefined) external _memcpy (from libSystem)
                 (undefined) external _memmove (from libSystem)
                 (undefined) external _memset (from libSystem)
                 (undefined) external _memset_pattern16 (from libSystem)
                 (undefined) external _mmap (from libSystem)
0000000180ff9f78 (__TEXT,__text) non-external _model_addref
0000000180ff9b14 (__TEXT,__text) non-external _model_attrs_addref
0000000180ff9b70 (__TEXT,__text) non-external _model_attrs_free
0000000180ff9b24 (__TEXT,__text) non-external _model_attrs_get
0000000180ff9b68 (__TEXT,__text) non-external _model_attrs_num
0000000180ff9b1c (__TEXT,__text) non-external _model_attrs_release
0000000180ff9b30 (__TEXT,__text) non-external _model_attrs_to_id
0000000180ff9b38 (__TEXT,__text) non-external _model_attrs_to_string
0000000180ffa038 (__TEXT,__text) non-external _model_dump
0000000180ff9ffc (__TEXT,__text) non-external _model_get_attrs
0000000180ffa010 (__TEXT,__text) non-external _model_get_labels
0000000180ffa068 (__TEXT,__text) non-external _model_get_number_of_attributes
0000000180ffa05c (__TEXT,__text) non-external _model_get_number_of_labels
0000000180ffa024 (__TEXT,__text) non-external _model_get_tagger
0000000180ff9b74 (__TEXT,__text) non-external _model_labels_addref
0000000180ff9bd0 (__TEXT,__text) non-external _model_labels_free
0000000180ff9b84 (__TEXT,__text) non-external _model_labels_get
0000000180ff9bc8 (__TEXT,__text) non-external _model_labels_num
0000000180ff9b7c (__TEXT,__text) non-external _model_labels_release
0000000180ff9b90 (__TEXT,__text) non-external _model_labels_to_id
0000000180ff9b98 (__TEXT,__text) non-external _model_labels_to_string
0000000180ff9f80 (__TEXT,__text) non-external _model_release
                 (undefined) external _munmap (from libSystem)
0000000180ffe264 (__TEXT,__text) non-external _my_cmp
000000018100d734 (__TEXT,__text) external _my_crf_create_instance_from_file
0000000180ffdd88 (__TEXT,__text) non-external _mystrdup
0000000180ffe628 (__TEXT,__text) non-external _node_new
                 (undefined) external _open (from libSystem)
0000000180ff9640 (__TEXT,__text) non-external (was a private external) _open_attribute_features
0000000180ffe038 (__TEXT,__text) non-external _owcb
000000018100cfc4 (__TEXT,__text) non-external _owlqn_pseudo_gradient
0000000180ffddc0 (__TEXT,__text) non-external (was a private external) _params_add_float
0000000180ffdce4 (__TEXT,__text) non-external (was a private external) _params_add_int
0000000180ffde70 (__TEXT,__text) non-external (was a private external) _params_add_string
0000000180ffd7b0 (__TEXT,__text) non-external _params_addref
0000000180ffd670 (__TEXT,__text) non-external (was a private external) _params_create_instance
0000000180ffda5c (__TEXT,__text) non-external _params_free
0000000180ffd984 (__TEXT,__text) non-external _params_get
0000000180ffdbac (__TEXT,__text) non-external _params_get_float
0000000180ffdb5c (__TEXT,__text) non-external _params_get_int
0000000180ffdbfc (__TEXT,__text) non-external _params_get_string
0000000180ffdc4c (__TEXT,__text) non-external _params_help
0000000180ffd878 (__TEXT,__text) non-external _params_name
0000000180ffd86c (__TEXT,__text) non-external _params_num
0000000180ffd7b8 (__TEXT,__text) non-external _params_release
0000000180ffd8b8 (__TEXT,__text) non-external _params_set
0000000180ffdab0 (__TEXT,__text) non-external _params_set_float
0000000180ffda64 (__TEXT,__text) non-external _params_set_int
0000000180ffdafc (__TEXT,__text) non-external _params_set_string
0000000180ffd328 (__TEXT,__text) non-external _peek_char
                 (undefined) external _posix_memalign (from libSystem)
                 (undefined) external _pow (from libSystem)
                 (undefined) external _pthread_getspecific (from libSystem)
                 (undefined) external _pthread_key_create (from libSystem)
                 (undefined) external _pthread_setspecific (from libSystem)
                 (undefined) external _pwrite (from libSystem)
0000000180ff9098 (__TEXT,__text) non-external (was a private external) _qmw_close
0000000180ff917c (__TEXT,__text) non-external (was a private external) _qmw_create_from_file_pointer
0000000180ff9040 (__TEXT,__text) non-external (was a private external) _qmw_initialize_header
0000000180ff9368 (__TEXT,__text) non-external (was a private external) _qmw_open_attribute_features
0000000180ff9504 (__TEXT,__text) non-external (was a private external) _qmw_write_attribute_feature
000000018101e77c (__TEXT,__text) non-external _qmw_write_attribute_feature.cold.1
000000018101e7a8 (__TEXT,__text) non-external _qmw_write_attribute_feature.cold.2
0000000180ff93e8 (__TEXT,__text) non-external (was a private external) _qmw_write_attribute_feature_counts_and_offsets
000000018101e750 (__TEXT,__text) non-external _qmw_write_attribute_feature_counts_and_offsets.cold.1
0000000180ff92a4 (__TEXT,__text) non-external (was a private external) _qmw_write_label_features
000000018101e724 (__TEXT,__text) non-external _qmw_write_label_features.cold.1
                 (undefined) external _qsort (from libSystem)
0000000180ffe058 (__TEXT,__text) non-external (was a private external) _quark_delete
0000000180ffe0a4 (__TEXT,__text) non-external (was a private external) _quark_get
0000000180ffdf7c (__TEXT,__text) non-external (was a private external) _quark_new
0000000180ffe1d8 (__TEXT,__text) non-external (was a private external) _quark_num
0000000180ffe17c (__TEXT,__text) non-external (was a private external) _quark_to_id
0000000180ffe1b8 (__TEXT,__text) non-external (was a private external) _quark_to_string
                 (undefined) external _rand (from libSystem)
                 (undefined) external _read (from libSystem)
0000000180ff7be8 (__TEXT,__text) non-external (was a private external) _read_attributes
0000000180ffd384 (__TEXT,__text) non-external _read_field_unescaped
0000000180ff7ce0 (__TEXT,__text) non-external (was a private external) _read_header_from_buffer
                 (undefined) external _realloc (from libSystem)
0000000180fff168 (__TEXT,__text) non-external _rotate
0000000180ffeecc (__TEXT,__text) non-external (was a private external) _rumavl_alloc
0000000180ffe3fc (__TEXT,__text) non-external (was a private external) _rumavl_delcb
0000000180ffe8ec (__TEXT,__text) non-external (was a private external) _rumavl_delete
0000000180ffe268 (__TEXT,__text) non-external (was a private external) _rumavl_destroy
0000000180ffee00 (__TEXT,__text) non-external (was a private external) _rumavl_find
0000000180ffef6c (__TEXT,__text) non-external (was a private external) _rumavl_foreach
0000000180ffe8a8 (__TEXT,__text) non-external (was a private external) _rumavl_insert
0000000180ffe1e0 (__TEXT,__text) non-external (was a private external) _rumavl_new
0000000180ffee2c (__TEXT,__text) non-external (was a private external) _rumavl_node_find
0000000180ffeedc (__TEXT,__text) non-external (was a private external) _rumavl_node_next
0000000180ffef64 (__TEXT,__text) non-external (was a private external) _rumavl_node_record
0000000180ffe3f4 (__TEXT,__text) non-external (was a private external) _rumavl_owcb
0000000180ffeed4 (__TEXT,__text) non-external (was a private external) _rumavl_record_size
0000000180ffe404 (__TEXT,__text) non-external (was a private external) _rumavl_set
0000000180fff010 (__TEXT,__text) non-external (was a private external) _rumavl_strerror
0000000180ffe3ec (__TEXT,__text) non-external (was a private external) _rumavl_udata
0000000180ffe38c (__TEXT,__text) non-external _seq_next
0000000180ff51a8 (__TEXT,__text) non-external _set_level
                 (undefined) external _snprintf (from libSystem)
0000000180ffe6dc (__TEXT,__text) non-external _stack_destroy
0000000180ffe730 (__TEXT,__text) non-external _stack_update
                 (undefined) external _stat (from libSystem)
                 (undefined) external _strcmp (from libSystem)
                 (undefined) external _strcpy (from libSystem)
                 (undefined) external _strftime (from libSystem)
                 (undefined) external _strlen (from libSystem)
                 (undefined) external _strncmp (from libSystem)
                 (undefined) external _strncpy (from libSystem)
                 (undefined) external _strrchr (from libSystem)
                 (undefined) external _strtod (from libSystem)
                 (undefined) external _strtok (from libSystem)
                 (undefined) external _strtol (from libSystem)
0000000181013d48 (__TEXT,__text) external _svm_check_parameter
00000001810140f4 (__TEXT,__text) external _svm_check_probability_model
0000000181011d84 (__TEXT,__text) external _svm_cross_validation
0000000181013d0c (__TEXT,__text) external _svm_destroy_param
0000000181012a18 (__TEXT,__text) external _svm_free_and_destroy_model
0000000181013c28 (__TEXT,__text) external _svm_free_model_content
0000000181012a5c (__TEXT,__text) external _svm_get_labels
0000000181012428 (__TEXT,__text) external _svm_get_nr_class
0000000181012a54 (__TEXT,__text) external _svm_get_svm_type
0000000181012a90 (__TEXT,__text) external _svm_get_svr_probability
0000000181013228 (__TEXT,__text) external _svm_load_model
0000000181012988 (__TEXT,__text) external _svm_predict
0000000181012430 (__TEXT,__text) external _svm_predict_probability
0000000181012ae8 (__TEXT,__text) external _svm_predict_values
0000000181012da4 (__TEXT,__text) external _svm_save_model
000000018101413c (__TEXT,__text) external _svm_set_print_string_function
0000000181010034 (__TEXT,__text) external _svm_train
                 (undefined) external _sysconf (from libSystem)
0000000180ff9bd4 (__TEXT,__text) non-external _tagger_addref
0000000180ff9c40 (__TEXT,__text) non-external _tagger_length
0000000180ff9cc0 (__TEXT,__text) non-external _tagger_lognorm
0000000180ff9d50 (__TEXT,__text) non-external _tagger_marginal_path
0000000180ff9cfc (__TEXT,__text) non-external _tagger_marginal_point
0000000180ff9bdc (__TEXT,__text) non-external _tagger_release
0000000180ff9c88 (__TEXT,__text) non-external _tagger_score
0000000180ff9be4 (__TEXT,__text) non-external _tagger_set
0000000180ff9db4 (__TEXT,__text) non-external _tagger_tag_paragraph
0000000180ff9c50 (__TEXT,__text) non-external _tagger_viterbi
                 (undefined) external _tanh (from libSystem)
000000018100b898 (__TEXT,__text) non-external _tau0
000000018100b874 (__TEXT,__text) non-external _tau1
000000018100b884 (__TEXT,__text) non-external _tau2
                 (undefined) external _time (from libSystem)
                 (undefined) external _tmpfile (from libSystem)
000000018100d088 (__TEXT,__text) non-external _update_trial_interval
0000000181008c1c (__TEXT,__text) non-external _update_weights
                 (undefined) external _vsprintf (from libSystem)
                 (undefined) external _write (from libSystem)
0000000180ff964c (__TEXT,__text) non-external (was a private external) _write_attribute_feature
0000000180ff9634 (__TEXT,__text) non-external (was a private external) _write_attribute_feature_counts_and_offsets
0000000180ff6dbc (__TEXT,__text) non-external (was a private external) _write_header_to_file
0000000180ff962c (__TEXT,__text) non-external (was a private external) _write_label_features
