00000002254f1454 (__TEXT,__text) external __ZN11flatbuffers10CopyInlineERNS_17FlatBufferBuilderERKN10reflection5FieldERKNS_5TableEmm
00000002254d4534 (__TEXT,__text) external __ZN11flatbuffers10Definition21DeserializeAttributesERNS_6ParserEPKNS_6VectorINS_6OffsetIN10reflection8KeyValueEEEEE
00000002254f4ec0 (__TEXT,__text) external __ZN11flatbuffers10FileExistsEPKc
00000002254d52b4 (__TEXT,__text) external __ZN11flatbuffers10ServiceDef11DeserializeERNS_6ParserEPKN10reflection7ServiceE
00000002254f4950 (__TEXT,__text) external __ZN11flatbuffers11LoadFileRawEPKcbPNSt3__112basic_stringIcNS2_11char_traitsIcEENS2_9allocatorIcEEEE
00000002254f24b8 (__TEXT,__text) external __ZN11flatbuffers11VerifyUnionERNS_8VerifierERKN10reflection6SchemaEyPKhRKNS2_5FieldE
00000002254e74d8 (__TEXT,__text) weak external __ZN11flatbuffers11compareNameINS_7EnumDefEEEbPKT_S4_
00000002254e67d8 (__TEXT,__text) weak external __ZN11flatbuffers11compareNameINS_9StructDefEEEbPKT_S4_
00000002254f5620 (__TEXT,__text) external __ZN11flatbuffers12AbsolutePathERKNSt3__112basic_stringIcNS0_11char_traitsIcEENS0_9allocatorIcEEEE
00000002254e837c (__TEXT,__text) external __ZN11flatbuffers12GenerateTextERKNS_6ParserEPKvPNSt3__112basic_stringIcNS5_11char_traitsIcEENS5_9allocatorIcEEEE
00000002254f0934 (__TEXT,__text) external __ZN11flatbuffers12GetAnyValueFEN10reflection8BaseTypeEPKh
00000002254f0804 (__TEXT,__text) external __ZN11flatbuffers12GetAnyValueIEN10reflection8BaseTypeEPKh
00000002254f09dc (__TEXT,__text) external __ZN11flatbuffers12GetAnyValueSEN10reflection8BaseTypeEPKhPKNS0_6SchemaEi
00000002254f525c (__TEXT,__text) external __ZN11flatbuffers12GetExtensionERKNSt3__112basic_stringIcNS0_11char_traitsIcEENS0_9allocatorIcEEEE
00000002254f0fd8 (__TEXT,__text) external __ZN11flatbuffers12SetAnyValueFEN10reflection8BaseTypeEPhd
00000002254f0f44 (__TEXT,__text) external __ZN11flatbuffers12SetAnyValueIEN10reflection8BaseTypeEPhx
00000002254f1004 (__TEXT,__text) external __ZN11flatbuffers12SetAnyValueSEN10reflection8BaseTypeEPhPKc
00000002254e912c (__TEXT,__text) external __ZN11flatbuffers12TextMakeRuleERKNS_6ParserERKNSt3__112basic_stringIcNS3_11char_traitsIcEENS3_9allocatorIcEEEESB_
00000002254f2734 (__TEXT,__text) external __ZN11flatbuffers12VerifyObjectERNS_8VerifierERKN10reflection6SchemaERKNS2_6ObjectEPKNS_5TableEb
00000002254f23bc (__TEXT,__text) external __ZN11flatbuffers12VerifyStructERNS_8VerifierERKNS_5TableEtRKN10reflection6ObjectEb
00000002254f3014 (__TEXT,__text) external __ZN11flatbuffers12VerifyVectorERNS_8VerifierERKN10reflection6SchemaERKNS_5TableERKNS2_5FieldE
00000002254f1304 (__TEXT,__text) external __ZN11flatbuffers13AddFlatBufferERNSt3__16vectorIhNS0_9allocatorIhEEEEPKhm
00000002254f57a4 (__TEXT,__text) external __ZN11flatbuffers13ClassicLocale3GetEv
00000002254f5710 (__TEXT,__text) external __ZN11flatbuffers13ClassicLocaleC1Ev
00000002254f56d4 (__TEXT,__text) external __ZN11flatbuffers13ClassicLocaleC2Ev
00000002254f5778 (__TEXT,__text) external __ZN11flatbuffers13ClassicLocaleD1Ev
00000002254f574c (__TEXT,__text) external __ZN11flatbuffers13ClassicLocaleD2Ev
00000002254f46f0 (__TEXT,__text) external __ZN11flatbuffers13FileExistsRawEPKc
00000002254f5398 (__TEXT,__text) external __ZN11flatbuffers13StripFileNameERKNSt3__112basic_stringIcNS0_11char_traitsIcEENS0_9allocatorIcEEEE
00000002254bc8a4 (__TEXT,__text) external __ZN11flatbuffers14DeserializeDocERNSt3__16vectorINS0_12basic_stringIcNS0_11char_traitsIcEENS0_9allocatorIcEEEENS5_IS7_EEEEPKNS_6VectorINS_6OffsetINS_6StringEEEEE
00000002254f51c0 (__TEXT,__text) external __ZN11flatbuffers14StripExtensionERKNSt3__112basic_stringIcNS0_11char_traitsIcEENS0_9allocatorIcEEEE
00000002254f55a8 (__TEXT,__text) external __ZN11flatbuffers15EnsureDirExistsERKNSt3__112basic_stringIcNS0_11char_traitsIcEENS0_9allocatorIcEEEE
00000002254f1220 (__TEXT,__text) external __ZN11flatbuffers15ResizeAnyVectorERKN10reflection6SchemaEjPKNS_11VectorOfAnyEjjPNSt3__16vectorIhNS7_9allocatorIhEEEEPKNS0_6ObjectE
00000002254e8398 (__TEXT,__text) external __ZN11flatbuffers16GenerateTextFileERKNS_6ParserERKNSt3__112basic_stringIcNS3_11char_traitsIcEENS3_9allocatorIcEEEESB_
00000002254f59c8 (__TEXT,__text) external __ZN11flatbuffers17HideAppleInternalEv
00000002254f5434 (__TEXT,__text) external __ZN11flatbuffers18ConCatPathFileNameERKNSt3__112basic_stringIcNS0_11char_traitsIcEENS0_9allocatorIcEEEES8_
00000002254bc810 (__TEXT,__text) external __ZN11flatbuffers18MakeScreamingCamelERKNSt3__112basic_stringIcNS0_11char_traitsIcEENS0_9allocatorIcEEEE
00000002254f5834 (__TEXT,__text) external __ZN11flatbuffers18RemoveStringQuotesERKNSt3__112basic_stringIcNS0_11char_traitsIcEENS0_9allocatorIcEEEE
00000002254bc6e0 (__TEXT,__text) external __ZN11flatbuffers19FLATBUFFERS_VERSIONEv
00000002254f58e4 (__TEXT,__text) external __ZN11flatbuffers19SetGlobalTestLocaleEPKcPNSt3__112basic_stringIcNS2_11char_traitsIcEENS2_9allocatorIcEEEE
00000002254f4ecc (__TEXT,__text) external __ZN11flatbuffers19SetLoadFileFunctionEPFbPKcbPNSt3__112basic_stringIcNS2_11char_traitsIcEENS2_9allocatorIcEEEEE
00000002254e826c (__TEXT,__text) external __ZN11flatbuffers21GenerateTextFromTableERKNS_6ParserEPKvRKNSt3__112basic_stringIcNS5_11char_traitsIcEENS5_9allocatorIcEEEEPSB_
00000002254f4ef4 (__TEXT,__text) external __ZN11flatbuffers21SetFileExistsFunctionEPFbPKcE
00000002254f243c (__TEXT,__text) external __ZN11flatbuffers21VerifyVectorOfStructsERNS_8VerifierERKNS_5TableEtRKN10reflection6ObjectEb
00000002254f5958 (__TEXT,__text) external __ZN11flatbuffers23ReadEnvironmentVariableEPKcPNSt3__112basic_stringIcNS2_11char_traitsIcEENS2_9allocatorIcEEEE
00000002254f59c4 (__TEXT,__text) external __ZN11flatbuffers25SetupDefaultCRTReportModeEv
00000002575022d0 (__DATA,__data) weak external __ZN11flatbuffers25flatbuffer_version_stringE
00000002254d4a88 (__TEXT,__text) external __ZN11flatbuffers4Type11DeserializeERKNS_6ParserEPKN10reflection4TypeE
00000002254cc7b0 (__TEXT,__text) external __ZN11flatbuffers6Parser10CheckClashERNSt3__16vectorIPNS_8FieldDefENS1_9allocatorIS4_EEEEPNS_9StructDefEPKcNS_8BaseTypeE
00000002254be764 (__TEXT,__text) external __ZN11flatbuffers6Parser10LookupEnumERKNSt3__112basic_stringIcNS1_11char_traitsIcEENS1_9allocatorIcEEEE
00000002254c5df8 (__TEXT,__text) external __ZN11flatbuffers6Parser10ParseArrayERNS_5ValueE
00000002254c2090 (__TEXT,__text) external __ZN11flatbuffers6Parser10ParseCommaEv
00000002254bf68c (__TEXT,__text) external __ZN11flatbuffers6Parser10ParseFieldERNS_9StructDefE
00000002254c3a18 (__TEXT,__text) external __ZN11flatbuffers6Parser10ParseTableERKNS_9StructDefEPNSt3__112basic_stringIcNS4_11char_traitsIcEENS4_9allocatorIcEEEEPj
00000002254ca970 (__TEXT,__text) external __ZN11flatbuffers6Parser10TokenErrorEv
00000002254d6228 (__TEXT,__text) external __ZN11flatbuffers6Parser11DeserializeEPKN10reflection6SchemaE
00000002254d6140 (__TEXT,__text) external __ZN11flatbuffers6Parser11DeserializeEPKhm
00000002254bd2ec (__TEXT,__text) external __ZN11flatbuffers6Parser11ParseHexNumEiPy
00000002254c1e4c (__TEXT,__text) external __ZN11flatbuffers6Parser11ParseStringERNS_5ValueE
00000002254c533c (__TEXT,__text) external __ZN11flatbuffers6Parser11ParseVectorERKNS_4TypeEPjPNS_8FieldDefEm
00000002254cde20 (__TEXT,__text) external __ZN11flatbuffers6Parser11SetRootTypeEPKc
00000002254cc6a4 (__TEXT,__text) external __ZN11flatbuffers6Parser11StartStructERKNSt3__112basic_stringIcNS1_11char_traitsIcEENS1_9allocatorIcEEEEPPNS_9StructDefE
00000002254cd614 (__TEXT,__text) external __ZN11flatbuffers6Parser12ParseServiceEv
00000002254bcff8 (__TEXT,__text) external __ZN11flatbuffers6Parser12RecurseErrorEv
00000002254cdf44 (__TEXT,__text) external __ZN11flatbuffers6Parser13MarkGeneratedEv
00000002254c20d8 (__TEXT,__text) external __ZN11flatbuffers6Parser13ParseAnyValueERNS_5ValueEPNS_8FieldDefEmPKNS_9StructDefEjb
00000002254c1ad0 (__TEXT,__text) external __ZN11flatbuffers6Parser13ParseMetaDataEPNS_11SymbolTableINS_5ValueEEE
00000002254cf69c (__TEXT,__text) external __ZN11flatbuffers6Parser13ParseProtoKeyEv
00000002254c9cfc (__TEXT,__text) external __ZN11flatbuffers6Parser13TryTypedValueEPKNSt3__112basic_stringIcNS1_11char_traitsIcEENS1_9allocatorIcEEEEibRNS_5ValueENS_8BaseTypeEPb
00000002254cdfb4 (__TEXT,__text) external __ZN11flatbuffers6Parser14ParseNamespaceEv
00000002254ce218 (__TEXT,__text) external __ZN11flatbuffers6Parser14ParseProtoDeclEv
00000002254be874 (__TEXT,__text) external __ZN11flatbuffers6Parser14ParseTypeIdentERNS_4TypeE
00000002254d0f0c (__TEXT,__text) external __ZN11flatbuffers6Parser14StartParseFileEPKcS2_
00000002254d0ea4 (__TEXT,__text) external __ZN11flatbuffers6Parser15ParseFlexBufferEPKcS2_PN11flexbuffers7BuilderE
00000002254c532c (__TEXT,__text) external __ZN11flatbuffers6Parser15SerializeStructERKNS_9StructDefERKNS_5ValueE
00000002254c6978 (__TEXT,__text) external __ZN11flatbuffers6Parser15SerializeStructERNS_17FlatBufferBuilderERKNS_9StructDefERKNS_5ValueE
00000002254cc9c0 (__TEXT,__text) external __ZN11flatbuffers6Parser15UniqueNamespaceEPNS_9NamespaceE
00000002254ccb9c (__TEXT,__text) external __ZN11flatbuffers6Parser15UnqualifiedNameERKNSt3__112basic_stringIcNS1_11char_traitsIcEENS1_9allocatorIcEEEE
00000002254be68c (__TEXT,__text) external __ZN11flatbuffers6Parser16ParseNamespacingEPNSt3__112basic_stringIcNS1_11char_traitsIcEENS1_9allocatorIcEEEES8_
00000002254ce7dc (__TEXT,__text) external __ZN11flatbuffers6Parser16ParseProtoFieldsEPNS_9StructDefEbb
00000002254cbff0 (__TEXT,__text) external __ZN11flatbuffers6Parser16ParseProtoOptionEv
00000002254c06b8 (__TEXT,__text) external __ZN11flatbuffers6Parser16ParseSingleValueEPKNSt3__112basic_stringIcNS1_11char_traitsIcEENS1_9allocatorIcEEEERNS_5ValueEb
00000002254c2cd8 (__TEXT,__text) external __ZN11flatbuffers6Parser16SkipAnyJsonValueEv
00000002254bd4a4 (__TEXT,__text) external __ZN11flatbuffers6Parser17SkipByteOrderMarkEv
00000002254be980 (__TEXT,__text) external __ZN11flatbuffers6Parser18LookupCreateStructERKNSt3__112basic_stringIcNS1_11char_traitsIcEENS1_9allocatorIcEEEEbb
00000002254ca154 (__TEXT,__text) external __ZN11flatbuffers6Parser19ParseEnumFromStringERKNS_4TypeEPNSt3__112basic_stringIcNS4_11char_traitsIcEENS4_9allocatorIcEEEE
00000002254d0084 (__TEXT,__text) external __ZN11flatbuffers6Parser20ParseFlexBufferValueEPN11flexbuffers7BuilderE
00000002254c8710 (__TEXT,__text) external __ZN11flatbuffers6Parser21ParseNestedFlatbufferERNS_5ValueEPNS_8FieldDefEmPKNS_9StructDefE
00000002254cf590 (__TEXT,__text) external __ZN11flatbuffers6Parser22ParseTypeFromProtoTypeEPNS_4TypeE
00000002254cf3d0 (__TEXT,__text) external __ZN11flatbuffers6Parser24ParseProtoCurliesOrIdentEv
00000002254bd548 (__TEXT,__text) external __ZN11flatbuffers6Parser4NextEv
00000002254bcf98 (__TEXT,__text) external __ZN11flatbuffers6Parser5ErrorERKNSt3__112basic_stringIcNS1_11char_traitsIcEENS1_9allocatorIcEEEE
00000002254c9c1c (__TEXT,__text) external __ZN11flatbuffers6Parser5ParseEPKcPS2_S2_
00000002254be520 (__TEXT,__text) external __ZN11flatbuffers6Parser6ExpectEi
00000002254d15b0 (__TEXT,__text) external __ZN11flatbuffers6Parser7DoParseEPKcPS2_S2_S2_
00000002254bca64 (__TEXT,__text) external __ZN11flatbuffers6Parser7MessageERKNSt3__112basic_stringIcNS1_11char_traitsIcEENS1_9allocatorIcEEEE
00000002254bcf44 (__TEXT,__text) external __ZN11flatbuffers6Parser7WarningERKNSt3__112basic_stringIcNS1_11char_traitsIcEENS1_9allocatorIcEEEE
00000002254bf2b8 (__TEXT,__text) external __ZN11flatbuffers6Parser8AddFieldERNS_9StructDefERKNSt3__112basic_stringIcNS3_11char_traitsIcEENS3_9allocatorIcEEEERKNS_4TypeEPPNS_8FieldDefE
00000002254d6fcc (__TEXT,__text) external __ZN11flatbuffers6Parser9ConformToERKS0_
00000002254ccdc0 (__TEXT,__text) external __ZN11flatbuffers6Parser9ParseDeclEv
00000002254cb1a4 (__TEXT,__text) external __ZN11flatbuffers6Parser9ParseEnumEbPPNS_7EnumDefE
00000002254c65a0 (__TEXT,__text) external __ZN11flatbuffers6Parser9ParseHashERNS_5ValueEPNS_8FieldDefE
00000002254d1100 (__TEXT,__text) external __ZN11flatbuffers6Parser9ParseRootEPKcPS2_S2_
00000002254bed04 (__TEXT,__text) external __ZN11flatbuffers6Parser9ParseTypeERNS_4TypeE
00000002254d293c (__TEXT,__text) external __ZN11flatbuffers6Parser9SerializeEv
00000002254cbd90 (__TEXT,__text) external __ZN11flatbuffers6Parser9StartEnumERKNSt3__112basic_stringIcNS1_11char_traitsIcEENS1_9allocatorIcEEEEbPPNS_7EnumDefE
00000002254bc700 (__TEXT,__text) external __ZN11flatbuffers6SizeOfENS_8BaseTypeE
00000002254f3b3c (__TEXT,__text) external __ZN11flatbuffers6VerifyERKN10reflection6SchemaERKNS0_6ObjectEPKhm
00000002254d56a0 (__TEXT,__text) external __ZN11flatbuffers7EnumDef11DeserializeERNS_6ParserEPKN10reflection4EnumE
00000002254caff8 (__TEXT,__text) external __ZN11flatbuffers7EnumDef11SortByValueEv
00000002254cb060 (__TEXT,__text) external __ZN11flatbuffers7EnumDef16RemoveDuplicatesEv
00000002254d5940 (__TEXT,__text) external __ZN11flatbuffers7EnumVal11DeserializeERNS_6ParserEPKN10reflection7EnumValE
00000002254d50bc (__TEXT,__text) external __ZN11flatbuffers7RPCCall11DeserializeERNS_6ParserEPKN10reflection7RPCCallE
00000002254d453c (__TEXT,__text) external __ZN11flatbuffers8FieldDef11DeserializeERNS_6ParserEPKN10reflection5FieldE
00000002254d7704 (__TEXT,__text) weak external __ZN11flatbuffers8HashFnv1IjEET_PKc
00000002254d776c (__TEXT,__text) weak external __ZN11flatbuffers8HashFnv1IyEET_PKc
00000002254f4eb4 (__TEXT,__text) external __ZN11flatbuffers8LoadFileEPKcbPNSt3__112basic_stringIcNS2_11char_traitsIcEENS2_9allocatorIcEEEE
00000002254f4f1c (__TEXT,__text) external __ZN11flatbuffers8SaveFileEPKcS1_mb
00000002254bc6ec (__TEXT,__text) external __ZN11flatbuffers8TypeNameENS_8BaseTypeE
00000002254f1540 (__TEXT,__text) external __ZN11flatbuffers9CopyTableERNS_17FlatBufferBuilderERKN10reflection6SchemaERKNS2_6ObjectERKNS_5TableEb
00000002254f4e7c (__TEXT,__text) external __ZN11flatbuffers9DirExistsEPKc
00000002254d7738 (__TEXT,__text) weak external __ZN11flatbuffers9HashFnv1aIjEET_PKc
00000002254d77ac (__TEXT,__text) weak external __ZN11flatbuffers9HashFnv1aIyEET_PKc
00000002254bc714 (__TEXT,__text) external __ZN11flatbuffers9MakeCamelERKNSt3__112basic_stringIcNS0_11char_traitsIcEENS0_9allocatorIcEEEEb
00000002254f554c (__TEXT,__text) external __ZN11flatbuffers9PosixPathEPKc
00000002254f1118 (__TEXT,__text) external __ZN11flatbuffers9SetStringERKN10reflection6SchemaERKNSt3__112basic_stringIcNS4_11char_traitsIcEENS4_9allocatorIcEEEEPKNS_6StringEPNS4_6vectorIhNS8_IhEEEEPKNS0_6ObjectE
00000002254f52e0 (__TEXT,__text) external __ZN11flatbuffers9StripPathERKNSt3__112basic_stringIcNS0_11char_traitsIcEENS0_9allocatorIcEEEE
00000002254d40b8 (__TEXT,__text) external __ZN11flatbuffers9StructDef11DeserializeERNS_6ParserEPKN10reflection6ObjectE
00000002254d3f20 (__TEXT,__text) external __ZNK11flatbuffers10Definition19SerializeAttributesEPNS_17FlatBufferBuilderERKNS_6ParserE
00000002254d394c (__TEXT,__text) external __ZNK11flatbuffers10ServiceDef9SerializeEPNS_17FlatBufferBuilderERKNS_6ParserE
00000002254d49b4 (__TEXT,__text) external __ZNK11flatbuffers4Type9SerializeEPNS_17FlatBufferBuilderE
00000002254be824 (__TEXT,__text) external __ZNK11flatbuffers6Parser12LookupStructERKNSt3__112basic_stringIcNS1_11char_traitsIcEENS1_9allocatorIcEEEE
00000002254bd280 (__TEXT,__text) external __ZNK11flatbuffers6Parser15TokenToStringIdEi
00000002254d26e0 (__TEXT,__text) external __ZNK11flatbuffers6Parser25GetIncludedFilesRecursiveERKNSt3__112basic_stringIcNS1_11char_traitsIcEENS1_9allocatorIcEEEE
00000002254c05f0 (__TEXT,__text) external __ZNK11flatbuffers6Parser29SupportsAdvancedArrayFeaturesEv
00000002254c069c (__TEXT,__text) external __ZNK11flatbuffers6Parser29SupportsAdvancedUnionFeaturesEv
00000002254be3f8 (__TEXT,__text) external __ZNK11flatbuffers6Parser2IsEi
00000002254be408 (__TEXT,__text) external __ZNK11flatbuffers6Parser7IsIdentEPKc
00000002254c19dc (__TEXT,__text) external __ZNK11flatbuffers7EnumDef11FindByValueERKNSt3__112basic_stringIcNS1_11char_traitsIcEENS1_9allocatorIcEEEE
00000002254c39d8 (__TEXT,__text) external __ZNK11flatbuffers7EnumDef13ReverseLookupExb
00000002254cafc8 (__TEXT,__text) external __ZNK11flatbuffers7EnumDef5CountEv
00000002254caf80 (__TEXT,__text) external __ZNK11flatbuffers7EnumDef8AllFlagsEv
00000002254caf3c (__TEXT,__text) external __ZNK11flatbuffers7EnumDef8DistanceEPKNS_7EnumValES3_
00000002254caf20 (__TEXT,__text) external __ZNK11flatbuffers7EnumDef8MaxValueEv
00000002254caf04 (__TEXT,__text) external __ZNK11flatbuffers7EnumDef8MinValueEv
00000002254d360c (__TEXT,__text) external __ZNK11flatbuffers7EnumDef9SerializeEPNS_17FlatBufferBuilderERKNS_6ParserE
00000002254d552c (__TEXT,__text) external __ZNK11flatbuffers7EnumVal9SerializeEPNS_17FlatBufferBuilderERKNS_6ParserE
00000002254d4f98 (__TEXT,__text) external __ZNK11flatbuffers7RPCCall9SerializeEPNS_17FlatBufferBuilderERKNS_6ParserE
00000002254d3c50 (__TEXT,__text) external __ZNK11flatbuffers8FieldDef9SerializeEPNS_17FlatBufferBuilderEtRKNS_6ParserE
00000002254bd0c4 (__TEXT,__text) external __ZNK11flatbuffers9Namespace21GetFullyQualifiedNameERKNSt3__112basic_stringIcNS1_11char_traitsIcEENS1_9allocatorIcEEEEm
00000002254d3280 (__TEXT,__text) external __ZNK11flatbuffers9StructDef9SerializeEPNS_17FlatBufferBuilderERKNS_6ParserE
                 (undefined) external __ZNKSt3__112basic_stringIcNS_11char_traitsIcEENS_9allocatorIcEEE4findEcm (from libc++)
                 (undefined) external __ZNKSt3__112basic_stringIcNS_11char_traitsIcEENS_9allocatorIcEEE5rfindEcm (from libc++)
                 (undefined) external __ZNKSt3__112basic_stringIcNS_11char_traitsIcEENS_9allocatorIcEEE7compareEmmPKc (from libc++)
                 (undefined) external __ZNKSt3__115basic_stringbufIcNS_11char_traitsIcEENS_9allocatorIcEEE3strEv (from libc++)
                 (undefined) external __ZNKSt3__16locale9use_facetERNS0_2idE (from libc++)
                 (undefined) external __ZNKSt3__18ios_base6getlocEv (from libc++)
                 (undefined) external __ZNSt3__112basic_stringIcNS_11char_traitsIcEENS_9allocatorIcEEE5eraseEmm (from libc++)
                 (undefined) external __ZNSt3__112basic_stringIcNS_11char_traitsIcEENS_9allocatorIcEEE6appendEPKc (from libc++)
                 (undefined) external __ZNSt3__112basic_stringIcNS_11char_traitsIcEENS_9allocatorIcEEE6appendEPKcm (from libc++)
                 (undefined) external __ZNSt3__112basic_stringIcNS_11char_traitsIcEENS_9allocatorIcEEE6appendEmc (from libc++)
                 (undefined) external __ZNSt3__112basic_stringIcNS_11char_traitsIcEENS_9allocatorIcEEE6assignEPKc (from libc++)
                 (undefined) external __ZNSt3__112basic_stringIcNS_11char_traitsIcEENS_9allocatorIcEEE6assignEPKcm (from libc++)
                 (undefined) external __ZNSt3__112basic_stringIcNS_11char_traitsIcEENS_9allocatorIcEEE6insertEmPKc (from libc++)
                 (undefined) external __ZNSt3__112basic_stringIcNS_11char_traitsIcEENS_9allocatorIcEEE6resizeEmc (from libc++)
                 (undefined) external __ZNSt3__112basic_stringIcNS_11char_traitsIcEENS_9allocatorIcEEE7reserveEm (from libc++)
                 (undefined) external __ZNSt3__112basic_stringIcNS_11char_traitsIcEENS_9allocatorIcEEE9__grow_byEmmmmmm (from libc++)
                 (undefined) external __ZNSt3__112basic_stringIcNS_11char_traitsIcEENS_9allocatorIcEEE9push_backEc (from libc++)
                 (undefined) external __ZNSt3__112basic_stringIcNS_11char_traitsIcEENS_9allocatorIcEEEC2ERKS5_mmRKS4_ (from libc++)
                 (undefined) external __ZNSt3__112basic_stringIcNS_11char_traitsIcEENS_9allocatorIcEEEaSERKS5_ (from libc++)
                 (undefined) external __ZNSt3__112basic_stringIcNS_11char_traitsIcEENS_9allocatorIcEEEaSEc (from libc++)
                 (undefined) external __ZNSt3__113basic_filebufIcNS_11char_traitsIcEEE4openEPKcj (from libc++)
                 (undefined) external __ZNSt3__113basic_filebufIcNS_11char_traitsIcEEEC1Ev (from libc++)
                 (undefined) external __ZNSt3__113basic_filebufIcNS_11char_traitsIcEEED1Ev (from libc++)
                 (undefined) external __ZNSt3__113basic_istreamIcNS_11char_traitsIcEEE4readEPcl (from libc++)
                 (undefined) external __ZNSt3__113basic_istreamIcNS_11char_traitsIcEEE5seekgExNS_8ios_base7seekdirE (from libc++)
                 (undefined) external __ZNSt3__113basic_istreamIcNS_11char_traitsIcEEE5tellgEv (from libc++)
                 (undefined) external __ZNSt3__113basic_istreamIcNS_11char_traitsIcEEED2Ev (from libc++)
                 (undefined) external __ZNSt3__113basic_ostreamIcNS_11char_traitsIcEEE5writeEPKcl (from libc++)
                 (undefined) external __ZNSt3__113basic_ostreamIcNS_11char_traitsIcEEED2Ev (from libc++)
                 (undefined) external __ZNSt3__113basic_ostreamIcNS_11char_traitsIcEEElsEPNS_15basic_streambufIcS2_EE (from libc++)
                 (undefined) external __ZNSt3__113basic_ostreamIcNS_11char_traitsIcEEElsEd (from libc++)
                 (undefined) external __ZNSt3__113basic_ostreamIcNS_11char_traitsIcEEElsEf (from libc++)
                 (undefined) external __ZNSt3__113basic_ostreamIcNS_11char_traitsIcEEElsEi (from libc++)
                 (undefined) external __ZNSt3__113basic_ostreamIcNS_11char_traitsIcEEElsEj (from libc++)
                 (undefined) external __ZNSt3__113basic_ostreamIcNS_11char_traitsIcEEElsEm (from libc++)
                 (undefined) external __ZNSt3__113basic_ostreamIcNS_11char_traitsIcEEElsEs (from libc++)
                 (undefined) external __ZNSt3__113basic_ostreamIcNS_11char_traitsIcEEElsEt (from libc++)
                 (undefined) external __ZNSt3__113basic_ostreamIcNS_11char_traitsIcEEElsEx (from libc++)
                 (undefined) external __ZNSt3__113basic_ostreamIcNS_11char_traitsIcEEElsEy (from libc++)
                 (undefined) external __ZNSt3__114basic_iostreamIcNS_11char_traitsIcEEED2Ev (from libc++)
                 (undefined) external __ZNSt3__115basic_streambufIcNS_11char_traitsIcEEEC2Ev (from libc++)
                 (undefined) external __ZNSt3__115basic_streambufIcNS_11char_traitsIcEEED2Ev (from libc++)
00000002254f5fa6 (__TEXT,__const) weak external __ZNSt3__119piecewise_constructE
                 (undefined) external __ZNSt3__15ctypeIcE2idE (from libc++)
                 (undefined) external __ZNSt3__16localeD1Ev (from libc++)
                 (undefined) external __ZNSt3__18ios_base4initEPv (from libc++)
                 (undefined) external __ZNSt3__18ios_base5clearEj (from libc++)
                 (undefined) external __ZNSt3__19basic_iosIcNS_11char_traitsIcEEED2Ev (from libc++)
                 (undefined) external __ZNSt3__1plIcNS_11char_traitsIcEENS_9allocatorIcEEEENS_12basic_stringIT_T0_T1_EEPKS6_RKS9_ (from libc++)
                 (undefined) external __ZTTNSt3__114basic_ifstreamIcNS_11char_traitsIcEEEE (from libc++)
                 (undefined) external __ZTTNSt3__114basic_ofstreamIcNS_11char_traitsIcEEEE (from libc++)
                 (undefined) external __ZTTNSt3__118basic_stringstreamIcNS_11char_traitsIcEENS_9allocatorIcEEEE (from libc++)
                 (undefined) external __ZTTNSt3__119basic_ostringstreamIcNS_11char_traitsIcEENS_9allocatorIcEEEE (from libc++)
                 (undefined) external __ZTVNSt3__114basic_ifstreamIcNS_11char_traitsIcEEEE (from libc++)
                 (undefined) external __ZTVNSt3__114basic_ofstreamIcNS_11char_traitsIcEEEE (from libc++)
                 (undefined) external __ZTVNSt3__115basic_stringbufIcNS_11char_traitsIcEENS_9allocatorIcEEEE (from libc++)
                 (undefined) external __ZTVNSt3__118basic_stringstreamIcNS_11char_traitsIcEENS_9allocatorIcEEEE (from libc++)
                 (undefined) external __ZTVNSt3__119basic_ostringstreamIcNS_11char_traitsIcEENS_9allocatorIcEEEE (from libc++)
00000002575022eb (__DATA,__data) weak external __ZZN11flatbuffers4dataINS_6OffsetIN10reflection4EnumEEENSt3__19allocatorIS4_EEEEPT_RNS5_6vectorIS8_T0_EEE1t
00000002575022e9 (__DATA,__data) weak external __ZZN11flatbuffers4dataINS_6OffsetIN10reflection5FieldEEENSt3__19allocatorIS4_EEEEPT_RNS5_6vectorIS8_T0_EEE1t
00000002575022ea (__DATA,__data) weak external __ZZN11flatbuffers4dataINS_6OffsetIN10reflection6ObjectEEENSt3__19allocatorIS4_EEEEPT_RNS5_6vectorIS8_T0_EEE1t
00000002575022ef (__DATA,__data) weak external __ZZN11flatbuffers4dataINS_6OffsetIN10reflection7EnumValEEENSt3__19allocatorIS4_EEEEPKT_RKNS5_6vectorIS8_T0_EEE1t
00000002575022ee (__DATA,__data) weak external __ZZN11flatbuffers4dataINS_6OffsetIN10reflection7RPCCallEEENSt3__19allocatorIS4_EEEEPKT_RKNS5_6vectorIS8_T0_EEE1t
00000002575022ec (__DATA,__data) weak external __ZZN11flatbuffers4dataINS_6OffsetIN10reflection7ServiceEEENSt3__19allocatorIS4_EEEEPT_RNS5_6vectorIS8_T0_EEE1t
00000002575022e8 (__DATA,__data) weak external __ZZN11flatbuffers4dataINS_6OffsetINS_6StringEEENSt3__19allocatorIS3_EEEEPKT_RKNS4_6vectorIS7_T0_EEE1t
0000000257502399 (__DATA,__data) weak external __ZZN11flatbuffers4dataINS_6OffsetIPKNS_5TableEEENSt3__19allocatorIS5_EEEEPKT_RKNS6_6vectorIS9_T0_EEE1t
0000000257502398 (__DATA,__data) weak external __ZZN11flatbuffers4dataINS_6OffsetIPKNS_6StringEEENSt3__19allocatorIS5_EEEEPKT_RKNS6_6vectorIS9_T0_EEE1t
00000002575022ed (__DATA,__data) weak external __ZZN11flatbuffers4dataIhNSt3__19allocatorIhEEEEPKT_RKNS1_6vectorIS4_T0_EEE1t
                 (undefined) weak external __ZdaPv (from libc++)
                 (undefined) weak external __ZdlPv (from libc++)
                 (undefined) weak external __Znam (from libc++)
                 (undefined) weak external __Znwm (from libc++)
                 (undefined) external ___cxa_atexit (from libSystem)
                 (undefined) external ___cxa_guard_acquire (from libc++)
                 (undefined) external ___cxa_guard_release (from libc++)
                 (undefined) external ___cxa_pure_virtual (from libc++)
                 (undefined) external ___error (from libSystem)
                 (undefined) external ___stack_chk_fail (from libSystem)
                 (undefined) external ___stack_chk_guard (from libSystem)
                 (undefined) external ___toupper (from libSystem)
                 (undefined) external _abort (from libSystem)
                 (undefined) external _acos (from libSystem)
                 (undefined) external _asin (from libSystem)
                 (undefined) external _atan (from libSystem)
                 (undefined) external _atoi (from libSystem)
                 (undefined) external _bsearch (from libSystem)
                 (undefined) external _bzero (from libSystem)
                 (undefined) external _cos (from libSystem)
                 (undefined) external _freelocale (from libSystem)
                 (undefined) external _getenv (from libSystem)
                 (undefined) external _memcmp (from libSystem)
                 (undefined) external _memcpy (from libSystem)
                 (undefined) external _memmove (from libSystem)
                 (undefined) external _mkdir (from libSystem)
                 (undefined) external _newlocale (from libSystem)
                 (undefined) external _realpath (from libSystem)
                 (undefined) external _setlocale (from libSystem)
                 (undefined) external _sin (from libSystem)
                 (undefined) external _stat (from libSystem)
                 (undefined) external _strcmp (from libSystem)
                 (undefined) external _strlen (from libSystem)
                 (undefined) external _strncmp (from libSystem)
                 (undefined) external _strpbrk (from libSystem)
                 (undefined) external _strtod_l (from libSystem)
                 (undefined) external _strtof_l (from libSystem)
                 (undefined) external _strtoll_l (from libSystem)
                 (undefined) external _strtoull_l (from libSystem)
                 (undefined) external _tan (from libSystem)
