                 (undefined) external __Unwind_Resume (from libSystem)
                 (undefined) external __ZN4half5_eLutE (from libHalf)
                 (undefined) external __ZN4half7convertEi (from libHalf)
                 (undefined) external __ZN4half8_toFloatE (from libHalf)
00007ffb1e0740a2 (__TEXT,__text) external __ZN7Alembic11AbcMaterial3v1111addMaterialENS_3Abc3v1117OCompoundPropertyERKNSt3__112basic_stringIcNS5_11char_traitsIcEENS5_9allocatorIcEEEE
00007ffb1e07404a (__TEXT,__text) external __ZN7Alembic11AbcMaterial3v1111addMaterialENS_3Abc3v117OObjectERKNSt3__112basic_stringIcNS5_11char_traitsIcEENS5_9allocatorIcEEEE
00007ffb1e073d81 (__TEXT,__text) external __ZN7Alembic11AbcMaterial3v1111hasMaterialENS_3Abc3v1117ICompoundPropertyERNS1_15IMaterialSchemaERKNSt3__112basic_stringIcNS7_11char_traitsIcEENS7_9allocatorIcEEEE
00007ffb1e073caf (__TEXT,__text) external __ZN7Alembic11AbcMaterial3v1111hasMaterialENS_3Abc3v117IObjectERNS1_15IMaterialSchemaERKNSt3__112basic_stringIcNS7_11char_traitsIcEENS7_9allocatorIcEEEE
00007ffb1e06bdf8 (__TEXT,__text) external __ZN7Alembic11AbcMaterial3v1115IMaterialSchema11NetworkNode11getNodeTypeERNSt3__112basic_stringIcNS4_11char_traitsIcEENS4_9allocatorIcEEEE
00007ffb1e06c48a (__TEXT,__text) external __ZN7Alembic11AbcMaterial3v1115IMaterialSchema11NetworkNode13getConnectionERKNSt3__112basic_stringIcNS4_11char_traitsIcEENS4_9allocatorIcEEEERSA_SD_
00007ffb1e06c41e (__TEXT,__text) external __ZN7Alembic11AbcMaterial3v1115IMaterialSchema11NetworkNode13getConnectionEmRNSt3__112basic_stringIcNS4_11char_traitsIcEENS4_9allocatorIcEEEESB_SB_
00007ffb1e06bf44 (__TEXT,__text) external __ZN7Alembic11AbcMaterial3v1115IMaterialSchema11NetworkNode13getParametersEv
00007ffb1e06c0be (__TEXT,__text) external __ZN7Alembic11AbcMaterial3v1115IMaterialSchema11NetworkNode17getNumConnectionsEv
00007ffb1e06c358 (__TEXT,__text) external __ZN7Alembic11AbcMaterial3v1115IMaterialSchema11NetworkNode20splitConnectionValueERKNSt3__112basic_stringIcNS4_11char_traitsIcEENS4_9allocatorIcEEEERSA_SD_
00007ffb1e06bc52 (__TEXT,__text) external __ZN7Alembic11AbcMaterial3v1115IMaterialSchema11NetworkNode5validEv
00007ffb1e06bc5c (__TEXT,__text) external __ZN7Alembic11AbcMaterial3v1115IMaterialSchema11NetworkNode7getNameEv
00007ffb1e06bca2 (__TEXT,__text) external __ZN7Alembic11AbcMaterial3v1115IMaterialSchema11NetworkNode9getTargetERNSt3__112basic_stringIcNS4_11char_traitsIcEENS4_9allocatorIcEEEE
00007ffb1e06ae3c (__TEXT,__text) external __ZN7Alembic11AbcMaterial3v1115IMaterialSchema11NetworkNodeC1ENS_3Abc3v1117ICompoundPropertyE
00007ffb1e06aeda (__TEXT,__text) external __ZN7Alembic11AbcMaterial3v1115IMaterialSchema11NetworkNodeC1ENS_3Abc3v1117ICompoundPropertyERKNSt3__112basic_stringIcNS7_11char_traitsIcEENS7_9allocatorIcEEEE
00007ffb1e06adf2 (__TEXT,__text) external __ZN7Alembic11AbcMaterial3v1115IMaterialSchema11NetworkNodeC1Ev
00007ffb1e06bab2 (__TEXT,__text) external __ZN7Alembic11AbcMaterial3v1115IMaterialSchema11NetworkNodeC2ENS_3Abc3v1117ICompoundPropertyE
00007ffb1e06bb0e (__TEXT,__text) external __ZN7Alembic11AbcMaterial3v1115IMaterialSchema11NetworkNodeC2ENS_3Abc3v1117ICompoundPropertyERKNSt3__112basic_stringIcNS7_11char_traitsIcEENS7_9allocatorIcEEEE
00007ffb1e06ba68 (__TEXT,__text) external __ZN7Alembic11AbcMaterial3v1115IMaterialSchema11NetworkNodeC2Ev
00007ffb1e06ae46 (__TEXT,__text) external __ZN7Alembic11AbcMaterial3v1115IMaterialSchema14getNetworkNodeERKNSt3__112basic_stringIcNS3_11char_traitsIcEENS3_9allocatorIcEEEE
00007ffb1e06ab9c (__TEXT,__text) external __ZN7Alembic11AbcMaterial3v1115IMaterialSchema14getNetworkNodeEm
00007ffb1e069d4c (__TEXT,__text) external __ZN7Alembic11AbcMaterial3v1115IMaterialSchema14getTargetNamesERNSt3__16vectorINS3_12basic_stringIcNS3_11char_traitsIcEENS3_9allocatorIcEEEENS8_ISA_EEEE
00007ffb1e06b3ac (__TEXT,__text) external __ZN7Alembic11AbcMaterial3v1115IMaterialSchema18getNetworkTerminalERKNSt3__112basic_stringIcNS3_11char_traitsIcEENS3_9allocatorIcEEEESB_RS9_SC_
00007ffb1e06a870 (__TEXT,__text) external __ZN7Alembic11AbcMaterial3v1115IMaterialSchema18getNumNetworkNodesEv
00007ffb1e06a9f0 (__TEXT,__text) external __ZN7Alembic11AbcMaterial3v1115IMaterialSchema19getNetworkNodeNamesERNSt3__16vectorINS3_12basic_stringIcNS3_11char_traitsIcEENS3_9allocatorIcEEEENS8_ISA_EEEE
00007ffb1e06a602 (__TEXT,__text) external __ZN7Alembic11AbcMaterial3v1115IMaterialSchema19getShaderParametersERKNSt3__112basic_stringIcNS3_11char_traitsIcEENS3_9allocatorIcEEEESB_
00007ffb1e06a17e (__TEXT,__text) external __ZN7Alembic11AbcMaterial3v1115IMaterialSchema23getShaderTypesForTargetERKNSt3__112basic_stringIcNS3_11char_traitsIcEENS3_9allocatorIcEEEERNS3_6vectorIS9_NS7_IS9_EEEE
00007ffb1e06ba1a (__TEXT,__text) external __ZN7Alembic11AbcMaterial3v1115IMaterialSchema29getNetworkInterfaceParametersEv
00007ffb1e06aee4 (__TEXT,__text) external __ZN7Alembic11AbcMaterial3v1115IMaterialSchema29getNetworkTerminalTargetNamesERNSt3__16vectorINS3_12basic_stringIcNS3_11char_traitsIcEENS3_9allocatorIcEEEENS8_ISA_EEEE
00007ffb1e06b7f4 (__TEXT,__text) external __ZN7Alembic11AbcMaterial3v1115IMaterialSchema35getNetworkInterfaceParameterMappingERKNSt3__112basic_stringIcNS3_11char_traitsIcEENS3_9allocatorIcEEEERS9_SC_
00007ffb1e06b696 (__TEXT,__text) external __ZN7Alembic11AbcMaterial3v1115IMaterialSchema35getNetworkInterfaceParameterMappingEmRNSt3__112basic_stringIcNS3_11char_traitsIcEENS3_9allocatorIcEEEESA_SA_
00007ffb1e06b0f4 (__TEXT,__text) external __ZN7Alembic11AbcMaterial3v1115IMaterialSchema38getNetworkTerminalShaderTypesForTargetERKNSt3__112basic_stringIcNS3_11char_traitsIcEENS3_9allocatorIcEEEERNS3_6vectorIS9_NS7_IS9_EEEE
00007ffb1e06b670 (__TEXT,__text) external __ZN7Alembic11AbcMaterial3v1115IMaterialSchema39getNumNetworkInterfaceParameterMappingsEv
00007ffb1e06b9ee (__TEXT,__text) external __ZN7Alembic11AbcMaterial3v1115IMaterialSchema40getNetworkInterfaceParameterMappingNamesERNSt3__16vectorINS3_12basic_stringIcNS3_11char_traitsIcEENS3_9allocatorIcEEEENS8_ISA_EEEE
00007ffb1e068e80 (__TEXT,__text) external __ZN7Alembic11AbcMaterial3v1115IMaterialSchema4initEv
00007ffb1e06a42e (__TEXT,__text) external __ZN7Alembic11AbcMaterial3v1115IMaterialSchema9getShaderERKNSt3__112basic_stringIcNS3_11char_traitsIcEENS3_9allocatorIcEEEESB_RS9_
00007ffb1e06f580 (__TEXT,__text) external __ZN7Alembic11AbcMaterial3v1115MaterialFlatten11NetworkNode11getNodeTypeERNSt3__112basic_stringIcNS4_11char_traitsIcEENS4_9allocatorIcEEEE
00007ffb1e06f5da (__TEXT,__text) external __ZN7Alembic11AbcMaterial3v1115MaterialFlatten11NetworkNode13getParametersERNSt3__16vectorINS2_14ParameterEntryENS4_9allocatorIS6_EEEE
00007ffb1e06f9d4 (__TEXT,__text) external __ZN7Alembic11AbcMaterial3v1115MaterialFlatten11NetworkNode14getConnectionsERNSt3__16vectorINS3_10ConnectionENS4_9allocatorIS6_EEEE
00007ffb1e06f4fc (__TEXT,__text) external __ZN7Alembic11AbcMaterial3v1115MaterialFlatten11NetworkNode5validEv
00007ffb1e06f50e (__TEXT,__text) external __ZN7Alembic11AbcMaterial3v1115MaterialFlatten11NetworkNode7getNameEv
00007ffb1e06f526 (__TEXT,__text) external __ZN7Alembic11AbcMaterial3v1115MaterialFlatten11NetworkNode9getTargetERNSt3__112basic_stringIcNS4_11char_traitsIcEENS4_9allocatorIcEEEE
00007ffb1e06f0da (__TEXT,__text) external __ZN7Alembic11AbcMaterial3v1115MaterialFlatten11NetworkNodeC1ERKNSt3__112basic_stringIcNS4_11char_traitsIcEENS4_9allocatorIcEEEERNS4_6vectorINS1_15IMaterialSchemaENS8_ISE_EEEENS4_10shared_ptrINS4_3mapISA_SA_NS4_4lessISA_EENS8_INS4_4pairISB_SA_EEEEEEEE
00007ffb1e06efae (__TEXT,__text) external __ZN7Alembic11AbcMaterial3v1115MaterialFlatten11NetworkNodeC1Ev
00007ffb1e06f108 (__TEXT,__text) external __ZN7Alembic11AbcMaterial3v1115MaterialFlatten11NetworkNodeC2ERKNSt3__112basic_stringIcNS4_11char_traitsIcEENS4_9allocatorIcEEEERNS4_6vectorINS1_15IMaterialSchemaENS8_ISE_EEEENS4_10shared_ptrINS4_3mapISA_SA_NS4_4lessISA_EENS8_INS4_4pairISB_SA_EEEEEEEE
00007ffb1e06f0e4 (__TEXT,__text) external __ZN7Alembic11AbcMaterial3v1115MaterialFlatten11NetworkNodeC2Ev
00007ffb1e06eb0e (__TEXT,__text) external __ZN7Alembic11AbcMaterial3v1115MaterialFlatten14flattenNetworkEv
00007ffb1e06efd2 (__TEXT,__text) external __ZN7Alembic11AbcMaterial3v1115MaterialFlatten14getNetworkNodeERKNSt3__112basic_stringIcNS3_11char_traitsIcEENS3_9allocatorIcEEEE
00007ffb1e06ef2a (__TEXT,__text) external __ZN7Alembic11AbcMaterial3v1115MaterialFlatten14getNetworkNodeEm
00007ffb1e06e334 (__TEXT,__text) external __ZN7Alembic11AbcMaterial3v1115MaterialFlatten14getTargetNamesERNSt3__16vectorINS3_12basic_stringIcNS3_11char_traitsIcEENS3_9allocatorIcEEEENS8_ISA_EEEE
00007ffb1e06eaae (__TEXT,__text) external __ZN7Alembic11AbcMaterial3v1115MaterialFlatten18getNetworkTerminalERKNSt3__112basic_stringIcNS3_11char_traitsIcEENS3_9allocatorIcEEEESB_RS9_SC_
00007ffb1e06eefa (__TEXT,__text) external __ZN7Alembic11AbcMaterial3v1115MaterialFlatten18getNumNetworkNodesEv
00007ffb1e06e5ac (__TEXT,__text) external __ZN7Alembic11AbcMaterial3v1115MaterialFlatten19getShaderParametersERKNSt3__112basic_stringIcNS3_11char_traitsIcEENS3_9allocatorIcEEEESB_RNS3_6vectorINS2_14ParameterEntryENS7_ISD_EEEE
00007ffb1e06e440 (__TEXT,__text) external __ZN7Alembic11AbcMaterial3v1115MaterialFlatten23getShaderTypesForTargetERKNSt3__112basic_stringIcNS3_11char_traitsIcEENS3_9allocatorIcEEEERNS3_6vectorIS9_NS7_IS9_EEEE
00007ffb1e06e88e (__TEXT,__text) external __ZN7Alembic11AbcMaterial3v1115MaterialFlatten29getNetworkTerminalTargetNamesERNSt3__16vectorINS3_12basic_stringIcNS3_11char_traitsIcEENS3_9allocatorIcEEEENS8_ISA_EEEE
00007ffb1e06e99a (__TEXT,__text) external __ZN7Alembic11AbcMaterial3v1115MaterialFlatten38getNetworkTerminalShaderTypesForTargetERKNSt3__112basic_stringIcNS3_11char_traitsIcEENS3_9allocatorIcEEEERNS3_6vectorIS9_NS7_IS9_EEEE
00007ffb1e06e324 (__TEXT,__text) external __ZN7Alembic11AbcMaterial3v1115MaterialFlatten5emptyEv
00007ffb1e06e28c (__TEXT,__text) external __ZN7Alembic11AbcMaterial3v1115MaterialFlatten6appendENS1_15IMaterialSchemaE
00007ffb1e06d1b0 (__TEXT,__text) external __ZN7Alembic11AbcMaterial3v1115MaterialFlatten6appendENS_3Abc3v1113ISchemaObjectINS1_15IMaterialSchemaEEE
00007ffb1e06e554 (__TEXT,__text) external __ZN7Alembic11AbcMaterial3v1115MaterialFlatten9getShaderERKNSt3__112basic_stringIcNS3_11char_traitsIcEENS3_9allocatorIcEEEESB_RS9_
00007ffb1e06cf40 (__TEXT,__text) external __ZN7Alembic11AbcMaterial3v1115MaterialFlattenC1ENS1_15IMaterialSchemaE
00007ffb1e06d55c (__TEXT,__text) external __ZN7Alembic11AbcMaterial3v1115MaterialFlattenC1ENS_3Abc3v1113ISchemaObjectINS1_15IMaterialSchemaEEE
00007ffb1e06e31a (__TEXT,__text) external __ZN7Alembic11AbcMaterial3v1115MaterialFlattenC1ENS_3Abc3v117IObjectENS4_8IArchiveE
00007ffb1e06cdc8 (__TEXT,__text) external __ZN7Alembic11AbcMaterial3v1115MaterialFlattenC1Ev
00007ffb1e06cdf0 (__TEXT,__text) external __ZN7Alembic11AbcMaterial3v1115MaterialFlattenC2ENS1_15IMaterialSchemaE
00007ffb1e06cf4a (__TEXT,__text) external __ZN7Alembic11AbcMaterial3v1115MaterialFlattenC2ENS_3Abc3v1113ISchemaObjectINS1_15IMaterialSchemaEEE
00007ffb1e06d566 (__TEXT,__text) external __ZN7Alembic11AbcMaterial3v1115MaterialFlattenC2ENS_3Abc3v117IObjectENS4_8IArchiveE
00007ffb1e06cda0 (__TEXT,__text) external __ZN7Alembic11AbcMaterial3v1115MaterialFlattenC2Ev
00007ffb1e0651e6 (__TEXT,__text) external __ZN7Alembic11AbcMaterial3v1115OMaterialSchema14addNetworkNodeERKNSt3__112basic_stringIcNS3_11char_traitsIcEENS3_9allocatorIcEEEESB_SB_
00007ffb1e064f1a (__TEXT,__text) external __ZN7Alembic11AbcMaterial3v1115OMaterialSchema18createNodeCompoundEv
00007ffb1e066454 (__TEXT,__text) external __ZN7Alembic11AbcMaterial3v1115OMaterialSchema18setNetworkTerminalERKNSt3__112basic_stringIcNS3_11char_traitsIcEENS3_9allocatorIcEEEESB_SB_SB_
00007ffb1e06491c (__TEXT,__text) external __ZN7Alembic11AbcMaterial3v1115OMaterialSchema19getShaderParametersERKNSt3__112basic_stringIcNS3_11char_traitsIcEENS3_9allocatorIcEEEESB_
00007ffb1e065e7c (__TEXT,__text) external __ZN7Alembic11AbcMaterial3v1115OMaterialSchema24getNetworkNodeParametersERKNSt3__112basic_stringIcNS3_11char_traitsIcEENS3_9allocatorIcEEEE
00007ffb1e06599c (__TEXT,__text) external __ZN7Alembic11AbcMaterial3v1115OMaterialSchema24setNetworkNodeConnectionERKNSt3__112basic_stringIcNS3_11char_traitsIcEENS3_9allocatorIcEEEESB_SB_SB_
00007ffb1e066b4a (__TEXT,__text) external __ZN7Alembic11AbcMaterial3v1115OMaterialSchema29getNetworkInterfaceParametersEv
00007ffb1e066734 (__TEXT,__text) external __ZN7Alembic11AbcMaterial3v1115OMaterialSchema35setNetworkInterfaceParameterMappingERKNSt3__112basic_stringIcNS3_11char_traitsIcEENS3_9allocatorIcEEEESB_SB_
00007ffb1e0643fe (__TEXT,__text) external __ZN7Alembic11AbcMaterial3v1115OMaterialSchema4initEv
00007ffb1e064702 (__TEXT,__text) external __ZN7Alembic11AbcMaterial3v1115OMaterialSchema9setShaderERKNSt3__112basic_stringIcNS3_11char_traitsIcEENS3_9allocatorIcEEEESB_SB_
00007ffb1e0646f8 (__TEXT,__text) external __ZN7Alembic11AbcMaterial3v1115OMaterialSchemaC1ENS_3Abc3v1117OCompoundPropertyERKNSt3__112basic_stringIcNS6_11char_traitsIcEENS6_9allocatorIcEEEERKNS4_8ArgumentESH_SH_
00007ffb1e0645bc (__TEXT,__text) external __ZN7Alembic11AbcMaterial3v1115OMaterialSchemaC1ENSt3__110shared_ptrINS_15AbcCoreAbstract3v1122CompoundPropertyWriterEEERKNS3_12basic_stringIcNS3_11char_traitsIcEENS3_9allocatorIcEEEERKNS_3Abc3v118ArgumentESL_SL_SL_
00007ffb1e0645c6 (__TEXT,__text) external __ZN7Alembic11AbcMaterial3v1115OMaterialSchemaC2ENS_3Abc3v1117OCompoundPropertyERKNSt3__112basic_stringIcNS6_11char_traitsIcEENS6_9allocatorIcEEEERKNS4_8ArgumentESH_SH_
00007ffb1e0641f0 (__TEXT,__text) external __ZN7Alembic11AbcMaterial3v1115OMaterialSchemaC2ENSt3__110shared_ptrINS_15AbcCoreAbstract3v1122CompoundPropertyWriterEEERKNS3_12basic_stringIcNS3_11char_traitsIcEENS3_9allocatorIcEEEERKNS_3Abc3v118ArgumentESL_SL_SL_
00007ffb1e073f72 (__TEXT,__text) external __ZN7Alembic11AbcMaterial3v1121addMaterialAssignmentENS_3Abc3v1117OCompoundPropertyERKNSt3__112basic_stringIcNS5_11char_traitsIcEENS5_9allocatorIcEEEESD_
00007ffb1e073f1a (__TEXT,__text) external __ZN7Alembic11AbcMaterial3v1121addMaterialAssignmentENS_3Abc3v117OObjectERKNSt3__112basic_stringIcNS5_11char_traitsIcEENS5_9allocatorIcEEEESD_
00007ffb1e073b7b (__TEXT,__text) external __ZN7Alembic11AbcMaterial3v1125getMaterialAssignmentPathENS_3Abc3v1117ICompoundPropertyERNSt3__112basic_stringIcNS5_11char_traitsIcEENS5_9allocatorIcEEEERKSB_
00007ffb1e073b00 (__TEXT,__text) external __ZN7Alembic11AbcMaterial3v1125getMaterialAssignmentPathENS_3Abc3v117IObjectERNSt3__112basic_stringIcNS5_11char_traitsIcEENS5_9allocatorIcEEEERKSB_
00007ffb1dff5aa4 (__TEXT,__text) external __ZN7Alembic12AbcCoreLayer3v1110SetReplaceERNS_15AbcCoreAbstract3v118MetaDataEb
00007ffb1dff57e0 (__TEXT,__text) external __ZN7Alembic12AbcCoreLayer3v1111ReadArchiveC1Ev
00007ffb1dff57da (__TEXT,__text) external __ZN7Alembic12AbcCoreLayer3v1111ReadArchiveC2Ev
00007ffb1dff5996 (__TEXT,__text) external __ZN7Alembic12AbcCoreLayer3v118SetPruneERNS_15AbcCoreAbstract3v118MetaDataEb
00007ffb1dfd9854 (__TEXT,__text) external __ZN7Alembic12AbcCoreOgawa3v1111ReadArchiveC1ERKNSt3__16vectorIPNS3_13basic_istreamIcNS3_11char_traitsIcEEEENS3_9allocatorIS9_EEEE
00007ffb1dfd981e (__TEXT,__text) external __ZN7Alembic12AbcCoreOgawa3v1111ReadArchiveC1Emb
00007ffb1dfd97e2 (__TEXT,__text) external __ZN7Alembic12AbcCoreOgawa3v1111ReadArchiveC1Ev
00007ffb1dfd983a (__TEXT,__text) external __ZN7Alembic12AbcCoreOgawa3v1111ReadArchiveC2ERKNSt3__16vectorIPNS3_13basic_istreamIcNS3_11char_traitsIcEEEENS3_9allocatorIS9_EEEE
00007ffb1dfd9802 (__TEXT,__text) external __ZN7Alembic12AbcCoreOgawa3v1111ReadArchiveC2Emb
00007ffb1dfd97c2 (__TEXT,__text) external __ZN7Alembic12AbcCoreOgawa3v1111ReadArchiveC2Ev
00007ffb1dfd96d4 (__TEXT,__text) external __ZN7Alembic12AbcCoreOgawa3v1112WriteArchiveC1Ev
00007ffb1dfd96ce (__TEXT,__text) external __ZN7Alembic12AbcCoreOgawa3v1112WriteArchiveC2Ev
00007ffb1e063902 (__TEXT,__text) external __ZN7Alembic13AbcCollection3v1118ICollectionsSchema13getCollectionERKNSt3__112basic_stringIcNS3_11char_traitsIcEENS3_9allocatorIcEEEE
00007ffb1e06377c (__TEXT,__text) external __ZN7Alembic13AbcCollection3v1118ICollectionsSchema13getCollectionEm
00007ffb1e063bbe (__TEXT,__text) external __ZN7Alembic13AbcCollection3v1118ICollectionsSchema17getCollectionNameEm
00007ffb1e0632a0 (__TEXT,__text) external __ZN7Alembic13AbcCollection3v1118ICollectionsSchema4initERKNS_3Abc3v118ArgumentES7_
00007ffb1e06198c (__TEXT,__text) external __ZN7Alembic13AbcCollection3v1118OCollectionsSchema13getCollectionERKNSt3__112basic_stringIcNS3_11char_traitsIcEENS3_9allocatorIcEEEE
00007ffb1e061cec (__TEXT,__text) external __ZN7Alembic13AbcCollection3v1118OCollectionsSchema13getCollectionEm
00007ffb1e0616b0 (__TEXT,__text) external __ZN7Alembic13AbcCollection3v1118OCollectionsSchema16createCollectionERKNSt3__112basic_stringIcNS3_11char_traitsIcEENS3_9allocatorIcEEEERKNS_3Abc3v118ArgumentESG_SG_
00007ffb1e0616a6 (__TEXT,__text) external __ZN7Alembic13AbcCollection3v1118OCollectionsSchemaC1ENS_3Abc3v1117OCompoundPropertyERKNSt3__112basic_stringIcNS6_11char_traitsIcEENS6_9allocatorIcEEEERKNS4_8ArgumentESH_SH_
00007ffb1e0615e0 (__TEXT,__text) external __ZN7Alembic13AbcCollection3v1118OCollectionsSchemaC1ENSt3__110shared_ptrINS_15AbcCoreAbstract3v1122CompoundPropertyWriterEEERKNS3_12basic_stringIcNS3_11char_traitsIcEENS3_9allocatorIcEEEERKNS_3Abc3v118ArgumentESL_SL_SL_
00007ffb1e0615ea (__TEXT,__text) external __ZN7Alembic13AbcCollection3v1118OCollectionsSchemaC2ENS_3Abc3v1117OCompoundPropertyERKNSt3__112basic_stringIcNS6_11char_traitsIcEENS6_9allocatorIcEEEERKNS4_8ArgumentESH_SH_
00007ffb1e061450 (__TEXT,__text) external __ZN7Alembic13AbcCollection3v1118OCollectionsSchemaC2ENSt3__110shared_ptrINS_15AbcCoreAbstract3v1122CompoundPropertyWriterEEERKNS3_12basic_stringIcNS3_11char_traitsIcEENS3_9allocatorIcEEEERKNS_3Abc3v118ArgumentESL_SL_SL_
00007ffb1dfee63a (__TEXT,__text) external __ZN7Alembic14AbcCoreFactory3v118IFactory10getArchiveERKNSt3__112basic_stringIcNS3_11char_traitsIcEENS3_9allocatorIcEEEE
00007ffb1dfee418 (__TEXT,__text) external __ZN7Alembic14AbcCoreFactory3v118IFactory10getArchiveERKNSt3__112basic_stringIcNS3_11char_traitsIcEENS3_9allocatorIcEEEERNS2_8CoreTypeE
00007ffb1dfee656 (__TEXT,__text) external __ZN7Alembic14AbcCoreFactory3v118IFactory10getArchiveERKNSt3__16vectorINS3_12basic_stringIcNS3_11char_traitsIcEENS3_9allocatorIcEEEENS8_ISA_EEEE
00007ffb1dfee672 (__TEXT,__text) external __ZN7Alembic14AbcCoreFactory3v118IFactory10getArchiveERKNSt3__16vectorINS3_12basic_stringIcNS3_11char_traitsIcEENS3_9allocatorIcEEEENS8_ISA_EEEERNS2_8CoreTypeE
00007ffb1dfeeb0c (__TEXT,__text) external __ZN7Alembic14AbcCoreFactory3v118IFactory10getArchiveERKNSt3__16vectorIPNS3_13basic_istreamIcNS3_11char_traitsIcEEEENS3_9allocatorIS9_EEEERNS2_8CoreTypeE
00007ffb1dfee3d6 (__TEXT,__text) external __ZN7Alembic14AbcCoreFactory3v118IFactoryC1Ev
00007ffb1dfee3b0 (__TEXT,__text) external __ZN7Alembic14AbcCoreFactory3v118IFactoryC2Ev
00007ffb1dfee40a (__TEXT,__text) external __ZN7Alembic14AbcCoreFactory3v118IFactoryD1Ev
00007ffb1dfee3fc (__TEXT,__text) external __ZN7Alembic14AbcCoreFactory3v118IFactoryD2Ev
00007ffb1dfbe0d2 (__TEXT,__text) external __ZN7Alembic15AbcCoreAbstract3v1112ObjectReader15getChildrenHashERNS_4Util3v116DigestE
00007ffb1dfbe0ca (__TEXT,__text) external __ZN7Alembic15AbcCoreAbstract3v1112ObjectReader17getPropertiesHashERNS_4Util3v116DigestE
00007ffb1dfbe0c4 (__TEXT,__text) external __ZN7Alembic15AbcCoreAbstract3v1112ObjectReaderD0Ev
00007ffb1dfbe0be (__TEXT,__text) external __ZN7Alembic15AbcCoreAbstract3v1112ObjectReaderD1Ev
00007ffb1dfbe0b8 (__TEXT,__text) external __ZN7Alembic15AbcCoreAbstract3v1112ObjectReaderD2Ev
00007ffb1dfbde1c (__TEXT,__text) external __ZN7Alembic15AbcCoreAbstract3v1112ObjectWriter8getChildEm
00007ffb1dfbde16 (__TEXT,__text) external __ZN7Alembic15AbcCoreAbstract3v1112ObjectWriterD0Ev
00007ffb1dfbde10 (__TEXT,__text) external __ZN7Alembic15AbcCoreAbstract3v1112ObjectWriterD1Ev
00007ffb1dfbde0a (__TEXT,__text) external __ZN7Alembic15AbcCoreAbstract3v1112ObjectWriterD2Ev
00007ffb1dfbb55a (__TEXT,__text) external __ZN7Alembic15AbcCoreAbstract3v1112ScalarSampleC1ERKNS1_8DataTypeE
00007ffb1dfbaf70 (__TEXT,__text) external __ZN7Alembic15AbcCoreAbstract3v1112ScalarSampleC2ERKNS1_8DataTypeE
00007ffb1dfb7342 (__TEXT,__text) external __ZN7Alembic15AbcCoreAbstract3v1112TimeSampling4initEv
00007ffb1dfb775e (__TEXT,__text) external __ZN7Alembic15AbcCoreAbstract3v1112TimeSamplingC1ERKNS1_16TimeSamplingTypeERKNSt3__16vectorIdNS6_9allocatorIdEEEE
00007ffb1dfb78a8 (__TEXT,__text) external __ZN7Alembic15AbcCoreAbstract3v1112TimeSamplingC1ERKS2_
00007ffb1dfb7808 (__TEXT,__text) external __ZN7Alembic15AbcCoreAbstract3v1112TimeSamplingC1Edd
00007ffb1dfb7886 (__TEXT,__text) external __ZN7Alembic15AbcCoreAbstract3v1112TimeSamplingC1Ev
00007ffb1dfb72f0 (__TEXT,__text) external __ZN7Alembic15AbcCoreAbstract3v1112TimeSamplingC2ERKNS1_16TimeSamplingTypeERKNSt3__16vectorIdNS6_9allocatorIdEEEE
00007ffb1dfb7890 (__TEXT,__text) external __ZN7Alembic15AbcCoreAbstract3v1112TimeSamplingC2ERKS2_
00007ffb1dfb7768 (__TEXT,__text) external __ZN7Alembic15AbcCoreAbstract3v1112TimeSamplingC2Edd
00007ffb1dfb7814 (__TEXT,__text) external __ZN7Alembic15AbcCoreAbstract3v1112TimeSamplingC2Ev
00007ffb1dfbe0e6 (__TEXT,__text) external __ZN7Alembic15AbcCoreAbstract3v1113ArchiveReaderD0Ev
00007ffb1dfbe0e0 (__TEXT,__text) external __ZN7Alembic15AbcCoreAbstract3v1113ArchiveReaderD1Ev
00007ffb1dfbe0da (__TEXT,__text) external __ZN7Alembic15AbcCoreAbstract3v1113ArchiveReaderD2Ev
00007ffb1dfbde58 (__TEXT,__text) external __ZN7Alembic15AbcCoreAbstract3v1113ArchiveWriterD0Ev
00007ffb1dfbde52 (__TEXT,__text) external __ZN7Alembic15AbcCoreAbstract3v1113ArchiveWriterD1Ev
00007ffb1dfbde4c (__TEXT,__text) external __ZN7Alembic15AbcCoreAbstract3v1113ArchiveWriterD2Ev
00007ffb1dfb8480 (__TEXT,__text) external __ZN7Alembic15AbcCoreAbstract3v1116TimeSamplingType17AcyclicNumSamplesEv
00007ffb1dfb848c (__TEXT,__text) external __ZN7Alembic15AbcCoreAbstract3v1116TimeSamplingType19AcyclicTimePerCycleEv
00007ffb1dfb710f (__TEXT,__text) external __ZN7Alembic15AbcCoreAbstract3v1117GetLibraryVersionEv
00007ffb1dfbde80 (__TEXT,__text) external __ZN7Alembic15AbcCoreAbstract3v1118BasePropertyReader10asArrayPtrEv
00007ffb1dfbde70 (__TEXT,__text) external __ZN7Alembic15AbcCoreAbstract3v1118BasePropertyReader11asScalarPtrEv
00007ffb1dfbde90 (__TEXT,__text) external __ZN7Alembic15AbcCoreAbstract3v1118BasePropertyReader13asCompoundPtrEv
00007ffb1dfbde6a (__TEXT,__text) external __ZN7Alembic15AbcCoreAbstract3v1118BasePropertyReaderD0Ev
00007ffb1dfbde64 (__TEXT,__text) external __ZN7Alembic15AbcCoreAbstract3v1118BasePropertyReaderD1Ev
00007ffb1dfbde5e (__TEXT,__text) external __ZN7Alembic15AbcCoreAbstract3v1118BasePropertyReaderD2Ev
00007ffb1dfbdd78 (__TEXT,__text) external __ZN7Alembic15AbcCoreAbstract3v1118BasePropertyWriter10asArrayPtrEv
00007ffb1dfbdd68 (__TEXT,__text) external __ZN7Alembic15AbcCoreAbstract3v1118BasePropertyWriter11asScalarPtrEv
00007ffb1dfbdd88 (__TEXT,__text) external __ZN7Alembic15AbcCoreAbstract3v1118BasePropertyWriter13asCompoundPtrEv
00007ffb1dfbdd62 (__TEXT,__text) external __ZN7Alembic15AbcCoreAbstract3v1118BasePropertyWriterD0Ev
00007ffb1dfbdd5c (__TEXT,__text) external __ZN7Alembic15AbcCoreAbstract3v1118BasePropertyWriterD1Ev
00007ffb1dfbdd56 (__TEXT,__text) external __ZN7Alembic15AbcCoreAbstract3v1118BasePropertyWriterD2Ev
00007ffb1dfb8eb8 (__TEXT,__text) external __ZN7Alembic15AbcCoreAbstract3v1119AllocateArraySampleERKNS1_8DataTypeERKNS_4Util3v1114BaseDimensionsIyEE
00007ffb1dfbdec6 (__TEXT,__text) external __ZN7Alembic15AbcCoreAbstract3v1119ArrayPropertyReaderD0Ev
00007ffb1dfbdec0 (__TEXT,__text) external __ZN7Alembic15AbcCoreAbstract3v1119ArrayPropertyReaderD1Ev
00007ffb1dfbdeb6 (__TEXT,__text) external __ZN7Alembic15AbcCoreAbstract3v1119ArrayPropertyReaderD2Ev
00007ffb1dfbddbe (__TEXT,__text) external __ZN7Alembic15AbcCoreAbstract3v1119ArrayPropertyWriterD0Ev
00007ffb1dfbddb8 (__TEXT,__text) external __ZN7Alembic15AbcCoreAbstract3v1119ArrayPropertyWriterD1Ev
00007ffb1dfbddae (__TEXT,__text) external __ZN7Alembic15AbcCoreAbstract3v1119ArrayPropertyWriterD2Ev
00007ffb1dfbaf5c (__TEXT,__text) external __ZN7Alembic15AbcCoreAbstract3v1120ReadArraySampleCacheD0Ev
00007ffb1dfbaf56 (__TEXT,__text) external __ZN7Alembic15AbcCoreAbstract3v1120ReadArraySampleCacheD1Ev
00007ffb1dfbaf40 (__TEXT,__text) external __ZN7Alembic15AbcCoreAbstract3v1120ReadArraySampleCacheD2Ev
00007ffb1dfbdeb0 (__TEXT,__text) external __ZN7Alembic15AbcCoreAbstract3v1120ScalarPropertyReaderD0Ev
00007ffb1dfbdeaa (__TEXT,__text) external __ZN7Alembic15AbcCoreAbstract3v1120ScalarPropertyReaderD1Ev
00007ffb1dfbdea0 (__TEXT,__text) external __ZN7Alembic15AbcCoreAbstract3v1120ScalarPropertyReaderD2Ev
00007ffb1dfbdda8 (__TEXT,__text) external __ZN7Alembic15AbcCoreAbstract3v1120ScalarPropertyWriterD0Ev
00007ffb1dfbdda2 (__TEXT,__text) external __ZN7Alembic15AbcCoreAbstract3v1120ScalarPropertyWriterD1Ev
00007ffb1dfbdd98 (__TEXT,__text) external __ZN7Alembic15AbcCoreAbstract3v1120ScalarPropertyWriterD2Ev
00007ffb1dfbdee2 (__TEXT,__text) external __ZN7Alembic15AbcCoreAbstract3v1122CompoundPropertyReader11getPropertyERKNSt3__112basic_stringIcNS3_11char_traitsIcEENS3_9allocatorIcEEEE
00007ffb1dfbe034 (__TEXT,__text) external __ZN7Alembic15AbcCoreAbstract3v1122CompoundPropertyReader11getPropertyEm
00007ffb1dfbdfb4 (__TEXT,__text) external __ZN7Alembic15AbcCoreAbstract3v1122CompoundPropertyReader16getArrayPropertyEm
00007ffb1dfbdf74 (__TEXT,__text) external __ZN7Alembic15AbcCoreAbstract3v1122CompoundPropertyReader17getScalarPropertyEm
00007ffb1dfbdff4 (__TEXT,__text) external __ZN7Alembic15AbcCoreAbstract3v1122CompoundPropertyReader19getCompoundPropertyEm
00007ffb1dfbdedc (__TEXT,__text) external __ZN7Alembic15AbcCoreAbstract3v1122CompoundPropertyReaderD0Ev
00007ffb1dfbded6 (__TEXT,__text) external __ZN7Alembic15AbcCoreAbstract3v1122CompoundPropertyReaderD1Ev
00007ffb1dfbdecc (__TEXT,__text) external __ZN7Alembic15AbcCoreAbstract3v1122CompoundPropertyReaderD2Ev
00007ffb1dfbddda (__TEXT,__text) external __ZN7Alembic15AbcCoreAbstract3v1122CompoundPropertyWriter11getPropertyEm
00007ffb1dfbddd4 (__TEXT,__text) external __ZN7Alembic15AbcCoreAbstract3v1122CompoundPropertyWriterD0Ev
00007ffb1dfbddce (__TEXT,__text) external __ZN7Alembic15AbcCoreAbstract3v1122CompoundPropertyWriterD1Ev
00007ffb1dfbddc4 (__TEXT,__text) external __ZN7Alembic15AbcCoreAbstract3v1122CompoundPropertyWriterD2Ev
00007ffb1dfb6f90 (__TEXT,__text) external __ZN7Alembic15AbcCoreAbstract3v1122GetLibraryVersionShortEv
00007ffb1dfb84e4 (__TEXT,__text) external __ZN7Alembic15AbcCoreAbstract3v11lsERNSt3__113basic_ostreamIcNS2_11char_traitsIcEEEERKNS1_16TimeSamplingTypeE
00007ffb1dfee1f6 (__TEXT,__text) external __ZN7Alembic3Abc3v1111isReferenceERKNS_15AbcCoreAbstract3v1114PropertyHeaderE
00007ffb1dfdfb10 (__TEXT,__text) external __ZN7Alembic3Abc3v1112ErrorHandler8handleItERKNSt3__112basic_stringIcNS3_11char_traitsIcEENS3_9allocatorIcEEEE
00007ffb1dfdfe22 (__TEXT,__text) external __ZN7Alembic3Abc3v1112ErrorHandlerclENS2_20UnknownExceptionFlagERKNSt3__112basic_stringIcNS4_11char_traitsIcEENS4_9allocatorIcEEEE
00007ffb1dfdfd54 (__TEXT,__text) external __ZN7Alembic3Abc3v1112ErrorHandlerclERKNSt3__112basic_stringIcNS3_11char_traitsIcEENS3_9allocatorIcEEEESB_
00007ffb1dfdfa50 (__TEXT,__text) external __ZN7Alembic3Abc3v1112ErrorHandlerclERSt9exceptionRKNSt3__112basic_stringIcNS5_11char_traitsIcEENS5_9allocatorIcEEEE
00007ffb1dfee140 (__TEXT,__text) external __ZN7Alembic3Abc3v1112SetReferenceERNS_15AbcCoreAbstract3v118MetaDataE
00007ffb1dfee342 (__TEXT,__text) external __ZN7Alembic3Abc3v1113GetSourceNameERKNS_15AbcCoreAbstract3v118MetaDataE
00007ffb1dfee2bc (__TEXT,__text) external __ZN7Alembic3Abc3v1113SetSourceNameERNS_15AbcCoreAbstract3v118MetaDataERKNSt3__112basic_stringIcNS6_11char_traitsIcEENS6_9allocatorIcEEEE
00007ffb1dfdf51a (__TEXT,__text) external __ZN7Alembic3Abc3v1114GetArchiveInfoERNS1_8IArchiveERNSt3__112basic_stringIcNS4_11char_traitsIcEENS4_9allocatorIcEEEESB_RjSB_SB_
00007ffb1dfe0b8c (__TEXT,__text) external __ZN7Alembic3Abc3v1114IArrayProperty4initENSt3__110shared_ptrINS_15AbcCoreAbstract3v1122CompoundPropertyReaderEEERKNS3_12basic_stringIcNS3_11char_traitsIcEENS3_9allocatorIcEEEENS1_12ErrorHandler6PolicyERKNS1_8ArgumentESL_
00007ffb1dfe15c6 (__TEXT,__text) external __ZN7Alembic3Abc3v1114IArrayProperty5getAsEPvNS_4Util3v1116PlainOldDataTypeERKNS1_15ISampleSelectorE
00007ffb1dfe177e (__TEXT,__text) external __ZN7Alembic3Abc3v1114IArrayProperty5getAsEPvRKNS1_15ISampleSelectorE
00007ffb1dfe0fc8 (__TEXT,__text) external __ZN7Alembic3Abc3v1114IArrayPropertyC1ERKNS1_17ICompoundPropertyERKNSt3__112basic_stringIcNS6_11char_traitsIcEENS6_9allocatorIcEEEERKNS1_8ArgumentESH_
00007ffb1dfe0a90 (__TEXT,__text) external __ZN7Alembic3Abc3v1114IArrayPropertyC2ERKNS1_17ICompoundPropertyERKNSt3__112basic_stringIcNS6_11char_traitsIcEENS6_9allocatorIcEEEERKNS1_8ArgumentESH_
00007ffb1dfe1000 (__TEXT,__text) external __ZN7Alembic3Abc3v1114IArrayPropertyD1Ev
00007ffb1dfe0fd2 (__TEXT,__text) external __ZN7Alembic3Abc3v1114IArrayPropertyD2Ev
00007ffb1dfe87d2 (__TEXT,__text) external __ZN7Alembic3Abc3v1114OArrayProperty15setFromPreviousEv
00007ffb1dfe89b4 (__TEXT,__text) external __ZN7Alembic3Abc3v1114OArrayProperty15setTimeSamplingENSt3__110shared_ptrINS_15AbcCoreAbstract3v1112TimeSamplingEEE
00007ffb1dfe88be (__TEXT,__text) external __ZN7Alembic3Abc3v1114OArrayProperty15setTimeSamplingEj
00007ffb1dfe86dc (__TEXT,__text) external __ZN7Alembic3Abc3v1114OArrayProperty3setERKNS_15AbcCoreAbstract3v1111ArraySampleE
00007ffb1dfe815e (__TEXT,__text) external __ZN7Alembic3Abc3v1114OArrayProperty4initENSt3__110shared_ptrINS_15AbcCoreAbstract3v1122CompoundPropertyWriterEEERKNS3_12basic_stringIcNS3_11char_traitsIcEENS3_9allocatorIcEEEERKNS6_8DataTypeENS1_12ErrorHandler6PolicyERKNS1_8ArgumentESO_SO_
00007ffb1dfe85a0 (__TEXT,__text) external __ZN7Alembic3Abc3v1114OArrayPropertyC1ENS1_17OCompoundPropertyERKNSt3__112basic_stringIcNS4_11char_traitsIcEENS4_9allocatorIcEEEERKNS_15AbcCoreAbstract3v118DataTypeERKNS1_8ArgumentESK_SK_
00007ffb1dfe8050 (__TEXT,__text) external __ZN7Alembic3Abc3v1114OArrayPropertyC2ENS1_17OCompoundPropertyERKNSt3__112basic_stringIcNS4_11char_traitsIcEENS4_9allocatorIcEEEERKNS_15AbcCoreAbstract3v118DataTypeERKNS1_8ArgumentESK_SK_
00007ffb1dfe85d8 (__TEXT,__text) external __ZN7Alembic3Abc3v1114OArrayPropertyD1Ev
00007ffb1dfe85aa (__TEXT,__text) external __ZN7Alembic3Abc3v1114OArrayPropertyD2Ev
00007ffb1dfe6ae2 (__TEXT,__text) external __ZN7Alembic3Abc3v1115IScalarProperty4initENSt3__110shared_ptrINS_15AbcCoreAbstract3v1122CompoundPropertyReaderEEERKNS3_12basic_stringIcNS3_11char_traitsIcEENS3_9allocatorIcEEEENS1_12ErrorHandler6PolicyERKNS1_8ArgumentE
00007ffb1dfe6efe (__TEXT,__text) external __ZN7Alembic3Abc3v1115IScalarPropertyC1ERKNS1_17ICompoundPropertyERKNSt3__112basic_stringIcNS6_11char_traitsIcEENS6_9allocatorIcEEEERKNS1_8ArgumentE
00007ffb1dfe69f0 (__TEXT,__text) external __ZN7Alembic3Abc3v1115IScalarPropertyC2ERKNS1_17ICompoundPropertyERKNSt3__112basic_stringIcNS6_11char_traitsIcEENS6_9allocatorIcEEEERKNS1_8ArgumentE
00007ffb1dfe6f36 (__TEXT,__text) external __ZN7Alembic3Abc3v1115IScalarPropertyD1Ev
00007ffb1dfe6f08 (__TEXT,__text) external __ZN7Alembic3Abc3v1115IScalarPropertyD2Ev
00007ffb1dfedaf2 (__TEXT,__text) external __ZN7Alembic3Abc3v1115OScalarProperty15setFromPreviousEv
00007ffb1dfedcd4 (__TEXT,__text) external __ZN7Alembic3Abc3v1115OScalarProperty15setTimeSamplingENSt3__110shared_ptrINS_15AbcCoreAbstract3v1112TimeSamplingEEE
00007ffb1dfedbde (__TEXT,__text) external __ZN7Alembic3Abc3v1115OScalarProperty15setTimeSamplingEj
00007ffb1dfed9fc (__TEXT,__text) external __ZN7Alembic3Abc3v1115OScalarProperty3setEPKv
00007ffb1dfed370 (__TEXT,__text) external __ZN7Alembic3Abc3v1115OScalarProperty4initENSt3__110shared_ptrINS_15AbcCoreAbstract3v1122CompoundPropertyWriterEEERKNS3_12basic_stringIcNS3_11char_traitsIcEENS3_9allocatorIcEEEERKNS6_8DataTypeERKNS1_8ArgumentESM_SM_SM_
00007ffb1dfed8be (__TEXT,__text) external __ZN7Alembic3Abc3v1115OScalarPropertyC1ENS1_17OCompoundPropertyERKNSt3__112basic_stringIcNS4_11char_traitsIcEENS4_9allocatorIcEEEERKNS_15AbcCoreAbstract3v118DataTypeERKNS1_8ArgumentESK_SK_
00007ffb1dfed7a6 (__TEXT,__text) external __ZN7Alembic3Abc3v1115OScalarPropertyC1ENSt3__110shared_ptrINS_15AbcCoreAbstract3v1122CompoundPropertyWriterEEERKNS3_12basic_stringIcNS3_11char_traitsIcEENS3_9allocatorIcEEEERKNS6_8DataTypeERKNS1_8ArgumentESM_SM_SM_
00007ffb1dfed7b0 (__TEXT,__text) external __ZN7Alembic3Abc3v1115OScalarPropertyC2ENS1_17OCompoundPropertyERKNSt3__112basic_stringIcNS4_11char_traitsIcEENS4_9allocatorIcEEEERKNS_15AbcCoreAbstract3v118DataTypeERKNS1_8ArgumentESK_SK_
00007ffb1dfed260 (__TEXT,__text) external __ZN7Alembic3Abc3v1115OScalarPropertyC2ENSt3__110shared_ptrINS_15AbcCoreAbstract3v1122CompoundPropertyWriterEEERKNS3_12basic_stringIcNS3_11char_traitsIcEENS3_9allocatorIcEEEERKNS6_8DataTypeERKNS1_8ArgumentESM_SM_SM_
00007ffb1dfed8f6 (__TEXT,__text) external __ZN7Alembic3Abc3v1115OScalarPropertyD1Ev
00007ffb1dfed8c8 (__TEXT,__text) external __ZN7Alembic3Abc3v1115OScalarPropertyD2Ev
00007ffb1dfe2002 (__TEXT,__text) external __ZN7Alembic3Abc3v1117ICompoundProperty4initENSt3__110shared_ptrINS_15AbcCoreAbstract3v1122CompoundPropertyReaderEEERKNS3_12basic_stringIcNS3_11char_traitsIcEENS3_9allocatorIcEEEENS1_12ErrorHandler6PolicyERKNS1_8ArgumentE
00007ffb1dfe2936 (__TEXT,__text) external __ZN7Alembic3Abc3v1117ICompoundProperty4initERKNS1_7IObjectERKNS1_8ArgumentES8_
00007ffb1dfe28a6 (__TEXT,__text) external __ZN7Alembic3Abc3v1117ICompoundPropertyC1ENSt3__110shared_ptrINS_15AbcCoreAbstract3v1122CompoundPropertyReaderEEENS1_16WrapExistingFlagERKNS1_8ArgumentESC_
00007ffb1dfe2770 (__TEXT,__text) external __ZN7Alembic3Abc3v1117ICompoundPropertyC1ENSt3__110shared_ptrINS_15AbcCoreAbstract3v1122CompoundPropertyReaderEEERKNS1_8ArgumentESB_
00007ffb1dfe2c2a (__TEXT,__text) external __ZN7Alembic3Abc3v1117ICompoundPropertyC1ERKNS1_7IObjectENS1_7TopFlagERKNS1_8ArgumentES9_
00007ffb1dfe2b9a (__TEXT,__text) external __ZN7Alembic3Abc3v1117ICompoundPropertyC1ERKNS1_7IObjectERKNS1_8ArgumentES8_
00007ffb1dfe24be (__TEXT,__text) external __ZN7Alembic3Abc3v1117ICompoundPropertyC1ERKS2_RKNSt3__112basic_stringIcNS5_11char_traitsIcEENS5_9allocatorIcEEEERKNS1_8ArgumentE
00007ffb1dfe277a (__TEXT,__text) external __ZN7Alembic3Abc3v1117ICompoundPropertyC2ENSt3__110shared_ptrINS_15AbcCoreAbstract3v1122CompoundPropertyReaderEEENS1_16WrapExistingFlagERKNS1_8ArgumentESC_
00007ffb1dfe24c8 (__TEXT,__text) external __ZN7Alembic3Abc3v1117ICompoundPropertyC2ENSt3__110shared_ptrINS_15AbcCoreAbstract3v1122CompoundPropertyReaderEEERKNS1_8ArgumentESB_
00007ffb1dfe2ba4 (__TEXT,__text) external __ZN7Alembic3Abc3v1117ICompoundPropertyC2ERKNS1_7IObjectENS1_7TopFlagERKNS1_8ArgumentES9_
00007ffb1dfe28b0 (__TEXT,__text) external __ZN7Alembic3Abc3v1117ICompoundPropertyC2ERKNS1_7IObjectERKNS1_8ArgumentES8_
00007ffb1dfe1f10 (__TEXT,__text) external __ZN7Alembic3Abc3v1117ICompoundPropertyC2ERKS2_RKNSt3__112basic_stringIcNS5_11char_traitsIcEENS5_9allocatorIcEEEERKNS1_8ArgumentE
00007ffb1dfe2c62 (__TEXT,__text) external __ZN7Alembic3Abc3v1117ICompoundPropertyD1Ev
00007ffb1dfe2c34 (__TEXT,__text) external __ZN7Alembic3Abc3v1117ICompoundPropertyD2Ev
00007ffb1dfe9ab6 (__TEXT,__text) external __ZN7Alembic3Abc3v1117OCompoundProperty4initENS1_7OObjectERKNS1_8ArgumentES6_
00007ffb1dfe8ff2 (__TEXT,__text) external __ZN7Alembic3Abc3v1117OCompoundProperty4initENSt3__110shared_ptrINS_15AbcCoreAbstract3v1122CompoundPropertyWriterEEERKNS3_12basic_stringIcNS3_11char_traitsIcEENS3_9allocatorIcEEEERKNS1_8ArgumentESJ_SJ_
00007ffb1dfe9d86 (__TEXT,__text) external __ZN7Alembic3Abc3v1117OCompoundPropertyC1ENS1_7OObjectENS1_7TopFlagERKNS1_8ArgumentES7_
00007ffb1dfe9ca6 (__TEXT,__text) external __ZN7Alembic3Abc3v1117OCompoundPropertyC1ENS1_7OObjectERKNS1_8ArgumentES6_
00007ffb1dfe99d6 (__TEXT,__text) external __ZN7Alembic3Abc3v1117OCompoundPropertyC1ENSt3__110shared_ptrINS_15AbcCoreAbstract3v1122CompoundPropertyWriterEEENS1_16WrapExistingFlagERKNS1_8ArgumentESC_
00007ffb1dfe98a0 (__TEXT,__text) external __ZN7Alembic3Abc3v1117OCompoundPropertyC1ENSt3__110shared_ptrINS_15AbcCoreAbstract3v1122CompoundPropertyWriterEEERKNS1_8ArgumentESB_
00007ffb1dfe94f0 (__TEXT,__text) external __ZN7Alembic3Abc3v1117OCompoundPropertyC1ENSt3__110shared_ptrINS_15AbcCoreAbstract3v1122CompoundPropertyWriterEEERKNS3_12basic_stringIcNS3_11char_traitsIcEENS3_9allocatorIcEEEERKNS1_8ArgumentESJ_
00007ffb1dfe95ee (__TEXT,__text) external __ZN7Alembic3Abc3v1117OCompoundPropertyC1ES2_RKNSt3__112basic_stringIcNS3_11char_traitsIcEENS3_9allocatorIcEEEERKNS1_8ArgumentESE_
00007ffb1dfe9cb0 (__TEXT,__text) external __ZN7Alembic3Abc3v1117OCompoundPropertyC2ENS1_7OObjectENS1_7TopFlagERKNS1_8ArgumentES7_
00007ffb1dfe99e0 (__TEXT,__text) external __ZN7Alembic3Abc3v1117OCompoundPropertyC2ENS1_7OObjectERKNS1_8ArgumentES6_
00007ffb1dfe98aa (__TEXT,__text) external __ZN7Alembic3Abc3v1117OCompoundPropertyC2ENSt3__110shared_ptrINS_15AbcCoreAbstract3v1122CompoundPropertyWriterEEENS1_16WrapExistingFlagERKNS1_8ArgumentESC_
00007ffb1dfe95f8 (__TEXT,__text) external __ZN7Alembic3Abc3v1117OCompoundPropertyC2ENSt3__110shared_ptrINS_15AbcCoreAbstract3v1122CompoundPropertyWriterEEERKNS1_8ArgumentESB_
00007ffb1dfe8f00 (__TEXT,__text) external __ZN7Alembic3Abc3v1117OCompoundPropertyC2ENSt3__110shared_ptrINS_15AbcCoreAbstract3v1122CompoundPropertyWriterEEERKNS3_12basic_stringIcNS3_11char_traitsIcEENS3_9allocatorIcEEEERKNS1_8ArgumentESJ_
00007ffb1dfe94fa (__TEXT,__text) external __ZN7Alembic3Abc3v1117OCompoundPropertyC2ES2_RKNSt3__112basic_stringIcNS3_11char_traitsIcEENS3_9allocatorIcEEEERKNS1_8ArgumentESE_
00007ffb1dfe9dbe (__TEXT,__text) external __ZN7Alembic3Abc3v1117OCompoundPropertyD1Ev
00007ffb1dfe9d90 (__TEXT,__text) external __ZN7Alembic3Abc3v1117OCompoundPropertyD2Ev
00007ffb1dfdf7e2 (__TEXT,__text) external __ZN7Alembic3Abc3v1125GetArchiveStartAndEndTimeERNS1_8IArchiveERdS4_
00007ffb1dfe592e (__TEXT,__text) external __ZN7Alembic3Abc3v117IObject12initInstanceEv
00007ffb1dfe4b6a (__TEXT,__text) external __ZN7Alembic3Abc3v117IObject15getChildrenHashERNS_4Util3v116DigestE
00007ffb1dfe4a62 (__TEXT,__text) external __ZN7Alembic3Abc3v117IObject17getPropertiesHashERNS_4Util3v116DigestE
00007ffb1dfe57b4 (__TEXT,__text) external __ZN7Alembic3Abc3v117IObject4initENSt3__110shared_ptrINS_15AbcCoreAbstract3v1112ObjectReaderEEERKNS3_12basic_stringIcNS3_11char_traitsIcEENS3_9allocatorIcEEEENS1_12ErrorHandler6PolicyE
00007ffb1dfe549a (__TEXT,__text) external __ZN7Alembic3Abc3v117IObject4initERNS1_8IArchiveERKNS1_8ArgumentE
00007ffb1dfe47ee (__TEXT,__text) external __ZN7Alembic3Abc3v117IObject5resetEv
00007ffb1dfe328a (__TEXT,__text) external __ZN7Alembic3Abc3v117IObjectD0Ev
00007ffb1dfe3280 (__TEXT,__text) external __ZN7Alembic3Abc3v117IObjectD1Ev
00007ffb1dfe3230 (__TEXT,__text) external __ZN7Alembic3Abc3v117IObjectD2Ev
00007ffb1dfeb10c (__TEXT,__text) external __ZN7Alembic3Abc3v117OObject10getArchiveEv
00007ffb1dfebc9a (__TEXT,__text) external __ZN7Alembic3Abc3v117OObject13getPropertiesEv
00007ffb1dfeb768 (__TEXT,__text) external __ZN7Alembic3Abc3v117OObject14getChildHeaderERKNSt3__112basic_stringIcNS3_11char_traitsIcEENS3_9allocatorIcEEEE
00007ffb1dfeb5dc (__TEXT,__text) external __ZN7Alembic3Abc3v117OObject14getChildHeaderEm
00007ffb1dfeb4da (__TEXT,__text) external __ZN7Alembic3Abc3v117OObject14getNumChildrenEv
00007ffb1dfebe64 (__TEXT,__text) external __ZN7Alembic3Abc3v117OObject16addChildInstanceES2_RKNSt3__112basic_stringIcNS3_11char_traitsIcEENS3_9allocatorIcEEEE
00007ffb1dfeab9e (__TEXT,__text) external __ZN7Alembic3Abc3v117OObject4initENSt3__110shared_ptrINS_15AbcCoreAbstract3v1112ObjectWriterEEERKNS3_12basic_stringIcNS3_11char_traitsIcEENS3_9allocatorIcEEEENS1_12ErrorHandler6PolicyERKNS1_8ArgumentESL_SL_
00007ffb1dfec702 (__TEXT,__text) external __ZN7Alembic3Abc3v117OObject4initERNS1_8OArchiveERKNS1_8ArgumentES7_S7_
00007ffb1dfebaaa (__TEXT,__text) external __ZN7Alembic3Abc3v117OObject8getChildERKNSt3__112basic_stringIcNS3_11char_traitsIcEENS3_9allocatorIcEEEE
00007ffb1dfeb872 (__TEXT,__text) external __ZN7Alembic3Abc3v117OObject8getChildEm
00007ffb1dfeb2f0 (__TEXT,__text) external __ZN7Alembic3Abc3v117OObject9getParentEv
00007ffb1dfeaf06 (__TEXT,__text) external __ZN7Alembic3Abc3v117OObjectC1ES2_RKNSt3__112basic_stringIcNS3_11char_traitsIcEENS3_9allocatorIcEEEERKNS1_8ArgumentESE_SE_
00007ffb1dfeaa90 (__TEXT,__text) external __ZN7Alembic3Abc3v117OObjectC2ES2_RKNSt3__112basic_stringIcNS3_11char_traitsIcEENS3_9allocatorIcEEEERKNS1_8ArgumentESE_SE_
00007ffb1dfeaf52 (__TEXT,__text) external __ZN7Alembic3Abc3v117OObjectD0Ev
00007ffb1dfeaf48 (__TEXT,__text) external __ZN7Alembic3Abc3v117OObjectD1Ev
00007ffb1dfeaf10 (__TEXT,__text) external __ZN7Alembic3Abc3v117OObjectD2Ev
00007ffb1dfe0366 (__TEXT,__text) external __ZN7Alembic3Abc3v118IArchive15getTimeSamplingEj
00007ffb1dfe0678 (__TEXT,__text) external __ZN7Alembic3Abc3v118IArchive17getArchiveVersionEv
00007ffb1dfe047e (__TEXT,__text) external __ZN7Alembic3Abc3v118IArchive19getNumTimeSamplingsEv
00007ffb1dfe0258 (__TEXT,__text) external __ZN7Alembic3Abc3v118IArchive26getReadArraySampleCachePtrEv
00007ffb1dfe076c (__TEXT,__text) external __ZN7Alembic3Abc3v118IArchive26setReadArraySampleCachePtrENSt3__110shared_ptrINS_15AbcCoreAbstract3v1120ReadArraySampleCacheEEE
00007ffb1dfe0572 (__TEXT,__text) external __ZN7Alembic3Abc3v118IArchive36getMaxNumSamplesForTimeSamplingIndexEj
00007ffb1dfdfebe (__TEXT,__text) external __ZN7Alembic3Abc3v118IArchiveD1Ev
00007ffb1dfdfe90 (__TEXT,__text) external __ZN7Alembic3Abc3v118IArchiveD2Ev
00007ffb1dfe78a2 (__TEXT,__text) external __ZN7Alembic3Abc3v118OArchive15addTimeSamplingERKNS_15AbcCoreAbstract3v1112TimeSamplingE
00007ffb1dfe79a0 (__TEXT,__text) external __ZN7Alembic3Abc3v118OArchive15getTimeSamplingEj
00007ffb1dfe7808 (__TEXT,__text) external __ZN7Alembic3Abc3v118OArchive18setCompressionHintEa
00007ffb1dfe7ab8 (__TEXT,__text) external __ZN7Alembic3Abc3v118OArchive19getNumTimeSamplingsEv
00007ffb1dfe7bac (__TEXT,__text) external __ZN7Alembic3Abc3v118OArchive6getTopEv
00007ffb1dfe764e (__TEXT,__text) external __ZN7Alembic3Abc3v118OArchiveD1Ev
00007ffb1dfe7620 (__TEXT,__text) external __ZN7Alembic3Abc3v118OArchiveD2Ev
00007ffb1dfb5956 (__TEXT,__text) external __ZN7Alembic4Util3v1110SpookyHash4InitEyy
00007ffb1dfb5f2c (__TEXT,__text) external __ZN7Alembic4Util3v1110SpookyHash5FinalEPyS3_
00007ffb1dfb520c (__TEXT,__text) external __ZN7Alembic4Util3v1110SpookyHash5ShortEPKvmPyS5_
00007ffb1dfb597c (__TEXT,__text) external __ZN7Alembic4Util3v1110SpookyHash6UpdateEPKvm
00007ffb1dfb54f4 (__TEXT,__text) external __ZN7Alembic4Util3v1110SpookyHash7Hash128EPKvmPyS5_
00007ffb1dfb4f41 (__TEXT,__text) external __ZN7Alembic4Util3v1114isStandardNameERKNSt3__112basic_stringIcNS2_11char_traitsIcEENS2_9allocatorIcEEEE
00007ffb1dfb4fe6 (__TEXT,__text) external __ZN7Alembic4Util3v1116makeStandardNameERNSt3__112basic_stringIcNS2_11char_traitsIcEENS2_9allocatorIcEEEEc
00007ffb1dfb4c60 (__TEXT,__text) external __ZN7Alembic4Util3v1119MurmurHash3_x64_128EPKvmmPv
00007ffb1dfb6300 (__TEXT,__text) external __ZN7Alembic4Util3v118TokenMap3setERKNSt3__112basic_stringIcNS3_11char_traitsIcEENS3_9allocatorIcEEEEcc
00007ffb1dfb644e (__TEXT,__text) external __ZN7Alembic4Util3v118TokenMap9setUniqueERKNSt3__112basic_stringIcNS3_11char_traitsIcEENS3_9allocatorIcEEEEccb
00007ffb1e074f40 (__TEXT,__text) external __ZN7Alembic5Ogawa3v115IData4readEyPvym
00007ffb1e074f36 (__TEXT,__text) external __ZN7Alembic5Ogawa3v115IDataC1ENSt3__110shared_ptrINS1_8IStreamsEEEym
00007ffb1e074e08 (__TEXT,__text) external __ZN7Alembic5Ogawa3v115IDataC2ENSt3__110shared_ptrINS1_8IStreamsEEEym
00007ffb1e074dfc (__TEXT,__text) external __ZN7Alembic5Ogawa3v115IDataD1Ev
00007ffb1e074df0 (__TEXT,__text) external __ZN7Alembic5Ogawa3v115IDataD2Ev
00007ffb1e076e90 (__TEXT,__text) external __ZN7Alembic5Ogawa3v115OData7rewriteEyPvy
00007ffb1e076e6e (__TEXT,__text) external __ZN7Alembic5Ogawa3v115ODataC1ENSt3__110shared_ptrINS1_7OStreamEEEyy
00007ffb1e076db2 (__TEXT,__text) external __ZN7Alembic5Ogawa3v115ODataC1Ev
00007ffb1e076dda (__TEXT,__text) external __ZN7Alembic5Ogawa3v115ODataC2ENSt3__110shared_ptrINS1_7OStreamEEEyy
00007ffb1e076d8a (__TEXT,__text) external __ZN7Alembic5Ogawa3v115ODataC2Ev
00007ffb1e076e84 (__TEXT,__text) external __ZN7Alembic5Ogawa3v115ODataD1Ev
00007ffb1e076e78 (__TEXT,__text) external __ZN7Alembic5Ogawa3v115ODataD2Ev
00007ffb1e07546c (__TEXT,__text) external __ZN7Alembic5Ogawa3v116IGroup7getDataEym
00007ffb1e075192 (__TEXT,__text) external __ZN7Alembic5Ogawa3v116IGroup8getGroupEybm
00007ffb1e075170 (__TEXT,__text) external __ZN7Alembic5Ogawa3v116IGroupC1ENSt3__110shared_ptrINS1_8IStreamsEEEybm
00007ffb1e074fce (__TEXT,__text) external __ZN7Alembic5Ogawa3v116IGroupC2ENSt3__110shared_ptrINS1_8IStreamsEEEybm
00007ffb1e075186 (__TEXT,__text) external __ZN7Alembic5Ogawa3v116IGroupD1Ev
00007ffb1e07517a (__TEXT,__text) external __ZN7Alembic5Ogawa3v116IGroupD2Ev
00007ffb1e0777a4 (__TEXT,__text) external __ZN7Alembic5Ogawa3v116OGroup10createDataEyPKv
00007ffb1e077be6 (__TEXT,__text) external __ZN7Alembic5Ogawa3v116OGroup10createDataEyPKyPPKv
00007ffb1e0788dc (__TEXT,__text) external __ZN7Alembic5Ogawa3v116OGroup11replaceDataEyNSt3__110shared_ptrINS1_5ODataEEE
00007ffb1e0786de (__TEXT,__text) external __ZN7Alembic5Ogawa3v116OGroup12addEmptyDataEv
00007ffb1e0785b2 (__TEXT,__text) external __ZN7Alembic5Ogawa3v116OGroup13addEmptyGroupEv
00007ffb1e07737c (__TEXT,__text) external __ZN7Alembic5Ogawa3v116OGroup6freezeEv
00007ffb1e07806c (__TEXT,__text) external __ZN7Alembic5Ogawa3v116OGroup7addDataENSt3__110shared_ptrINS1_5ODataEEE
00007ffb1e077a72 (__TEXT,__text) external __ZN7Alembic5Ogawa3v116OGroup7addDataEyPKv
00007ffb1e077ef8 (__TEXT,__text) external __ZN7Alembic5Ogawa3v116OGroup7addDataEyPKyPPKv
00007ffb1e0781bc (__TEXT,__text) external __ZN7Alembic5Ogawa3v116OGroup8addGroupENSt3__110shared_ptrIS2_EE
00007ffb1e077506 (__TEXT,__text) external __ZN7Alembic5Ogawa3v116OGroup8addGroupEv
00007ffb1e077788 (__TEXT,__text) external __ZN7Alembic5Ogawa3v116OGroup8isFrozenEv
00007ffb1e077324 (__TEXT,__text) external __ZN7Alembic5Ogawa3v116OGroupC1ENSt3__110shared_ptrINS1_7OStreamEEE
00007ffb1e077172 (__TEXT,__text) external __ZN7Alembic5Ogawa3v116OGroupC1ENSt3__110shared_ptrIS2_EEy
00007ffb1e07717c (__TEXT,__text) external __ZN7Alembic5Ogawa3v116OGroupC2ENSt3__110shared_ptrINS1_7OStreamEEE
00007ffb1e076f50 (__TEXT,__text) external __ZN7Alembic5Ogawa3v116OGroupC2ENSt3__110shared_ptrIS2_EEy
00007ffb1e0774fc (__TEXT,__text) external __ZN7Alembic5Ogawa3v116OGroupD1Ev
00007ffb1e07732e (__TEXT,__text) external __ZN7Alembic5Ogawa3v116OGroupD2Ev
00007ffb1e079026 (__TEXT,__text) external __ZN7Alembic5Ogawa3v117OStream16getAndSeekEndPosEv
00007ffb1e078da0 (__TEXT,__text) external __ZN7Alembic5Ogawa3v117OStream4initEv
00007ffb1e079194 (__TEXT,__text) external __ZN7Alembic5Ogawa3v117OStream4seekEy
00007ffb1e0792fe (__TEXT,__text) external __ZN7Alembic5Ogawa3v117OStream5writeEPKvy
00007ffb1e079000 (__TEXT,__text) external __ZN7Alembic5Ogawa3v117OStream7isValidEv
00007ffb1e078e92 (__TEXT,__text) external __ZN7Alembic5Ogawa3v117OStreamC1EPNSt3__113basic_ostreamIcNS3_11char_traitsIcEEEE
00007ffb1e078e28 (__TEXT,__text) external __ZN7Alembic5Ogawa3v117OStreamC1ERKNSt3__112basic_stringIcNS3_11char_traitsIcEENS3_9allocatorIcEEEE
00007ffb1e078e32 (__TEXT,__text) external __ZN7Alembic5Ogawa3v117OStreamC2EPNSt3__113basic_ostreamIcNS3_11char_traitsIcEEEE
00007ffb1e078d40 (__TEXT,__text) external __ZN7Alembic5Ogawa3v117OStreamC2ERKNSt3__112basic_stringIcNS3_11char_traitsIcEENS3_9allocatorIcEEEE
00007ffb1e07901c (__TEXT,__text) external __ZN7Alembic5Ogawa3v117OStreamD1Ev
00007ffb1e078e9c (__TEXT,__text) external __ZN7Alembic5Ogawa3v117OStreamD2Ev
00007ffb1e0749c4 (__TEXT,__text) external __ZN7Alembic5Ogawa3v118IArchive4initEv
00007ffb1e074af6 (__TEXT,__text) external __ZN7Alembic5Ogawa3v118IArchiveC1ERKNSt3__112basic_stringIcNS3_11char_traitsIcEENS3_9allocatorIcEEEEmb
00007ffb1e074b7a (__TEXT,__text) external __ZN7Alembic5Ogawa3v118IArchiveC1ERKNSt3__16vectorIPNS3_13basic_istreamIcNS3_11char_traitsIcEEEENS3_9allocatorIS9_EEEE
00007ffb1e074936 (__TEXT,__text) external __ZN7Alembic5Ogawa3v118IArchiveC2ERKNSt3__112basic_stringIcNS3_11char_traitsIcEENS3_9allocatorIcEEEEmb
00007ffb1e074b00 (__TEXT,__text) external __ZN7Alembic5Ogawa3v118IArchiveC2ERKNSt3__16vectorIPNS3_13basic_istreamIcNS3_11char_traitsIcEEEENS3_9allocatorIS9_EEEE
00007ffb1e074ba4 (__TEXT,__text) external __ZN7Alembic5Ogawa3v118IArchiveD1Ev
00007ffb1e074b84 (__TEXT,__text) external __ZN7Alembic5Ogawa3v118IArchiveD2Ev
00007ffb1e07623c (__TEXT,__text) external __ZN7Alembic5Ogawa3v118IStreams10getVersionEv
00007ffb1e07624a (__TEXT,__text) external __ZN7Alembic5Ogawa3v118IStreams4readEmyyPv
00007ffb1e076224 (__TEXT,__text) external __ZN7Alembic5Ogawa3v118IStreams7isValidEv
00007ffb1e076230 (__TEXT,__text) external __ZN7Alembic5Ogawa3v118IStreams8isFrozenEv
00007ffb1e075d70 (__TEXT,__text) external __ZN7Alembic5Ogawa3v118IStreamsC1ERKNSt3__112basic_stringIcNS3_11char_traitsIcEENS3_9allocatorIcEEEEmb
00007ffb1e076202 (__TEXT,__text) external __ZN7Alembic5Ogawa3v118IStreamsC1ERKNSt3__16vectorIPNS3_13basic_istreamIcNS3_11char_traitsIcEEEENS3_9allocatorIS9_EEEE
00007ffb1e0758e0 (__TEXT,__text) external __ZN7Alembic5Ogawa3v118IStreamsC2ERKNSt3__112basic_stringIcNS3_11char_traitsIcEENS3_9allocatorIcEEEEmb
00007ffb1e075d7a (__TEXT,__text) external __ZN7Alembic5Ogawa3v118IStreamsC2ERKNSt3__16vectorIPNS3_13basic_istreamIcNS3_11char_traitsIcEEEENS3_9allocatorIS9_EEEE
00007ffb1e076218 (__TEXT,__text) external __ZN7Alembic5Ogawa3v118IStreamsD1Ev
00007ffb1e07620c (__TEXT,__text) external __ZN7Alembic5Ogawa3v118IStreamsD2Ev
00007ffb1e076c1a (__TEXT,__text) external __ZN7Alembic5Ogawa3v118OArchive7isValidEv
00007ffb1e076c28 (__TEXT,__text) external __ZN7Alembic5Ogawa3v118OArchive8getGroupEv
00007ffb1e076bd0 (__TEXT,__text) external __ZN7Alembic5Ogawa3v118OArchiveC1EPNSt3__113basic_ostreamIcNS3_11char_traitsIcEEEE
00007ffb1e076ad0 (__TEXT,__text) external __ZN7Alembic5Ogawa3v118OArchiveC1ERKNSt3__112basic_stringIcNS3_11char_traitsIcEENS3_9allocatorIcEEEE
00007ffb1e076ada (__TEXT,__text) external __ZN7Alembic5Ogawa3v118OArchiveC2EPNSt3__113basic_ostreamIcNS3_11char_traitsIcEEEE
00007ffb1e07697c (__TEXT,__text) external __ZN7Alembic5Ogawa3v118OArchiveC2ERKNSt3__112basic_stringIcNS3_11char_traitsIcEENS3_9allocatorIcEEEE
00007ffb1e076bfa (__TEXT,__text) external __ZN7Alembic5Ogawa3v118OArchiveD1Ev
00007ffb1e076bda (__TEXT,__text) external __ZN7Alembic5Ogawa3v118OArchiveD2Ev
00007ffb1e04e75a (__TEXT,__text) external __ZN7Alembic7AbcGeom3v1111ISubDSchema10getFaceSetERKNSt3__112basic_stringIcNS3_11char_traitsIcEENS3_9allocatorIcEEEE
00007ffb1e04e604 (__TEXT,__text) external __ZN7Alembic7AbcGeom3v1111ISubDSchema10hasFaceSetERKNSt3__112basic_stringIcNS3_11char_traitsIcEENS3_9allocatorIcEEEE
00007ffb1e04e0ce (__TEXT,__text) external __ZN7Alembic7AbcGeom3v1111ISubDSchema15getFaceSetNamesERNSt3__16vectorINS3_12basic_stringIcNS3_11char_traitsIcEENS3_9allocatorIcEEEENS8_ISA_EEEE
00007ffb1e04e28e (__TEXT,__text) external __ZN7Alembic7AbcGeom3v1111ISubDSchema16loadFaceSetNamesEv
00007ffb1e04c3be (__TEXT,__text) external __ZN7Alembic7AbcGeom3v1111ISubDSchema4initERKNS_3Abc3v118ArgumentES7_
00007ffb1e04b902 (__TEXT,__text) external __ZN7Alembic7AbcGeom3v1111ISubDSchemaaSERKS2_
00007ffb1e04750a (__TEXT,__text) external __ZN7Alembic7AbcGeom3v1111OSubDSchema10getFaceSetERKNSt3__112basic_stringIcNS3_11char_traitsIcEENS3_9allocatorIcEEEE
00007ffb1e0474e0 (__TEXT,__text) external __ZN7Alembic7AbcGeom3v1111OSubDSchema10hasFaceSetERKNSt3__112basic_stringIcNS3_11char_traitsIcEENS3_9allocatorIcEEEE
00007ffb1e04526c (__TEXT,__text) external __ZN7Alembic7AbcGeom3v1111OSubDSchema11initCornersEj
00007ffb1e044a42 (__TEXT,__text) external __ZN7Alembic7AbcGeom3v1111OSubDSchema11initCreasesEj
00007ffb1e042b68 (__TEXT,__text) external __ZN7Alembic7AbcGeom3v1111OSubDSchema12selectiveSetERKNS2_6SampleE
00007ffb1e046d9a (__TEXT,__text) external __ZN7Alembic7AbcGeom3v1111OSubDSchema13createFaceSetERKNSt3__112basic_stringIcNS3_11char_traitsIcEENS3_9allocatorIcEEEE
00007ffb1e047366 (__TEXT,__text) external __ZN7Alembic7AbcGeom3v1111OSubDSchema15getFaceSetNamesERNSt3__16vectorINS3_12basic_stringIcNS3_11char_traitsIcEENS3_9allocatorIcEEEENS8_ISA_EEEE
00007ffb1e046380 (__TEXT,__text) external __ZN7Alembic7AbcGeom3v1111OSubDSchema15setFromPreviousEv
00007ffb1e046c14 (__TEXT,__text) external __ZN7Alembic7AbcGeom3v1111OSubDSchema15setTimeSamplingENSt3__110shared_ptrINS_15AbcCoreAbstract3v1112TimeSamplingEEE
00007ffb1e046752 (__TEXT,__text) external __ZN7Alembic7AbcGeom3v1111OSubDSchema15setTimeSamplingEj
00007ffb1e047864 (__TEXT,__text) external __ZN7Alembic7AbcGeom3v1111OSubDSchema15setUVSourceNameERKNSt3__112basic_stringIcNS3_11char_traitsIcEENS3_9allocatorIcEEEE
00007ffb1e0440f2 (__TEXT,__text) external __ZN7Alembic7AbcGeom3v1111OSubDSchema17createUVsPropertyERKNS2_6SampleE
00007ffb1e045d6e (__TEXT,__text) external __ZN7Alembic7AbcGeom3v1111OSubDSchema23createPositionsPropertyEv
00007ffb1e043700 (__TEXT,__text) external __ZN7Alembic7AbcGeom3v1111OSubDSchema24createSubDSchemePropertyEv
00007ffb1e043eac (__TEXT,__text) external __ZN7Alembic7AbcGeom3v1111OSubDSchema24createVelocitiesPropertyEv
00007ffb1e043ccc (__TEXT,__text) external __ZN7Alembic7AbcGeom3v1111OSubDSchema33createInterpolateBoundaryPropertyEv
00007ffb1e040ab6 (__TEXT,__text) external __ZN7Alembic7AbcGeom3v1111OSubDSchema3setERKNS2_6SampleE
00007ffb1e043aec (__TEXT,__text) external __ZN7Alembic7AbcGeom3v1111OSubDSchema41createFaceVaryingPropagateCornersPropertyEv
00007ffb1e04390c (__TEXT,__text) external __ZN7Alembic7AbcGeom3v1111OSubDSchema44createFaceVaryingInterpolateBoundaryPropertyEv
00007ffb1e03fe64 (__TEXT,__text) external __ZN7Alembic7AbcGeom3v1111OSubDSchema4initEjb
00007ffb1e0458ba (__TEXT,__text) external __ZN7Alembic7AbcGeom3v1111OSubDSchema9initHolesEj
00007ffb1e040aac (__TEXT,__text) external __ZN7Alembic7AbcGeom3v1111OSubDSchemaC1ENS_3Abc3v1117OCompoundPropertyERKNSt3__112basic_stringIcNS6_11char_traitsIcEENS6_9allocatorIcEEEERKNS4_8ArgumentESH_SH_
00007ffb1e04031e (__TEXT,__text) external __ZN7Alembic7AbcGeom3v1111OSubDSchemaC1ENSt3__110shared_ptrINS_15AbcCoreAbstract3v1122CompoundPropertyWriterEEERKNS3_12basic_stringIcNS3_11char_traitsIcEENS3_9allocatorIcEEEERKNS_3Abc3v118ArgumentESL_SL_SL_
00007ffb1e040328 (__TEXT,__text) external __ZN7Alembic7AbcGeom3v1111OSubDSchemaC2ENS_3Abc3v1117OCompoundPropertyERKNSt3__112basic_stringIcNS6_11char_traitsIcEENS6_9allocatorIcEEEERKNS4_8ArgumentESH_SH_
00007ffb1e03f3d0 (__TEXT,__text) external __ZN7Alembic7AbcGeom3v1111OSubDSchemaC2ENSt3__110shared_ptrINS_15AbcCoreAbstract3v1122CompoundPropertyWriterEEERKNS3_12basic_stringIcNS3_11char_traitsIcEENS3_9allocatorIcEEEERKNS_3Abc3v118ArgumentESL_SL_SL_
00007ffb1e055b70 (__TEXT,__text) external __ZN7Alembic7AbcGeom3v1111XformSample11setRotationERKN9Imath_2_34Vec3IdEEd
00007ffb1e0563c6 (__TEXT,__text) external __ZN7Alembic7AbcGeom3v1111XformSample12setXRotationEd
00007ffb1e0567da (__TEXT,__text) external __ZN7Alembic7AbcGeom3v1111XformSample12setYRotationEd
00007ffb1e056bee (__TEXT,__text) external __ZN7Alembic7AbcGeom3v1111XformSample12setZRotationEd
00007ffb1e057ebc (__TEXT,__text) external __ZN7Alembic7AbcGeom3v1111XformSample14freezeTopologyEv
00007ffb1e055752 (__TEXT,__text) external __ZN7Alembic7AbcGeom3v1111XformSample14setTranslationERKN9Imath_2_34Vec3IdEE
00007ffb1e057fa2 (__TEXT,__text) external __ZN7Alembic7AbcGeom3v1111XformSample15isTopologyEqualERKS2_
00007ffb1e05573e (__TEXT,__text) external __ZN7Alembic7AbcGeom3v1111XformSample17setInheritsXformsEb
00007ffb1e054388 (__TEXT,__text) external __ZN7Alembic7AbcGeom3v1111XformSample5addOpENS1_7XformOpERKN9Imath_2_34Vec3IdEE
00007ffb1e054742 (__TEXT,__text) external __ZN7Alembic7AbcGeom3v1111XformSample5addOpENS1_7XformOpERKN9Imath_2_34Vec3IdEEd
00007ffb1e054ec0 (__TEXT,__text) external __ZN7Alembic7AbcGeom3v1111XformSample5addOpENS1_7XformOpERKN9Imath_2_38Matrix44IdEE
00007ffb1e054b12 (__TEXT,__text) external __ZN7Alembic7AbcGeom3v1111XformSample5addOpENS1_7XformOpEd
00007ffb1e055294 (__TEXT,__text) external __ZN7Alembic7AbcGeom3v1111XformSample5addOpERKNS1_7XformOpE
00007ffb1e057ec6 (__TEXT,__text) external __ZN7Alembic7AbcGeom3v1111XformSample5clearEv
00007ffb1e057f70 (__TEXT,__text) external __ZN7Alembic7AbcGeom3v1111XformSample5resetEv
00007ffb1e055faa (__TEXT,__text) external __ZN7Alembic7AbcGeom3v1111XformSample8setScaleERKN9Imath_2_34Vec3IdEE
00007ffb1e057002 (__TEXT,__text) external __ZN7Alembic7AbcGeom3v1111XformSample9setMatrixERKN9Imath_2_38Matrix44IdEE
00007ffb1e054364 (__TEXT,__text) external __ZN7Alembic7AbcGeom3v1111XformSampleC1Ev
00007ffb1e054340 (__TEXT,__text) external __ZN7Alembic7AbcGeom3v1111XformSampleC2Ev
00007ffb1e055694 (__TEXT,__text) external __ZN7Alembic7AbcGeom3v1111XformSampleixERKm
00007ffb1dff818a (__TEXT,__text) external __ZN7Alembic7AbcGeom3v1112CameraSample15getScreenWindowERdS3_S3_S3_
00007ffb1dff866a (__TEXT,__text) external __ZN7Alembic7AbcGeom3v1112CameraSample5addOpENS1_15FilmBackXformOpE
00007ffb1dff7f4a (__TEXT,__text) external __ZN7Alembic7AbcGeom3v1112CameraSampleC1Edddd
00007ffb1dff7e30 (__TEXT,__text) external __ZN7Alembic7AbcGeom3v1112CameraSampleC2Edddd
00007ffb1dff888a (__TEXT,__text) external __ZN7Alembic7AbcGeom3v1112CameraSampleixERKm
00007ffb1e015a00 (__TEXT,__text) external __ZN7Alembic7AbcGeom3v1112ILightSchema4initERKNS_3Abc3v118ArgumentES7_
00007ffb1e058e50 (__TEXT,__text) external __ZN7Alembic7AbcGeom3v1112IXformSchema4initERKNS_3Abc3v118ArgumentES7_
00007ffb1e01383a (__TEXT,__text) external __ZN7Alembic7AbcGeom3v1112OLightSchema13getNumSamplesEv
00007ffb1e012b4c (__TEXT,__text) external __ZN7Alembic7AbcGeom3v1112OLightSchema15setCameraSampleERKNS1_12CameraSampleE
00007ffb1e01337c (__TEXT,__text) external __ZN7Alembic7AbcGeom3v1112OLightSchema15setFromPreviousEv
00007ffb1e0136c2 (__TEXT,__text) external __ZN7Alembic7AbcGeom3v1112OLightSchema15setTimeSamplingENSt3__110shared_ptrINS_15AbcCoreAbstract3v1112TimeSamplingEEE
00007ffb1e013490 (__TEXT,__text) external __ZN7Alembic7AbcGeom3v1112OLightSchema15setTimeSamplingEj
00007ffb1e013968 (__TEXT,__text) external __ZN7Alembic7AbcGeom3v1112OLightSchema16getArbGeomParamsEv
00007ffb1e013cba (__TEXT,__text) external __ZN7Alembic7AbcGeom3v1112OLightSchema17getUserPropertiesEv
00007ffb1e014002 (__TEXT,__text) external __ZN7Alembic7AbcGeom3v1112OLightSchema22getChildBoundsPropertyEv
00007ffb1e012576 (__TEXT,__text) external __ZN7Alembic7AbcGeom3v1112OLightSchema4initENSt3__110shared_ptrINS_15AbcCoreAbstract3v1122CompoundPropertyWriterEEERKNS_3Abc3v118ArgumentESD_SD_SD_
00007ffb1e012b3a (__TEXT,__text) external __ZN7Alembic7AbcGeom3v1112OLightSchemaC1ENS_3Abc3v1117OCompoundPropertyERKNSt3__112basic_stringIcNS6_11char_traitsIcEENS6_9allocatorIcEEEERKNS4_8ArgumentESH_SH_
00007ffb1e0128fa (__TEXT,__text) external __ZN7Alembic7AbcGeom3v1112OLightSchemaC1ENSt3__110shared_ptrINS_15AbcCoreAbstract3v1122CompoundPropertyWriterEEERKNS3_12basic_stringIcNS3_11char_traitsIcEENS3_9allocatorIcEEEERKNS_3Abc3v118ArgumentESL_SL_SL_
00007ffb1e012904 (__TEXT,__text) external __ZN7Alembic7AbcGeom3v1112OLightSchemaC2ENS_3Abc3v1117OCompoundPropertyERKNSt3__112basic_stringIcNS6_11char_traitsIcEENS6_9allocatorIcEEEERKNS4_8ArgumentESH_SH_
00007ffb1e012270 (__TEXT,__text) external __ZN7Alembic7AbcGeom3v1112OLightSchemaC2ENSt3__110shared_ptrINS_15AbcCoreAbstract3v1122CompoundPropertyWriterEEERKNS3_12basic_stringIcNS3_11char_traitsIcEENS3_9allocatorIcEEEERKNS_3Abc3v118ArgumentESL_SL_SL_
00007ffb1e05dddc (__TEXT,__text) external __ZN7Alembic7AbcGeom3v1112OXformSchema15setFromPreviousEv
00007ffb1e05ef2e (__TEXT,__text) external __ZN7Alembic7AbcGeom3v1112OXformSchema15setTimeSamplingENSt3__110shared_ptrINS_15AbcCoreAbstract3v1112TimeSamplingEEE
00007ffb1e05ed48 (__TEXT,__text) external __ZN7Alembic7AbcGeom3v1112OXformSchema15setTimeSamplingEj
00007ffb1e05e334 (__TEXT,__text) external __ZN7Alembic7AbcGeom3v1112OXformSchema16getArbGeomParamsEv
00007ffb1e05cb00 (__TEXT,__text) external __ZN7Alembic7AbcGeom3v1112OXformSchema16setChannelValuesERKNSt3__16vectorIdNS3_9allocatorIdEEEE
00007ffb1e05e686 (__TEXT,__text) external __ZN7Alembic7AbcGeom3v1112OXformSchema17getUserPropertiesEv
00007ffb1e05e9d8 (__TEXT,__text) external __ZN7Alembic7AbcGeom3v1112OXformSchema22getChildBoundsPropertyEv
00007ffb1e05cca0 (__TEXT,__text) external __ZN7Alembic7AbcGeom3v1112OXformSchema3setERNS1_11XformSampleE
00007ffb1e05c3b6 (__TEXT,__text) external __ZN7Alembic7AbcGeom3v1112OXformSchema4initEx
00007ffb1e05caf6 (__TEXT,__text) external __ZN7Alembic7AbcGeom3v1112OXformSchemaC1ENS_3Abc3v1117OCompoundPropertyERKNSt3__112basic_stringIcNS6_11char_traitsIcEENS6_9allocatorIcEEEERKNS4_8ArgumentESH_SH_
00007ffb1e05c5cc (__TEXT,__text) external __ZN7Alembic7AbcGeom3v1112OXformSchemaC1ENSt3__110shared_ptrINS_15AbcCoreAbstract3v1122CompoundPropertyWriterEEERKNS3_12basic_stringIcNS3_11char_traitsIcEENS3_9allocatorIcEEEERKNS_3Abc3v118ArgumentESL_SL_SL_
00007ffb1e05c5d6 (__TEXT,__text) external __ZN7Alembic7AbcGeom3v1112OXformSchemaC2ENS_3Abc3v1117OCompoundPropertyERKNSt3__112basic_stringIcNS6_11char_traitsIcEENS6_9allocatorIcEEEERKNS4_8ArgumentESH_SH_
00007ffb1e05be20 (__TEXT,__text) external __ZN7Alembic7AbcGeom3v1112OXformSchemaC2ENSt3__110shared_ptrINS_15AbcCoreAbstract3v1122CompoundPropertyWriterEEERKNS3_12basic_stringIcNS3_11char_traitsIcEENS3_9allocatorIcEEEERKNS_3Abc3v118ArgumentESL_SL_SL_
00007ffb1e050ab7 (__TEXT,__text) external __ZN7Alembic7AbcGeom3v1113GetVisibilityERNS_3Abc3v117IObjectERKNS3_15ISampleSelectorE
00007ffb1dff8fb0 (__TEXT,__text) external __ZN7Alembic7AbcGeom3v1113ICameraSchema4initERKNS_3Abc3v118ArgumentES7_
00007ffb1e0000dc (__TEXT,__text) external __ZN7Alembic7AbcGeom3v1113ICurvesSchema4initERKNS_3Abc3v118ArgumentES7_
00007ffb1e030800 (__TEXT,__text) external __ZN7Alembic7AbcGeom3v1113IPointsSchema4initERKNS_3Abc3v118ArgumentES7_
00007ffb1dffd5bc (__TEXT,__text) external __ZN7Alembic7AbcGeom3v1113OCameraSchema15setFromPreviousEv
00007ffb1dffd826 (__TEXT,__text) external __ZN7Alembic7AbcGeom3v1113OCameraSchema15setTimeSamplingENSt3__110shared_ptrINS_15AbcCoreAbstract3v1112TimeSamplingEEE
00007ffb1dffd726 (__TEXT,__text) external __ZN7Alembic7AbcGeom3v1113OCameraSchema15setTimeSamplingEj
00007ffb1dffdd2a (__TEXT,__text) external __ZN7Alembic7AbcGeom3v1113OCameraSchema16getArbGeomParamsEv
00007ffb1dffe07c (__TEXT,__text) external __ZN7Alembic7AbcGeom3v1113OCameraSchema17getUserPropertiesEv
00007ffb1dffe3ce (__TEXT,__text) external __ZN7Alembic7AbcGeom3v1113OCameraSchema22getChildBoundsPropertyEv
00007ffb1dffc4d0 (__TEXT,__text) external __ZN7Alembic7AbcGeom3v1113OCameraSchema3setERKNS1_12CameraSampleE
00007ffb1dffd9ac (__TEXT,__text) external __ZN7Alembic7AbcGeom3v1113OCameraSchema4initEj
00007ffb1e005746 (__TEXT,__text) external __ZN7Alembic7AbcGeom3v1113OCurvesSchema12selectiveSetERKNS2_6SampleE
00007ffb1e009464 (__TEXT,__text) external __ZN7Alembic7AbcGeom3v1113OCurvesSchema15setFromPreviousEv
00007ffb1e00a692 (__TEXT,__text) external __ZN7Alembic7AbcGeom3v1113OCurvesSchema15setTimeSamplingENSt3__110shared_ptrINS_15AbcCoreAbstract3v1112TimeSamplingEEE
00007ffb1e00a212 (__TEXT,__text) external __ZN7Alembic7AbcGeom3v1113OCurvesSchema15setTimeSamplingEj
00007ffb1e006534 (__TEXT,__text) external __ZN7Alembic7AbcGeom3v1113OCurvesSchema16calcBasisAndTypeERA4_hRKNS2_6SampleE
00007ffb1e006798 (__TEXT,__text) external __ZN7Alembic7AbcGeom3v1113OCurvesSchema17createUVsPropertyERKNS2_6SampleE
00007ffb1e0084d0 (__TEXT,__text) external __ZN7Alembic7AbcGeom3v1113OCurvesSchema19createKnotsPropertyEv
00007ffb1e0077f2 (__TEXT,__text) external __ZN7Alembic7AbcGeom3v1113OCurvesSchema19createWidthPropertyERKNS2_6SampleE
00007ffb1e008258 (__TEXT,__text) external __ZN7Alembic7AbcGeom3v1113OCurvesSchema20createOrdersPropertyEv
00007ffb1e006f86 (__TEXT,__text) external __ZN7Alembic7AbcGeom3v1113OCurvesSchema21createNormalsPropertyERKNS2_6SampleE
00007ffb1e008c0c (__TEXT,__text) external __ZN7Alembic7AbcGeom3v1113OCurvesSchema22createPositionPropertyEv
00007ffb1e006552 (__TEXT,__text) external __ZN7Alembic7AbcGeom3v1113OCurvesSchema22createVelocityPropertyEv
00007ffb1e008f8c (__TEXT,__text) external __ZN7Alembic7AbcGeom3v1113OCurvesSchema22createVertexPropertiesEv
00007ffb1e007fe0 (__TEXT,__text) external __ZN7Alembic7AbcGeom3v1113OCurvesSchema29createPositionWeightsPropertyEv
00007ffb1e004530 (__TEXT,__text) external __ZN7Alembic7AbcGeom3v1113OCurvesSchema3setERKNS2_6SampleE
00007ffb1e00a818 (__TEXT,__text) external __ZN7Alembic7AbcGeom3v1113OCurvesSchema4initExb
00007ffb1e02b3b6 (__TEXT,__text) external __ZN7Alembic7AbcGeom3v1113OPointsSchema12selectiveSetERKNS2_6SampleE
00007ffb1e02cba0 (__TEXT,__text) external __ZN7Alembic7AbcGeom3v1113OPointsSchema15setFromPreviousEv
00007ffb1e02cfae (__TEXT,__text) external __ZN7Alembic7AbcGeom3v1113OPointsSchema15setTimeSamplingENSt3__110shared_ptrINS_15AbcCoreAbstract3v1112TimeSamplingEEE
00007ffb1e02cd9e (__TEXT,__text) external __ZN7Alembic7AbcGeom3v1113OPointsSchema15setTimeSamplingEj
00007ffb1e02c8aa (__TEXT,__text) external __ZN7Alembic7AbcGeom3v1113OPointsSchema16createIdPropertyEv
00007ffb1e02bc82 (__TEXT,__text) external __ZN7Alembic7AbcGeom3v1113OPointsSchema20createWidthsPropertyERKNS2_6SampleE
00007ffb1e02c59c (__TEXT,__text) external __ZN7Alembic7AbcGeom3v1113OPointsSchema22createPositionPropertyEv
00007ffb1e02b9ca (__TEXT,__text) external __ZN7Alembic7AbcGeom3v1113OPointsSchema22createVelocityPropertyEv
00007ffb1e02aa7e (__TEXT,__text) external __ZN7Alembic7AbcGeom3v1113OPointsSchema3setERKNS2_6SampleE
00007ffb1e02a38e (__TEXT,__text) external __ZN7Alembic7AbcGeom3v1113OPointsSchema4initEjb
00007ffb1e02aa74 (__TEXT,__text) external __ZN7Alembic7AbcGeom3v1113OPointsSchemaC1ENS_3Abc3v1117OCompoundPropertyERKNSt3__112basic_stringIcNS6_11char_traitsIcEENS6_9allocatorIcEEEERKNS4_8ArgumentESH_SH_
00007ffb1e02a5e4 (__TEXT,__text) external __ZN7Alembic7AbcGeom3v1113OPointsSchemaC1ENSt3__110shared_ptrINS_15AbcCoreAbstract3v1122CompoundPropertyWriterEEERKNS3_12basic_stringIcNS3_11char_traitsIcEENS3_9allocatorIcEEEERKNS_3Abc3v118ArgumentESL_SL_SL_
00007ffb1e02a5ee (__TEXT,__text) external __ZN7Alembic7AbcGeom3v1113OPointsSchemaC2ENS_3Abc3v1117OCompoundPropertyERKNSt3__112basic_stringIcNS6_11char_traitsIcEENS6_9allocatorIcEEEERKNS4_8ArgumentESH_SH_
00007ffb1e029be0 (__TEXT,__text) external __ZN7Alembic7AbcGeom3v1113OPointsSchemaC2ENSt3__110shared_ptrINS_15AbcCoreAbstract3v1122CompoundPropertyWriterEEERKNS3_12basic_stringIcNS3_11char_traitsIcEENS3_9allocatorIcEEEERKNS_3Abc3v118ArgumentESL_SL_SL_
00007ffb1e01113c (__TEXT,__text) external __ZN7Alembic7AbcGeom3v1114IFaceSetSchema4initERKNS_3Abc3v118ArgumentES7_
00007ffb1e024af0 (__TEXT,__text) external __ZN7Alembic7AbcGeom3v1114INuPatchSchema4initERKNS_3Abc3v118ArgumentES7_
00007ffb1e00ec7a (__TEXT,__text) external __ZN7Alembic7AbcGeom3v1114OFaceSetSchema15setTimeSamplingENSt3__110shared_ptrINS_15AbcCoreAbstract3v1112TimeSamplingEEE
00007ffb1e00eb6c (__TEXT,__text) external __ZN7Alembic7AbcGeom3v1114OFaceSetSchema15setTimeSamplingEj
00007ffb1e00f834 (__TEXT,__text) external __ZN7Alembic7AbcGeom3v1114OFaceSetSchema18setFaceExclusivityENS1_18FaceSetExclusivityE
00007ffb1e00f5d6 (__TEXT,__text) external __ZN7Alembic7AbcGeom3v1114OFaceSetSchema22_recordExclusivityHintEv
00007ffb1e00f1fc (__TEXT,__text) external __ZN7Alembic7AbcGeom3v1114OFaceSetSchema3setERKNS2_6SampleE
00007ffb1e00e2fe (__TEXT,__text) external __ZN7Alembic7AbcGeom3v1114OFaceSetSchema4initENSt3__110shared_ptrINS_15AbcCoreAbstract3v1122CompoundPropertyWriterEEERKNS_3Abc3v118ArgumentESD_SD_SD_
00007ffb1e00ea22 (__TEXT,__text) external __ZN7Alembic7AbcGeom3v1114OFaceSetSchemaC1ENS_3Abc3v1117OCompoundPropertyERKNSt3__112basic_stringIcNS6_11char_traitsIcEENS6_9allocatorIcEEEERKNS4_8ArgumentESH_SH_
00007ffb1e00e808 (__TEXT,__text) external __ZN7Alembic7AbcGeom3v1114OFaceSetSchemaC1ENSt3__110shared_ptrINS_15AbcCoreAbstract3v1122CompoundPropertyWriterEEERKNS3_12basic_stringIcNS3_11char_traitsIcEENS3_9allocatorIcEEEERKNS_3Abc3v118ArgumentESL_SL_SL_
00007ffb1e00e812 (__TEXT,__text) external __ZN7Alembic7AbcGeom3v1114OFaceSetSchemaC2ENS_3Abc3v1117OCompoundPropertyERKNSt3__112basic_stringIcNS6_11char_traitsIcEENS6_9allocatorIcEEEERKNS4_8ArgumentESH_SH_
00007ffb1e00dd60 (__TEXT,__text) external __ZN7Alembic7AbcGeom3v1114OFaceSetSchemaC2ENSt3__110shared_ptrINS_15AbcCoreAbstract3v1122CompoundPropertyWriterEEERKNS3_12basic_stringIcNS3_11char_traitsIcEENS3_9allocatorIcEEEERKNS_3Abc3v118ArgumentESL_SL_SL_
00007ffb1e01afc4 (__TEXT,__text) external __ZN7Alembic7AbcGeom3v1114ONuPatchSchema12selectiveSetERKNS2_6SampleE
00007ffb1e0204da (__TEXT,__text) external __ZN7Alembic7AbcGeom3v1114ONuPatchSchema15setFromPreviousEv
00007ffb1e020c56 (__TEXT,__text) external __ZN7Alembic7AbcGeom3v1114ONuPatchSchema15setTimeSamplingENSt3__110shared_ptrINS_15AbcCoreAbstract3v1112TimeSamplingEEE
00007ffb1e0208f2 (__TEXT,__text) external __ZN7Alembic7AbcGeom3v1114ONuPatchSchema15setTimeSamplingEj
00007ffb1e01cd32 (__TEXT,__text) external __ZN7Alembic7AbcGeom3v1114ONuPatchSchema17createUVsPropertyERKNS2_6SampleE
00007ffb1e01f694 (__TEXT,__text) external __ZN7Alembic7AbcGeom3v1114ONuPatchSchema20createKnotPropertiesEv
00007ffb1e01e004 (__TEXT,__text) external __ZN7Alembic7AbcGeom3v1114ONuPatchSchema20createTrimPropretiesEv
00007ffb1e01d520 (__TEXT,__text) external __ZN7Alembic7AbcGeom3v1114ONuPatchSchema21createNormalsPropertyERKNS2_6SampleE
00007ffb1e01caec (__TEXT,__text) external __ZN7Alembic7AbcGeom3v1114ONuPatchSchema22createVelocityPropertyEv
00007ffb1e01f28c (__TEXT,__text) external __ZN7Alembic7AbcGeom3v1114ONuPatchSchema24createPositionPropertiesEv
00007ffb1e01dd8c (__TEXT,__text) external __ZN7Alembic7AbcGeom3v1114ONuPatchSchema29createPositionWeightsPropertyEv
00007ffb1e019194 (__TEXT,__text) external __ZN7Alembic7AbcGeom3v1114ONuPatchSchema3setERKNS2_6SampleE
00007ffb1e0187a8 (__TEXT,__text) external __ZN7Alembic7AbcGeom3v1114ONuPatchSchema4initExb
00007ffb1e01918a (__TEXT,__text) external __ZN7Alembic7AbcGeom3v1114ONuPatchSchemaC1ENS_3Abc3v1117OCompoundPropertyERKNSt3__112basic_stringIcNS6_11char_traitsIcEENS6_9allocatorIcEEEERKNS4_8ArgumentESH_SH_
00007ffb1e0188de (__TEXT,__text) external __ZN7Alembic7AbcGeom3v1114ONuPatchSchemaC1ENSt3__110shared_ptrINS_15AbcCoreAbstract3v1122CompoundPropertyWriterEEERKNS3_12basic_stringIcNS3_11char_traitsIcEENS3_9allocatorIcEEEERKNS_3Abc3v118ArgumentESL_SL_SL_
00007ffb1e0188e8 (__TEXT,__text) external __ZN7Alembic7AbcGeom3v1114ONuPatchSchemaC2ENS_3Abc3v1117OCompoundPropertyERKNSt3__112basic_stringIcNS6_11char_traitsIcEENS6_9allocatorIcEEEERKNS4_8ArgumentESH_SH_
00007ffb1e017ab0 (__TEXT,__text) external __ZN7Alembic7AbcGeom3v1114ONuPatchSchemaC2ENSt3__110shared_ptrINS_15AbcCoreAbstract3v1122CompoundPropertyWriterEEERKNS3_12basic_stringIcNS3_11char_traitsIcEENS3_9allocatorIcEEEERKNS_3Abc3v118ArgumentESL_SL_SL_
00007ffb1dff7530 (__TEXT,__text) external __ZN7Alembic7AbcGeom3v1115FilmBackXformOp12setTranslateERKN9Imath_2_34Vec2IdEE
00007ffb1dff74ec (__TEXT,__text) external __ZN7Alembic7AbcGeom3v1115FilmBackXformOp15setChannelValueEmd
00007ffb1dff7690 (__TEXT,__text) external __ZN7Alembic7AbcGeom3v1115FilmBackXformOp8setScaleERKN9Imath_2_34Vec2IdEE
00007ffb1dff77ee (__TEXT,__text) external __ZN7Alembic7AbcGeom3v1115FilmBackXformOp9setMatrixERKN9Imath_2_38Matrix33IdEE
00007ffb1dff71c6 (__TEXT,__text) external __ZN7Alembic7AbcGeom3v1115FilmBackXformOpC1ENS1_26FilmBackXformOperationTypeERKNSt3__112basic_stringIcNS4_11char_traitsIcEENS4_9allocatorIcEEEE
00007ffb1dff7426 (__TEXT,__text) external __ZN7Alembic7AbcGeom3v1115FilmBackXformOpC1ERKNSt3__112basic_stringIcNS3_11char_traitsIcEENS3_9allocatorIcEEEE
00007ffb1dff704e (__TEXT,__text) external __ZN7Alembic7AbcGeom3v1115FilmBackXformOpC1Ev
00007ffb1dff7058 (__TEXT,__text) external __ZN7Alembic7AbcGeom3v1115FilmBackXformOpC2ENS1_26FilmBackXformOperationTypeERKNSt3__112basic_stringIcNS4_11char_traitsIcEENS4_9allocatorIcEEEE
00007ffb1dff71d0 (__TEXT,__text) external __ZN7Alembic7AbcGeom3v1115FilmBackXformOpC2ERKNSt3__112basic_stringIcNS3_11char_traitsIcEENS3_9allocatorIcEEEE
00007ffb1dff6ff0 (__TEXT,__text) external __ZN7Alembic7AbcGeom3v1115FilmBackXformOpC2Ev
00007ffb1e03b9b4 (__TEXT,__text) external __ZN7Alembic7AbcGeom3v1115IPolyMeshSchema10getFaceSetERKNSt3__112basic_stringIcNS3_11char_traitsIcEENS3_9allocatorIcEEEE
00007ffb1e03b85e (__TEXT,__text) external __ZN7Alembic7AbcGeom3v1115IPolyMeshSchema10hasFaceSetERKNSt3__112basic_stringIcNS3_11char_traitsIcEENS3_9allocatorIcEEEE
00007ffb1e03b69e (__TEXT,__text) external __ZN7Alembic7AbcGeom3v1115IPolyMeshSchema15getFaceSetNamesERNSt3__16vectorINS3_12basic_stringIcNS3_11char_traitsIcEENS3_9allocatorIcEEEENS8_ISA_EEEE
00007ffb1e03b088 (__TEXT,__text) external __ZN7Alembic7AbcGeom3v1115IPolyMeshSchema16loadFaceSetNamesEv
00007ffb1e039e2c (__TEXT,__text) external __ZN7Alembic7AbcGeom3v1115IPolyMeshSchema4initERKNS_3Abc3v118ArgumentES7_
00007ffb1e03aab8 (__TEXT,__text) external __ZN7Alembic7AbcGeom3v1115IPolyMeshSchemaaSERKS2_
00007ffb1e03806c (__TEXT,__text) external __ZN7Alembic7AbcGeom3v1115OPolyMeshSchema10getFaceSetERKNSt3__112basic_stringIcNS3_11char_traitsIcEENS3_9allocatorIcEEEE
00007ffb1e037796 (__TEXT,__text) external __ZN7Alembic7AbcGeom3v1115OPolyMeshSchema10hasFaceSetERKNSt3__112basic_stringIcNS3_11char_traitsIcEENS3_9allocatorIcEEEE
00007ffb1e0344c4 (__TEXT,__text) external __ZN7Alembic7AbcGeom3v1115OPolyMeshSchema12selectiveSetERKNS2_6SampleE
00007ffb1e0378a6 (__TEXT,__text) external __ZN7Alembic7AbcGeom3v1115OPolyMeshSchema13createFaceSetERKNSt3__112basic_stringIcNS3_11char_traitsIcEENS3_9allocatorIcEEEE
00007ffb1e037ef2 (__TEXT,__text) external __ZN7Alembic7AbcGeom3v1115OPolyMeshSchema15getFaceSetNamesERNSt3__16vectorINS3_12basic_stringIcNS3_11char_traitsIcEENS3_9allocatorIcEEEENS8_ISA_EEEE
00007ffb1e036d3c (__TEXT,__text) external __ZN7Alembic7AbcGeom3v1115OPolyMeshSchema15setFromPreviousEv
00007ffb1e037440 (__TEXT,__text) external __ZN7Alembic7AbcGeom3v1115OPolyMeshSchema15setTimeSamplingENSt3__110shared_ptrINS_15AbcCoreAbstract3v1112TimeSamplingEEE
00007ffb1e036fa6 (__TEXT,__text) external __ZN7Alembic7AbcGeom3v1115OPolyMeshSchema15setTimeSamplingEj
00007ffb1e0383c6 (__TEXT,__text) external __ZN7Alembic7AbcGeom3v1115OPolyMeshSchema15setUVSourceNameERKNSt3__112basic_stringIcNS3_11char_traitsIcEENS3_9allocatorIcEEEE
00007ffb1e034ce6 (__TEXT,__text) external __ZN7Alembic7AbcGeom3v1115OPolyMeshSchema17createUVsPropertyERKNS2_6SampleE
00007ffb1e035458 (__TEXT,__text) external __ZN7Alembic7AbcGeom3v1115OPolyMeshSchema21createNormalsPropertyERKNS2_6SampleE
00007ffb1e03644c (__TEXT,__text) external __ZN7Alembic7AbcGeom3v1115OPolyMeshSchema23createPositionsPropertyEv
00007ffb1e034aa0 (__TEXT,__text) external __ZN7Alembic7AbcGeom3v1115OPolyMeshSchema24createVelocitiesPropertyEv
00007ffb1e033730 (__TEXT,__text) external __ZN7Alembic7AbcGeom3v1115OPolyMeshSchema3setERKNS2_6SampleE
00007ffb1e032cfc (__TEXT,__text) external __ZN7Alembic7AbcGeom3v1115OPolyMeshSchema4initEjb
00007ffb1e033726 (__TEXT,__text) external __ZN7Alembic7AbcGeom3v1115OPolyMeshSchemaC1ENS_3Abc3v1117OCompoundPropertyERKNSt3__112basic_stringIcNS6_11char_traitsIcEENS6_9allocatorIcEEEERKNS4_8ArgumentESH_SH_
00007ffb1e0331b6 (__TEXT,__text) external __ZN7Alembic7AbcGeom3v1115OPolyMeshSchemaC1ENSt3__110shared_ptrINS_15AbcCoreAbstract3v1122CompoundPropertyWriterEEERKNS3_12basic_stringIcNS3_11char_traitsIcEENS3_9allocatorIcEEEERKNS_3Abc3v118ArgumentESL_SL_SL_
00007ffb1e0331c0 (__TEXT,__text) external __ZN7Alembic7AbcGeom3v1115OPolyMeshSchemaC2ENS_3Abc3v1117OCompoundPropertyERKNSt3__112basic_stringIcNS6_11char_traitsIcEENS6_9allocatorIcEEEERKNS4_8ArgumentESH_SH_
00007ffb1e032460 (__TEXT,__text) external __ZN7Alembic7AbcGeom3v1115OPolyMeshSchemaC2ENSt3__110shared_ptrINS_15AbcCoreAbstract3v1122CompoundPropertyWriterEEERKNS3_12basic_stringIcNS3_11char_traitsIcEENS3_9allocatorIcEEEERKNS_3Abc3v118ArgumentESL_SL_SL_
00007ffb1dff5bc0 (__TEXT,__text) external __ZN7Alembic7AbcGeom3v1117GetIArchiveBoundsERNS_3Abc3v118IArchiveERKNS3_8ArgumentES8_
00007ffb1e050bc9 (__TEXT,__text) external __ZN7Alembic7AbcGeom3v1119IsAncestorInvisibleENS_3Abc3v117IObjectERKNS3_15ISampleSelectorE
00007ffb1dff5c8c (__TEXT,__text) external __ZN7Alembic7AbcGeom3v1120CreateOArchiveBoundsERNS_3Abc3v118OArchiveERKNS3_8ArgumentES8_S8_
00007ffb1dffff20 (__TEXT,__text) external __ZN7Alembic7AbcGeom3v1120GetStepFromBasisTypeENS1_9BasisTypeE
00007ffb1e0509c3 (__TEXT,__text) external __ZN7Alembic7AbcGeom3v1121GetVisibilityPropertyERNS_3Abc3v117IObjectE
00007ffb1e050830 (__TEXT,__text) external __ZN7Alembic7AbcGeom3v1124CreateVisibilityPropertyERNS_3Abc3v117OObjectENSt3__110shared_ptrINS_15AbcCoreAbstract3v1112TimeSamplingEEE
00007ffb1e050910 (__TEXT,__text) external __ZN7Alembic7AbcGeom3v1124CreateVisibilityPropertyERNS_3Abc3v117OObjectEj
00007ffb1dfffee6 (__TEXT,__text) external __ZN7Alembic7AbcGeom3v1125GetBasisNameFromBasisTypeENS1_9BasisTypeE
00007ffb1dff67d0 (__TEXT,__text) external __ZN7Alembic7AbcGeom3v1128GeometryScopeNumValuesPointsENS1_13GeometryScopeEm
00007ffb1dff6900 (__TEXT,__text) external __ZN7Alembic7AbcGeom3v1129GeometryScopeNumValuesNuPatchENS1_13GeometryScopeEmmmm
00007ffb1dff676c (__TEXT,__text) external __ZN7Alembic7AbcGeom3v1129GeometryScopeNumValuesPolygonENS1_13GeometryScopeEm
00007ffb1dff6750 (__TEXT,__text) external __ZN7Alembic7AbcGeom3v1130GeometryScopeNumValuesQuadricsENS1_13GeometryScopeE
00007ffb1dff698e (__TEXT,__text) external __ZN7Alembic7AbcGeom3v1133GeometryScopeNumValuesCubicCurvesENS1_13GeometryScopeEmbm
00007ffb1dff6850 (__TEXT,__text) external __ZN7Alembic7AbcGeom3v1134GeometryScopeNumValuesBicubicPatchENS1_13GeometryScopeE
00007ffb1dff695c (__TEXT,__text) external __ZN7Alembic7AbcGeom3v1134GeometryScopeNumValuesLinearCurvesENS1_13GeometryScopeEmbm
00007ffb1dff6834 (__TEXT,__text) external __ZN7Alembic7AbcGeom3v1135GeometryScopeNumValuesBilinearPatchENS1_13GeometryScopeE
00007ffb1dff6789 (__TEXT,__text) external __ZN7Alembic7AbcGeom3v1136GeometryScopeNumValuesPointsPolygonsENS1_13GeometryScopeEmmm
00007ffb1dff67ed (__TEXT,__text) external __ZN7Alembic7AbcGeom3v1137GeometryScopeNumValuesSubdivisionMeshENS1_13GeometryScopeEmmm
00007ffb1dff68a2 (__TEXT,__text) external __ZN7Alembic7AbcGeom3v1138GeometryScopeNumValuesBicubicPatchMeshENS1_13GeometryScopeEmbmb
00007ffb1dff686c (__TEXT,__text) external __ZN7Alembic7AbcGeom3v1139GeometryScopeNumValuesBilinearPatchMeshENS1_13GeometryScopeEmbmb
00007ffb1dff6a92 (__TEXT,__text) external __ZN7Alembic7AbcGeom3v114isUVERKNS_15AbcCoreAbstract3v1114PropertyHeaderE
00007ffb1dff69d8 (__TEXT,__text) external __ZN7Alembic7AbcGeom3v117SetIsUVERNS_15AbcCoreAbstract3v118MetaDataEb
00007ffb1e05281e (__TEXT,__text) external __ZN7Alembic7AbcGeom3v117XformOp12setTranslateERKN9Imath_2_34Vec3IdEE
00007ffb1e05263a (__TEXT,__text) external __ZN7Alembic7AbcGeom3v117XformOp15setChannelValueEmd
00007ffb1e052ab6 (__TEXT,__text) external __ZN7Alembic7AbcGeom3v117XformOp7setAxisERKN9Imath_2_34Vec3IdEE
00007ffb1e052340 (__TEXT,__text) external __ZN7Alembic7AbcGeom3v117XformOp7setHintEh
00007ffb1e052496 (__TEXT,__text) external __ZN7Alembic7AbcGeom3v117XformOp7setTypeENS1_18XformOperationTypeE
00007ffb1e052c02 (__TEXT,__text) external __ZN7Alembic7AbcGeom3v117XformOp8setAngleEd
00007ffb1e05296a (__TEXT,__text) external __ZN7Alembic7AbcGeom3v117XformOp8setScaleERKN9Imath_2_34Vec3IdEE
00007ffb1e052d66 (__TEXT,__text) external __ZN7Alembic7AbcGeom3v117XformOp9setMatrixERKN9Imath_2_38Matrix44IdEE
00007ffb1e0526b4 (__TEXT,__text) external __ZN7Alembic7AbcGeom3v117XformOp9setVectorERKN9Imath_2_34Vec3IdEE
00007ffb1e05238c (__TEXT,__text) external __ZN7Alembic7AbcGeom3v117XformOpC1ENS1_18XformOperationTypeEh
00007ffb1e052484 (__TEXT,__text) external __ZN7Alembic7AbcGeom3v117XformOpC1Eh
00007ffb1e05224e (__TEXT,__text) external __ZN7Alembic7AbcGeom3v117XformOpC1Ev
00007ffb1e052258 (__TEXT,__text) external __ZN7Alembic7AbcGeom3v117XformOpC2ENS1_18XformOperationTypeEh
00007ffb1e052396 (__TEXT,__text) external __ZN7Alembic7AbcGeom3v117XformOpC2Eh
00007ffb1e0521c0 (__TEXT,__text) external __ZN7Alembic7AbcGeom3v117XformOpC2Ev
                 (undefined) external __ZN7Iex_2_37BaseExcC2EPKc (from libIex)
                 (undefined) external __ZN7Iex_2_37BaseExcD2Ev (from libIex)
00007ffb1dff57e6 (__TEXT,__text) external __ZNK7Alembic12AbcCoreLayer3v1111ReadArchiveclERNSt3__16vectorINS3_10shared_ptrINS_15AbcCoreAbstract3v1113ArchiveReaderEEENS3_9allocatorIS9_EEEE
00007ffb1dfd986e (__TEXT,__text) external __ZNK7Alembic12AbcCoreOgawa3v1111ReadArchiveclERKNSt3__112basic_stringIcNS3_11char_traitsIcEENS3_9allocatorIcEEEE
00007ffb1dfd9928 (__TEXT,__text) external __ZNK7Alembic12AbcCoreOgawa3v1111ReadArchiveclERKNSt3__112basic_stringIcNS3_11char_traitsIcEENS3_9allocatorIcEEEENS3_10shared_ptrINS_15AbcCoreAbstract3v1120ReadArraySampleCacheEEE
00007ffb1dfd974e (__TEXT,__text) external __ZNK7Alembic12AbcCoreOgawa3v1112WriteArchiveclEPNSt3__113basic_ostreamIcNS3_11char_traitsIcEEEERKNS_15AbcCoreAbstract3v118MetaDataE
00007ffb1dfd96da (__TEXT,__text) external __ZNK7Alembic12AbcCoreOgawa3v1112WriteArchiveclERKNSt3__112basic_stringIcNS3_11char_traitsIcEENS3_9allocatorIcEEEERKNS_15AbcCoreAbstract3v118MetaDataE
00007ffb1dfb8660 (__TEXT,__text) external __ZNK7Alembic15AbcCoreAbstract3v1111ArraySample6getKeyEv
00007ffb1dfb8026 (__TEXT,__text) external __ZNK7Alembic15AbcCoreAbstract3v1112TimeSampling12getCeilIndexEdx
00007ffb1dfb80d8 (__TEXT,__text) external __ZNK7Alembic15AbcCoreAbstract3v1112TimeSampling12getNearIndexEdx
00007ffb1dfb7b5e (__TEXT,__text) external __ZNK7Alembic15AbcCoreAbstract3v1112TimeSampling13getFloorIndexEdx
00007ffb1dfb78c0 (__TEXT,__text) external __ZNK7Alembic15AbcCoreAbstract3v1112TimeSampling13getSampleTimeEx
00007ffb1dfb849a (__TEXT,__text) external __ZNK7Alembic15AbcCoreAbstract3v1116TimeSamplingTypeeqERKS2_
00007ffb1dfe110c (__TEXT,__text) external __ZNK7Alembic3Abc3v1114IArrayProperty10isConstantEv
00007ffb1dfe11fe (__TEXT,__text) external __ZNK7Alembic3Abc3v1114IArrayProperty12isScalarLikeEv
00007ffb1dfe1af6 (__TEXT,__text) external __ZNK7Alembic3Abc3v1114IArrayProperty13getDimensionsERNS_4Util3v1114BaseDimensionsIyEERKNS1_15ISampleSelectorE
00007ffb1dfe100a (__TEXT,__text) external __ZNK7Alembic3Abc3v1114IArrayProperty13getNumSamplesEv
00007ffb1dfe12f2 (__TEXT,__text) external __ZNK7Alembic3Abc3v1114IArrayProperty15getTimeSamplingEv
00007ffb1dfe1416 (__TEXT,__text) external __ZNK7Alembic3Abc3v1114IArrayProperty3getERNSt3__110shared_ptrINS_15AbcCoreAbstract3v1111ArraySampleEEERKNS1_15ISampleSelectorE
00007ffb1dfe1940 (__TEXT,__text) external __ZNK7Alembic3Abc3v1114IArrayProperty6getKeyERNS_15AbcCoreAbstract3v1114ArraySampleKeyERKNS1_15ISampleSelectorE
00007ffb1dfe1ca6 (__TEXT,__text) external __ZNK7Alembic3Abc3v1114IArrayProperty9getParentEv
00007ffb1dfe85e2 (__TEXT,__text) external __ZNK7Alembic3Abc3v1114OArrayProperty13getNumSamplesEv
00007ffb1dfe8c14 (__TEXT,__text) external __ZNK7Alembic3Abc3v1114OArrayProperty9getParentEv
00007ffb1dfe6974 (__TEXT,__text) external __ZNK7Alembic3Abc3v1115ISampleSelector8getIndexERKNSt3__110shared_ptrINS_15AbcCoreAbstract3v1112TimeSamplingEEEx
00007ffb1dfe704c (__TEXT,__text) external __ZNK7Alembic3Abc3v1115IScalarProperty10isConstantEv
00007ffb1dfe6f40 (__TEXT,__text) external __ZNK7Alembic3Abc3v1115IScalarProperty13getNumSamplesEv
00007ffb1dfe713e (__TEXT,__text) external __ZNK7Alembic3Abc3v1115IScalarProperty15getTimeSamplingEv
00007ffb1dfe7262 (__TEXT,__text) external __ZNK7Alembic3Abc3v1115IScalarProperty3getEPvRKNS1_15ISampleSelectorEm
00007ffb1dfe741c (__TEXT,__text) external __ZNK7Alembic3Abc3v1115IScalarProperty9getParentEv
00007ffb1dfed900 (__TEXT,__text) external __ZNK7Alembic3Abc3v1115OScalarProperty13getNumSamplesEv
00007ffb1dfedf34 (__TEXT,__text) external __ZNK7Alembic3Abc3v1115OScalarProperty9getParentEv
00007ffb1dfe2c6c (__TEXT,__text) external __ZNK7Alembic3Abc3v1117ICompoundProperty16getNumPropertiesEv
00007ffb1dfe2f0c (__TEXT,__text) external __ZNK7Alembic3Abc3v1117ICompoundProperty17getPropertyHeaderERKNSt3__112basic_stringIcNS3_11char_traitsIcEENS3_9allocatorIcEEEE
00007ffb1dfe2d7c (__TEXT,__text) external __ZNK7Alembic3Abc3v1117ICompoundProperty17getPropertyHeaderEm
00007ffb1dfe300a (__TEXT,__text) external __ZNK7Alembic3Abc3v1117ICompoundProperty9getParentEv
00007ffb1dfea336 (__TEXT,__text) external __ZNK7Alembic3Abc3v1117OCompoundProperty11getPropertyERKNSt3__112basic_stringIcNS3_11char_traitsIcEENS3_9allocatorIcEEEE
00007ffb1dfea15a (__TEXT,__text) external __ZNK7Alembic3Abc3v1117OCompoundProperty11getPropertyEm
00007ffb1dfe9dc8 (__TEXT,__text) external __ZNK7Alembic3Abc3v1117OCompoundProperty16getNumPropertiesEv
00007ffb1dfea05c (__TEXT,__text) external __ZNK7Alembic3Abc3v1117OCompoundProperty17getPropertyHeaderERKNSt3__112basic_stringIcNS3_11char_traitsIcEENS3_9allocatorIcEEEE
00007ffb1dfe9ecc (__TEXT,__text) external __ZNK7Alembic3Abc3v1117OCompoundProperty17getPropertyHeaderEm
00007ffb1dfea514 (__TEXT,__text) external __ZNK7Alembic3Abc3v1117OCompoundProperty9getParentEv
00007ffb1dfe348a (__TEXT,__text) external __ZNK7Alembic3Abc3v117IObject10getArchiveEv
00007ffb1dfe3458 (__TEXT,__text) external __ZNK7Alembic3Abc3v117IObject11getFullNameEv
00007ffb1dfe4898 (__TEXT,__text) external __ZNK7Alembic3Abc3v117IObject13getPropertiesEv
00007ffb1dfe4018 (__TEXT,__text) external __ZNK7Alembic3Abc3v117IObject14getChildHeaderERKNSt3__112basic_stringIcNS3_11char_traitsIcEENS3_9allocatorIcEEEE
00007ffb1dfe3e8c (__TEXT,__text) external __ZNK7Alembic3Abc3v117IObject14getChildHeaderEm
00007ffb1dfe3d8a (__TEXT,__text) external __ZNK7Alembic3Abc3v117IObject14getNumChildrenEv
00007ffb1dfe4c72 (__TEXT,__text) external __ZNK7Alembic3Abc3v117IObject14isInstanceRootEv
00007ffb1dfe531c (__TEXT,__text) external __ZNK7Alembic3Abc3v117IObject15isChildInstanceERKNSt3__112basic_stringIcNS3_11char_traitsIcEENS3_9allocatorIcEEEE
00007ffb1dfe519e (__TEXT,__text) external __ZNK7Alembic3Abc3v117IObject15isChildInstanceEm
00007ffb1dfe4d8a (__TEXT,__text) external __ZNK7Alembic3Abc3v117IObject18instanceSourcePathEv
00007ffb1dfe4cf6 (__TEXT,__text) external __ZNK7Alembic3Abc3v117IObject20isInstanceDescendantEv
00007ffb1dfe3d7c (__TEXT,__text) external __ZNK7Alembic3Abc3v117IObject20setInstancedFullNameERKNSt3__112basic_stringIcNS3_11char_traitsIcEENS3_9allocatorIcEEEE
00007ffb1dfe343c (__TEXT,__text) external __ZNK7Alembic3Abc3v117IObject7getNameEv
00007ffb1dfe4488 (__TEXT,__text) external __ZNK7Alembic3Abc3v117IObject8getChildERKNSt3__112basic_stringIcNS3_11char_traitsIcEENS3_9allocatorIcEEEE
00007ffb1dfe4122 (__TEXT,__text) external __ZNK7Alembic3Abc3v117IObject8getChildEm
00007ffb1dfe32a6 (__TEXT,__text) external __ZNK7Alembic3Abc3v117IObject9getHeaderEv
00007ffb1dfe366e (__TEXT,__text) external __ZNK7Alembic3Abc3v117IObject9getParentEv
00007ffb1dfeaf6e (__TEXT,__text) external __ZNK7Alembic3Abc3v117OObject9getHeaderEv
00007ffb1dfe008c (__TEXT,__text) external __ZNK7Alembic3Abc3v118IArchive6getTopEv
00007ffb1dfdfec8 (__TEXT,__text) external __ZNK7Alembic3Abc3v118IArchive7getNameEv
00007ffb1dfe778c (__TEXT,__text) external __ZNK7Alembic3Abc3v118OArchive18getCompressionHintEv
00007ffb1dfe7658 (__TEXT,__text) external __ZNK7Alembic3Abc3v118OArchive7getNameEv
00007ffb1dfb6728 (__TEXT,__text) external __ZNK7Alembic4Util3v118TokenMap3getEccb
00007ffb1e074f92 (__TEXT,__text) external __ZNK7Alembic5Ogawa3v115IData6getPosEv
00007ffb1e074f84 (__TEXT,__text) external __ZNK7Alembic5Ogawa3v115IData7getSizeEv
00007ffb1e076f0a (__TEXT,__text) external __ZNK7Alembic5Ogawa3v115OData6getPosEv
00007ffb1e076efc (__TEXT,__text) external __ZNK7Alembic5Ogawa3v115OData7getSizeEv
00007ffb1e0756dc (__TEXT,__text) external __ZNK7Alembic5Ogawa3v116IGroup11isChildDataEy
00007ffb1e075442 (__TEXT,__text) external __ZNK7Alembic5Ogawa3v116IGroup12isChildGroupEy
00007ffb1e075706 (__TEXT,__text) external __ZNK7Alembic5Ogawa3v116IGroup14getNumChildrenEv
00007ffb1e07573e (__TEXT,__text) external __ZNK7Alembic5Ogawa3v116IGroup16isEmptyChildDataEy
00007ffb1e075714 (__TEXT,__text) external __ZNK7Alembic5Ogawa3v116IGroup17isEmptyChildGroupEy
00007ffb1e075422 (__TEXT,__text) external __ZNK7Alembic5Ogawa3v116IGroup7isLightEv
00007ffb1e078854 (__TEXT,__text) external __ZNK7Alembic5Ogawa3v116OGroup11isChildDataEy
00007ffb1e07882a (__TEXT,__text) external __ZNK7Alembic5Ogawa3v116OGroup12isChildGroupEy
00007ffb1e078814 (__TEXT,__text) external __ZNK7Alembic5Ogawa3v116OGroup14getNumChildrenEv
00007ffb1e0788a8 (__TEXT,__text) external __ZNK7Alembic5Ogawa3v116OGroup16isChildEmptyDataEy
00007ffb1e07887e (__TEXT,__text) external __ZNK7Alembic5Ogawa3v116OGroup17isChildEmptyGroupEy
00007ffb1e074be0 (__TEXT,__text) external __ZNK7Alembic5Ogawa3v118IArchive10getVersionEv
00007ffb1e074bc4 (__TEXT,__text) external __ZNK7Alembic5Ogawa3v118IArchive7isValidEv
00007ffb1e074bee (__TEXT,__text) external __ZNK7Alembic5Ogawa3v118IArchive8getGroupEv
00007ffb1e074bd2 (__TEXT,__text) external __ZNK7Alembic5Ogawa3v118IArchive8isFrozenEv
00007ffb1e04b1fc (__TEXT,__text) external __ZNK7Alembic7AbcGeom3v1111ISubDSchema13getNumSamplesEv
00007ffb1e04b0c0 (__TEXT,__text) external __ZNK7Alembic7AbcGeom3v1111ISubDSchema19getTopologyVarianceEv
00007ffb1e04b496 (__TEXT,__text) external __ZNK7Alembic7AbcGeom3v1111ISubDSchema3getERNS2_6SampleERKNS_3Abc3v1115ISampleSelectorE
00007ffb1e057dda (__TEXT,__text) external __ZNK7Alembic7AbcGeom3v1111XformSample12getXRotationEv
00007ffb1e057e2c (__TEXT,__text) external __ZNK7Alembic7AbcGeom3v1111XformSample12getYRotationEv
00007ffb1e057e74 (__TEXT,__text) external __ZNK7Alembic7AbcGeom3v1111XformSample12getZRotationEv
00007ffb1e057a64 (__TEXT,__text) external __ZNK7Alembic7AbcGeom3v1111XformSample14getTranslationEv
00007ffb1e0556d0 (__TEXT,__text) external __ZNK7Alembic7AbcGeom3v1111XformSample16getNumOpChannelsEv
00007ffb1e055748 (__TEXT,__text) external __ZNK7Alembic7AbcGeom3v1111XformSample17getInheritsXformsEv
00007ffb1e055626 (__TEXT,__text) external __ZNK7Alembic7AbcGeom3v1111XformSample5getOpEm
00007ffb1e057b4c (__TEXT,__text) external __ZNK7Alembic7AbcGeom3v1111XformSample7getAxisEv
00007ffb1e057d4e (__TEXT,__text) external __ZNK7Alembic7AbcGeom3v1111XformSample8getAngleEv
00007ffb1e057aa6 (__TEXT,__text) external __ZNK7Alembic7AbcGeom3v1111XformSample8getScaleEv
00007ffb1e05743a (__TEXT,__text) external __ZNK7Alembic7AbcGeom3v1111XformSample9getMatrixEv
00007ffb1e0556b0 (__TEXT,__text) external __ZNK7Alembic7AbcGeom3v1111XformSample9getNumOpsEv
00007ffb1e0556a2 (__TEXT,__text) external __ZNK7Alembic7AbcGeom3v1111XformSampleixERKm
00007ffb1dff7f54 (__TEXT,__text) external __ZNK7Alembic7AbcGeom3v1112CameraSample12getCoreValueEm
00007ffb1dff815a (__TEXT,__text) external __ZNK7Alembic7AbcGeom3v1112CameraSample14getFieldOfViewEv
00007ffb1dff8c34 (__TEXT,__text) external __ZNK7Alembic7AbcGeom3v1112CameraSample16getNumOpChannelsEv
00007ffb1dff838c (__TEXT,__text) external __ZNK7Alembic7AbcGeom3v1112CameraSample17getFilmBackMatrixEv
00007ffb1dff86c0 (__TEXT,__text) external __ZNK7Alembic7AbcGeom3v1112CameraSample5getOpEm
00007ffb1dff8c0e (__TEXT,__text) external __ZNK7Alembic7AbcGeom3v1112CameraSample9getNumOpsEv
00007ffb1dff8a0c (__TEXT,__text) external __ZNK7Alembic7AbcGeom3v1112CameraSampleixERKm
00007ffb1e016a2a (__TEXT,__text) external __ZNK7Alembic7AbcGeom3v1112ILightSchema10isConstantEv
00007ffb1e016b28 (__TEXT,__text) external __ZNK7Alembic7AbcGeom3v1112ILightSchema13getNumSamplesEv
00007ffb1e0168ac (__TEXT,__text) external __ZNK7Alembic7AbcGeom3v1112ILightSchema15getTimeSamplingEv
00007ffb1e05a52a (__TEXT,__text) external __ZNK7Alembic7AbcGeom3v1112IXformSchema13getNumSamplesEv
00007ffb1e05a3ac (__TEXT,__text) external __ZNK7Alembic7AbcGeom3v1112IXformSchema15getTimeSamplingEv
00007ffb1e05a65a (__TEXT,__text) external __ZNK7Alembic7AbcGeom3v1112IXformSchema16getChannelValuesExRNS1_11XformSampleE
00007ffb1e05ad70 (__TEXT,__text) external __ZNK7Alembic7AbcGeom3v1112IXformSchema17getInheritsXformsERKNS_3Abc3v1115ISampleSelectorE
00007ffb1e05aa3a (__TEXT,__text) external __ZNK7Alembic7AbcGeom3v1112IXformSchema3getERNS1_11XformSampleERKNS_3Abc3v1115ISampleSelectorE
00007ffb1e05ad24 (__TEXT,__text) external __ZNK7Alembic7AbcGeom3v1112IXformSchema8getValueERKNS_3Abc3v1115ISampleSelectorE
00007ffb1e05e120 (__TEXT,__text) external __ZNK7Alembic7AbcGeom3v1112OXformSchema13getNumSamplesEv
00007ffb1e05df8c (__TEXT,__text) external __ZNK7Alembic7AbcGeom3v1112OXformSchema15getTimeSamplingEv
00007ffb1dffa52c (__TEXT,__text) external __ZNK7Alembic7AbcGeom3v1113ICameraSchema10isConstantEv
00007ffb1dffa5a0 (__TEXT,__text) external __ZNK7Alembic7AbcGeom3v1113ICameraSchema3getERNS1_12CameraSampleERKNS_3Abc3v1115ISampleSelectorE
00007ffb1dffff40 (__TEXT,__text) external __ZNK7Alembic7AbcGeom3v1113ICurvesSchema19getTopologyVarianceEv
00007ffb1e00156a (__TEXT,__text) external __ZNK7Alembic7AbcGeom3v1113ICurvesSchema3getERNS2_6SampleERKNS_3Abc3v1115ISampleSelectorE
00007ffb1e010d90 (__TEXT,__text) external __ZNK7Alembic7AbcGeom3v1114IFaceSetSchema13getNumSamplesEv
00007ffb1e01146e (__TEXT,__text) external __ZNK7Alembic7AbcGeom3v1114IFaceSetSchema18getFaceExclusivityEv
00007ffb1e01102a (__TEXT,__text) external __ZNK7Alembic7AbcGeom3v1114IFaceSetSchema3getERNS2_6SampleERKNS_3Abc3v1115ISampleSelectorE
00007ffb1e0241ac (__TEXT,__text) external __ZNK7Alembic7AbcGeom3v1114INuPatchSchema12hasTrimPropsEv
00007ffb1e023fbc (__TEXT,__text) external __ZNK7Alembic7AbcGeom3v1114INuPatchSchema19getTopologyVarianceEv
00007ffb1e023e70 (__TEXT,__text) external __ZNK7Alembic7AbcGeom3v1114INuPatchSchema27trimCurveTopologyIsConstantEv
00007ffb1e023f3c (__TEXT,__text) external __ZNK7Alembic7AbcGeom3v1114INuPatchSchema29trimCurveTopologyIsHomogenousEv
00007ffb1e0244d8 (__TEXT,__text) external __ZNK7Alembic7AbcGeom3v1114INuPatchSchema3getERNS2_6SampleERKNS_3Abc3v1115ISampleSelectorE
00007ffb1dff7524 (__TEXT,__text) external __ZNK7Alembic7AbcGeom3v1115FilmBackXformOp10isMatrixOpEv
00007ffb1dff7992 (__TEXT,__text) external __ZNK7Alembic7AbcGeom3v1115FilmBackXformOp12getTranslateEv
00007ffb1dff750c (__TEXT,__text) external __ZNK7Alembic7AbcGeom3v1115FilmBackXformOp13isTranslateOpEv
00007ffb1dff74b8 (__TEXT,__text) external __ZNK7Alembic7AbcGeom3v1115FilmBackXformOp14getNumChannelsEv
00007ffb1dff7454 (__TEXT,__text) external __ZNK7Alembic7AbcGeom3v1115FilmBackXformOp14getTypeAndHintEv
00007ffb1dff74ca (__TEXT,__text) external __ZNK7Alembic7AbcGeom3v1115FilmBackXformOp15getChannelValueEm
00007ffb1dff7438 (__TEXT,__text) external __ZNK7Alembic7AbcGeom3v1115FilmBackXformOp7getHintEv
00007ffb1dff7430 (__TEXT,__text) external __ZNK7Alembic7AbcGeom3v1115FilmBackXformOp7getTypeEv
00007ffb1dff7ae6 (__TEXT,__text) external __ZNK7Alembic7AbcGeom3v1115FilmBackXformOp8getScaleEv
00007ffb1dff7c3a (__TEXT,__text) external __ZNK7Alembic7AbcGeom3v1115FilmBackXformOp9getMatrixEv
00007ffb1dff7518 (__TEXT,__text) external __ZNK7Alembic7AbcGeom3v1115FilmBackXformOp9isScaleOpEv
00007ffb1e039cf0 (__TEXT,__text) external __ZNK7Alembic7AbcGeom3v1115IPolyMeshSchema19getTopologyVarianceEv
00007ffb1e052684 (__TEXT,__text) external __ZNK7Alembic7AbcGeom3v117XformOp10isMatrixOpEv
00007ffb1e052678 (__TEXT,__text) external __ZNK7Alembic7AbcGeom3v117XformOp10isRotateOpEv
00007ffb1e052690 (__TEXT,__text) external __ZNK7Alembic7AbcGeom3v117XformOp11isRotateXOpEv
00007ffb1e05269c (__TEXT,__text) external __ZNK7Alembic7AbcGeom3v117XformOp11isRotateYOpEv
00007ffb1e0526a8 (__TEXT,__text) external __ZNK7Alembic7AbcGeom3v117XformOp11isRotateZOpEv
00007ffb1e0524ca (__TEXT,__text) external __ZNK7Alembic7AbcGeom3v117XformOp11isXAnimatedEv
00007ffb1e0524f8 (__TEXT,__text) external __ZNK7Alembic7AbcGeom3v117XformOp11isYAnimatedEv
00007ffb1e05252c (__TEXT,__text) external __ZNK7Alembic7AbcGeom3v117XformOp11isZAnimatedEv
00007ffb1e053038 (__TEXT,__text) external __ZNK7Alembic7AbcGeom3v117XformOp12getTranslateEv
00007ffb1e053604 (__TEXT,__text) external __ZNK7Alembic7AbcGeom3v117XformOp12getXRotationEv
00007ffb1e0539f8 (__TEXT,__text) external __ZNK7Alembic7AbcGeom3v117XformOp12getYRotationEv
00007ffb1e053bf0 (__TEXT,__text) external __ZNK7Alembic7AbcGeom3v117XformOp12getZRotationEv
00007ffb1e05264a (__TEXT,__text) external __ZNK7Alembic7AbcGeom3v117XformOp13getOpEncodingEv
00007ffb1e052660 (__TEXT,__text) external __ZNK7Alembic7AbcGeom3v117XformOp13isTranslateOpEv
00007ffb1e0525d6 (__TEXT,__text) external __ZNK7Alembic7AbcGeom3v117XformOp14getNumChannelsEv
00007ffb1e052618 (__TEXT,__text) external __ZNK7Alembic7AbcGeom3v117XformOp15getChannelValueEm
00007ffb1e052562 (__TEXT,__text) external __ZNK7Alembic7AbcGeom3v117XformOp15isAngleAnimatedEv
00007ffb1e0525b0 (__TEXT,__text) external __ZNK7Alembic7AbcGeom3v117XformOp17isChannelAnimatedEm
00007ffb1e0525e8 (__TEXT,__text) external __ZNK7Alembic7AbcGeom3v117XformOp22getDefaultChannelValueEm
00007ffb1e0532dc (__TEXT,__text) external __ZNK7Alembic7AbcGeom3v117XformOp7getAxisEv
00007ffb1e0524c0 (__TEXT,__text) external __ZNK7Alembic7AbcGeom3v117XformOp7getHintEv
00007ffb1e05248e (__TEXT,__text) external __ZNK7Alembic7AbcGeom3v117XformOp7getTypeEv
00007ffb1e0534a0 (__TEXT,__text) external __ZNK7Alembic7AbcGeom3v117XformOp8getAngleEv
00007ffb1e05318a (__TEXT,__text) external __ZNK7Alembic7AbcGeom3v117XformOp8getScaleEv
00007ffb1e053de8 (__TEXT,__text) external __ZNK7Alembic7AbcGeom3v117XformOp9getMatrixEv
00007ffb1e052eda (__TEXT,__text) external __ZNK7Alembic7AbcGeom3v117XformOp9getVectorEv
00007ffb1e05266c (__TEXT,__text) external __ZNK7Alembic7AbcGeom3v117XformOp9isScaleOpEv
                 (undefined) external __ZNK7Iex_2_37BaseExc4whatEv (from libIex)
                 (undefined) external __ZNKSt3__112basic_stringIcNS_11char_traitsIcEENS_9allocatorIcEEE4findEcm (from libc++)
                 (undefined) external __ZNKSt3__112basic_stringIcNS_11char_traitsIcEENS_9allocatorIcEEE5rfindEcm (from libc++)
                 (undefined) external __ZNKSt3__112basic_stringIcNS_11char_traitsIcEENS_9allocatorIcEEE7compareEmmPKcm (from libc++)
                 (undefined) external __ZNKSt3__112basic_stringIwNS_11char_traitsIwEENS_9allocatorIwEEE4findEwm (from libc++)
                 (undefined) external __ZNKSt3__115basic_stringbufIcNS_11char_traitsIcEENS_9allocatorIcEEE3strEv (from libc++)
                 (undefined) external __ZNKSt3__120__vector_base_commonILb1EE20__throw_length_errorEv (from libc++)
                 (undefined) external __ZNKSt3__121__basic_string_commonILb1EE20__throw_length_errorEv (from libc++)
                 (undefined) external __ZNKSt3__16locale9use_facetERNS0_2idE (from libc++)
                 (undefined) external __ZNKSt3__18ios_base6getlocEv (from libc++)
                 (undefined) external __ZNSt11logic_errorC2EPKc (from libc++)
                 (undefined) external __ZNSt12length_errorD1Ev (from libc++)
                 (undefined) external __ZNSt13runtime_errorC1EPKc (from libc++)
                 (undefined) external __ZNSt13runtime_errorD1Ev (from libc++)
                 (undefined) external __ZNSt3__112__next_primeEm (from libc++)
                 (undefined) external __ZNSt3__112bad_weak_ptrD1Ev (from libc++)
                 (undefined) external __ZNSt3__112basic_stringIcNS_11char_traitsIcEENS_9allocatorIcEEE6appendEPKc (from libc++)
                 (undefined) external __ZNSt3__112basic_stringIcNS_11char_traitsIcEENS_9allocatorIcEEE6appendEPKcm (from libc++)
                 (undefined) external __ZNSt3__112basic_stringIcNS_11char_traitsIcEENS_9allocatorIcEEE6assignEPKc (from libc++)
                 (undefined) external __ZNSt3__112basic_stringIcNS_11char_traitsIcEENS_9allocatorIcEEE6insertEmPKc (from libc++)
                 (undefined) external __ZNSt3__112basic_stringIcNS_11char_traitsIcEENS_9allocatorIcEEE6insertEmPKcm (from libc++)
                 (undefined) external __ZNSt3__112basic_stringIcNS_11char_traitsIcEENS_9allocatorIcEEEC1ERKS5_ (from libc++)
                 (undefined) external __ZNSt3__112basic_stringIcNS_11char_traitsIcEENS_9allocatorIcEEEC1ERKS5_mmRKS4_ (from libc++)
                 (undefined) external __ZNSt3__112basic_stringIcNS_11char_traitsIcEENS_9allocatorIcEEEC2ERKS5_ (from libc++)
                 (undefined) external __ZNSt3__112basic_stringIcNS_11char_traitsIcEENS_9allocatorIcEEED1Ev (from libc++)
                 (undefined) external __ZNSt3__112basic_stringIcNS_11char_traitsIcEENS_9allocatorIcEEEaSERKS5_ (from libc++)
                 (undefined) external __ZNSt3__112basic_stringIcNS_11char_traitsIcEENS_9allocatorIcEEEaSEc (from libc++)
                 (undefined) external __ZNSt3__112basic_stringIwNS_11char_traitsIwEENS_9allocatorIwEEE9push_backEw (from libc++)
                 (undefined) external __ZNSt3__112basic_stringIwNS_11char_traitsIwEENS_9allocatorIwEEEaSERKS5_ (from libc++)
                 (undefined) external __ZNSt3__113basic_filebufIcNS_11char_traitsIcEEE4openEPKcj (from libc++)
                 (undefined) external __ZNSt3__113basic_filebufIcNS_11char_traitsIcEEE5closeEv (from libc++)
                 (undefined) external __ZNSt3__113basic_filebufIcNS_11char_traitsIcEEEC1Ev (from libc++)
                 (undefined) external __ZNSt3__113basic_filebufIcNS_11char_traitsIcEEED1Ev (from libc++)
                 (undefined) external __ZNSt3__113basic_istreamIcNS_11char_traitsIcEEE4readEPcl (from libc++)
                 (undefined) external __ZNSt3__113basic_istreamIcNS_11char_traitsIcEEE5seekgENS_4fposI11__mbstate_tEE (from libc++)
                 (undefined) external __ZNSt3__113basic_istreamIcNS_11char_traitsIcEEE5tellgEv (from libc++)
                 (undefined) external __ZNSt3__113basic_ostreamIcNS_11char_traitsIcEEE3putEc (from libc++)
                 (undefined) external __ZNSt3__113basic_ostreamIcNS_11char_traitsIcEEE5flushEv (from libc++)
                 (undefined) external __ZNSt3__113basic_ostreamIcNS_11char_traitsIcEEE5writeEPKcl (from libc++)
                 (undefined) external __ZNSt3__113basic_ostreamIcNS_11char_traitsIcEEE6sentryC1ERS3_ (from libc++)
                 (undefined) external __ZNSt3__113basic_ostreamIcNS_11char_traitsIcEEE6sentryD1Ev (from libc++)
                 (undefined) external __ZNSt3__113basic_ostreamIcNS_11char_traitsIcEEED2Ev (from libc++)
                 (undefined) external __ZNSt3__113basic_ostreamIcNS_11char_traitsIcEEElsEd (from libc++)
                 (undefined) external __ZNSt3__113basic_ostreamIcNS_11char_traitsIcEEElsEi (from libc++)
                 (undefined) external __ZNSt3__113basic_ostreamIcNS_11char_traitsIcEEElsEj (from libc++)
                 (undefined) external __ZNSt3__113basic_ostreamIcNS_11char_traitsIcEEElsEm (from libc++)
                 (undefined) external __ZNSt3__113basic_ostreamIcNS_11char_traitsIcEEElsEx (from libc++)
                 (undefined) external __ZNSt3__114basic_iostreamIcNS_11char_traitsIcEEED2Ev (from libc++)
                 (undefined) external __ZNSt3__115basic_streambufIcNS_11char_traitsIcEEEC2Ev (from libc++)
                 (undefined) external __ZNSt3__115basic_streambufIcNS_11char_traitsIcEEED2Ev (from libc++)
                 (undefined) external __ZNSt3__119__shared_weak_count14__release_weakEv (from libc++)
                 (undefined) external __ZNSt3__119__shared_weak_count4lockEv (from libc++)
                 (undefined) external __ZNSt3__119__shared_weak_countD2Ev (from libc++)
                 (undefined) external __ZNSt3__14cerrE (from libc++)
                 (undefined) external __ZNSt3__14coutE (from libc++)
                 (undefined) external __ZNSt3__15ctypeIcE2idE (from libc++)
                 (undefined) external __ZNSt3__16__sortIRNS_6__lessIiiEEPiEEvT0_S5_T_ (from libc++)
                 (undefined) external __ZNSt3__16localeD1Ev (from libc++)
                 (undefined) external __ZNSt3__18ios_base33__set_badbit_and_consider_rethrowEv (from libc++)
                 (undefined) external __ZNSt3__18ios_base4initEPv (from libc++)
                 (undefined) external __ZNSt3__18ios_base5clearEj (from libc++)
                 (undefined) external __ZNSt3__19basic_iosIcNS_11char_traitsIcEEED2Ev (from libc++)
                 (undefined) external __ZNSt3__1plIcNS_11char_traitsIcEENS_9allocatorIcEEEENS_12basic_stringIT_T0_T1_EEPKS6_RKS9_ (from libc++)
                 (undefined) external __ZNSt9exceptionD2Ev (from libc++)
                 (undefined) external __ZSt9terminatev (from libc++)
00007ffb42e15990 (__DATA,__const) weak external __ZTIN7Alembic11AbcMaterial3v1115IMaterialSchemaE
00007ffb42e15818 (__DATA,__const) weak external __ZTIN7Alembic11AbcMaterial3v1115OMaterialSchemaE
00007ffb42e156b8 (__DATA,__const) weak external __ZTIN7Alembic13AbcCollection3v1118OCollectionsSchemaE
00007ffb42e132c8 (__DATA,__const) external __ZTIN7Alembic15AbcCoreAbstract3v1112ObjectReaderE
00007ffb42e12f30 (__DATA,__const) external __ZTIN7Alembic15AbcCoreAbstract3v1112ObjectWriterE
00007ffb42e126b8 (__DATA,__const) weak external __ZTIN7Alembic15AbcCoreAbstract3v1112ScalarSample4DataE
00007ffb42e13360 (__DATA,__const) external __ZTIN7Alembic15AbcCoreAbstract3v1113ArchiveReaderE
00007ffb42e12fc0 (__DATA,__const) external __ZTIN7Alembic15AbcCoreAbstract3v1113ArchiveWriterE
00007ffb42e13038 (__DATA,__const) external __ZTIN7Alembic15AbcCoreAbstract3v1118BasePropertyReaderE
00007ffb42e12ce8 (__DATA,__const) external __ZTIN7Alembic15AbcCoreAbstract3v1118BasePropertyWriterE
00007ffb42e13198 (__DATA,__const) external __ZTIN7Alembic15AbcCoreAbstract3v1119ArrayPropertyReaderE
00007ffb42e12e08 (__DATA,__const) external __ZTIN7Alembic15AbcCoreAbstract3v1119ArrayPropertyWriterE
00007ffb42e12630 (__DATA,__const) external __ZTIN7Alembic15AbcCoreAbstract3v1120ReadArraySampleCacheE
00007ffb42e130e0 (__DATA,__const) external __ZTIN7Alembic15AbcCoreAbstract3v1120ScalarPropertyReaderE
00007ffb42e12d80 (__DATA,__const) external __ZTIN7Alembic15AbcCoreAbstract3v1120ScalarPropertyWriterE
00007ffb42e13230 (__DATA,__const) external __ZTIN7Alembic15AbcCoreAbstract3v1122CompoundPropertyReaderE
00007ffb42e12ea8 (__DATA,__const) external __ZTIN7Alembic15AbcCoreAbstract3v1122CompoundPropertyWriterE
00007ffb42e14b58 (__DATA,__const) weak external __ZTIN7Alembic3Abc3v1117ICompoundPropertyE
00007ffb42e148f0 (__DATA,__const) weak external __ZTIN7Alembic3Abc3v1117OCompoundPropertyE
00007ffb42e14258 (__DATA,__const) external __ZTIN7Alembic3Abc3v117IObjectE
00007ffb42e14310 (__DATA,__const) external __ZTIN7Alembic3Abc3v117OObjectE
00007ffb42e12610 (__DATA,__const) weak external __ZTIN7Alembic4Util3v1111noncopyableE
00007ffb42e15320 (__DATA,__const) weak external __ZTIN7Alembic7AbcGeom3v1111OSubDSchemaE
00007ffb42e14a68 (__DATA,__const) weak external __ZTIN7Alembic7AbcGeom3v1112OLightSchemaE
00007ffb42e155e8 (__DATA,__const) weak external __ZTIN7Alembic7AbcGeom3v1112OXformSchemaE
00007ffb42e14b98 (__DATA,__const) weak external __ZTIN7Alembic7AbcGeom3v1113ICameraSchemaE
00007ffb42e14ac8 (__DATA,__const) weak external __ZTIN7Alembic7AbcGeom3v1113OCameraSchemaE
00007ffb42e14e68 (__DATA,__const) weak external __ZTIN7Alembic7AbcGeom3v1113OPointsSchemaE
00007ffb42e151d8 (__DATA,__const) weak external __ZTIN7Alembic7AbcGeom3v1114IFaceSetSchemaE
00007ffb42e14948 (__DATA,__const) weak external __ZTIN7Alembic7AbcGeom3v1114OFaceSetSchemaE
00007ffb42e14cb0 (__DATA,__const) weak external __ZTIN7Alembic7AbcGeom3v1114ONuPatchSchemaE
00007ffb42e15020 (__DATA,__const) weak external __ZTIN7Alembic7AbcGeom3v1115OPolyMeshSchemaE
                 (undefined) external __ZTIN7Iex_2_37BaseExcE (from libIex)
                 (undefined) external __ZTINSt3__112bad_weak_ptrE (from libc++)
00007ffb42e12038 (__DATA,__const) weak external __ZTINSt3__112basic_stringIcNS_11char_traitsIcEENS_9allocatorIcEEEE
                 (undefined) external __ZTINSt3__113basic_ostreamIcNS_11char_traitsIcEEEE (from libc++)
                 (undefined) external __ZTINSt3__114basic_ofstreamIcNS_11char_traitsIcEEEE (from libc++)
                 (undefined) external __ZTINSt3__119__shared_weak_countE (from libc++)
00007ffb42e12028 (__DATA,__const) weak external __ZTINSt3__121__basic_string_commonILb1EEE
00007ffb42e12620 (__DATA,__const) weak external __ZTINSt3__123enable_shared_from_thisIN7Alembic15AbcCoreAbstract3v1120ReadArraySampleCacheEEE
                 (undefined) weak external __ZTISt12length_error (from libc++)
                 (undefined) external __ZTISt13runtime_error (from libc++)
                 (undefined) external __ZTISt9exception (from libc++)
00007ffb1e0973bb (__TEXT,__const) weak external __ZTSN7Alembic11AbcMaterial3v1115IMaterialSchemaE
00007ffb1e0971ef (__TEXT,__const) weak external __ZTSN7Alembic11AbcMaterial3v1115OMaterialSchemaE
00007ffb1e097171 (__TEXT,__const) weak external __ZTSN7Alembic13AbcCollection3v1118OCollectionsSchemaE
00007ffb1e0946ff (__TEXT,__const) external __ZTSN7Alembic15AbcCoreAbstract3v1112ObjectReaderE
00007ffb1e0945cb (__TEXT,__const) external __ZTSN7Alembic15AbcCoreAbstract3v1112ObjectWriterE
00007ffb1e09414d (__TEXT,__const) weak external __ZTSN7Alembic15AbcCoreAbstract3v1112ScalarSample4DataE
00007ffb1e09472d (__TEXT,__const) external __ZTSN7Alembic15AbcCoreAbstract3v1113ArchiveReaderE
00007ffb1e0945f9 (__TEXT,__const) external __ZTSN7Alembic15AbcCoreAbstract3v1113ArchiveWriterE
00007ffb1e094628 (__TEXT,__const) external __ZTSN7Alembic15AbcCoreAbstract3v1118BasePropertyReaderE
00007ffb1e0944f4 (__TEXT,__const) external __ZTSN7Alembic15AbcCoreAbstract3v1118BasePropertyWriterE
00007ffb1e094692 (__TEXT,__const) external __ZTSN7Alembic15AbcCoreAbstract3v1119ArrayPropertyReaderE
00007ffb1e09455e (__TEXT,__const) external __ZTSN7Alembic15AbcCoreAbstract3v1119ArrayPropertyWriterE
00007ffb1e094040 (__TEXT,__const) external __ZTSN7Alembic15AbcCoreAbstract3v1120ReadArraySampleCacheE
00007ffb1e09465c (__TEXT,__const) external __ZTSN7Alembic15AbcCoreAbstract3v1120ScalarPropertyReaderE
00007ffb1e094528 (__TEXT,__const) external __ZTSN7Alembic15AbcCoreAbstract3v1120ScalarPropertyWriterE
00007ffb1e0946c7 (__TEXT,__const) external __ZTSN7Alembic15AbcCoreAbstract3v1122CompoundPropertyReaderE
00007ffb1e094593 (__TEXT,__const) external __ZTSN7Alembic15AbcCoreAbstract3v1122CompoundPropertyWriterE
00007ffb1e096b13 (__TEXT,__const) weak external __ZTSN7Alembic3Abc3v1117ICompoundPropertyE
00007ffb1e096952 (__TEXT,__const) weak external __ZTSN7Alembic3Abc3v1117OCompoundPropertyE
00007ffb1e0961f3 (__TEXT,__const) external __ZTSN7Alembic3Abc3v117IObjectE
00007ffb1e096226 (__TEXT,__const) external __ZTSN7Alembic3Abc3v117OObjectE
00007ffb1e094076 (__TEXT,__const) weak external __ZTSN7Alembic4Util3v1111noncopyableE
00007ffb1e096ed5 (__TEXT,__const) weak external __ZTSN7Alembic7AbcGeom3v1111OSubDSchemaE
00007ffb1e0969e5 (__TEXT,__const) weak external __ZTSN7Alembic7AbcGeom3v1112OLightSchemaE
00007ffb1e097010 (__TEXT,__const) weak external __ZTSN7Alembic7AbcGeom3v1112OXformSchemaE
00007ffb1e096aae (__TEXT,__const) weak external __ZTSN7Alembic7AbcGeom3v1113ICameraSchemaE
00007ffb1e096a48 (__TEXT,__const) weak external __ZTSN7Alembic7AbcGeom3v1113OCameraSchemaE
00007ffb1e096c4f (__TEXT,__const) weak external __ZTSN7Alembic7AbcGeom3v1113OPointsSchemaE
00007ffb1e096e2b (__TEXT,__const) weak external __ZTSN7Alembic7AbcGeom3v1114IFaceSetSchemaE
00007ffb1e0968a9 (__TEXT,__const) weak external __ZTSN7Alembic7AbcGeom3v1114OFaceSetSchemaE
00007ffb1e096ba5 (__TEXT,__const) weak external __ZTSN7Alembic7AbcGeom3v1114ONuPatchSchemaE
00007ffb1e096cf6 (__TEXT,__const) weak external __ZTSN7Alembic7AbcGeom3v1115OPolyMeshSchemaE
00007ffb1e097303 (__TEXT,__const) weak external __ZTSNSt3__110shared_ptrIN7Alembic11AbcMaterial3v1115OMaterialSchema4DataEE27__shared_ptr_default_deleteIS5_S5_EE
00007ffb1e09357f (__TEXT,__const) weak external __ZTSNSt3__110shared_ptrIN7Alembic15AbcCoreAbstract3v1111ArraySampleEE27__shared_ptr_default_deleteIS4_S4_EE
00007ffb1e094b1f (__TEXT,__const) weak external __ZTSNSt3__110shared_ptrIN7Alembic15AbcCoreAbstract3v1112TimeSamplingEE27__shared_ptr_default_deleteIS4_S4_EE
00007ffb1e0977fd (__TEXT,__const) weak external __ZTSNSt3__110shared_ptrIN7Alembic5Ogawa3v115IDataEE27__shared_ptr_default_deleteIS4_S4_EE
00007ffb1e094e87 (__TEXT,__const) weak external __ZTSNSt3__110shared_ptrIN7Alembic5Ogawa3v115ODataEE27__shared_ptr_default_deleteIS4_S4_EE
00007ffb1e09771d (__TEXT,__const) weak external __ZTSNSt3__110shared_ptrIN7Alembic5Ogawa3v116IGroupEE27__shared_ptr_default_deleteIS4_S4_EE
00007ffb1e097e4e (__TEXT,__const) weak external __ZTSNSt3__110shared_ptrIN7Alembic5Ogawa3v116OGroupEE27__shared_ptr_default_deleteIS4_S4_EE
00007ffb1e097d6c (__TEXT,__const) weak external __ZTSNSt3__110shared_ptrIN7Alembic5Ogawa3v117OStreamEE27__shared_ptr_default_deleteIS4_S4_EE
00007ffb1e09763a (__TEXT,__const) weak external __ZTSNSt3__110shared_ptrIN7Alembic5Ogawa3v118IStreamsEE27__shared_ptr_default_deleteIS4_S4_EE
00007ffb1e09710c (__TEXT,__const) weak external __ZTSNSt3__110shared_ptrIN7Alembic7AbcGeom3v1112OXformSchema4DataEE27__shared_ptr_default_deleteIS5_S5_EE
00007ffb1e097503 (__TEXT,__const) weak external __ZTSNSt3__110shared_ptrINS_3mapINS_12basic_stringIcNS_11char_traitsIcEENS_9allocatorIcEEEES7_NS_4lessIS7_EENS5_INS_4pairIKS7_S7_EEEEEEE27__shared_ptr_default_deleteISE_SE_EE
00007ffb1e0933ce (__TEXT,__const) weak external __ZTSNSt3__112basic_stringIcNS_11char_traitsIcEENS_9allocatorIcEEEE
00007ffb1e093350 (__TEXT,__const) weak external __ZTSNSt3__121__basic_string_commonILb1EEE
00007ffb1e094097 (__TEXT,__const) weak external __ZTSNSt3__123enable_shared_from_thisIN7Alembic15AbcCoreAbstract3v1120ReadArraySampleCacheEEE
                 (undefined) external __ZTTNSt3__114basic_ofstreamIcNS_11char_traitsIcEEEE (from libc++)
                 (undefined) external __ZTTNSt3__118basic_stringstreamIcNS_11char_traitsIcEENS_9allocatorIcEEEE (from libc++)
                 (undefined) external __ZTTNSt3__119basic_ostringstreamIcNS_11char_traitsIcEENS_9allocatorIcEEEE (from libc++)
                 (undefined) external __ZTVN10__cxxabiv117__class_type_infoE (from libc++)
                 (undefined) external __ZTVN10__cxxabiv120__si_class_type_infoE (from libc++)
                 (undefined) external __ZTVN10__cxxabiv121__vmi_class_type_infoE (from libc++)
00007ffb42e13248 (__DATA,__const) external __ZTVN7Alembic15AbcCoreAbstract3v1112ObjectReaderE
00007ffb42e12ec0 (__DATA,__const) external __ZTVN7Alembic15AbcCoreAbstract3v1112ObjectWriterE
00007ffb42e132f0 (__DATA,__const) external __ZTVN7Alembic15AbcCoreAbstract3v1113ArchiveReaderE
00007ffb42e12f58 (__DATA,__const) external __ZTVN7Alembic15AbcCoreAbstract3v1113ArchiveWriterE
00007ffb42e12fe8 (__DATA,__const) external __ZTVN7Alembic15AbcCoreAbstract3v1118BasePropertyReaderE
00007ffb42e12c98 (__DATA,__const) external __ZTVN7Alembic15AbcCoreAbstract3v1118BasePropertyWriterE
00007ffb42e130f8 (__DATA,__const) external __ZTVN7Alembic15AbcCoreAbstract3v1119ArrayPropertyReaderE
00007ffb42e12d98 (__DATA,__const) external __ZTVN7Alembic15AbcCoreAbstract3v1119ArrayPropertyWriterE
00007ffb42e125e0 (__DATA,__const) external __ZTVN7Alembic15AbcCoreAbstract3v1120ReadArraySampleCacheE
00007ffb42e13060 (__DATA,__const) external __ZTVN7Alembic15AbcCoreAbstract3v1120ScalarPropertyReaderE
00007ffb42e12d10 (__DATA,__const) external __ZTVN7Alembic15AbcCoreAbstract3v1120ScalarPropertyWriterE
00007ffb42e131b0 (__DATA,__const) external __ZTVN7Alembic15AbcCoreAbstract3v1122CompoundPropertyReaderE
00007ffb42e12e20 (__DATA,__const) external __ZTVN7Alembic15AbcCoreAbstract3v1122CompoundPropertyWriterE
00007ffb42e14228 (__DATA,__const) external __ZTVN7Alembic3Abc3v117IObjectE
00007ffb42e142f0 (__DATA,__const) external __ZTVN7Alembic3Abc3v117OObjectE
                 (undefined) external __ZTVNSt3__112bad_weak_ptrE (from libc++)
                 (undefined) external __ZTVNSt3__114basic_ofstreamIcNS_11char_traitsIcEEEE (from libc++)
                 (undefined) external __ZTVNSt3__115basic_stringbufIcNS_11char_traitsIcEENS_9allocatorIcEEEE (from libc++)
                 (undefined) external __ZTVNSt3__118basic_stringstreamIcNS_11char_traitsIcEENS_9allocatorIcEEEE (from libc++)
                 (undefined) external __ZTVNSt3__119basic_ostringstreamIcNS_11char_traitsIcEENS_9allocatorIcEEEE (from libc++)
                 (undefined) external __ZTVSt12length_error (from libc++)
                 (undefined) weak external __ZdaPv (from libc++)
                 (undefined) weak external __ZdlPv (from libc++)
                 (undefined) weak external __Znam (from libc++)
                 (undefined) weak external __Znwm (from libc++)
                 (undefined) external ___bzero (from libSystem)
                 (undefined) external ___cxa_allocate_exception (from libc++)
                 (undefined) external ___cxa_begin_catch (from libc++)
                 (undefined) external ___cxa_call_unexpected (from libc++)
                 (undefined) external ___cxa_end_catch (from libc++)
                 (undefined) external ___cxa_free_exception (from libc++)
                 (undefined) external ___cxa_guard_abort (from libc++)
                 (undefined) external ___cxa_guard_acquire (from libc++)
                 (undefined) external ___cxa_guard_release (from libc++)
                 (undefined) external ___cxa_pure_virtual (from libc++)
                 (undefined) external ___cxa_rethrow (from libc++)
                 (undefined) external ___cxa_throw (from libc++)
                 (undefined) external ___dynamic_cast (from libc++)
                 (undefined) external ___error (from libSystem)
                 (undefined) external ___gxx_personality_v0 (from libc++)
                 (undefined) external ___sincos_stret (from libSystem)
                 (undefined) external ___stack_chk_fail (from libSystem)
                 (undefined) external ___stack_chk_guard (from libSystem)
                 (undefined) external _atan (from libSystem)
                 (undefined) external _atan2 (from libSystem)
                 (undefined) external _atoi (from libSystem)
                 (undefined) external _close (from libSystem)
                 (undefined) external _fstat$INODE64 (from libSystem)
                 (undefined) external _memchr (from libSystem)
                 (undefined) external _memcmp (from libSystem)
                 (undefined) external _memcpy (from libSystem)
                 (undefined) external _memmove (from libSystem)
                 (undefined) external _memset (from libSystem)
                 (undefined) external _mmap (from libSystem)
                 (undefined) external _modf (from libSystem)
                 (undefined) external _munmap (from libSystem)
                 (undefined) external _open (from libSystem)
                 (undefined) external _pread (from libSystem)
                 (undefined) external _pthread_mutex_destroy (from libSystem)
                 (undefined) external _pthread_mutex_init (from libSystem)
                 (undefined) external _pthread_mutex_lock (from libSystem)
                 (undefined) external _pthread_mutex_unlock (from libSystem)
                 (undefined) external _strlen (from libSystem)
                 (undefined) external _wmemcmp (from libSystem)
