0000000000002b70 (__TEXT,__text) non-external +[NSString(LPInternal) _lp_reverseEnumerateComponents:usingBlock:]
000000000000338e (__TEXT,__text) non-external +[NSURL(LPExtras) _lp_URLWithUserTypedString:relativeToURL:]
0000000000003dcf (__TEXT,__text) non-external +[NSURL(LPPrivate) _lp_URLWithData:baseURL:]
000000000000304a (__TEXT,__text) non-external -[NSString(LPExtras) _lp_userVisibleHost]
0000000000002eda (__TEXT,__text) non-external -[NSString(LPInternal) _lp_hasCaseInsensitiveSubstring:startingAt:]
0000000000002f6c (__TEXT,__text) non-external -[NSString(LPInternal) _lp_highLevelDomainFromHost]
0000000000002897 (__TEXT,__text) non-external -[NSString(LPInternal) _lp_lengthOfDeepSubdomainsFromComponents:]
0000000000002153 (__TEXT,__text) non-external -[NSString(LPInternal) _lp_simplifiedUserVisibleURLStringWithSimplifications:forDisplayOnly:]
0000000000002997 (__TEXT,__text) non-external -[NSString(LPInternal) _lp_topLevelDomainFromComponents:indexOfFirstComponent:]
0000000000002826 (__TEXT,__text) non-external -[NSString(LPPrivate) _lp_hasCaseInsensitivePrefix:]
0000000000003025 (__TEXT,__text) non-external -[NSString(LPPrivate) _lp_stringForcingLeftToRightDirection]
00000000000032c8 (__TEXT,__text) non-external -[NSURL(LPExtras) _lp_highLevelDomain]
0000000000001668 (__TEXT,__text) non-external -[NSURL(LPExtras) _lp_isHTTPFamilyURL]
00000000000016fc (__TEXT,__text) non-external -[NSURL(LPExtras) _lp_simplifiedDisplayString]
00000000000032a1 (__TEXT,__text) non-external -[NSURL(LPExtras) _lp_userVisibleStringUsesEncodedHost]
000000000000178b (__TEXT,__text) non-external -[NSURL(LPExtras) _lp_userVisibleString]
0000000000001e95 (__TEXT,__text) non-external -[NSURL(LPPrivate) _lp_originalData]
0000000000001713 (__TEXT,__text) non-external -[NSURL(LPPrivate) _lp_simplifiedStringForDisplayOnly:]
0000000000005eac (__TEXT,__gcc_except_tab) non-external GCC_except_table0
000000000000607c (__TEXT,__gcc_except_tab) non-external GCC_except_table0
0000000000005ebc (__TEXT,__gcc_except_tab) non-external GCC_except_table1
0000000000006164 (__TEXT,__gcc_except_tab) non-external GCC_except_table10
0000000000005f4c (__TEXT,__gcc_except_tab) non-external GCC_except_table11
00000000000061b0 (__TEXT,__gcc_except_tab) non-external GCC_except_table11
0000000000005f74 (__TEXT,__gcc_except_tab) non-external GCC_except_table12
000000000000629c (__TEXT,__gcc_except_tab) non-external GCC_except_table12
0000000000005f88 (__TEXT,__gcc_except_tab) non-external GCC_except_table13
00000000000062c8 (__TEXT,__gcc_except_tab) non-external GCC_except_table13
000000000000630c (__TEXT,__gcc_except_tab) non-external GCC_except_table14
000000000000631c (__TEXT,__gcc_except_tab) non-external GCC_except_table15
00000000000063d4 (__TEXT,__gcc_except_tab) non-external GCC_except_table17
000000000000608c (__TEXT,__gcc_except_tab) non-external GCC_except_table2
0000000000005ecc (__TEXT,__gcc_except_tab) non-external GCC_except_table3
0000000000005edc (__TEXT,__gcc_except_tab) non-external GCC_except_table4
00000000000060a8 (__TEXT,__gcc_except_tab) non-external GCC_except_table4
0000000000005f10 (__TEXT,__gcc_except_tab) non-external GCC_except_table5
00000000000060b8 (__TEXT,__gcc_except_tab) non-external GCC_except_table7
0000000000006418 (__TEXT,__gcc_except_tab) non-external GCC_except_table74
0000000000005f28 (__TEXT,__gcc_except_tab) non-external GCC_except_table8
0000000000006424 (__TEXT,__gcc_except_tab) non-external GCC_except_table80
0000000000006140 (__TEXT,__gcc_except_tab) non-external GCC_except_table9
                 (undefined) external _CFStringCreateWithCharacters (from CoreFoundation)
                 (undefined) external _CFStringGetCharacters (from CoreFoundation)
                 (undefined) external _CFStringGetLength (from CoreFoundation)
                 (undefined) external _CFStringTrimWhitespace (from CoreFoundation)
                 (undefined) external _CFURLCreateAbsoluteURLWithBytes (from CoreFoundation)
                 (undefined) external _CFURLCreateStringByReplacingPercentEscapes (from CoreFoundation)
                 (undefined) external _CFURLCreateWithBytes (from CoreFoundation)
                 (undefined) external _CFURLGetBaseURL (from CoreFoundation)
                 (undefined) external _CFURLGetByteRangeForComponent (from CoreFoundation)
                 (undefined) external _CFURLGetBytes (from CoreFoundation)
                 (undefined) external _NSLog (from Foundation)
                 (undefined) external _NSSearchPathForDirectoriesInDomains (from Foundation)
                 (undefined) external _OBJC_CLASS_$_NSCharacterSet (from Foundation)
                 (undefined) external _OBJC_CLASS_$_NSData (from CoreFoundation)
                 (undefined) external _OBJC_CLASS_$_NSMutableArray (from CoreFoundation)
                 (undefined) external _OBJC_CLASS_$_NSMutableString (from Foundation)
                 (undefined) external _OBJC_CLASS_$_NSString (from Foundation)
                 (undefined) external _OBJC_CLASS_$_NSURL (from CoreFoundation)
                 (undefined) external _OBJC_CLASS_$_NSValue (from Foundation)
                 (undefined) external __Block_object_assign (from libSystem)
                 (undefined) external __Block_object_dispose (from libSystem)
                 (undefined) external __CFHostIsDomainTopLevel (from CFNetwork)
                 (undefined) external __NSConcreteGlobalBlock (from libSystem)
                 (undefined) external __NSConcreteStackBlock (from libSystem)
                 (undefined) external __Unwind_Resume (from libSystem)
0000000000003128 (__TEXT,__text) non-external (was a private external) __Z14decodeHostNameP8NSString
00000000000031cf (__TEXT,__text) non-external (was a private external) __Z14encodeHostNameP8NSString
0000000000007dc0 (__DATA,__bss) non-external __ZGVZL32applyHostNameFunctionToURLStringP8NSStringU13block_pointerFvS0_8_NSRangeEE15hostTerminators
0000000000007db0 (__DATA,__bss) non-external __ZGVZL32applyHostNameFunctionToURLStringP8NSStringU13block_pointerFvS0_8_NSRangeEE19nonSchemeCharacters
0000000000007d68 (__DATA,__bss) non-external __ZGVZL35hostAndPortRangeFromUserTypedStringP8NSStringE15hostTerminators
0000000000007d58 (__DATA,__bss) non-external __ZGVZL35hostAndPortRangeFromUserTypedStringP8NSStringE19nonSchemeCharacters
0000000000007de0 (__DATA,__bss) non-external __ZGVZL38applyHostNameFunctionToMailToURLStringP8NSStringU13block_pointerFvS0_8_NSRangeEE21hostNameEndCharacters
0000000000007df0 (__DATA,__bss) non-external __ZGVZL38applyHostNameFunctionToMailToURLStringP8NSStringU13block_pointerFvS0_8_NSRangeEE22quotedStringCharacters
0000000000007dd0 (__DATA,__bss) non-external __ZGVZL38applyHostNameFunctionToMailToURLStringP8NSStringU13block_pointerFvS0_8_NSRangeEE31hostNameOrStringStartCharacters
000000000000360d (__TEXT,__text) non-external __ZL12mapHostNamesP8NSStringaPa
00000000000058e2 (__TEXT,__text) non-external __ZL13hexDigitValuec
0000000000007d90 (__DATA,__bss) non-external __ZL18IDNScriptWhiteList
000000000000530b (__TEXT,__text) non-external __ZL18whiteListIDNScriptPKc
0000000000004dcb (__TEXT,__text) non-external __ZL20isLookalikeCharacterNSt3__18optionalIiEEi
00000000000040d5 (__TEXT,__text) non-external __ZL20mapHostNameWithRangeP8NSString8_NSRangeaaPa
00000000000031ad (__TEXT,__text) non-external __ZL23decodeHostNameWithRangeP8NSString8_NSRangePa
000000000000327e (__TEXT,__text) non-external __ZL23encodeHostNameWithRangeP8NSString8_NSRange
0000000000001797 (__TEXT,__text) non-external __ZL23userVisibleStringForURLP5NSURLPa
0000000000005343 (__TEXT,__text) non-external __ZL25isArmenianScriptCharacteri
0000000000005448 (__TEXT,__text) non-external __ZL28isRussianDomainNameCharactert
00000000000053e1 (__TEXT,__text) non-external __ZL40isSecondLevelDomainNameAllowedByTLDRulesPKtiRKNSt3__18functionIFbtEEE
00000000000054c4 (__TEXT,__text) non-external (was a private external) __ZNKSt3__110__function6__funcIPFbtENS_9allocatorIS3_EES2_E7__cloneEPNS0_6__baseIS2_EE
0000000000005498 (__TEXT,__text) non-external (was a private external) __ZNKSt3__110__function6__funcIPFbtENS_9allocatorIS3_EES2_E7__cloneEv
0000000000005524 (__TEXT,__text) non-external __ZNKSt3__110__function6__funcIZL30allCharactersAllowedByTLDRulesPKtiE3$_0NS_9allocatorIS4_EEFbtEE7__cloneEPNS0_6__baseIS7_EE
000000000000550a (__TEXT,__text) non-external __ZNKSt3__110__function6__funcIZL30allCharactersAllowedByTLDRulesPKtiE3$_0NS_9allocatorIS4_EEFbtEE7__cloneEv
00000000000055be (__TEXT,__text) non-external __ZNKSt3__110__function6__funcIZL30allCharactersAllowedByTLDRulesPKtiE3$_1NS_9allocatorIS4_EEFbtEE7__cloneEPNS0_6__baseIS7_EE
00000000000055a4 (__TEXT,__text) non-external __ZNKSt3__110__function6__funcIZL30allCharactersAllowedByTLDRulesPKtiE3$_1NS_9allocatorIS4_EEFbtEE7__cloneEv
000000000000568e (__TEXT,__text) non-external __ZNKSt3__110__function6__funcIZL30allCharactersAllowedByTLDRulesPKtiE3$_2NS_9allocatorIS4_EEFbtEE7__cloneEPNS0_6__baseIS7_EE
0000000000005674 (__TEXT,__text) non-external __ZNKSt3__110__function6__funcIZL30allCharactersAllowedByTLDRulesPKtiE3$_2NS_9allocatorIS4_EEFbtEE7__cloneEv
000000000000573a (__TEXT,__text) non-external __ZNKSt3__110__function6__funcIZL30allCharactersAllowedByTLDRulesPKtiE3$_3NS_9allocatorIS4_EEFbtEE7__cloneEPNS0_6__baseIS7_EE
0000000000005720 (__TEXT,__text) non-external __ZNKSt3__110__function6__funcIZL30allCharactersAllowedByTLDRulesPKtiE3$_3NS_9allocatorIS4_EEFbtEE7__cloneEv
00000000000057da (__TEXT,__text) non-external __ZNKSt3__110__function6__funcIZL30allCharactersAllowedByTLDRulesPKtiE3$_4NS_9allocatorIS4_EEFbtEE7__cloneEPNS0_6__baseIS7_EE
00000000000057c0 (__TEXT,__text) non-external __ZNKSt3__110__function6__funcIZL30allCharactersAllowedByTLDRulesPKtiE3$_4NS_9allocatorIS4_EEFbtEE7__cloneEv
000000000000587a (__TEXT,__text) non-external __ZNKSt3__110__function6__funcIZL30allCharactersAllowedByTLDRulesPKtiE3$_5NS_9allocatorIS4_EEFbtEE7__cloneEPNS0_6__baseIS7_EE
0000000000005860 (__TEXT,__text) non-external __ZNKSt3__110__function6__funcIZL30allCharactersAllowedByTLDRulesPKtiE3$_5NS_9allocatorIS4_EEFbtEE7__cloneEv
                 (undefined) external __ZNKSt3__120__vector_base_commonILb1EE20__throw_length_errorEv (from libc++)
00000000000054e2 (__TEXT,__text) non-external (was a private external) __ZNSt3__110__function6__funcIPFbtENS_9allocatorIS3_EES2_E18destroy_deallocateEv
00000000000054dc (__TEXT,__text) non-external (was a private external) __ZNSt3__110__function6__funcIPFbtENS_9allocatorIS3_EES2_E7destroyEv
000000000000548e (__TEXT,__text) non-external (was a private external) __ZNSt3__110__function6__funcIPFbtENS_9allocatorIS3_EES2_ED0Ev
0000000000005488 (__TEXT,__text) non-external (was a private external) __ZNSt3__110__function6__funcIPFbtENS_9allocatorIS3_EES2_ED1Ev
00000000000054ec (__TEXT,__text) non-external (was a private external) __ZNSt3__110__function6__funcIPFbtENS_9allocatorIS3_EES2_EclEOt
000000000000553a (__TEXT,__text) non-external __ZNSt3__110__function6__funcIZL30allCharactersAllowedByTLDRulesPKtiE3$_0NS_9allocatorIS4_EEFbtEE18destroy_deallocateEv
0000000000005534 (__TEXT,__text) non-external __ZNSt3__110__function6__funcIZL30allCharactersAllowedByTLDRulesPKtiE3$_0NS_9allocatorIS4_EEFbtEE7destroyEv
0000000000005500 (__TEXT,__text) non-external __ZNSt3__110__function6__funcIZL30allCharactersAllowedByTLDRulesPKtiE3$_0NS_9allocatorIS4_EEFbtEED0Ev
00000000000054fa (__TEXT,__text) non-external __ZNSt3__110__function6__funcIZL30allCharactersAllowedByTLDRulesPKtiE3$_0NS_9allocatorIS4_EEFbtEED1Ev
0000000000005544 (__TEXT,__text) non-external __ZNSt3__110__function6__funcIZL30allCharactersAllowedByTLDRulesPKtiE3$_0NS_9allocatorIS4_EEFbtEEclEOt
00000000000055d4 (__TEXT,__text) non-external __ZNSt3__110__function6__funcIZL30allCharactersAllowedByTLDRulesPKtiE3$_1NS_9allocatorIS4_EEFbtEE18destroy_deallocateEv
00000000000055ce (__TEXT,__text) non-external __ZNSt3__110__function6__funcIZL30allCharactersAllowedByTLDRulesPKtiE3$_1NS_9allocatorIS4_EEFbtEE7destroyEv
000000000000559a (__TEXT,__text) non-external __ZNSt3__110__function6__funcIZL30allCharactersAllowedByTLDRulesPKtiE3$_1NS_9allocatorIS4_EEFbtEED0Ev
0000000000005594 (__TEXT,__text) non-external __ZNSt3__110__function6__funcIZL30allCharactersAllowedByTLDRulesPKtiE3$_1NS_9allocatorIS4_EEFbtEED1Ev
00000000000055de (__TEXT,__text) non-external __ZNSt3__110__function6__funcIZL30allCharactersAllowedByTLDRulesPKtiE3$_1NS_9allocatorIS4_EEFbtEEclEOt
00000000000056a4 (__TEXT,__text) non-external __ZNSt3__110__function6__funcIZL30allCharactersAllowedByTLDRulesPKtiE3$_2NS_9allocatorIS4_EEFbtEE18destroy_deallocateEv
000000000000569e (__TEXT,__text) non-external __ZNSt3__110__function6__funcIZL30allCharactersAllowedByTLDRulesPKtiE3$_2NS_9allocatorIS4_EEFbtEE7destroyEv
000000000000566a (__TEXT,__text) non-external __ZNSt3__110__function6__funcIZL30allCharactersAllowedByTLDRulesPKtiE3$_2NS_9allocatorIS4_EEFbtEED0Ev
0000000000005664 (__TEXT,__text) non-external __ZNSt3__110__function6__funcIZL30allCharactersAllowedByTLDRulesPKtiE3$_2NS_9allocatorIS4_EEFbtEED1Ev
00000000000056ae (__TEXT,__text) non-external __ZNSt3__110__function6__funcIZL30allCharactersAllowedByTLDRulesPKtiE3$_2NS_9allocatorIS4_EEFbtEEclEOt
0000000000005750 (__TEXT,__text) non-external __ZNSt3__110__function6__funcIZL30allCharactersAllowedByTLDRulesPKtiE3$_3NS_9allocatorIS4_EEFbtEE18destroy_deallocateEv
000000000000574a (__TEXT,__text) non-external __ZNSt3__110__function6__funcIZL30allCharactersAllowedByTLDRulesPKtiE3$_3NS_9allocatorIS4_EEFbtEE7destroyEv
0000000000005716 (__TEXT,__text) non-external __ZNSt3__110__function6__funcIZL30allCharactersAllowedByTLDRulesPKtiE3$_3NS_9allocatorIS4_EEFbtEED0Ev
0000000000005710 (__TEXT,__text) non-external __ZNSt3__110__function6__funcIZL30allCharactersAllowedByTLDRulesPKtiE3$_3NS_9allocatorIS4_EEFbtEED1Ev
000000000000575a (__TEXT,__text) non-external __ZNSt3__110__function6__funcIZL30allCharactersAllowedByTLDRulesPKtiE3$_3NS_9allocatorIS4_EEFbtEEclEOt
00000000000057f0 (__TEXT,__text) non-external __ZNSt3__110__function6__funcIZL30allCharactersAllowedByTLDRulesPKtiE3$_4NS_9allocatorIS4_EEFbtEE18destroy_deallocateEv
00000000000057ea (__TEXT,__text) non-external __ZNSt3__110__function6__funcIZL30allCharactersAllowedByTLDRulesPKtiE3$_4NS_9allocatorIS4_EEFbtEE7destroyEv
00000000000057b6 (__TEXT,__text) non-external __ZNSt3__110__function6__funcIZL30allCharactersAllowedByTLDRulesPKtiE3$_4NS_9allocatorIS4_EEFbtEED0Ev
00000000000057b0 (__TEXT,__text) non-external __ZNSt3__110__function6__funcIZL30allCharactersAllowedByTLDRulesPKtiE3$_4NS_9allocatorIS4_EEFbtEED1Ev
00000000000057fa (__TEXT,__text) non-external __ZNSt3__110__function6__funcIZL30allCharactersAllowedByTLDRulesPKtiE3$_4NS_9allocatorIS4_EEFbtEEclEOt
0000000000005890 (__TEXT,__text) non-external __ZNSt3__110__function6__funcIZL30allCharactersAllowedByTLDRulesPKtiE3$_5NS_9allocatorIS4_EEFbtEE18destroy_deallocateEv
000000000000588a (__TEXT,__text) non-external __ZNSt3__110__function6__funcIZL30allCharactersAllowedByTLDRulesPKtiE3$_5NS_9allocatorIS4_EEFbtEE7destroyEv
0000000000005856 (__TEXT,__text) non-external __ZNSt3__110__function6__funcIZL30allCharactersAllowedByTLDRulesPKtiE3$_5NS_9allocatorIS4_EEFbtEED0Ev
0000000000005850 (__TEXT,__text) non-external __ZNSt3__110__function6__funcIZL30allCharactersAllowedByTLDRulesPKtiE3$_5NS_9allocatorIS4_EEFbtEED1Ev
000000000000589a (__TEXT,__text) non-external __ZNSt3__110__function6__funcIZL30allCharactersAllowedByTLDRulesPKtiE3$_5NS_9allocatorIS4_EEFbtEEclEOt
000000000000547f (__TEXT,__text) non-external (was a private external) __ZNSt3__125__throw_bad_function_callEv
000000000000592a (__TEXT,__text) non-external (was a private external) __ZNSt3__16vectorItNS_9allocatorItEEE11__vallocateEm
0000000000002050 (__TEXT,__text) non-external (was a private external) __ZNSt3__16vectorItNS_9allocatorItEEE21__push_back_slow_pathIRKtEEvOT_
0000000000005962 (__TEXT,__text) non-external (was a private external) __ZNSt3__16vectorItNS_9allocatorItEEE21__push_back_slow_pathItEEvOT_
0000000000001fe8 (__TEXT,__text) non-external (was a private external) __ZNSt3__16vectorItNS_9allocatorItEEEC2Em
0000000000007268 (__DATA,__const) non-external (was a private external) __ZTVNSt3__110__function6__funcIPFbtENS_9allocatorIS3_EES2_EE
00000000000072b0 (__DATA,__const) non-external __ZTVNSt3__110__function6__funcIZL30allCharactersAllowedByTLDRulesPKtiE3$_0NS_9allocatorIS4_EEFbtEEE
00000000000072f8 (__DATA,__const) non-external __ZTVNSt3__110__function6__funcIZL30allCharactersAllowedByTLDRulesPKtiE3$_1NS_9allocatorIS4_EEFbtEEE
0000000000007340 (__DATA,__const) non-external __ZTVNSt3__110__function6__funcIZL30allCharactersAllowedByTLDRulesPKtiE3$_2NS_9allocatorIS4_EEFbtEEE
0000000000007388 (__DATA,__const) non-external __ZTVNSt3__110__function6__funcIZL30allCharactersAllowedByTLDRulesPKtiE3$_3NS_9allocatorIS4_EEFbtEEE
00000000000073d0 (__DATA,__const) non-external __ZTVNSt3__110__function6__funcIZL30allCharactersAllowedByTLDRulesPKtiE3$_4NS_9allocatorIS4_EEFbtEEE
0000000000007418 (__DATA,__const) non-external __ZTVNSt3__110__function6__funcIZL30allCharactersAllowedByTLDRulesPKtiE3$_5NS_9allocatorIS4_EEFbtEEE
0000000000006d80 (__TEXT,__const) non-external __ZZL30allCharactersAllowedByTLDRulesPKtiE10cyrillicRF
0000000000006dc6 (__TEXT,__const) non-external __ZZL30allCharactersAllowedByTLDRulesPKtiE11cyrillicBEL
0000000000006dce (__TEXT,__const) non-external __ZZL30allCharactersAllowedByTLDRulesPKtiE11cyrillicKAZ
0000000000006de6 (__TEXT,__const) non-external __ZZL30allCharactersAllowedByTLDRulesPKtiE11cyrillicMKD
0000000000006dee (__TEXT,__const) non-external __ZZL30allCharactersAllowedByTLDRulesPKtiE11cyrillicMON
0000000000006dbe (__TEXT,__const) non-external __ZZL30allCharactersAllowedByTLDRulesPKtiE11cyrillicORG
0000000000006d86 (__TEXT,__const) non-external __ZZL30allCharactersAllowedByTLDRulesPKtiE11cyrillicRUS
0000000000006dde (__TEXT,__const) non-external __ZZL30allCharactersAllowedByTLDRulesPKtiE11cyrillicSRB
0000000000006dd6 (__TEXT,__const) non-external __ZZL30allCharactersAllowedByTLDRulesPKtiE11cyrillicUKR
0000000000006d9c (__TEXT,__const) non-external __ZZL30allCharactersAllowedByTLDRulesPKtiE12cyrillicDETI
0000000000006db4 (__TEXT,__const) non-external __ZZL30allCharactersAllowedByTLDRulesPKtiE12cyrillicSAYT
0000000000006d8e (__TEXT,__const) non-external __ZZL30allCharactersAllowedByTLDRulesPKtiE14cyrillicMOSKVA
0000000000006da6 (__TEXT,__const) non-external __ZZL30allCharactersAllowedByTLDRulesPKtiE14cyrillicONLAYN
0000000000007db8 (__DATA,__bss) non-external __ZZL32applyHostNameFunctionToURLStringP8NSStringU13block_pointerFvS0_8_NSRangeEE15hostTerminators
0000000000007da8 (__DATA,__bss) non-external __ZZL32applyHostNameFunctionToURLStringP8NSStringU13block_pointerFvS0_8_NSRangeEE19nonSchemeCharacters
0000000000007d80 (__DATA,__bss) non-external __ZZL33allCharactersInIDNScriptWhiteListPKtiE9onceToken
0000000000007d70 (__DATA,__bss) non-external __ZZL33internationalDomainNameTranscodervE7encoder
0000000000007d78 (__DATA,__bss) non-external __ZZL33internationalDomainNameTranscodervE9onceToken
0000000000007d60 (__DATA,__bss) non-external __ZZL35hostAndPortRangeFromUserTypedStringP8NSStringE15hostTerminators
0000000000007d50 (__DATA,__bss) non-external __ZZL35hostAndPortRangeFromUserTypedStringP8NSStringE19nonSchemeCharacters
0000000000007dd8 (__DATA,__bss) non-external __ZZL38applyHostNameFunctionToMailToURLStringP8NSStringU13block_pointerFvS0_8_NSRangeEE21hostNameEndCharacters
0000000000007de8 (__DATA,__bss) non-external __ZZL38applyHostNameFunctionToMailToURLStringP8NSStringU13block_pointerFvS0_8_NSRangeEE22quotedStringCharacters
0000000000007dc8 (__DATA,__bss) non-external __ZZL38applyHostNameFunctionToMailToURLStringP8NSStringU13block_pointerFvS0_8_NSRangeEE31hostNameOrStringStartCharacters
                 (undefined) weak external __ZdlPv (from libc++)
                 (undefined) weak external __Znwm (from libc++)
0000000000002df3 (__TEXT,__text) non-external ___79-[NSString(LPInternal) _lp_topLevelDomainFromComponents:indexOfFirstComponent:]_block_invoke
000000000000309f (__TEXT,__text) non-external ___Block_byref_object_copy_
0000000000005a67 (__TEXT,__text) non-external ___Block_byref_object_copy_
00000000000030b5 (__TEXT,__text) non-external ___Block_byref_object_dispose_
0000000000005a7d (__TEXT,__text) non-external ___Block_byref_object_dispose_
                 (undefined) external ___CFConstantStringClassReference (from CoreFoundation)
0000000000005a8c (__TEXT,__text) non-external ____ZL12mapHostNamesP8NSStringaPa_block_invoke
0000000000004a9f (__TEXT,__text) non-external ____ZL33allCharactersInIDNScriptWhiteListPKti_block_invoke
0000000000004a76 (__TEXT,__text) non-external ____ZL33internationalDomainNameTranscoderv_block_invoke
0000000000007208 (__DATA,__const) non-external (was a private external) ___block_descriptor_32_e5_v8@?0l
0000000000007460 (__DATA,__const) non-external (was a private external) ___block_descriptor_40_ea8_32r_e33_v32@?0@"NSString"8{_NSRange=QQ}16l
00000000000071d8 (__DATA,__const) non-external (was a private external) ___block_descriptor_64_ea8_32r40r_e25_v32@?0@"NSString"8Q16^c24l
0000000000007228 (__DATA,__const) non-external ___block_literal_global
0000000000007248 (__DATA,__const) non-external ___block_literal_global.53
                 (undefined) external ___bzero (from libSystem)
0000000000005b86 (__TEXT,__text) non-external (was a private external) ___copy_helper_block_ea8_32r
00000000000030c4 (__TEXT,__text) non-external (was a private external) ___copy_helper_block_ea8_32r40r
0000000000005b9d (__TEXT,__text) non-external (was a private external) ___destroy_helper_block_ea8_32r
00000000000030fc (__TEXT,__text) non-external (was a private external) ___destroy_helper_block_ea8_32r40r
                 (undefined) external ___gxx_personality_v0 (from libc++)
                 (undefined) external ___stack_chk_fail (from libSystem)
                 (undefined) external ___stack_chk_guard (from libSystem)
                 (undefined) external __os_log_default (from libSystem)
                 (undefined) external __os_log_error_impl (from libSystem)
                 (undefined) external _abort (from libSystem)
                 (undefined) external _dispatch_once (from libSystem)
                 (undefined) external _fclose (from libSystem)
                 (undefined) external _fopen (from libSystem)
                 (undefined) external _free (from libSystem)
                 (undefined) external _fscanf (from libSystem)
                 (undefined) external _malloc (from libSystem)
                 (undefined) external _memcmp (from libSystem)
                 (undefined) external _memcpy (from libSystem)
                 (undefined) external _memmove (from libSystem)
                 (undefined) external _objc_autorelease (from libobjc)
                 (undefined) external _objc_autoreleaseReturnValue (from libobjc)
                 (undefined) external _objc_enumerationMutation (from libobjc)
                 (undefined) external _objc_msgSend (from libobjc)
                 (undefined) external _objc_release (from libobjc)
                 (undefined) external _objc_retain (from libobjc)
                 (undefined) external _objc_retainAutorelease (from libobjc)
                 (undefined) external _objc_retainAutoreleaseReturnValue (from libobjc)
                 (undefined) external _objc_retainAutoreleasedReturnValue (from libobjc)
                 (undefined) external _objc_retainBlock (from libobjc)
                 (undefined) external _objc_unsafeClaimAutoreleasedReturnValue (from libobjc)
                 (undefined) external _os_log_type_enabled (from libSystem)
                 (undefined) external _realloc (from libSystem)
                 (undefined) external _u_getPropertyValueEnum (from libicucore)
                 (undefined) external _u_hasBinaryProperty (from libicucore)
                 (undefined) external _u_isUWhiteSpace (from libicucore)
                 (undefined) external _u_isprint (from libicucore)
                 (undefined) external _uidna_nameToASCII (from libicucore)
                 (undefined) external _uidna_nameToUnicode (from libicucore)
                 (undefined) external _uidna_openUTS46 (from libicucore)
                 (undefined) external _uscript_getScript (from libicucore)
                 (undefined) external dyld_stub_binder (from libSystem)
