00007ffa0d0b344c (__TEXT,__gcc_except_tab) non-external GCC_except_table0
00007ffa0d0b35c0 (__TEXT,__gcc_except_tab) non-external GCC_except_table0
00007ffa0d0b365c (__TEXT,__gcc_except_tab) non-external GCC_except_table0
00007ffa0d0b36e8 (__TEXT,__gcc_except_tab) non-external GCC_except_table0
00007ffa0d0b39a8 (__TEXT,__gcc_except_tab) non-external GCC_except_table0
00007ffa0d0b39c4 (__TEXT,__gcc_except_tab) non-external GCC_except_table0
00007ffa0d0b3b4c (__TEXT,__gcc_except_tab) non-external GCC_except_table0
00007ffa0d0b3b74 (__TEXT,__gcc_except_tab) non-external GCC_except_table0
00007ffa0d0b3dec (__TEXT,__gcc_except_tab) non-external GCC_except_table0
00007ffa0d0b4004 (__TEXT,__gcc_except_tab) non-external GCC_except_table0
00007ffa0d0b46f4 (__TEXT,__gcc_except_tab) non-external GCC_except_table0
00007ffa0d0b4cc0 (__TEXT,__gcc_except_tab) non-external GCC_except_table0
00007ffa0d0b506c (__TEXT,__gcc_except_tab) non-external GCC_except_table0
00007ffa0d0b52a4 (__TEXT,__gcc_except_tab) non-external GCC_except_table0
00007ffa0d0b53a0 (__TEXT,__gcc_except_tab) non-external GCC_except_table0
00007ffa0d0b5734 (__TEXT,__gcc_except_tab) non-external GCC_except_table0
00007ffa0d0b36ac (__TEXT,__gcc_except_tab) non-external GCC_except_table1
00007ffa0d0b37c4 (__TEXT,__gcc_except_tab) non-external GCC_except_table1
00007ffa0d0b39d8 (__TEXT,__gcc_except_tab) non-external GCC_except_table1
00007ffa0d0b3ba0 (__TEXT,__gcc_except_tab) non-external GCC_except_table1
00007ffa0d0b3e20 (__TEXT,__gcc_except_tab) non-external GCC_except_table1
00007ffa0d0b4078 (__TEXT,__gcc_except_tab) non-external GCC_except_table1
00007ffa0d0b4094 (__TEXT,__gcc_except_tab) non-external GCC_except_table1
00007ffa0d0b4130 (__TEXT,__gcc_except_tab) non-external GCC_except_table1
00007ffa0d0b47a8 (__TEXT,__gcc_except_tab) non-external GCC_except_table1
00007ffa0d0b4d84 (__TEXT,__gcc_except_tab) non-external GCC_except_table1
00007ffa0d0b5080 (__TEXT,__gcc_except_tab) non-external GCC_except_table1
00007ffa0d0b5760 (__TEXT,__gcc_except_tab) non-external GCC_except_table1
00007ffa0d0b3600 (__TEXT,__gcc_except_tab) non-external GCC_except_table10
00007ffa0d0b3e40 (__TEXT,__gcc_except_tab) non-external GCC_except_table10
00007ffa0d0b4118 (__TEXT,__gcc_except_tab) non-external GCC_except_table10
00007ffa0d0b4750 (__TEXT,__gcc_except_tab) non-external GCC_except_table10
00007ffa0d0b49a8 (__TEXT,__gcc_except_tab) non-external GCC_except_table10
00007ffa0d0b5284 (__TEXT,__gcc_except_tab) non-external GCC_except_table10
00007ffa0d0b45d8 (__TEXT,__gcc_except_tab) non-external GCC_except_table101
00007ffa0d0b45f0 (__TEXT,__gcc_except_tab) non-external GCC_except_table105
00007ffa0d0b382c (__TEXT,__gcc_except_tab) non-external GCC_except_table11
00007ffa0d0b3e7c (__TEXT,__gcc_except_tab) non-external GCC_except_table11
00007ffa0d0b3f38 (__TEXT,__gcc_except_tab) non-external GCC_except_table11
00007ffa0d0b4794 (__TEXT,__gcc_except_tab) non-external GCC_except_table11
00007ffa0d0b49c0 (__TEXT,__gcc_except_tab) non-external GCC_except_table11
00007ffa0d0b5528 (__TEXT,__gcc_except_tab) non-external GCC_except_table11
00007ffa0d0b4600 (__TEXT,__gcc_except_tab) non-external GCC_except_table112
00007ffa0d0b34fc (__TEXT,__gcc_except_tab) non-external GCC_except_table12
00007ffa0d0b3a70 (__TEXT,__gcc_except_tab) non-external GCC_except_table12
00007ffa0d0b3d48 (__TEXT,__gcc_except_tab) non-external GCC_except_table12
00007ffa0d0b3ecc (__TEXT,__gcc_except_tab) non-external GCC_except_table12
00007ffa0d0b3f68 (__TEXT,__gcc_except_tab) non-external GCC_except_table12
00007ffa0d0b5198 (__TEXT,__gcc_except_tab) non-external GCC_except_table12
00007ffa0d0b5808 (__TEXT,__gcc_except_tab) non-external GCC_except_table12
00007ffa0d0b4610 (__TEXT,__gcc_except_tab) non-external GCC_except_table129
00007ffa0d0b3538 (__TEXT,__gcc_except_tab) non-external GCC_except_table13
00007ffa0d0b3d58 (__TEXT,__gcc_except_tab) non-external GCC_except_table13
00007ffa0d0b3f84 (__TEXT,__gcc_except_tab) non-external GCC_except_table13
00007ffa0d0b49e8 (__TEXT,__gcc_except_tab) non-external GCC_except_table13
00007ffa0d0b5724 (__TEXT,__gcc_except_tab) non-external GCC_except_table13
00007ffa0d0b4640 (__TEXT,__gcc_except_tab) non-external GCC_except_table132
00007ffa0d0b4664 (__TEXT,__gcc_except_tab) non-external GCC_except_table133
00007ffa0d0b4680 (__TEXT,__gcc_except_tab) non-external GCC_except_table134
00007ffa0d0b46a0 (__TEXT,__gcc_except_tab) non-external GCC_except_table136
00007ffa0d0b46ac (__TEXT,__gcc_except_tab) non-external GCC_except_table137
00007ffa0d0b46c0 (__TEXT,__gcc_except_tab) non-external GCC_except_table138
00007ffa0d0b46d4 (__TEXT,__gcc_except_tab) non-external GCC_except_table139
00007ffa0d0b3570 (__TEXT,__gcc_except_tab) non-external GCC_except_table14
00007ffa0d0b383c (__TEXT,__gcc_except_tab) non-external GCC_except_table14
00007ffa0d0b3ad4 (__TEXT,__gcc_except_tab) non-external GCC_except_table14
00007ffa0d0b3d68 (__TEXT,__gcc_except_tab) non-external GCC_except_table14
00007ffa0d0b3ff4 (__TEXT,__gcc_except_tab) non-external GCC_except_table14
00007ffa0d0b4e98 (__TEXT,__gcc_except_tab) non-external GCC_except_table14
00007ffa0d0b5818 (__TEXT,__gcc_except_tab) non-external GCC_except_table14
00007ffa0d0b4a98 (__TEXT,__gcc_except_tab) non-external GCC_except_table15
00007ffa0d0b51b4 (__TEXT,__gcc_except_tab) non-external GCC_except_table15
00007ffa0d0b46e4 (__TEXT,__gcc_except_tab) non-external GCC_except_table151
00007ffa0d0b3580 (__TEXT,__gcc_except_tab) non-external GCC_except_table16
00007ffa0d0b3a7c (__TEXT,__gcc_except_tab) non-external GCC_except_table16
00007ffa0d0b51d0 (__TEXT,__gcc_except_tab) non-external GCC_except_table16
00007ffa0d0b418c (__TEXT,__gcc_except_tab) non-external GCC_except_table17
00007ffa0d0b3848 (__TEXT,__gcc_except_tab) non-external GCC_except_table18
00007ffa0d0b3d78 (__TEXT,__gcc_except_tab) non-external GCC_except_table18
00007ffa0d0b41d8 (__TEXT,__gcc_except_tab) non-external GCC_except_table18
00007ffa0d0b4ba0 (__TEXT,__gcc_except_tab) non-external GCC_except_table18
00007ffa0d0b3590 (__TEXT,__gcc_except_tab) non-external GCC_except_table19
00007ffa0d0b3864 (__TEXT,__gcc_except_tab) non-external GCC_except_table19
00007ffa0d0b3988 (__TEXT,__gcc_except_tab) non-external GCC_except_table19
00007ffa0d0b4bc4 (__TEXT,__gcc_except_tab) non-external GCC_except_table19
00007ffa0d0b35d0 (__TEXT,__gcc_except_tab) non-external GCC_except_table2
00007ffa0d0b36d8 (__TEXT,__gcc_except_tab) non-external GCC_except_table2
00007ffa0d0b37d4 (__TEXT,__gcc_except_tab) non-external GCC_except_table2
00007ffa0d0b40a4 (__TEXT,__gcc_except_tab) non-external GCC_except_table2
00007ffa0d0b4dc4 (__TEXT,__gcc_except_tab) non-external GCC_except_table2
00007ffa0d0b50b0 (__TEXT,__gcc_except_tab) non-external GCC_except_table2
00007ffa0d0b53f0 (__TEXT,__gcc_except_tab) non-external GCC_except_table2
00007ffa0d0b57a4 (__TEXT,__gcc_except_tab) non-external GCC_except_table2
00007ffa0d0b35a0 (__TEXT,__gcc_except_tab) non-external GCC_except_table21
00007ffa0d0b3878 (__TEXT,__gcc_except_tab) non-external GCC_except_table21
00007ffa0d0b43b8 (__TEXT,__gcc_except_tab) non-external GCC_except_table21
00007ffa0d0b4bf8 (__TEXT,__gcc_except_tab) non-external GCC_except_table21
00007ffa0d0b51e0 (__TEXT,__gcc_except_tab) non-external GCC_except_table21
00007ffa0d0b35b0 (__TEXT,__gcc_except_tab) non-external GCC_except_table22
00007ffa0d0b3888 (__TEXT,__gcc_except_tab) non-external GCC_except_table22
00007ffa0d0b3d8c (__TEXT,__gcc_except_tab) non-external GCC_except_table22
00007ffa0d0b4c2c (__TEXT,__gcc_except_tab) non-external GCC_except_table22
00007ffa0d0b555c (__TEXT,__gcc_except_tab) non-external GCC_except_table22
00007ffa0d0b3898 (__TEXT,__gcc_except_tab) non-external GCC_except_table23
00007ffa0d0b3998 (__TEXT,__gcc_except_tab) non-external GCC_except_table23
00007ffa0d0b3afc (__TEXT,__gcc_except_tab) non-external GCC_except_table23
00007ffa0d0b3d9c (__TEXT,__gcc_except_tab) non-external GCC_except_table23
00007ffa0d0b4454 (__TEXT,__gcc_except_tab) non-external GCC_except_table23
00007ffa0d0b4c60 (__TEXT,__gcc_except_tab) non-external GCC_except_table23
00007ffa0d0b55c4 (__TEXT,__gcc_except_tab) non-external GCC_except_table23
00007ffa0d0b38a8 (__TEXT,__gcc_except_tab) non-external GCC_except_table24
00007ffa0d0b4470 (__TEXT,__gcc_except_tab) non-external GCC_except_table24
00007ffa0d0b4c78 (__TEXT,__gcc_except_tab) non-external GCC_except_table24
00007ffa0d0b51f8 (__TEXT,__gcc_except_tab) non-external GCC_except_table24
00007ffa0d0b5630 (__TEXT,__gcc_except_tab) non-external GCC_except_table24
00007ffa0d0b3dac (__TEXT,__gcc_except_tab) non-external GCC_except_table25
00007ffa0d0b3f18 (__TEXT,__gcc_except_tab) non-external GCC_except_table25
00007ffa0d0b56ac (__TEXT,__gcc_except_tab) non-external GCC_except_table25
00007ffa0d0b4f50 (__TEXT,__gcc_except_tab) non-external GCC_except_table26
00007ffa0d0b3f28 (__TEXT,__gcc_except_tab) non-external GCC_except_table27
00007ffa0d0b5214 (__TEXT,__gcc_except_tab) non-external GCC_except_table27
00007ffa0d0b4f64 (__TEXT,__gcc_except_tab) non-external GCC_except_table28
00007ffa0d0b3dbc (__TEXT,__gcc_except_tab) non-external GCC_except_table29
00007ffa0d0b449c (__TEXT,__gcc_except_tab) non-external GCC_except_table29
00007ffa0d0b4c8c (__TEXT,__gcc_except_tab) non-external GCC_except_table29
00007ffa0d0b4f98 (__TEXT,__gcc_except_tab) non-external GCC_except_table29
00007ffa0d0b47d0 (__TEXT,__gcc_except_tab) non-external GCC_except_table3
00007ffa0d0b50d8 (__TEXT,__gcc_except_tab) non-external GCC_except_table3
00007ffa0d0b57c0 (__TEXT,__gcc_except_tab) non-external GCC_except_table3
00007ffa0d0b360c (__TEXT,__gcc_except_tab) non-external GCC_except_table30
00007ffa0d0b3dcc (__TEXT,__gcc_except_tab) non-external GCC_except_table30
00007ffa0d0b3ddc (__TEXT,__gcc_except_tab) non-external GCC_except_table31
00007ffa0d0b5234 (__TEXT,__gcc_except_tab) non-external GCC_except_table31
00007ffa0d0b3b24 (__TEXT,__gcc_except_tab) non-external GCC_except_table32
00007ffa0d0b44c0 (__TEXT,__gcc_except_tab) non-external GCC_except_table32
00007ffa0d0b4fa8 (__TEXT,__gcc_except_tab) non-external GCC_except_table32
00007ffa0d0b44d0 (__TEXT,__gcc_except_tab) non-external GCC_except_table33
00007ffa0d0b4ffc (__TEXT,__gcc_except_tab) non-external GCC_except_table33
00007ffa0d0b5010 (__TEXT,__gcc_except_tab) non-external GCC_except_table36
00007ffa0d0b38b4 (__TEXT,__gcc_except_tab) non-external GCC_except_table37
00007ffa0d0b44dc (__TEXT,__gcc_except_tab) non-external GCC_except_table38
00007ffa0d0b3460 (__TEXT,__gcc_except_tab) non-external GCC_except_table4
00007ffa0d0b35dc (__TEXT,__gcc_except_tab) non-external GCC_except_table4
00007ffa0d0b38fc (__TEXT,__gcc_except_tab) non-external GCC_except_table4
00007ffa0d0b3a8c (__TEXT,__gcc_except_tab) non-external GCC_except_table4
00007ffa0d0b3e2c (__TEXT,__gcc_except_tab) non-external GCC_except_table4
00007ffa0d0b40b4 (__TEXT,__gcc_except_tab) non-external GCC_except_table4
00007ffa0d0b4728 (__TEXT,__gcc_except_tab) non-external GCC_except_table4
00007ffa0d0b4838 (__TEXT,__gcc_except_tab) non-external GCC_except_table4
00007ffa0d0b5100 (__TEXT,__gcc_except_tab) non-external GCC_except_table4
00007ffa0d0b57d4 (__TEXT,__gcc_except_tab) non-external GCC_except_table4
00007ffa0d0b361c (__TEXT,__gcc_except_tab) non-external GCC_except_table41
00007ffa0d0b4510 (__TEXT,__gcc_except_tab) non-external GCC_except_table41
00007ffa0d0b5028 (__TEXT,__gcc_except_tab) non-external GCC_except_table41
00007ffa0d0b362c (__TEXT,__gcc_except_tab) non-external GCC_except_table43
00007ffa0d0b5040 (__TEXT,__gcc_except_tab) non-external GCC_except_table43
00007ffa0d0b505c (__TEXT,__gcc_except_tab) non-external GCC_except_table44
00007ffa0d0b56c8 (__TEXT,__gcc_except_tab) non-external GCC_except_table44
00007ffa0d0b363c (__TEXT,__gcc_except_tab) non-external GCC_except_table45
00007ffa0d0b38d8 (__TEXT,__gcc_except_tab) non-external GCC_except_table46
00007ffa0d0b364c (__TEXT,__gcc_except_tab) non-external GCC_except_table47
00007ffa0d0b4528 (__TEXT,__gcc_except_tab) non-external GCC_except_table47
00007ffa0d0b3470 (__TEXT,__gcc_except_tab) non-external GCC_except_table5
00007ffa0d0b3a5c (__TEXT,__gcc_except_tab) non-external GCC_except_table5
00007ffa0d0b3ab4 (__TEXT,__gcc_except_tab) non-external GCC_except_table5
00007ffa0d0b40c4 (__TEXT,__gcc_except_tab) non-external GCC_except_table5
00007ffa0d0b473c (__TEXT,__gcc_except_tab) non-external GCC_except_table5
00007ffa0d0b486c (__TEXT,__gcc_except_tab) non-external GCC_except_table5
00007ffa0d0b52ec (__TEXT,__gcc_except_tab) non-external GCC_except_table5
00007ffa0d0b53b0 (__TEXT,__gcc_except_tab) non-external GCC_except_table5
00007ffa0d0b57e4 (__TEXT,__gcc_except_tab) non-external GCC_except_table5
00007ffa0d0b56d8 (__TEXT,__gcc_except_tab) non-external GCC_except_table50
00007ffa0d0b56e8 (__TEXT,__gcc_except_tab) non-external GCC_except_table51
00007ffa0d0b56f4 (__TEXT,__gcc_except_tab) non-external GCC_except_table54
00007ffa0d0b4534 (__TEXT,__gcc_except_tab) non-external GCC_except_table56
00007ffa0d0b4544 (__TEXT,__gcc_except_tab) non-external GCC_except_table57
00007ffa0d0b34b0 (__TEXT,__gcc_except_tab) non-external GCC_except_table6
00007ffa0d0b35e8 (__TEXT,__gcc_except_tab) non-external GCC_except_table6
00007ffa0d0b3ac4 (__TEXT,__gcc_except_tab) non-external GCC_except_table6
00007ffa0d0b3bbc (__TEXT,__gcc_except_tab) non-external GCC_except_table6
00007ffa0d0b40d4 (__TEXT,__gcc_except_tab) non-external GCC_except_table6
00007ffa0d0b4148 (__TEXT,__gcc_except_tab) non-external GCC_except_table6
00007ffa0d0b489c (__TEXT,__gcc_except_tab) non-external GCC_except_table6
00007ffa0d0b5150 (__TEXT,__gcc_except_tab) non-external GCC_except_table6
00007ffa0d0b5318 (__TEXT,__gcc_except_tab) non-external GCC_except_table6
00007ffa0d0b53e4 (__TEXT,__gcc_except_tab) non-external GCC_except_table6
00007ffa0d0b54e4 (__TEXT,__gcc_except_tab) non-external GCC_except_table6
00007ffa0d0b4554 (__TEXT,__gcc_except_tab) non-external GCC_except_table60
00007ffa0d0b524c (__TEXT,__gcc_except_tab) non-external GCC_except_table61
00007ffa0d0b4564 (__TEXT,__gcc_except_tab) non-external GCC_except_table63
00007ffa0d0b3948 (__TEXT,__gcc_except_tab) non-external GCC_except_table7
00007ffa0d0b3bf0 (__TEXT,__gcc_except_tab) non-external GCC_except_table7
00007ffa0d0b415c (__TEXT,__gcc_except_tab) non-external GCC_except_table7
00007ffa0d0b4944 (__TEXT,__gcc_except_tab) non-external GCC_except_table7
00007ffa0d0b5160 (__TEXT,__gcc_except_tab) non-external GCC_except_table7
00007ffa0d0b5338 (__TEXT,__gcc_except_tab) non-external GCC_except_table7
00007ffa0d0b4574 (__TEXT,__gcc_except_tab) non-external GCC_except_table70
00007ffa0d0b34c0 (__TEXT,__gcc_except_tab) non-external GCC_except_table8
00007ffa0d0b35f4 (__TEXT,__gcc_except_tab) non-external GCC_except_table8
00007ffa0d0b37e4 (__TEXT,__gcc_except_tab) non-external GCC_except_table8
00007ffa0d0b396c (__TEXT,__gcc_except_tab) non-external GCC_except_table8
00007ffa0d0b3cb4 (__TEXT,__gcc_except_tab) non-external GCC_except_table8
00007ffa0d0b40e4 (__TEXT,__gcc_except_tab) non-external GCC_except_table8
00007ffa0d0b495c (__TEXT,__gcc_except_tab) non-external GCC_except_table8
00007ffa0d0b4de0 (__TEXT,__gcc_except_tab) non-external GCC_except_table8
00007ffa0d0b5170 (__TEXT,__gcc_except_tab) non-external GCC_except_table8
00007ffa0d0b5390 (__TEXT,__gcc_except_tab) non-external GCC_except_table8
00007ffa0d0b5500 (__TEXT,__gcc_except_tab) non-external GCC_except_table8
00007ffa0d0b57f8 (__TEXT,__gcc_except_tab) non-external GCC_except_table8
00007ffa0d0b4584 (__TEXT,__gcc_except_tab) non-external GCC_except_table83
00007ffa0d0b4594 (__TEXT,__gcc_except_tab) non-external GCC_except_table87
00007ffa0d0b3814 (__TEXT,__gcc_except_tab) non-external GCC_except_table9
00007ffa0d0b4974 (__TEXT,__gcc_except_tab) non-external GCC_except_table9
00007ffa0d0b5188 (__TEXT,__gcc_except_tab) non-external GCC_except_table9
00007ffa0d0b525c (__TEXT,__gcc_except_tab) non-external GCC_except_table9
00007ffa0d0b5710 (__TEXT,__gcc_except_tab) non-external GCC_except_table9
00007ffa0d0b45b8 (__TEXT,__gcc_except_tab) non-external GCC_except_table90
00007ffa0d0b45c8 (__TEXT,__gcc_except_tab) non-external GCC_except_table94
00007ffa0d0b5a34 (__TEXT,__cstring) non-external (was a private external) _.str
00007ffa0d0b5a4b (__TEXT,__cstring) non-external (was a private external) _.str
00007ffa0d0b5ec5 (__TEXT,__cstring) non-external (was a private external) _.str
00007ffa0d0b5f06 (__TEXT,__cstring) non-external (was a private external) _.str
00007ffa0d0b5a91 (__TEXT,__cstring) non-external (was a private external) _.str.1
00007ffa0d0b5c64 (__TEXT,__cstring) non-external (was a private external) _.str.1
00007ffa0d0b5f13 (__TEXT,__cstring) non-external (was a private external) _.str.1
00007ffa0d0b673a (__TEXT,__cstring) non-external (was a private external) _.str.1
00007ffa0d0b661f (__TEXT,__cstring) non-external (was a private external) _.str.10
00007ffa0d0b6707 (__TEXT,__cstring) non-external (was a private external) _.str.18
00007ffa0d0b5f1b (__TEXT,__cstring) non-external (was a private external) _.str.2
00007ffa0d0b5ecb (__TEXT,__cstring) non-external (was a private external) _.str.3
00007ffa0d0b5f2a (__TEXT,__cstring) non-external (was a private external) _.str.3
00007ffa0d0b675a (__TEXT,__cstring) non-external (was a private external) _.str.3
00007ffa0d0b5f2e (__TEXT,__cstring) non-external (was a private external) _.str.4
00007ffa0d0b5f31 (__TEXT,__cstring) non-external (was a private external) _.str.5
00007ffa0d0b675b (__TEXT,__cstring) non-external (was a private external) _.str.5
00007ffa0d0b5f3f (__TEXT,__cstring) non-external (was a private external) _.str.6
00007ffa0d0b5f4d (__TEXT,__cstring) non-external (was a private external) _.str.7
00007ffa0d0b6613 (__TEXT,__cstring) non-external (was a private external) _.str.8
00007ffa0d0b6619 (__TEXT,__cstring) non-external (was a private external) _.str.9
                 (undefined) external _CFAllocatorGetDefault (from CoreFoundation)
                 (undefined) external _CFArrayGetCount (from CoreFoundation)
                 (undefined) external _CFArrayGetTypeID (from CoreFoundation)
                 (undefined) external _CFArrayGetValueAtIndex (from CoreFoundation)
                 (undefined) external _CFBooleanGetTypeID (from CoreFoundation)
                 (undefined) external _CFBooleanGetValue (from CoreFoundation)
                 (undefined) external _CFBundleCopyResourceURLForLocalization (from CoreFoundation)
                 (undefined) external _CFBundleCreate (from CoreFoundation)
                 (undefined) external _CFBundleGetBundleWithIdentifier (from CoreFoundation)
                 (undefined) external _CFDictionaryAddValue (from CoreFoundation)
                 (undefined) external _CFDictionaryContainsKey (from CoreFoundation)
                 (undefined) external _CFDictionaryCreateMutable (from CoreFoundation)
                 (undefined) external _CFDictionaryCreateMutableCopy (from CoreFoundation)
                 (undefined) external _CFDictionaryGetCount (from CoreFoundation)
                 (undefined) external _CFDictionaryGetKeysAndValues (from CoreFoundation)
                 (undefined) external _CFDictionaryGetTypeID (from CoreFoundation)
                 (undefined) external _CFDictionaryGetValue (from CoreFoundation)
                 (undefined) external _CFDictionarySetValue (from CoreFoundation)
                 (undefined) external _CFErrorCopyDescription (from CoreFoundation)
                 (undefined) external _CFErrorCreate (from CoreFoundation)
                 (undefined) external _CFGetTypeID (from CoreFoundation)
                 (undefined) external _CFLocaleCreate (from CoreFoundation)
                 (undefined) external _CFLocaleCreateComponentsFromLocaleIdentifier (from CoreFoundation)
                 (undefined) external _CFLocaleCreateLocaleIdentifierFromComponents (from CoreFoundation)
                 (undefined) external _CFLocaleGetIdentifier (from CoreFoundation)
                 (undefined) external _CFLocaleGetTypeID (from CoreFoundation)
                 (undefined) external _CFLocaleGetValue (from CoreFoundation)
                 (undefined) external _CFNumberCreate (from CoreFoundation)
                 (undefined) external _CFNumberGetTypeID (from CoreFoundation)
                 (undefined) external _CFNumberGetValue (from CoreFoundation)
                 (undefined) external _CFPropertyListCreateWithStream (from CoreFoundation)
                 (undefined) external _CFPropertyListWrite (from CoreFoundation)
                 (undefined) external _CFReadStreamClose (from CoreFoundation)
                 (undefined) external _CFReadStreamCreateWithFile (from CoreFoundation)
                 (undefined) external _CFReadStreamOpen (from CoreFoundation)
                 (undefined) external _CFRelease (from CoreFoundation)
                 (undefined) external _CFRetain (from CoreFoundation)
                 (undefined) external _CFStringCompare (from CoreFoundation)
                 (undefined) external _CFStringCreateCopy (from CoreFoundation)
                 (undefined) external _CFStringCreateWithBytes (from CoreFoundation)
                 (undefined) external _CFStringCreateWithCString (from CoreFoundation)
                 (undefined) external _CFStringCreateWithCharacters (from CoreFoundation)
                 (undefined) external _CFStringCreateWithFormat (from CoreFoundation)
                 (undefined) external _CFStringGetCString (from CoreFoundation)
                 (undefined) external _CFStringGetCStringPtr (from CoreFoundation)
                 (undefined) external _CFStringGetCharacterAtIndex (from CoreFoundation)
                 (undefined) external _CFStringGetCharacters (from CoreFoundation)
                 (undefined) external _CFStringGetCharactersPtr (from CoreFoundation)
                 (undefined) external _CFStringGetLength (from CoreFoundation)
                 (undefined) external _CFStringGetMaximumSizeForEncoding (from CoreFoundation)
                 (undefined) external _CFStringGetTypeID (from CoreFoundation)
                 (undefined) external _CFURLCopyLastPathComponent (from CoreFoundation)
                 (undefined) external _CFURLCopyPath (from CoreFoundation)
                 (undefined) external _CFURLCreateCopyDeletingLastPathComponent (from CoreFoundation)
                 (undefined) external _CFURLCreateCopyDeletingPathExtension (from CoreFoundation)
                 (undefined) external _CFURLCreateFromFileSystemRepresentation (from CoreFoundation)
                 (undefined) external _CFURLGetFileSystemRepresentation (from CoreFoundation)
                 (undefined) external _CFURLGetTypeID (from CoreFoundation)
                 (undefined) external _CFWriteStreamClose (from CoreFoundation)
                 (undefined) external _CFWriteStreamCreateWithFile (from CoreFoundation)
                 (undefined) external _CFWriteStreamOpen (from CoreFoundation)
                 (undefined) external _CGRectContainsPoint (from CoreGraphics)
                 (undefined) external _CGRectEqualToRect (from CoreGraphics)
                 (undefined) external _CGRectGetMidX (from CoreGraphics)
                 (undefined) external _CGRectGetMidY (from CoreGraphics)
                 (undefined) external _CGRectNull (from CoreGraphics)
                 (undefined) external _CGRectUnion (from CoreGraphics)
00007ffa0d08c4a6 (__TEXT,__text) external _ITCandidateCopyPrefix
00007ffa0d08c44e (__TEXT,__text) external _ITCandidateEnumerateTokenIDs
00007ffa0d08c441 (__TEXT,__text) external _ITCandidateFoundOnlyInDynamicLexicon
00007ffa0d08c412 (__TEXT,__text) external _ITCandidateGetAutocorrectionOperations
00007ffa0d08c3e9 (__TEXT,__text) external _ITCandidateGetScore
00007ffa0d08c42c (__TEXT,__text) external _ITCandidateGetSources
00007ffa0d08c37d (__TEXT,__text) external _ITCandidateGetString
00007ffa0d08c3b1 (__TEXT,__text) external _ITCandidateGetStrokedPath
00007ffa0d08c434 (__TEXT,__text) external _ITCandidateGetUnshiftMask
00007ffa0d08c41f (__TEXT,__text) external _ITCandidateIsCompletion
00007ffa0d08c405 (__TEXT,__text) external _ITCandidateIsMultiWord
00007ffa0d08c3f8 (__TEXT,__text) external _ITCandidateIsValidWord
00007ffa0d088745 (__TEXT,__text) external _ITDecoderClearNeuralNetworkBuffer
00007ffa0d088036 (__TEXT,__text) external _ITDecoderCreate
00007ffa0d088864 (__TEXT,__text) external _ITDecoderEnumerateCandidates
00007ffa0d088b29 (__TEXT,__text) external _ITDecoderEnumerateCandidatesWithOptions
00007ffa0d088840 (__TEXT,__text) external _ITDecoderSetLinguisticContext
00007ffa0d08c489 (__TEXT,__text) external _ITKeyCandidateCreateString
00007ffa0d08c497 (__TEXT,__text) external _ITKeyCandidateGetScore
00007ffa408ed6b8 (__DATA_CONST,__const) external _ITKeyInfoNull
00007ffa0d08d783 (__TEXT,__text) external _ITTouchTranscoderAddLanguageModelWithOptions
00007ffa0d08d512 (__TEXT,__text) external _ITTouchTranscoderAddLexicon
00007ffa0d08d520 (__TEXT,__text) external _ITTouchTranscoderAddLexiconWithOptions
00007ffa0d08d6c0 (__TEXT,__text) external _ITTouchTranscoderClearNeuralNetworkBuffer
00007ffa0d08d534 (__TEXT,__text) external _ITTouchTranscoderCreateSession
00007ffa0d08c7f9 (__TEXT,__text) external _ITTouchTranscoderCreateWithKeyboardLayout
00007ffa0d08d789 (__TEXT,__text) external _ITTouchTranscoderProvidesCompletionCandidates
00007ffa0d08d526 (__TEXT,__text) external _ITTouchTranscoderRemoveLexicon
00007ffa0d08b4c0 (__TEXT,__text) external _ITTouchTranscoderSessionAddEvent
00007ffa0d08b4d5 (__TEXT,__text) external _ITTouchTranscoderSessionAddEventWithTouchKeyInfo
00007ffa0d08b4e8 (__TEXT,__text) external _ITTouchTranscoderSessionEnumerateCandidates
00007ffa0d08b720 (__TEXT,__text) external _ITTouchTranscoderSessionEnumerateCandidatesWithOptions
00007ffa0d08b919 (__TEXT,__text) external _ITTouchTranscoderSessionEnumerateKeyCandidatesForLastTouch
00007ffa0d08b4a4 (__TEXT,__text) external _ITTouchTranscoderSessionSetLinguisticContext
00007ffa0d08b4b2 (__TEXT,__text) external _ITTouchTranscoderSessionSetPrefix
00007ffa0d08bb08 (__TEXT,__text) external _ITTouchTranscoderSessionSetTextAcceptedFromUI
00007ffa0d08c579 (__TEXT,__text) external _ITTouchTranscoderSupportsConfiguration
00007ffa0d08c4b8 (__TEXT,__text) external _ITTouchTranscoderSupportsLocale
00007ffa0d08c563 (__TEXT,__text) external _ITTouchTranscoderSupportsLocaleAndLayout
00007ffa0d08c56f (__TEXT,__text) external _ITTouchTranscoderSupportsLocaleAndLayoutWithTypingMode
00007ffa0d08d5ae (__TEXT,__text) external _ITTouchTranscoderUpdateKeyboardLayout
00007ffa0d08d633 (__TEXT,__text) external _ITTouchTranscoderUpdateKeyboardLayoutWithOptions
                 (undefined) external _LDEnumerateAssetDataItems (from LinguisticData)
                 (undefined) external _LMLanguageModelConditionalProbability (from LanguageModeling)
                 (undefined) external _LMLanguageModelCreate (from LanguageModeling)
                 (undefined) external _LMLanguageModelGetOrder (from LanguageModeling)
                 (undefined) external _LMLanguageModelRelease (from LanguageModeling)
                 (undefined) external _LXCursorConditionalProbability (from Lexicon)
                 (undefined) external _LXCursorCreateByAdvancingWithUTF8 (from Lexicon)
                 (undefined) external _LXCursorEnumerateEntriesRecursively (from Lexicon)
                 (undefined) external _LXCursorHasEntries (from Lexicon)
                 (undefined) external _LXCursorIsRoot (from Lexicon)
                 (undefined) external _LXCursorTerminationProbability (from Lexicon)
                 (undefined) external _LXEntryCopyString (from Lexicon)
                 (undefined) external _LXEntryGetProbability (from Lexicon)
                 (undefined) external _LXLexiconCreate (from Lexicon)
                 (undefined) external _LXLexiconCreateRootCursor (from Lexicon)
                 (undefined) external _LXLexiconEnumerateEntriesForString (from Lexicon)
                 (undefined) external _MRLNeuralNetworkClear (from Montreal)
                 (undefined) external _MRLNeuralNetworkCreate (from Montreal)
                 (undefined) external _MRLNeuralNetworkGetOutput (from Montreal)
                 (undefined) external _MRLNeuralNetworkGetOutputDimension (from Montreal)
                 (undefined) external _MRLNeuralNetworkPredict (from Montreal)
                 (undefined) external _MRLNeuralNetworkSetInput (from Montreal)
                 (undefined) external _MRLNeuralNetworkSetInputTensor (from Montreal)
                 (undefined) external _MRLNeuralNetworkTensorAppendData (from Montreal)
                 (undefined) external _MRLNeuralNetworkTensorCreate (from Montreal)
                 (undefined) external __Block_object_assign (from libSystem)
                 (undefined) external __Block_object_dispose (from libSystem)
                 (undefined) external __CFRuntimeCreateInstance (from CoreFoundation)
                 (undefined) external __CFRuntimeRegisterClass (from CoreFoundation)
                 (undefined) external __DefaultRuneLocale (from libSystem)
                 (undefined) external __NSConcreteGlobalBlock (from libSystem)
                 (undefined) external __NSConcreteStackBlock (from libSystem)
                 (undefined) external __Unwind_Resume (from libSystem)
00007ffa0d0871c6 (__TEXT,__text) non-external __Z15_CFInit_DecoderPKv
00007ffa0d086f70 (__TEXT,__text) non-external __Z17_CFInit_CandidatePKv
00007ffa0d0871df (__TEXT,__text) non-external (was a private external) __Z20_CFGetTypeID_Decoderv
00007ffa0d087016 (__TEXT,__text) non-external __Z20_CFInit_KeyCandidatePKv
00007ffa0d086f9f (__TEXT,__text) non-external (was a private external) __Z22_CFGetTypeID_Candidatev
00007ffa0d0870a6 (__TEXT,__text) non-external __Z23_CFInit_TouchTranscoderPKv
00007ffa0d08702f (__TEXT,__text) non-external (was a private external) __Z25_CFGetTypeID_KeyCandidatev
00007ffa0d0870bf (__TEXT,__text) non-external (was a private external) __Z28_CFGetTypeID_TouchTranscoderv
00007ffa0d087136 (__TEXT,__text) non-external __Z30_CFInit_TouchTranscoderSessionPKv
00007ffa0d08714f (__TEXT,__text) non-external (was a private external) __Z35_CFGetTypeID_TouchTranscoderSessionv
00007ffa421cd888 (__DATA,__common) non-external (was a private external) __ZGVZ20_CFGetTypeID_DecodervE6typeID
00007ffa421cd848 (__DATA,__common) non-external (was a private external) __ZGVZ22_CFGetTypeID_CandidatevE6typeID
00007ffa421cd858 (__DATA,__common) non-external (was a private external) __ZGVZ25_CFGetTypeID_KeyCandidatevE6typeID
00007ffa421cd868 (__DATA,__common) non-external (was a private external) __ZGVZ28_CFGetTypeID_TouchTranscodervE6typeID
00007ffa421cd878 (__DATA,__common) non-external (was a private external) __ZGVZ35_CFGetTypeID_TouchTranscoderSessionvE6typeID
00007ffa421cd908 (__DATA,__bss) non-external __ZGVZN15InputTranscoderL25getBaseLayoutInfoAssortedERKNSt3__112basic_stringIcNS0_11char_traitsIcEENS0_9allocatorIcEEEEE25s_layoutInfoAssortedCache
00007ffa421cd950 (__DATA,__bss) non-external __ZGVZN15InputTranscoderL25getBaseLayoutInfoAssortedERKNSt3__112basic_stringIcNS0_11char_traitsIcEENS0_9allocatorIcEEEEE7s_mutex
00007ffa0d08d053 (__TEXT,__text) non-external __ZL20createResourceBundlePK14__CFDictionary
00007ffa0d08c4c6 (__TEXT,__text) non-external __ZL23supportsLocaleAndLayoutPK10__CFLocalePK10__CFString12ITTypingMode
00007ffa0d08c5b6 (__TEXT,__text) non-external __ZL30extractTypingModeForTranscoderPK14__CFDictionary
00007ffa0d08c5f4 (__TEXT,__text) non-external __ZL34isTranscoderConfigurationSupportedPK10__CFString12ITTypingModePK14__CFDictionary
00007ffa0d08861c (__TEXT,__text) non-external __ZN10applesauce2CF13DictionaryRefD1Ev
00007ffa0d0873ae (__TEXT,__text) non-external __ZN12KeyCandidateD0Ev
00007ffa0d087382 (__TEXT,__text) non-external __ZN12KeyCandidateD1Ev
00007ffa0d08e144 (__TEXT,__text) non-external (was a private external) __ZN15InputTranscoder10CTCDecoder10addLexiconEPK10_LXLexiconNS_11LexiconTypeE
00007ffa0d08e168 (__TEXT,__text) non-external (was a private external) __ZN15InputTranscoder10CTCDecoder10setContextENSt3__14spanIKjLm18446744073709551615EEE
00007ffa0d08e188 (__TEXT,__text) non-external (was a private external) __ZN15InputTranscoder10CTCDecoder10setContextERKNSt3__112basic_stringIcNS1_11char_traitsIcEENS1_9allocatorIcEEEE
00007ffa0d08e156 (__TEXT,__text) non-external (was a private external) __ZN15InputTranscoder10CTCDecoder13removeLexiconEPK10_LXLexiconNS_11LexiconTypeE
00007ffa0d08e1a0 (__TEXT,__text) non-external (was a private external) __ZN15InputTranscoder10CTCDecoder16setLexiconPrefixERKNSt3__112basic_stringIcNS1_11char_traitsIcEENS1_9allocatorIcEEEE
00007ffa0d08f23c (__TEXT,__text) non-external (was a private external) __ZN15InputTranscoder10CTCDecoder18isPresentInLexiconERKNSt3__112basic_stringIcNS1_11char_traitsIcEENS1_9allocatorIcEEEE
00007ffa0d08dfc4 (__TEXT,__text) non-external (was a private external) __ZN15InputTranscoder10CTCDecoderC1ERKNS_16CTCConfigurationERKNSt3__110shared_ptrIKNS_5BiMapIjNS4_12basic_stringIcNS4_11char_traitsIcEENS4_9allocatorIcEEEEEEEERKNS5_IKNS6_IjjEEEE
00007ffa0d08df8e (__TEXT,__text) non-external (was a private external) __ZN15InputTranscoder10CTCDecoderC1ERKNS_16CTCConfigurationERKNSt3__110shared_ptrIKNS_5BiMapIjjEEEE
00007ffa0d08dd84 (__TEXT,__text) non-external (was a private external) __ZN15InputTranscoder10CTCDecoderC2ERKNS_16CTCConfigurationERKNSt3__110shared_ptrIKNS_5BiMapIjNS4_12basic_stringIcNS4_11char_traitsIcEENS4_9allocatorIcEEEEEEEERKNS5_IKNS6_IjjEEEE
00007ffa0d0a90be (__TEXT,__text) non-external (was a private external) __ZN15InputTranscoder10CTCDecoderD1Ev
00007ffa0d0a27ba (__TEXT,__text) non-external (was a private external) __ZN15InputTranscoder10PlistBiMapINSt3__112basic_stringIcNS1_11char_traitsIcEENS1_9allocatorIcEEEEjEC1ERKS7_
00007ffa0d0a21bc (__TEXT,__text) non-external (was a private external) __ZN15InputTranscoder10PlistBiMapINSt3__112basic_stringIcNS1_11char_traitsIcEENS1_9allocatorIcEEEEjEC2ERKS7_
00007ffa0d0a296e (__TEXT,__text) non-external __ZN15InputTranscoder10PlistBiMapINSt3__112basic_stringIcNS1_11char_traitsIcEENS1_9allocatorIcEEEEjED0Ev
00007ffa0d0a2928 (__TEXT,__text) non-external __ZN15InputTranscoder10PlistBiMapINSt3__112basic_stringIcNS1_11char_traitsIcEENS1_9allocatorIcEEEEjED1Ev
00007ffa0d0a2144 (__TEXT,__text) non-external (was a private external) __ZN15InputTranscoder10PlistBiMapIjNSt3__112basic_stringIcNS1_11char_traitsIcEENS1_9allocatorIcEEEEEC1ERKS7_
00007ffa0d0a1b2a (__TEXT,__text) non-external (was a private external) __ZN15InputTranscoder10PlistBiMapIjNSt3__112basic_stringIcNS1_11char_traitsIcEENS1_9allocatorIcEEEEEC2ERKS7_
00007ffa0d0a28e2 (__TEXT,__text) non-external __ZN15InputTranscoder10PlistBiMapIjNSt3__112basic_stringIcNS1_11char_traitsIcEENS1_9allocatorIcEEEEED0Ev
00007ffa0d0a289c (__TEXT,__text) non-external __ZN15InputTranscoder10PlistBiMapIjNSt3__112basic_stringIcNS1_11char_traitsIcEENS1_9allocatorIcEEEEED1Ev
00007ffa0d0a1ab0 (__TEXT,__text) non-external (was a private external) __ZN15InputTranscoder10PlistBiMapIjjEC1ERKNSt3__112basic_stringIcNS2_11char_traitsIcEENS2_9allocatorIcEEEE
00007ffa0d0a12ac (__TEXT,__text) non-external (was a private external) __ZN15InputTranscoder10PlistBiMapIjjEC2ERKNSt3__112basic_stringIcNS2_11char_traitsIcEENS2_9allocatorIcEEEE
00007ffa0d0a2864 (__TEXT,__text) non-external __ZN15InputTranscoder10PlistBiMapIjjED0Ev
00007ffa0d0a2832 (__TEXT,__text) non-external __ZN15InputTranscoder10PlistBiMapIjjED1Ev
00007ffa0d09e1ce (__TEXT,__text) non-external (was a private external) __ZN15InputTranscoder10copyLocaleEPK14__CFDictionary
00007ffa0d0a9154 (__TEXT,__text) non-external (was a private external) __ZN15InputTranscoder11DecoderImpl20setLinguisticContextENSt3__14spanIKjLm18446744073709551615EEE
00007ffa0d0a9174 (__TEXT,__text) non-external (was a private external) __ZN15InputTranscoder11DecoderImpl24clearNeuralNetworkBufferEv
00007ffa0d0a914a (__TEXT,__text) non-external (was a private external) __ZN15InputTranscoder11DecoderImplC1ERKNS_20DecoderConfigurationERKNSt3__110shared_ptrIKNS_5BiMapIjjEEEESB_
00007ffa0d0a9034 (__TEXT,__text) non-external (was a private external) __ZN15InputTranscoder11DecoderImplC2ERKNS_20DecoderConfigurationERKNSt3__110shared_ptrIKNS_5BiMapIjjEEEESB_
00007ffa0d08792a (__TEXT,__text) non-external (was a private external) __ZN15InputTranscoder11DecoderImplD2Ev
00007ffa0d0aef66 (__TEXT,__text) non-external (was a private external) __ZN15InputTranscoder11removeSpaceERKNSt3__112basic_stringIcNS0_11char_traitsIcEENS0_9allocatorIcEEEE
00007ffa0d092636 (__TEXT,__text) non-external (was a private external) __ZN15InputTranscoder13LanguageModelC1EPv
00007ffa0d092640 (__TEXT,__text) non-external (was a private external) __ZN15InputTranscoder13LanguageModelD1Ev
00007ffa0d0a8716 (__TEXT,__text) non-external (was a private external) __ZN15InputTranscoder13MontrealModel11clearBufferEv
00007ffa0d0a86dc (__TEXT,__text) non-external (was a private external) __ZN15InputTranscoder13MontrealModelC1ERKNSt3__112basic_stringIcNS1_11char_traitsIcEENS1_9allocatorIcEEEE
00007ffa0d0a83fc (__TEXT,__text) non-external (was a private external) __ZN15InputTranscoder13PathResampler13pop_last_pathEv
00007ffa0d0a765e (__TEXT,__text) non-external __ZN15InputTranscoder13PathResampler14process_sampleEj
00007ffa0d0a7bb0 (__TEXT,__text) non-external (was a private external) __ZN15InputTranscoder13PathResampler19append_and_resampleERKNS_10PathSampleE
00007ffa0d0a79fc (__TEXT,__text) non-external (was a private external) __ZN15InputTranscoder13PathResampler19process_new_samplesEv
00007ffa0d0a7804 (__TEXT,__text) non-external (was a private external) __ZN15InputTranscoder13PathResampler23drop_non_resampled_pathEj
00007ffa0d0a78e6 (__TEXT,__text) non-external __ZN15InputTranscoder13PathResampler28retroactively_process_sampleEj
00007ffa0d0a74b0 (__TEXT,__text) non-external (was a private external) __ZN15InputTranscoder13PathResampler5clearEv
00007ffa0d0a7ca4 (__TEXT,__text) non-external (was a private external) __ZN15InputTranscoder13PathResampler8finalizeEv
00007ffa0d092f88 (__TEXT,__text) non-external (was a private external) __ZN15InputTranscoder13PathResamplerD1Ev
00007ffa0d086e90 (__TEXT,__text) non-external (was a private external) __ZN15InputTranscoder13RNNRecognizerD0Ev
00007ffa0d086e8a (__TEXT,__text) non-external (was a private external) __ZN15InputTranscoder13RNNRecognizerD1Ev
00007ffa0d087b78 (__TEXT,__text) non-external (was a private external) __ZN15InputTranscoder13appendFeatureEj7CGPointjRNSt3__16vectorINS_12InputFeatureENS1_9allocatorIS3_EEEE
00007ffa0d08c056 (__TEXT,__text) non-external (was a private external) __ZN15InputTranscoder14CRNNRecognizerD0Ev
00007ffa0d08c050 (__TEXT,__text) non-external (was a private external) __ZN15InputTranscoder14CRNNRecognizerD1Ev
00007ffa0d08a31c (__TEXT,__text) non-external (was a private external) __ZN15InputTranscoder14InputProcessor12processInputERNS_22PathKeyLayoutProcessorERKNS_23TranscoderConfigurationENSt3__112basic_stringIcNS6_11char_traitsIcEENS6_9allocatorIcEEEE
00007ffa0d08ad9e (__TEXT,__text) non-external (was a private external) __ZN15InputTranscoder14InputProcessorC1ERNS_22PathKeyLayoutProcessorERKNS_4PathERKNS_23TranscoderConfigurationENSt3__112basic_stringIcNS9_11char_traitsIcEENS9_9allocatorIcEEEE
00007ffa0d08a248 (__TEXT,__text) non-external (was a private external) __ZN15InputTranscoder14InputProcessorC2ERNS_22PathKeyLayoutProcessorERKNS_4PathERKNS_23TranscoderConfigurationENSt3__112basic_stringIcNS9_11char_traitsIcEENS9_9allocatorIcEEEE
00007ffa0d097f08 (__TEXT,__text) non-external __ZN15InputTranscoder14InputProcessorD1Ev
00007ffa0d08c28c (__TEXT,__text) non-external (was a private external) __ZN15InputTranscoder14LRNNRecognizerD0Ev
00007ffa0d08c286 (__TEXT,__text) non-external (was a private external) __ZN15InputTranscoder14LRNNRecognizerD1Ev
00007ffa0d0a84e0 (__TEXT,__text) non-external (was a private external) __ZN15InputTranscoder14createMRLModelERKNSt3__112basic_stringIcNS0_11char_traitsIcEENS0_9allocatorIcEEEE
00007ffa0d090b2e (__TEXT,__text) non-external (was a private external) __ZN15InputTranscoder15LexiconPathTrie11getPathTrieEjjbfRKNS_16LexiconContainerE
00007ffa0d090b24 (__TEXT,__text) non-external (was a private external) __ZN15InputTranscoder15LexiconPathTrieC1ERKNS_16CTCConfigurationEjjPNS_8PathTrieEONSt3__16vectorINS6_4pairIN3nlp11CFScopedPtrIPK9_LXCursorEEbEENS6_9allocatorISF_EEEE
00007ffa0d090a9e (__TEXT,__text) non-external (was a private external) __ZN15InputTranscoder15LexiconPathTrieC2ERKNS_16CTCConfigurationEjjPNS_8PathTrieEONSt3__16vectorINS6_4pairIN3nlp11CFScopedPtrIPK9_LXCursorEEbEENS6_9allocatorISF_EEEE
00007ffa0d091d92 (__TEXT,__text) non-external (was a private external) __ZN15InputTranscoder15LexiconPathTrieD0Ev
00007ffa0d091d68 (__TEXT,__text) non-external (was a private external) __ZN15InputTranscoder15LexiconPathTrieD1Ev
00007ffa0d0aeca8 (__TEXT,__text) non-external (was a private external) __ZN15InputTranscoder15splitAtLastWordERKNSt3__112basic_stringIcNS0_11char_traitsIcEENS0_9allocatorIcEEEE
00007ffa0d089512 (__TEXT,__text) non-external (was a private external) __ZN15InputTranscoder16LexiconContainer10addLexiconEPK10_LXLexiconNS_11LexiconTypeE
00007ffa0d089764 (__TEXT,__text) non-external (was a private external) __ZN15InputTranscoder16LexiconContainer13removeLexiconEPK10_LXLexiconNS_11LexiconTypeE
00007ffa0d089c5a (__TEXT,__text) non-external (was a private external) __ZN15InputTranscoder16LexiconContainer18isPresentInLexiconERKNSt3__112basic_stringIcNS1_11char_traitsIcEENS1_9allocatorIcEEEE
00007ffa0d089c4c (__TEXT,__text) non-external (was a private external) __ZN15InputTranscoder16LexiconContainer9setPrefixERKNSt3__112basic_stringIcNS1_11char_traitsIcEENS1_9allocatorIcEEEE
00007ffa0d0894ca (__TEXT,__text) non-external (was a private external) __ZN15InputTranscoder16LexiconContainerC1ERKNSt3__110shared_ptrIKNS_5BiMapIjNS1_12basic_stringIcNS1_11char_traitsIcEENS1_9allocatorIcEEEEEEEE
00007ffa0d08dfce (__TEXT,__text) non-external __ZN15InputTranscoder16LexiconContainerD1Ev
00007ffa0d0a2cdf (__TEXT,__text) non-external __ZN15InputTranscoder16convertToIntegerIjEET_RKNSt3__112basic_stringIcNS2_11char_traitsIcEENS2_9allocatorIcEEEE
00007ffa0d08a148 (__TEXT,__text) non-external (was a private external) __ZN15InputTranscoder17RecognizerFactory14makeRecognizerERKNS_12ModelVersionE
00007ffa0d0af24d (__TEXT,__text) non-external (was a private external) __ZN15InputTranscoder17enumerateLDAssetsEPK10__CFLocaleU13block_pointerFvPK7__CFURL17LDAssetBundleTypeS2_PK10__CFStringPbE
00007ffa0d088f35 (__TEXT,__text) non-external (was a private external) __ZN15InputTranscoder17getOptionalCFTypeIPK10__CFStringEET_PK14__CFDictionaryS3_S4_
00007ffa0d09d026 (__TEXT,__text) non-external (was a private external) __ZN15InputTranscoder17getPrunedLogProbsEPKfmdmjj
00007ffa0d0a0a66 (__TEXT,__text) non-external (was a private external) __ZN15InputTranscoder17getRequiredCFTypeIPK10__CFNumberEET_PK14__CFDictionaryPK10__CFString
00007ffa0d09f1dd (__TEXT,__text) non-external (was a private external) __ZN15InputTranscoder17getRequiredCFTypeIPK10__CFStringEET_PK14__CFDictionaryS3_
00007ffa0d0a0ba9 (__TEXT,__text) non-external (was a private external) __ZN15InputTranscoder17getRequiredCFTypeIPK11__CFBooleanEET_PK14__CFDictionaryPK10__CFString
00007ffa0d09e7c8 (__TEXT,__text) non-external (was a private external) __ZN15InputTranscoder17getRequiredCFTypeIPK14__CFDictionaryEET_S3_PK10__CFString
00007ffa0d0a08d2 (__TEXT,__text) non-external (was a private external) __ZN15InputTranscoder17getRequiredCFTypeIPK9__CFArrayEET_PK14__CFDictionaryPK10__CFString
00007ffa0d0aeb2c (__TEXT,__text) non-external (was a private external) __ZN15InputTranscoder17makeStaticLexiconERKNSt3__112basic_stringIcNS0_11char_traitsIcEENS0_9allocatorIcEEEE
00007ffa0d0aac36 (__TEXT,__text) non-external (was a private external) __ZN15InputTranscoder18KeyboardLayoutImplC1ENSt3__14spanIK9ITKeyInfoLm18446744073709551615EEERKNS1_12basic_stringIcNS1_11char_traitsIcEENS1_9allocatorIcEEEE
00007ffa0d0aad1c (__TEXT,__text) non-external (was a private external) __ZN15InputTranscoder18KeyboardLayoutImplC1ENSt3__14spanIK9ITKeyInfoLm18446744073709551615EEERKNS1_12basic_stringIcNS1_11char_traitsIcEENS1_9allocatorIcEEEEPK14__CFDictionary
00007ffa0d0a947c (__TEXT,__text) non-external (was a private external) __ZN15InputTranscoder18KeyboardLayoutImplC2ENSt3__14spanIK9ITKeyInfoLm18446744073709551615EEERKNS1_12basic_stringIcNS1_11char_traitsIcEENS1_9allocatorIcEEEE
00007ffa0d0aac40 (__TEXT,__text) non-external (was a private external) __ZN15InputTranscoder18KeyboardLayoutImplC2ENSt3__14spanIK9ITKeyInfoLm18446744073709551615EEERKNS1_12basic_stringIcNS1_11char_traitsIcEENS1_9allocatorIcEEEEPK14__CFDictionary
00007ffa0d0ad240 (__TEXT,__text) non-external (was a private external) __ZN15InputTranscoder18KeyboardLayoutImplD0Ev
00007ffa0d0ad21a (__TEXT,__text) non-external (was a private external) __ZN15InputTranscoder18KeyboardLayoutImplD1Ev
00007ffa0d0af04b (__TEXT,__text) non-external (was a private external) __ZN15InputTranscoder18stringHasSeparatorERKNSt3__112basic_stringIcNS0_11char_traitsIcEENS0_9allocatorIcEEEES8_
00007ffa0d092c9a (__TEXT,__text) non-external (was a private external) __ZN15InputTranscoder19CommonConfigurationC2ERKS0_
00007ffa0d092c58 (__TEXT,__text) non-external (was a private external) __ZN15InputTranscoder19CommonConfigurationD1Ev
00007ffa0d092784 (__TEXT,__text) non-external (was a private external) __ZN15InputTranscoder19TouchTranscoderImpl10addLexiconEPK10_LXLexicon
00007ffa0d092842 (__TEXT,__text) non-external (was a private external) __ZN15InputTranscoder19TouchTranscoderImpl13removeLexiconEPK10_LXLexicon
00007ffa0d09275a (__TEXT,__text) non-external (was a private external) __ZN15InputTranscoder19TouchTranscoderImpl20updateKeyboardLayoutENSt3__110unique_ptrINS_14KeyboardLayoutENS1_14default_deleteIS3_EEEE
00007ffa0d092924 (__TEXT,__text) non-external (was a private external) __ZN15InputTranscoder19TouchTranscoderImpl24clearNeuralNetworkBufferEv
00007ffa0d0926d8 (__TEXT,__text) non-external (was a private external) __ZN15InputTranscoder19TouchTranscoderImplC1ERKNS_23TranscoderConfigurationERKNSt3__110shared_ptrIKNS_5BiMapINS4_12basic_stringIcNS4_11char_traitsIcEENS4_9allocatorIcEEEEjEEEERKNS5_IKNS6_IjSC_EEEERKNS5_INS_18TranscoderMediatorEEE
00007ffa0d092664 (__TEXT,__text) non-external (was a private external) __ZN15InputTranscoder19TouchTranscoderImplC2ERKNS_23TranscoderConfigurationERKNSt3__110shared_ptrIKNS_5BiMapINS4_12basic_stringIcNS4_11char_traitsIcEENS4_9allocatorIcEEEEjEEEERKNS5_IKNS6_IjSC_EEEERKNS5_INS_18TranscoderMediatorEEE
00007ffa0d09e23f (__TEXT,__text) non-external __ZN15InputTranscoder19createModelMetadataEP10__CFBundlePK10__CFLocalePK10__CFString
00007ffa0d09d57e (__TEXT,__text) non-external __ZN15InputTranscoder19pair_second_greaterImdEEbRKNSt3__14pairIT_T0_EES7_
00007ffa0d091e5e (__TEXT,__text) non-external (was a private external) __ZN15InputTranscoder20CTCSurfaceFormOutputC2ERKNSt3__112basic_stringIcNS1_11char_traitsIcEENS1_9allocatorIcEEEEdbbbb
00007ffa0d09452c (__TEXT,__text) non-external __ZN15InputTranscoder20CTCSurfaceFormOutputD1Ev
00007ffa0d0886f4 (__TEXT,__text) non-external (was a private external) __ZN15InputTranscoder20DecoderConfigurationD1Ev
00007ffa0d09f5fe (__TEXT,__text) non-external (was a private external) __ZN15InputTranscoder21generateConfigurationINS_20DecoderConfigurationEEET_P10__CFBundlePK14__CFDictionary12ITTypingMode
00007ffa0d09fdf2 (__TEXT,__text) non-external (was a private external) __ZN15InputTranscoder21generateConfigurationINS_23TranscoderConfigurationEEET_P10__CFBundlePK14__CFDictionary12ITTypingMode
00007ffa0d087f18 (__TEXT,__text) non-external (was a private external) __ZN15InputTranscoder22InputDescriptorCreator6createEmm
00007ffa0d087d24 (__TEXT,__text) non-external (was a private external) __ZN15InputTranscoder22InputDescriptorCreator6createEmmmmm
00007ffa0d0a4d28 (__TEXT,__text) non-external (was a private external) __ZN15InputTranscoder22PathKeyLayoutProcessorC1ERKNSt3__110shared_ptrIKNS_5BiMapINS1_12basic_stringIcNS1_11char_traitsIcEENS1_9allocatorIcEEEEjEEEERKNS2_INS_18TranscoderMediatorEEENS_17KeyMatchingPolicyEb
00007ffa0d0a685e (__TEXT,__text) non-external (was a private external) __ZN15InputTranscoder22PathKeyLayoutProcessorD0Ev
00007ffa0d0a6830 (__TEXT,__text) non-external (was a private external) __ZN15InputTranscoder22PathKeyLayoutProcessorD1Ev
00007ffa0d0aea56 (__TEXT,__text) non-external (was a private external) __ZN15InputTranscoder22createErrorWithMessageERKNSt3__112basic_stringIcNS0_11char_traitsIcEENS0_9allocatorIcEEEE
00007ffa0d0a0f92 (__TEXT,__text) non-external __ZN15InputTranscoder23TranscoderConfigurationC2EOS0_
00007ffa0d0929e8 (__TEXT,__text) non-external (was a private external) __ZN15InputTranscoder23TranscoderConfigurationC2ERKS0_
00007ffa0d087588 (__TEXT,__text) non-external (was a private external) __ZN15InputTranscoder23TranscoderConfigurationD2Ev
00007ffa0d09e9d4 (__TEXT,__text) non-external __ZN15InputTranscoder23extractCTCConfigurationEPK14__CFDictionaryPK10__CFLocale12ITTypingMode
00007ffa0d0aedc3 (__TEXT,__text) non-external (was a private external) __ZN15InputTranscoder24removeUnwantedCharactersERKNSt3__112basic_stringIcNS0_11char_traitsIcEENS0_9allocatorIcEEEE
00007ffa0d094308 (__TEXT,__text) non-external (was a private external) __ZN15InputTranscoder26TouchTranscoderSessionImpl18textAcceptedFromUIEPK10__CFString
00007ffa0d0935c2 (__TEXT,__text) non-external (was a private external) __ZN15InputTranscoder26TouchTranscoderSessionImpl19addEventWithKeyInfoE7CGPointdd12ITTouchPhaseRK9ITKeyInfo
00007ffa0d09468a (__TEXT,__text) non-external (was a private external) __ZN15InputTranscoder26TouchTranscoderSessionImpl19enumerateCandidatesEPK14__CFDictionaryRKNSt3__18functionIFbNS4_10unique_ptrINS_13CandidateImplENS4_14default_deleteIS7_EEEEEEE
00007ffa0d0933f6 (__TEXT,__text) non-external (was a private external) __ZN15InputTranscoder26TouchTranscoderSessionImpl20setLinguisticContextEPK10__CFString
00007ffa0d094c1c (__TEXT,__text) non-external __ZN15InputTranscoder26TouchTranscoderSessionImpl23enumerateCandidatesImplEPK14__CFDictionaryRKNSt3__18functionIFbNS4_10unique_ptrINS_13CandidateImplENS4_14default_deleteIS7_EEEEEEERNS4_12basic_stringIcNS4_11char_traitsIcEENS4_9allocatorIcEEEE
00007ffa0d098d7c (__TEXT,__text) non-external (was a private external) __ZN15InputTranscoder26TouchTranscoderSessionImpl34enumerateKeyCandidatesForLastTouchERKNSt3__18functionIFbNS1_10unique_ptrINS_16KeyCandidateImplENS1_14default_deleteIS4_EEEEEEE
00007ffa0d093442 (__TEXT,__text) non-external __ZN15InputTranscoder26TouchTranscoderSessionImpl5clearEv
00007ffa0d094132 (__TEXT,__text) non-external (was a private external) __ZN15InputTranscoder26TouchTranscoderSessionImpl9setPrefixEPK10__CFString
00007ffa0d0933ec (__TEXT,__text) non-external (was a private external) __ZN15InputTranscoder26TouchTranscoderSessionImplC1ERKNS_23TranscoderConfigurationERKNSt3__110shared_ptrIKNS_5BiMapINS4_12basic_stringIcNS4_11char_traitsIcEENS4_9allocatorIcEEEEjEEEERKNS5_IKNS6_IjSC_EEEERKNS5_INS_18TranscoderMediatorEEE
00007ffa0d092fe6 (__TEXT,__text) non-external (was a private external) __ZN15InputTranscoder26TouchTranscoderSessionImplC2ERKNS_23TranscoderConfigurationERKNSt3__110shared_ptrIKNS_5BiMapINS4_12basic_stringIcNS4_11char_traitsIcEENS4_9allocatorIcEEEEjEEEERKNS5_IKNS6_IjSC_EEEERKNS5_INS_18TranscoderMediatorEEE
00007ffa0d087740 (__TEXT,__text) non-external (was a private external) __ZN15InputTranscoder26TouchTranscoderSessionImplD2Ev
00007ffa0d09e34c (__TEXT,__text) non-external __ZN15InputTranscoder26extractCommonConfigurationEPK14__CFDictionaryP10__CFBundlePK10__CFLocale12ITTypingMode
00007ffa0d089025 (__TEXT,__text) non-external (was a private external) __ZN15InputTranscoder26makeDictionaryErrorMessageERKNSt3__112basic_stringIcNS0_11char_traitsIcEENS0_9allocatorIcEEEEPK10__CFString
00007ffa0d091fd0 (__TEXT,__text) non-external (was a private external) __ZN15InputTranscoder27createInternalLanguageModelERKNSt3__112basic_stringIcNS0_11char_traitsIcEENS0_9allocatorIcEEEE
00007ffa0d09f5e6 (__TEXT,__text) non-external (was a private external) __ZN15InputTranscoder28generateDecoderConfigurationEP10__CFBundlePK14__CFDictionary12ITTypingMode
00007ffa0d09fdda (__TEXT,__text) non-external (was a private external) __ZN15InputTranscoder31generateTranscoderConfigurationEP10__CFBundlePK14__CFDictionary12ITTypingMode
00007ffa0d0ae30e (__TEXT,__text) non-external (was a private external) __ZN15InputTranscoder4Path30set_sample_is_inflection_pointEj
00007ffa0d0ae5b2 (__TEXT,__text) non-external (was a private external) __ZN15InputTranscoder4Path35set_last_sample_is_inflection_pointEv
00007ffa0d0ae0fc (__TEXT,__text) non-external (was a private external) __ZN15InputTranscoder4Path5clearEv
00007ffa0d0ae1c6 (__TEXT,__text) non-external (was a private external) __ZN15InputTranscoder4Path6appendERKNS_10PathSampleE
00007ffa0d0ae112 (__TEXT,__text) non-external (was a private external) __ZN15InputTranscoder4Path6resizeEm
00007ffa0d0998c2 (__TEXT,__text) non-external (was a private external) __ZN15InputTranscoder4PathC2ERKS0_
00007ffa0d0a84a6 (__TEXT,__text) non-external (was a private external) __ZN15InputTranscoder4PathD1Ev
00007ffa0d0af1df (__TEXT,__text) non-external (was a private external) __ZN15InputTranscoder6logAddEff
00007ffa0d09d5dd (__TEXT,__text) non-external (was a private external) __ZN15InputTranscoder6sumLogEdd
00007ffa0d0a0cec (__TEXT,__text) non-external (was a private external) __ZN15InputTranscoder7convertIfEET_PK10__CFNumber
00007ffa0d09f320 (__TEXT,__text) non-external __ZN15InputTranscoder7extractIiPK10__CFNumberEET_PK14__CFDictionaryPK10__CFString
00007ffa0d09f12f (__TEXT,__text) non-external (was a private external) __ZN15InputTranscoder7extractIjPK10__CFNumberEET_PK14__CFDictionaryPK10__CFString
00007ffa0d09f080 (__TEXT,__text) non-external __ZN15InputTranscoder7extractImPK10__CFNumberEET_PK14__CFDictionaryPK10__CFString
00007ffa0d0aeed5 (__TEXT,__text) non-external (was a private external) __ZN15InputTranscoder7toLowerERKNSt3__112basic_stringIcNS0_11char_traitsIcEENS0_9allocatorIcEEEE
00007ffa0d09e06a (__TEXT,__text) non-external (was a private external) __ZN15InputTranscoder8LMScorer10setContextERKNSt3__112basic_stringIcNS1_11char_traitsIcEENS1_9allocatorIcEEEE
00007ffa0d09deee (__TEXT,__text) non-external (was a private external) __ZN15InputTranscoder8LMScorerC1ENSt3__110unique_ptrINS_13LanguageModelENS1_14default_deleteIS3_EEEERKNS1_10shared_ptrIKNS_5BiMapIjjEEEEdd
00007ffa0d090756 (__TEXT,__text) non-external (was a private external) __ZN15InputTranscoder8PathTrie11getPathTrieEjjbfRKNS_16LexiconContainerE
00007ffa0d090910 (__TEXT,__text) non-external (was a private external) __ZN15InputTranscoder8PathTrie12iterateToVecERNSt3__16vectorIPS0_NS1_9allocatorIS3_EEEE
00007ffa0d090460 (__TEXT,__text) non-external (was a private external) __ZN15InputTranscoder8PathTrie13prefixCompareEPKS0_S2_
00007ffa0d09056c (__TEXT,__text) non-external (was a private external) __ZN15InputTranscoder8PathTrie6removeEv
00007ffa0d090482 (__TEXT,__text) non-external (was a private external) __ZN15InputTranscoder8PathTrieC1EjjPS0_
00007ffa0d090550 (__TEXT,__text) non-external (was a private external) __ZN15InputTranscoder8PathTrieD0Ev
00007ffa0d090546 (__TEXT,__text) non-external (was a private external) __ZN15InputTranscoder8PathTrieD1Ev
00007ffa0d0904e0 (__TEXT,__text) non-external __ZN15InputTranscoder8PathTrieD2Ev
00007ffa0d0a60d1 (__TEXT,__text) non-external (was a private external) __ZN15InputTranscoderL10keyIsValidERK9ITKeyInfobb
00007ffa0d09e90b (__TEXT,__text) non-external __ZN15InputTranscoderL11extractPathEPK14__CFDictionaryPK10__CFStringP10__CFBundlePK10__CFLocaleS5_
00007ffa0d0a36f0 (__TEXT,__text) non-external __ZN15InputTranscoderL11typeMatchesINSt3__112basic_stringIcNS1_11char_traitsIcEENS1_9allocatorIcEEEEEEbRKS7_
00007ffa0d0a2ca4 (__TEXT,__text) non-external __ZN15InputTranscoderL11typeMatchesIjEEbRKNSt3__112basic_stringIcNS1_11char_traitsIcEENS1_9allocatorIcEEEE
00007ffa0d0ad155 (__TEXT,__text) non-external __ZN15InputTranscoderL12toUTF8StringERKNSt3__16vectorItNS0_9allocatorItEEEE
00007ffa0d0a59a6 (__TEXT,__text) non-external __ZN15InputTranscoderL13getNearestKeyERKNS_10PathSampleERNS_14KeyboardLayoutEb
00007ffa0d0a953e (__TEXT,__text) non-external (was a private external) __ZN15InputTranscoderL14calculateFrameENSt3__14spanIK9ITKeyInfoLm18446744073709551615EEERKNS_18LayoutInfoAssortedEb
00007ffa0d09f3ce (__TEXT,__text) non-external __ZN15InputTranscoderL14extractStringsEPK14__CFDictionaryPK10__CFString
00007ffa0d09c425 (__TEXT,__text) non-external __ZN15InputTranscoderL14filterPrefixesERKNSt3__112basic_stringIcNS0_11char_traitsIcEENS0_9allocatorIcEEEERKNS0_6vectorINS0_4pairIPNS_8PathTrieENS_20CTCSurfaceFormOutputEEENS4_ISE_EEEE
00007ffa0d094124 (__TEXT,__text) non-external __ZN15InputTranscoderL14getScaledPointE7CGPointRNS_14KeyboardLayoutE
00007ffa0d099235 (__TEXT,__text) non-external __ZN15InputTranscoderL14normalizeScoreERNSt3__16vectorINS_20CTCSurfaceFormOutputENS0_9allocatorIS2_EEEERKNS_23TranscoderConfigurationE
00007ffa0d0a19dd (__TEXT,__text) non-external __ZN15InputTranscoderL15validateVersionEPK14__CFDictionary
00007ffa0d0a1854 (__TEXT,__text) non-external __ZN15InputTranscoderL16createDictionaryERKNSt3__112basic_stringIcNS0_11char_traitsIcEENS0_9allocatorIcEEEE
00007ffa0d0a8165 (__TEXT,__text) non-external (was a private external) __ZN15InputTranscoderL16getTouchUpPointsERKNS_4PathE
00007ffa0d0a8ad8 (__TEXT,__text) non-external __ZN15InputTranscoderL16logMontrealErrorERKNSt3__112basic_stringIcNS0_11char_traitsIcEENS0_9allocatorIcEEEEP9__CFError
00007ffa0d0a5f05 (__TEXT,__text) non-external (was a private external) __ZN15InputTranscoderL16map_to_key_classERKNSt3__112basic_stringIcNS0_11char_traitsIcEENS0_9allocatorIcEEEE
00007ffa0d0a5ac9 (__TEXT,__text) non-external __ZN15InputTranscoderL18getNearestKeyOrUnkERKNS_10PathSampleERNS_14KeyboardLayoutEbRKNSt3__112basic_stringIcNS5_11char_traitsIcEENS5_9allocatorIcEEEE
00007ffa0d0a6249 (__TEXT,__text) non-external (was a private external) __ZN15InputTranscoderL22transformNonLetterKeysERKNSt3__112basic_stringIcNS0_11char_traitsIcEENS0_9allocatorIcEEEE
00007ffa0d0a5d60 (__TEXT,__text) non-external __ZN15InputTranscoderL23getMostProbableMultiKeyERKNS_10PathSampleERNS_14KeyboardLayoutEb
00007ffa0d09250c (__TEXT,__text) non-external __ZN15InputTranscoderL23isSyllableLanguageModelEPK10__CFStringPK7__CFURL
00007ffa0d0a5c4f (__TEXT,__text) non-external __ZN15InputTranscoderL24getEnclosingOrNearestKeyERKNS_10PathSampleERNS_14KeyboardLayoutEb
00007ffa0d09258e (__TEXT,__text) non-external __ZN15InputTranscoderL24isCharacterLanguageModelEPK10__CFStringPK7__CFURL
00007ffa0d0a976a (__TEXT,__text) non-external (was a private external) __ZN15InputTranscoderL25getBaseLayoutInfoAssortedERKNSt3__112basic_stringIcNS0_11char_traitsIcEENS0_9allocatorIcEEEE
00007ffa0d09901e (__TEXT,__text) non-external __ZN15InputTranscoderL25keyCandidatesForLastTouchE7CGPointRNS_14KeyboardLayoutE
00007ffa0d09e2e9 (__TEXT,__text) non-external __ZN15InputTranscoderL27createLanguageAndScriptCodeEPK10__CFLocale
00007ffa0d0a671a (__TEXT,__text) non-external __ZN15InputTranscoderL30getNearestKeyWithoutValidCheckERKNS_10PathSampleERNS_14KeyboardLayoutEb
00007ffa0d099037 (__TEXT,__text) non-external __ZN15InputTranscoderL34CTCSurfaceFormOutputCompareByScoreERKNS_20CTCSurfaceFormOutputES2_
00007ffa0d09982e (__TEXT,__text) non-external __ZN15InputTranscoderL35CTCSurfaceFormOutputCompareByStringERKNS_20CTCSurfaceFormOutputES2_
00007ffa0d099785 (__TEXT,__text) non-external __ZN15InputTranscoderL42CTCSurfaceFormOutputOrderByStringThenScoreERKNS_20CTCSurfaceFormOutputES2_
00007ffa0d0945a2 (__TEXT,__text) non-external __ZN15InputTranscoderL49CTCSurfaceFormOutputOrderByCondensedFormThenScoreERKNS_20CTCSurfaceFormOutputES2_
00007ffa0d087442 (__TEXT,__text) non-external __ZN15TouchTranscoderD0Ev
00007ffa0d087416 (__TEXT,__text) non-external __ZN15TouchTranscoderD1Ev
00007ffa0d0876e6 (__TEXT,__text) non-external __ZN22TouchTranscoderSessionD0Ev
00007ffa0d0876cc (__TEXT,__text) non-external __ZN22TouchTranscoderSessionD1Ev
00007ffa0d086f90 (__TEXT,__text) non-external __ZN3nlp10CFFinalizeEPKv
00007ffa0d0890de (__TEXT,__text) non-external (was a private external) __ZN3nlp11CFScopedPtrIP10__CFBundleE5resetES2_
00007ffa0d088634 (__TEXT,__text) non-external __ZN3nlp11CFScopedPtrIP10__CFBundleE7acquireES2_
00007ffa0d086bb6 (__TEXT,__text) non-external (was a private external) __ZN3nlp11CFScopedPtrIP14__CFDictionaryE5resetES2_
00007ffa0d086bec (__TEXT,__text) non-external (was a private external) __ZN3nlp11CFScopedPtrIP14__CFReadStreamE5resetES2_
00007ffa0d0879ec (__TEXT,__text) non-external (was a private external) __ZN3nlp11CFScopedPtrIP21MontrealNeuralNetworkE5resetES2_
00007ffa0d0a9008 (__TEXT,__text) non-external __ZN3nlp11CFScopedPtrIP27MontrealNeuralNetworkTensorE5resetES2_
00007ffa0d0a2c3a (__TEXT,__text) non-external (was a private external) __ZN3nlp11CFScopedPtrIP9__CFErrorE5resetES2_
00007ffa0d087ad4 (__TEXT,__text) non-external (was a private external) __ZN3nlp11CFScopedPtrIPK10_LXLexiconE5resetES3_
00007ffa0d08daaa (__TEXT,__text) non-external (was a private external) __ZN3nlp11CFScopedPtrIPK10__CFLocaleE5resetES3_
00007ffa0d08800c (__TEXT,__text) non-external (was a private external) __ZN3nlp11CFScopedPtrIPK10__CFNumberE5resetES3_
00007ffa0d086d10 (__TEXT,__text) non-external (was a private external) __ZN3nlp11CFScopedPtrIPK10__CFStringE5resetES3_
00007ffa0d086d3a (__TEXT,__text) non-external (was a private external) __ZN3nlp11CFScopedPtrIPK14__CFDictionaryE5resetES3_
00007ffa0d08da80 (__TEXT,__text) non-external (was a private external) __ZN3nlp11CFScopedPtrIPK7__CFURLE5resetES3_
00007ffa0d08da4a (__TEXT,__text) non-external (was a private external) __ZN3nlp11CFScopedPtrIPK7__CFURLE7acquireES3_
00007ffa0d08a11e (__TEXT,__text) non-external (was a private external) __ZN3nlp11CFScopedPtrIPK9_LXCursorE5resetES3_
00007ffa0d086788 (__TEXT,__text) non-external (was a private external) __ZN3nlp13temporaryFileERKNSt3__112basic_stringIcNS0_11char_traitsIcEENS0_9allocatorIcEEEE
00007ffa0d086988 (__TEXT,__text) non-external (was a private external) __ZN3nlp17localeHasLanguageEPK10__CFLocalePK10__CFString
00007ffa0d086968 (__TEXT,__text) non-external (was a private external) __ZN3nlp20createSystemRootPathEv
00007ffa0d08612e (__TEXT,__text) non-external (was a private external) __ZN3nlp24createCFStringFromStringERKNSt3__112basic_stringIcNS0_11char_traitsIcEENS0_9allocatorIcEEEE
00007ffa0d088e1a (__TEXT,__text) non-external (was a private external) __ZN3nlp25ResourceCreationExceptionC2ERKNSt3__112basic_stringIcNS1_11char_traitsIcEENS1_9allocatorIcEEEE
00007ffa0d0a2a48 (__TEXT,__text) non-external (was a private external) __ZN3nlp25ResourceCreationExceptionC2ERKNSt3__112basic_stringIcNS1_11char_traitsIcEENS1_9allocatorIcEEEEP9__CFError
00007ffa0d088e70 (__TEXT,__text) non-external (was a private external) __ZN3nlp25ResourceCreationExceptionD0Ev
00007ffa0d0886c0 (__TEXT,__text) non-external (was a private external) __ZN3nlp25ResourceCreationExceptionD1Ev
00007ffa0d086080 (__TEXT,__text) non-external (was a private external) __ZN3nlp25getUTF8StringFromCFStringEPK10__CFString
00007ffa0d086178 (__TEXT,__text) non-external (was a private external) __ZN3nlp29enumerateUTF32CharsInCFStringEPK10__CFString7CFRangeU13block_pointerFvjPbE
00007ffa0d08654b (__TEXT,__text) non-external (was a private external) __ZN3nlp30writeContentsOfDictionaryToURLEPK14__CFDictionaryPK7__CFURL20CFPropertyListFormatbPP9__CFError
00007ffa0d0869ba (__TEXT,__text) non-external (was a private external) __ZN3nlp31createLocaleWithNewLanguageCodeEPK10__CFLocalePK10__CFString
00007ffa0d08639e (__TEXT,__text) non-external (was a private external) __ZN3nlp31enumerateUTF32CharsInUTF8StringEPKcU13block_pointerFvjPbE
00007ffa0d086812 (__TEXT,__text) non-external (was a private external) __ZN3nlp33createDictionaryWithContentsOfURLEPK7__CFURLPP9__CFError
00007ffa0d0864e5 (__TEXT,__text) non-external (was a private external) __ZN3nlp36getFileSystemRepresentationFromCFURLEPK7__CFURL
00007ffa0d086956 (__TEXT,__text) non-external (was a private external) __ZN3nlp40createMutableDictionaryWithContentsOfURLEPK7__CFURLPP9__CFError
00007ffa0d086aa6 (__TEXT,__text) non-external __ZN3nlpL28createErrorWithMessageAndURLEPK10__CFStringPK7__CFURL
00007ffa0d086821 (__TEXT,__text) non-external __ZN3nlpL33createDictionaryWithContentsOfURLEPK7__CFURLbPP9__CFError
00007ffa0d0878d0 (__TEXT,__text) non-external __ZN7DecoderD0Ev
00007ffa0d0878b6 (__TEXT,__text) non-external __ZN7DecoderD1Ev
00007ffa0d0872aa (__TEXT,__text) non-external __ZN9CandidateD0Ev
00007ffa0d087256 (__TEXT,__text) non-external __ZN9CandidateD1Ev
00007ffa0d08e010 (__TEXT,__text) non-external __ZNK15InputTranscoder10CTCDecoder12makeTrieRootEv
00007ffa0d08e1ea (__TEXT,__text) non-external __ZNK15InputTranscoder10CTCDecoder18forwardOneTimeStepEPKfmmmRNSt3__16vectorIPNS_8PathTrieENS3_9allocatorIS6_EEEE
00007ffa0d08ec20 (__TEXT,__text) non-external (was a private external) __ZNK15InputTranscoder10CTCDecoder6decodeEPKfmm
00007ffa0d08e77c (__TEXT,__text) non-external (was a private external) __ZNK15InputTranscoder10CTCDecoder6decodeEPKfmmNSt3__18functionIFvPNS_8PathTrieERNS3_6vectorINS3_4pairIS6_NS_20CTCSurfaceFormOutputEEENS3_9allocatorISA_EEEERbEEENS4_IFSD_RKSD_EEENS4_IFvRKSA_EEE
00007ffa0d0ade9a (__TEXT,__text) non-external (was a private external) __ZNK15InputTranscoder10PathSample4lerpEfRKS0_
00007ffa0d0a2804 (__TEXT,__text) non-external __ZNK15InputTranscoder10PlistBiMapINSt3__112basic_stringIcNS1_11char_traitsIcEENS1_9allocatorIcEEEEjE10reverseMapERKj
00007ffa0d0a27c4 (__TEXT,__text) non-external __ZNK15InputTranscoder10PlistBiMapINSt3__112basic_stringIcNS1_11char_traitsIcEENS1_9allocatorIcEEEEjE10unknownKeyEv
00007ffa0d0a27ce (__TEXT,__text) non-external __ZNK15InputTranscoder10PlistBiMapINSt3__112basic_stringIcNS1_11char_traitsIcEENS1_9allocatorIcEEEEjE12unknownValueEv
00007ffa0d0a27d8 (__TEXT,__text) non-external __ZNK15InputTranscoder10PlistBiMapINSt3__112basic_stringIcNS1_11char_traitsIcEENS1_9allocatorIcEEEEjEixERKS7_
00007ffa0d0a2190 (__TEXT,__text) non-external __ZNK15InputTranscoder10PlistBiMapIjNSt3__112basic_stringIcNS1_11char_traitsIcEENS1_9allocatorIcEEEEE10reverseMapERKS7_
00007ffa0d0a214e (__TEXT,__text) non-external __ZNK15InputTranscoder10PlistBiMapIjNSt3__112basic_stringIcNS1_11char_traitsIcEENS1_9allocatorIcEEEEE10unknownKeyEv
00007ffa0d0a2158 (__TEXT,__text) non-external __ZNK15InputTranscoder10PlistBiMapIjNSt3__112basic_stringIcNS1_11char_traitsIcEENS1_9allocatorIcEEEEE12unknownValueEv
00007ffa0d0a2162 (__TEXT,__text) non-external __ZNK15InputTranscoder10PlistBiMapIjNSt3__112basic_stringIcNS1_11char_traitsIcEENS1_9allocatorIcEEEEEixERKj
00007ffa0d0a1afc (__TEXT,__text) non-external __ZNK15InputTranscoder10PlistBiMapIjjE10reverseMapERKj
00007ffa0d0a1aba (__TEXT,__text) non-external __ZNK15InputTranscoder10PlistBiMapIjjE10unknownKeyEv
00007ffa0d0a1ac4 (__TEXT,__text) non-external __ZNK15InputTranscoder10PlistBiMapIjjE12unknownValueEv
00007ffa0d0a1ace (__TEXT,__text) non-external __ZNK15InputTranscoder10PlistBiMapIjjEixERKj
00007ffa0d0a9188 (__TEXT,__text) non-external (was a private external) __ZNK15InputTranscoder11DecoderImpl19enumerateCandidatesENSt3__14spanIKjLm18446744073709551615EEEPK14__CFDictionaryNS1_8functionIFvNS1_10unique_ptrINS_13CandidateImplENS1_14default_deleteISA_EEEERbEEE
00007ffa0d0a4ad8 (__TEXT,__text) non-external (was a private external) __ZNK15InputTranscoder13CandidateImpl8toStringEv
00007ffa0d092656 (__TEXT,__text) non-external (was a private external) __ZNK15InputTranscoder13LanguageModel22conditionalProbabilityEjNSt3__14spanIKjLm18446744073709551615EEE
00007ffa0d0a8706 (__TEXT,__text) non-external (was a private external) __ZNK15InputTranscoder13MontrealModel10outputSizeEv
00007ffa0d0a8bf4 (__TEXT,__text) non-external (was a private external) __ZNK15InputTranscoder13MontrealModel9recognizeENSt3__14spanIKfLm18446744073709551615EEEPK14__CFDictionarym
00007ffa0d0a8726 (__TEXT,__text) non-external (was a private external) __ZNK15InputTranscoder13MontrealModel9recognizeENSt3__14spanIKjLm18446744073709551615EEE
00007ffa0d0a7be6 (__TEXT,__text) non-external (was a private external) __ZNK15InputTranscoder13PathResampler17create_new_sampleE7CGPointdd12ITTouchPhased
00007ffa0d0a7dc6 (__TEXT,__text) non-external (was a private external) __ZNK15InputTranscoder13PathResampler19getInflectionPointsEv
00007ffa0d0a83e0 (__TEXT,__text) non-external (was a private external) __ZNK15InputTranscoder13PathResampler19getRawTouchUpPointsEv
00007ffa0d0a74e8 (__TEXT,__text) non-external __ZNK15InputTranscoder13PathResampler19is_inflection_pointEj
00007ffa0d086d64 (__TEXT,__text) non-external (was a private external) __ZNK15InputTranscoder13RNNRecognizer9recognizeERKNS_14InputProcessorERNS_18TranscoderMediatorE
00007ffa0d08befa (__TEXT,__text) non-external (was a private external) __ZNK15InputTranscoder14CRNNRecognizer9recognizeERKNS_14InputProcessorERNS_18TranscoderMediatorE
00007ffa0d08adb2 (__TEXT,__text) non-external (was a private external) __ZNK15InputTranscoder14InputProcessor11coordinatesEv
00007ffa0d08b134 (__TEXT,__text) non-external (was a private external) __ZNK15InputTranscoder14InputProcessor14tokenIdsLengthEv
00007ffa0d08b11e (__TEXT,__text) non-external (was a private external) __ZNK15InputTranscoder14InputProcessor17coordinatesLengthEv
00007ffa0d08adbc (__TEXT,__text) non-external (was a private external) __ZNK15InputTranscoder14InputProcessor17flattenedFeaturesEv
00007ffa0d08b146 (__TEXT,__text) non-external (was a private external) __ZNK15InputTranscoder14InputProcessor17inputFeatureWidthEv
00007ffa0d08b15c (__TEXT,__text) non-external (was a private external) __ZNK15InputTranscoder14InputProcessor18inputFeatureLengthEv
00007ffa0d08ada8 (__TEXT,__text) non-external (was a private external) __ZNK15InputTranscoder14InputProcessor6tokensEv
00007ffa0d08c148 (__TEXT,__text) non-external (was a private external) __ZNK15InputTranscoder14LRNNRecognizer9recognizeERKNS_14InputProcessorERNS_18TranscoderMediatorE
00007ffa0d091ac8 (__TEXT,__text) non-external (was a private external) __ZNK15InputTranscoder15LexiconPathTrie11isValidWordEv
00007ffa0d090f04 (__TEXT,__text) non-external (was a private external) __ZNK15InputTranscoder15LexiconPathTrie20getPrefixCompletionsERNSt3__16vectorINS_20CTCSurfaceFormOutputENS1_9allocatorIS3_EEEERKNS1_12basic_stringIcNS1_11char_traitsIcEENS4_IcEEEE
00007ffa0d091dc4 (__TEXT,__text) non-external (was a private external) __ZNK15InputTranscoder15LexiconPathTrie23getDynamicLexiconWeightEv
00007ffa0d091d22 (__TEXT,__text) non-external (was a private external) __ZNK15InputTranscoder15LexiconPathTrie27getLexiconPrefixProbabilityEv
00007ffa0d091b3a (__TEXT,__text) non-external (was a private external) __ZNK15InputTranscoder15LexiconPathTrie32getLexiconConditionalProbabilityEv
00007ffa0d091c2e (__TEXT,__text) non-external (was a private external) __ZNK15InputTranscoder15LexiconPathTrie32getLexiconTerminationProbabilityEv
00007ffa0d091b06 (__TEXT,__text) non-external (was a private external) __ZNK15InputTranscoder15LexiconPathTrie33containsOnlyDynamicLexiconCursorsEv
00007ffa0d08980c (__TEXT,__text) non-external (was a private external) __ZNK15InputTranscoder16LexiconContainer17createRootCursorsEv
00007ffa0d089c0a (__TEXT,__text) non-external (was a private external) __ZNK15InputTranscoder16LexiconContainer20createAdvancedCursorEPK9_LXCursorj
00007ffa0d089500 (__TEXT,__text) non-external (was a private external) __ZNK15InputTranscoder16LexiconContainer5emptyEv
00007ffa0d0abb64 (__TEXT,__text) non-external __ZNK15InputTranscoder18KeyboardLayoutImpl11getCentroidEt
00007ffa0d0ab258 (__TEXT,__text) non-external (was a private external) __ZNK15InputTranscoder18KeyboardLayoutImpl12enclosingKeyE7CGPoint
00007ffa0d0abbbe (__TEXT,__text) non-external __ZNK15InputTranscoder18KeyboardLayoutImpl12getSpaceCostERKtS2_
00007ffa0d0abcee (__TEXT,__text) non-external __ZNK15InputTranscoder18KeyboardLayoutImpl14getKeyDistanceERKtS2_
00007ffa0d0aba80 (__TEXT,__text) non-external (was a private external) __ZNK15InputTranscoder18KeyboardLayoutImpl14getScaledPointE7CGPoint
00007ffa0d0abe0a (__TEXT,__text) non-external __ZNK15InputTranscoder18KeyboardLayoutImpl15getDeletionCostEPK10__CFStringj
00007ffa0d0abeb0 (__TEXT,__text) non-external (was a private external) __ZNK15InputTranscoder18KeyboardLayoutImpl15getEditDistanceERKNSt3__112basic_stringIcNS1_11char_traitsIcEENS1_9allocatorIcEEEES9_
00007ffa0d0acc66 (__TEXT,__text) non-external (was a private external) __ZNK15InputTranscoder18KeyboardLayoutImpl16getCondensedPathERKNSt3__112basic_stringIcNS1_11char_traitsIcEENS1_9allocatorIcEEEE
00007ffa0d0abc40 (__TEXT,__text) non-external __ZNK15InputTranscoder18KeyboardLayoutImpl16getInsertionCostEPK10__CFStringS3_jj
00007ffa0d0ad1b6 (__TEXT,__text) non-external (was a private external) __ZNK15InputTranscoder18KeyboardLayoutImpl18getDistanceFromKeyE7CGPointRK9ITKeyInfo
00007ffa0d0abd5c (__TEXT,__text) non-external __ZNK15InputTranscoder18KeyboardLayoutImpl19getSubstitutionCostEPK10__CFStringS3_jj
00007ffa0d0aad26 (__TEXT,__text) non-external (was a private external) __ZNK15InputTranscoder18KeyboardLayoutImpl20enumerateNearestKeysE7CGPointU13block_pointerFv9ITKeyInfoPbE
00007ffa0d0abb1a (__TEXT,__text) non-external (was a private external) __ZNK15InputTranscoder18KeyboardLayoutImpl21normalizePointToRangeE7CGPointNSt3__14pairIffEE
00007ffa0d0ad274 (__TEXT,__text) non-external (was a private external) __ZNK15InputTranscoder18KeyboardLayoutImpl25isCurrentLayoutAlphabeticEv
00007ffa0d0ab36e (__TEXT,__text) non-external (was a private external) __ZNK15InputTranscoder18KeyboardLayoutImpl25keyCandidatesForLastTouchE7CGPoint
00007ffa0d0ac46a (__TEXT,__text) non-external (was a private external) __ZNK15InputTranscoder18KeyboardLayoutImpl27getAutocorrectionOperationsERKNSt3__112basic_stringIcNS1_11char_traitsIcEENS1_9allocatorIcEEEES9_
00007ffa0d0926e2 (__TEXT,__text) non-external (was a private external) __ZNK15InputTranscoder19TouchTranscoderImpl11makeSessionEv
00007ffa0d0929d8 (__TEXT,__text) non-external (was a private external) __ZNK15InputTranscoder19TouchTranscoderImpl28providesCompletionCandidatesEv
00007ffa0d09d650 (__TEXT,__text) non-external (was a private external) __ZNK15InputTranscoder20CTCSurfaceFormOutput8toStringEv
00007ffa0d0a5994 (__TEXT,__text) non-external (was a private external) __ZNK15InputTranscoder22PathKeyLayoutProcessor13char_to_tokenENSt3__112basic_stringIcNS1_11char_traitsIcEENS1_9allocatorIcEEEE
00007ffa0d0a55c2 (__TEXT,__text) non-external (was a private external) __ZNK15InputTranscoder22PathKeyLayoutProcessor16keystr_for_touchERKNS_10PathSampleE
00007ffa0d0a6538 (__TEXT,__text) non-external (was a private external) __ZNK15InputTranscoder22PathKeyLayoutProcessor19getInflectionStringERKNSt3__16vectorINS_10PathSampleENS1_9allocatorIS3_EEEE
00007ffa0d0a5ec4 (__TEXT,__text) non-external (was a private external) __ZNK15InputTranscoder22PathKeyLayoutProcessor19key_class_for_touchERKNS_10PathSampleE
00007ffa0d0a52a2 (__TEXT,__text) non-external (was a private external) __ZNK15InputTranscoder22PathKeyLayoutProcessor21input_stream_for_pathERKNS_4PathE
00007ffa0d0a4ff2 (__TEXT,__text) non-external (was a private external) __ZNK15InputTranscoder22PathKeyLayoutProcessor21input_stream_for_pathERKNS_4PathEbjb
00007ffa0d0a5f86 (__TEXT,__text) non-external (was a private external) __ZNK15InputTranscoder22PathKeyLayoutProcessor23key_class_for_touch_keyERK9ITKeyInfo
00007ffa0d0a4d6a (__TEXT,__text) non-external (was a private external) __ZNK15InputTranscoder22PathKeyLayoutProcessor29input_feature_stream_for_pathERKNS_4PathEbjbj
00007ffa0d093518 (__TEXT,__text) non-external __ZNK15InputTranscoder26TouchTranscoderSessionImpl16typingModeStringEv
00007ffa0d098bac (__TEXT,__text) non-external __ZNK15InputTranscoder26TouchTranscoderSessionImpl29extractCompletionsAndPrefixesERNSt3__16vectorINS_20CTCSurfaceFormOutputENS1_9allocatorIS3_EEEES7_RKNS1_4pairIPNS_8PathTrieES3_EE
00007ffa0d097f4a (__TEXT,__text) non-external __ZNK15InputTranscoder26TouchTranscoderSessionImpl34extractCandidatesAndSavePrefixInfoERNSt3__16vectorINS_20CTCSurfaceFormOutputENS1_9allocatorIS3_EEEERjS8_PK14__CFDictionaryPNS_8PathTrieERNS2_INS1_4pairISD_S3_EENS4_ISF_EEEERb
00007ffa0d0adfd0 (__TEXT,__text) non-external (was a private external) __ZNK15InputTranscoder4Path10turn_angleEj
00007ffa0d0ae5dc (__TEXT,__text) non-external (was a private external) __ZNK15InputTranscoder4Path12is_local_maxEjdNSt3__18functionIFdjEEE
00007ffa0d0adfbe (__TEXT,__text) non-external (was a private external) __ZNK15InputTranscoder4Path19is_inflection_pointEj
00007ffa0d0adf26 (__TEXT,__text) non-external (was a private external) __ZNK15InputTranscoder4Path22inflection_point_countEjj
00007ffa0d0ae776 (__TEXT,__text) non-external (was a private external) __ZNK15InputTranscoder4Path22is_curvature_local_maxEjd
00007ffa0d0ae702 (__TEXT,__text) non-external (was a private external) __ZNK15InputTranscoder4Path9curvatureEj
00007ffa0d09e050 (__TEXT,__text) non-external (was a private external) __ZNK15InputTranscoder8LMScorer22conditionalProbabilityEjNSt3__14spanIKjLm18446744073709551615EEE
00007ffa0d09df30 (__TEXT,__text) non-external (was a private external) __ZNK15InputTranscoder8LMScorer9fillNgramEPNS_8PathTrieENSt3__14spanIjLm18446744073709551615EEE
00007ffa0d091d50 (__TEXT,__text) non-external (was a private external) __ZNK15InputTranscoder8PathTrie11isValidWordEv
00007ffa0d091d62 (__TEXT,__text) non-external (was a private external) __ZNK15InputTranscoder8PathTrie20getPrefixCompletionsERNSt3__16vectorINS_20CTCSurfaceFormOutputENS1_9allocatorIS3_EEEERKNS1_12basic_stringIcNS1_11char_traitsIcEENS4_IcEEEE
00007ffa0d091d58 (__TEXT,__text) non-external (was a private external) __ZNK15InputTranscoder8PathTrie23getDynamicLexiconWeightEv
00007ffa0d091d58 (__TEXT,__text) non-external (was a private external) __ZNK15InputTranscoder8PathTrie27getLexiconPrefixProbabilityEv
00007ffa0d091d58 (__TEXT,__text) non-external (was a private external) __ZNK15InputTranscoder8PathTrie32getLexiconConditionalProbabilityEv
00007ffa0d091d58 (__TEXT,__text) non-external (was a private external) __ZNK15InputTranscoder8PathTrie32getLexiconTerminationProbabilityEv
00007ffa0d091d50 (__TEXT,__text) non-external (was a private external) __ZNK15InputTranscoder8PathTrie33containsOnlyDynamicLexiconCursorsEv
00007ffa0d09060e (__TEXT,__text) non-external (was a private external) __ZNK15InputTranscoder8PathTrie7getPathERNSt3__16vectorIjNS1_9allocatorIjEEEE
00007ffa0d088eac (__TEXT,__text) non-external (was a private external) __ZNK3nlp25ResourceCreationException4whatEv
00007ffa0d087314 (__TEXT,__text) non-external __ZNK3nlp6CFType13CopyDebugDescEv
00007ffa0d08730c (__TEXT,__text) non-external __ZNK3nlp6CFType18CopyFormattingDescEPK14__CFDictionary
00007ffa0d087304 (__TEXT,__text) non-external __ZNK3nlp6CFType4HashEv
00007ffa0d0872fc (__TEXT,__text) non-external __ZNK3nlp6CFType5EqualEPKS0_
00007ffa0d09cc5e (__TEXT,__text) non-external __ZNKSt3__110__function6__funcINS_6__bindIMN15InputTranscoder26TouchTranscoderSessionImplEKFvRNS_6vectorINS3_20CTCSurfaceFormOutputENS_9allocatorIS6_EEEERjSB_PK14__CFDictionaryPNS3_8PathTrieERNS5_INS_4pairISG_S6_EENS7_ISI_EEEERbEJPS4_NS_17reference_wrapperIS9_EENSQ_IjEESS_RSE_RKNS_12placeholders4__phILi1EEERKNSV_ILi2EEERKNSV_ILi3EEEEEENS7_IS15_EEFvSG_SL_SM_EE11target_typeEv
00007ffa0d09cc42 (__TEXT,__text) non-external __ZNKSt3__110__function6__funcINS_6__bindIMN15InputTranscoder26TouchTranscoderSessionImplEKFvRNS_6vectorINS3_20CTCSurfaceFormOutputENS_9allocatorIS6_EEEERjSB_PK14__CFDictionaryPNS3_8PathTrieERNS5_INS_4pairISG_S6_EENS7_ISI_EEEERbEJPS4_NS_17reference_wrapperIS9_EENSQ_IjEESS_RSE_RKNS_12placeholders4__phILi1EEERKNSV_ILi2EEERKNSV_ILi3EEEEEENS7_IS15_EEFvSG_SL_SM_EE6targetERKSt9type_info
00007ffa0d09cbba (__TEXT,__text) non-external __ZNKSt3__110__function6__funcINS_6__bindIMN15InputTranscoder26TouchTranscoderSessionImplEKFvRNS_6vectorINS3_20CTCSurfaceFormOutputENS_9allocatorIS6_EEEERjSB_PK14__CFDictionaryPNS3_8PathTrieERNS5_INS_4pairISG_S6_EENS7_ISI_EEEERbEJPS4_NS_17reference_wrapperIS9_EENSQ_IjEESS_RSE_RKNS_12placeholders4__phILi1EEERKNSV_ILi2EEERKNSV_ILi3EEEEEENS7_IS15_EEFvSG_SL_SM_EE7__cloneEPNS0_6__baseIS17_EE
00007ffa0d09cb76 (__TEXT,__text) non-external __ZNKSt3__110__function6__funcINS_6__bindIMN15InputTranscoder26TouchTranscoderSessionImplEKFvRNS_6vectorINS3_20CTCSurfaceFormOutputENS_9allocatorIS6_EEEERjSB_PK14__CFDictionaryPNS3_8PathTrieERNS5_INS_4pairISG_S6_EENS7_ISI_EEEERbEJPS4_NS_17reference_wrapperIS9_EENSQ_IjEESS_RSE_RKNS_12placeholders4__phILi1EEERKNSV_ILi2EEERKNSV_ILi3EEEEEENS7_IS15_EEFvSG_SL_SM_EE7__cloneEv
00007ffa0d09ceb0 (__TEXT,__text) non-external __ZNKSt3__110__function6__funcINS_6__bindIMN15InputTranscoder26TouchTranscoderSessionImplEKFvRNS_6vectorINS3_20CTCSurfaceFormOutputENS_9allocatorIS6_EEEESA_RKNS_4pairIPNS3_8PathTrieES6_EEEJPS4_NS_17reference_wrapperIS9_EESL_RKNS_12placeholders4__phILi1EEEEEENS7_ISR_EEFvSG_EE11target_typeEv
00007ffa0d09ce94 (__TEXT,__text) non-external __ZNKSt3__110__function6__funcINS_6__bindIMN15InputTranscoder26TouchTranscoderSessionImplEKFvRNS_6vectorINS3_20CTCSurfaceFormOutputENS_9allocatorIS6_EEEESA_RKNS_4pairIPNS3_8PathTrieES6_EEEJPS4_NS_17reference_wrapperIS9_EESL_RKNS_12placeholders4__phILi1EEEEEENS7_ISR_EEFvSG_EE6targetERKSt9type_info
00007ffa0d09ce2c (__TEXT,__text) non-external __ZNKSt3__110__function6__funcINS_6__bindIMN15InputTranscoder26TouchTranscoderSessionImplEKFvRNS_6vectorINS3_20CTCSurfaceFormOutputENS_9allocatorIS6_EEEESA_RKNS_4pairIPNS3_8PathTrieES6_EEEJPS4_NS_17reference_wrapperIS9_EESL_RKNS_12placeholders4__phILi1EEEEEENS7_ISR_EEFvSG_EE7__cloneEPNS0_6__baseIST_EE
00007ffa0d09cdf0 (__TEXT,__text) non-external __ZNKSt3__110__function6__funcINS_6__bindIMN15InputTranscoder26TouchTranscoderSessionImplEKFvRNS_6vectorINS3_20CTCSurfaceFormOutputENS_9allocatorIS6_EEEESA_RKNS_4pairIPNS3_8PathTrieES6_EEEJPS4_NS_17reference_wrapperIS9_EESL_RKNS_12placeholders4__phILi1EEEEEENS7_ISR_EEFvSG_EE7__cloneEv
00007ffa0d09cd9c (__TEXT,__text) non-external __ZNKSt3__110__function6__funcINS_6__bindIPFNS_6vectorINS_4pairIPN15InputTranscoder8PathTrieENS5_20CTCSurfaceFormOutputEEENS_9allocatorIS9_EEEERKNS_12basic_stringIcNS_11char_traitsIcEENSA_IcEEEERKSC_EJSJ_RKNS_12placeholders4__phILi1EEEEEENSA_IST_EEFSC_SL_EE11target_typeEv
00007ffa0d09cd80 (__TEXT,__text) non-external __ZNKSt3__110__function6__funcINS_6__bindIPFNS_6vectorINS_4pairIPN15InputTranscoder8PathTrieENS5_20CTCSurfaceFormOutputEEENS_9allocatorIS9_EEEERKNS_12basic_stringIcNS_11char_traitsIcEENSA_IcEEEERKSC_EJSJ_RKNS_12placeholders4__phILi1EEEEEENSA_IST_EEFSC_SL_EE6targetERKSt9type_info
00007ffa0d09cd06 (__TEXT,__text) non-external __ZNKSt3__110__function6__funcINS_6__bindIPFNS_6vectorINS_4pairIPN15InputTranscoder8PathTrieENS5_20CTCSurfaceFormOutputEEENS_9allocatorIS9_EEEERKNS_12basic_stringIcNS_11char_traitsIcEENSA_IcEEEERKSC_EJSJ_RKNS_12placeholders4__phILi1EEEEEENSA_IST_EEFSC_SL_EE7__cloneEPNS0_6__baseISV_EE
00007ffa0d09ccbc (__TEXT,__text) non-external __ZNKSt3__110__function6__funcINS_6__bindIPFNS_6vectorINS_4pairIPN15InputTranscoder8PathTrieENS5_20CTCSurfaceFormOutputEEENS_9allocatorIS9_EEEERKNS_12basic_stringIcNS_11char_traitsIcEENSA_IcEEEERKSC_EJSJ_RKNS_12placeholders4__phILi1EEEEEENSA_IST_EEFSC_SL_EE7__cloneEv
00007ffa0d09b730 (__TEXT,__text) non-external __ZNKSt3__110__function6__funcINS_6__bindIRF7CGPointS3_RN15InputTranscoder14KeyboardLayoutEEJRS3_RKNS_12placeholders4__phILi1EEEEEENS_9allocatorISF_EEFS3_S6_EE11target_typeEv
00007ffa0d09b714 (__TEXT,__text) non-external __ZNKSt3__110__function6__funcINS_6__bindIRF7CGPointS3_RN15InputTranscoder14KeyboardLayoutEEJRS3_RKNS_12placeholders4__phILi1EEEEEENS_9allocatorISF_EEFS3_S6_EE6targetERKSt9type_info
00007ffa0d09b6cc (__TEXT,__text) non-external __ZNKSt3__110__function6__funcINS_6__bindIRF7CGPointS3_RN15InputTranscoder14KeyboardLayoutEEJRS3_RKNS_12placeholders4__phILi1EEEEEENS_9allocatorISF_EEFS3_S6_EE7__cloneEPNS0_6__baseISI_EE
00007ffa0d09b698 (__TEXT,__text) non-external __ZNKSt3__110__function6__funcINS_6__bindIRF7CGPointS3_RN15InputTranscoder14KeyboardLayoutEEJRS3_RKNS_12placeholders4__phILi1EEEEEENS_9allocatorISF_EEFS3_S6_EE7__cloneEv
00007ffa0d0a7184 (__TEXT,__text) non-external __ZNKSt3__110__function6__funcINS_6__bindIRFNS_12basic_stringIcNS_11char_traitsIcEENS_9allocatorIcEEEERKN15InputTranscoder10PathSampleERNS9_14KeyboardLayoutEbEJSC_RKNS_12placeholders4__phILi1EEERKbEEENS6_ISO_EEFS8_SE_EE11target_typeEv
00007ffa0d0a7168 (__TEXT,__text) non-external __ZNKSt3__110__function6__funcINS_6__bindIRFNS_12basic_stringIcNS_11char_traitsIcEENS_9allocatorIcEEEERKN15InputTranscoder10PathSampleERNS9_14KeyboardLayoutEbEJSC_RKNS_12placeholders4__phILi1EEERKbEEENS6_ISO_EEFS8_SE_EE6targetERKSt9type_info
00007ffa0d0a70fe (__TEXT,__text) non-external __ZNKSt3__110__function6__funcINS_6__bindIRFNS_12basic_stringIcNS_11char_traitsIcEENS_9allocatorIcEEEERKN15InputTranscoder10PathSampleERNS9_14KeyboardLayoutEbEJSC_RKNS_12placeholders4__phILi1EEERKbEEENS6_ISO_EEFS8_SE_EE7__cloneEPNS0_6__baseISQ_EE
00007ffa0d0a70b2 (__TEXT,__text) non-external __ZNKSt3__110__function6__funcINS_6__bindIRFNS_12basic_stringIcNS_11char_traitsIcEENS_9allocatorIcEEEERKN15InputTranscoder10PathSampleERNS9_14KeyboardLayoutEbEJSC_RKNS_12placeholders4__phILi1EEERKbEEENS6_ISO_EEFS8_SE_EE7__cloneEv
00007ffa0d0a74a2 (__TEXT,__text) non-external __ZNKSt3__110__function6__funcINS_6__bindIRFNS_12basic_stringIcNS_11char_traitsIcEENS_9allocatorIcEEEERKN15InputTranscoder10PathSampleERNS9_14KeyboardLayoutEbEJSC_RKNS_12placeholders4__phILi1EEEbEEENS6_ISM_EEFS8_SE_EE11target_typeEv
00007ffa0d0a7486 (__TEXT,__text) non-external __ZNKSt3__110__function6__funcINS_6__bindIRFNS_12basic_stringIcNS_11char_traitsIcEENS_9allocatorIcEEEERKN15InputTranscoder10PathSampleERNS9_14KeyboardLayoutEbEJSC_RKNS_12placeholders4__phILi1EEEbEEENS6_ISM_EEFS8_SE_EE6targetERKSt9type_info
00007ffa0d0a741c (__TEXT,__text) non-external __ZNKSt3__110__function6__funcINS_6__bindIRFNS_12basic_stringIcNS_11char_traitsIcEENS_9allocatorIcEEEERKN15InputTranscoder10PathSampleERNS9_14KeyboardLayoutEbEJSC_RKNS_12placeholders4__phILi1EEEbEEENS6_ISM_EEFS8_SE_EE7__cloneEPNS0_6__baseISO_EE
00007ffa0d0a73d0 (__TEXT,__text) non-external __ZNKSt3__110__function6__funcINS_6__bindIRFNS_12basic_stringIcNS_11char_traitsIcEENS_9allocatorIcEEEERKN15InputTranscoder10PathSampleERNS9_14KeyboardLayoutEbEJSC_RKNS_12placeholders4__phILi1EEEbEEENS6_ISM_EEFS8_SE_EE7__cloneEv
00007ffa0d0a72dc (__TEXT,__text) non-external __ZNKSt3__110__function6__funcINS_6__bindIRFNS_12basic_stringIcNS_11char_traitsIcEENS_9allocatorIcEEEERKN15InputTranscoder10PathSampleERNS9_14KeyboardLayoutEbRKS8_EJSC_RKNS_12placeholders4__phILi1EEERKbSG_EEENS6_ISQ_EEFS8_SE_EE11target_typeEv
00007ffa0d0a72c0 (__TEXT,__text) non-external __ZNKSt3__110__function6__funcINS_6__bindIRFNS_12basic_stringIcNS_11char_traitsIcEENS_9allocatorIcEEEERKN15InputTranscoder10PathSampleERNS9_14KeyboardLayoutEbRKS8_EJSC_RKNS_12placeholders4__phILi1EEERKbSG_EEENS6_ISQ_EEFS8_SE_EE6targetERKSt9type_info
00007ffa0d0a7236 (__TEXT,__text) non-external __ZNKSt3__110__function6__funcINS_6__bindIRFNS_12basic_stringIcNS_11char_traitsIcEENS_9allocatorIcEEEERKN15InputTranscoder10PathSampleERNS9_14KeyboardLayoutEbRKS8_EJSC_RKNS_12placeholders4__phILi1EEERKbSG_EEENS6_ISQ_EEFS8_SE_EE7__cloneEPNS0_6__baseISS_EE
00007ffa0d0a71e2 (__TEXT,__text) non-external __ZNKSt3__110__function6__funcINS_6__bindIRFNS_12basic_stringIcNS_11char_traitsIcEENS_9allocatorIcEEEERKN15InputTranscoder10PathSampleERNS9_14KeyboardLayoutEbRKS8_EJSC_RKNS_12placeholders4__phILi1EEERKbSG_EEENS6_ISQ_EEFS8_SE_EE7__cloneEv
00007ffa0d09cf74 (__TEXT,__text) non-external __ZNKSt3__110__function6__funcINS_6__bindIRFNS_6vectorIN15InputTranscoder16KeyCandidateImplENS_9allocatorIS5_EEEE7CGPointRNS4_14KeyboardLayoutEEJRKS9_RKNS_12placeholders4__phILi1EEEEEENS6_ISL_EEFS8_SB_EE11target_typeEv
00007ffa0d09cf58 (__TEXT,__text) non-external __ZNKSt3__110__function6__funcINS_6__bindIRFNS_6vectorIN15InputTranscoder16KeyCandidateImplENS_9allocatorIS5_EEEE7CGPointRNS4_14KeyboardLayoutEEJRKS9_RKNS_12placeholders4__phILi1EEEEEENS6_ISL_EEFS8_SB_EE6targetERKSt9type_info
00007ffa0d09cf02 (__TEXT,__text) non-external __ZNKSt3__110__function6__funcINS_6__bindIRFNS_6vectorIN15InputTranscoder16KeyCandidateImplENS_9allocatorIS5_EEEE7CGPointRNS4_14KeyboardLayoutEEJRKS9_RKNS_12placeholders4__phILi1EEEEEENS6_ISL_EEFS8_SB_EE7__cloneEPNS0_6__baseISN_EE
00007ffa0d09cece (__TEXT,__text) non-external __ZNKSt3__110__function6__funcINS_6__bindIRFNS_6vectorIN15InputTranscoder16KeyCandidateImplENS_9allocatorIS5_EEEE7CGPointRNS4_14KeyboardLayoutEEJRKS9_RKNS_12placeholders4__phILi1EEEEEENS6_ISL_EEFS8_SB_EE7__cloneEv
00007ffa0d089374 (__TEXT,__text) non-external __ZNKSt3__110__function6__funcIZ28ITDecoderEnumerateCandidatesE3$_0NS_9allocatorIS2_EEFvNS_10unique_ptrIN15InputTranscoder13CandidateImplENS_14default_deleteIS7_EEEERbEE11target_typeEv
00007ffa0d089358 (__TEXT,__text) non-external __ZNKSt3__110__function6__funcIZ28ITDecoderEnumerateCandidatesE3$_0NS_9allocatorIS2_EEFvNS_10unique_ptrIN15InputTranscoder13CandidateImplENS_14default_deleteIS7_EEEERbEE6targetERKSt9type_info
00007ffa0d089276 (__TEXT,__text) non-external __ZNKSt3__110__function6__funcIZ28ITDecoderEnumerateCandidatesE3$_0NS_9allocatorIS2_EEFvNS_10unique_ptrIN15InputTranscoder13CandidateImplENS_14default_deleteIS7_EEEERbEE7__cloneEPNS0_6__baseISC_EE
00007ffa0d08924a (__TEXT,__text) non-external __ZNKSt3__110__function6__funcIZ28ITDecoderEnumerateCandidatesE3$_0NS_9allocatorIS2_EEFvNS_10unique_ptrIN15InputTranscoder13CandidateImplENS_14default_deleteIS7_EEEERbEE7__cloneEv
00007ffa0d0894bc (__TEXT,__text) non-external __ZNKSt3__110__function6__funcIZ39ITDecoderEnumerateCandidatesWithOptionsE3$_1NS_9allocatorIS2_EEFvNS_10unique_ptrIN15InputTranscoder13CandidateImplENS_14default_deleteIS7_EEEERbEE11target_typeEv
00007ffa0d0894a0 (__TEXT,__text) non-external __ZNKSt3__110__function6__funcIZ39ITDecoderEnumerateCandidatesWithOptionsE3$_1NS_9allocatorIS2_EEFvNS_10unique_ptrIN15InputTranscoder13CandidateImplENS_14default_deleteIS7_EEEERbEE6targetERKSt9type_info
00007ffa0d0893be (__TEXT,__text) non-external __ZNKSt3__110__function6__funcIZ39ITDecoderEnumerateCandidatesWithOptionsE3$_1NS_9allocatorIS2_EEFvNS_10unique_ptrIN15InputTranscoder13CandidateImplENS_14default_deleteIS7_EEEERbEE7__cloneEPNS0_6__baseISC_EE
00007ffa0d089392 (__TEXT,__text) non-external __ZNKSt3__110__function6__funcIZ39ITDecoderEnumerateCandidatesWithOptionsE3$_1NS_9allocatorIS2_EEFvNS_10unique_ptrIN15InputTranscoder13CandidateImplENS_14default_deleteIS7_EEEERbEE7__cloneEv
00007ffa0d08bc54 (__TEXT,__text) non-external __ZNKSt3__110__function6__funcIZ43ITTouchTranscoderSessionEnumerateCandidatesE3$_0NS_9allocatorIS2_EEFbNS_10unique_ptrIN15InputTranscoder13CandidateImplENS_14default_deleteIS7_EEEEEE11target_typeEv
00007ffa0d08bc38 (__TEXT,__text) non-external __ZNKSt3__110__function6__funcIZ43ITTouchTranscoderSessionEnumerateCandidatesE3$_0NS_9allocatorIS2_EEFbNS_10unique_ptrIN15InputTranscoder13CandidateImplENS_14default_deleteIS7_EEEEEE6targetERKSt9type_info
00007ffa0d08bb52 (__TEXT,__text) non-external __ZNKSt3__110__function6__funcIZ43ITTouchTranscoderSessionEnumerateCandidatesE3$_0NS_9allocatorIS2_EEFbNS_10unique_ptrIN15InputTranscoder13CandidateImplENS_14default_deleteIS7_EEEEEE7__cloneEPNS0_6__baseISB_EE
00007ffa0d08bb26 (__TEXT,__text) non-external __ZNKSt3__110__function6__funcIZ43ITTouchTranscoderSessionEnumerateCandidatesE3$_0NS_9allocatorIS2_EEFbNS_10unique_ptrIN15InputTranscoder13CandidateImplENS_14default_deleteIS7_EEEEEE7__cloneEv
00007ffa0d08bda0 (__TEXT,__text) non-external __ZNKSt3__110__function6__funcIZ54ITTouchTranscoderSessionEnumerateCandidatesWithOptionsE3$_1NS_9allocatorIS2_EEFbNS_10unique_ptrIN15InputTranscoder13CandidateImplENS_14default_deleteIS7_EEEEEE11target_typeEv
00007ffa0d08bd84 (__TEXT,__text) non-external __ZNKSt3__110__function6__funcIZ54ITTouchTranscoderSessionEnumerateCandidatesWithOptionsE3$_1NS_9allocatorIS2_EEFbNS_10unique_ptrIN15InputTranscoder13CandidateImplENS_14default_deleteIS7_EEEEEE6targetERKSt9type_info
00007ffa0d08bc9e (__TEXT,__text) non-external __ZNKSt3__110__function6__funcIZ54ITTouchTranscoderSessionEnumerateCandidatesWithOptionsE3$_1NS_9allocatorIS2_EEFbNS_10unique_ptrIN15InputTranscoder13CandidateImplENS_14default_deleteIS7_EEEEEE7__cloneEPNS0_6__baseISB_EE
00007ffa0d08bc72 (__TEXT,__text) non-external __ZNKSt3__110__function6__funcIZ54ITTouchTranscoderSessionEnumerateCandidatesWithOptionsE3$_1NS_9allocatorIS2_EEFbNS_10unique_ptrIN15InputTranscoder13CandidateImplENS_14default_deleteIS7_EEEEEE7__cloneEv
00007ffa0d08beec (__TEXT,__text) non-external __ZNKSt3__110__function6__funcIZ58ITTouchTranscoderSessionEnumerateKeyCandidatesForLastTouchE3$_2NS_9allocatorIS2_EEFbNS_10unique_ptrIN15InputTranscoder16KeyCandidateImplENS_14default_deleteIS7_EEEEEE11target_typeEv
00007ffa0d08bed0 (__TEXT,__text) non-external __ZNKSt3__110__function6__funcIZ58ITTouchTranscoderSessionEnumerateKeyCandidatesForLastTouchE3$_2NS_9allocatorIS2_EEFbNS_10unique_ptrIN15InputTranscoder16KeyCandidateImplENS_14default_deleteIS7_EEEEEE6targetERKSt9type_info
00007ffa0d08bdea (__TEXT,__text) non-external __ZNKSt3__110__function6__funcIZ58ITTouchTranscoderSessionEnumerateKeyCandidatesForLastTouchE3$_2NS_9allocatorIS2_EEFbNS_10unique_ptrIN15InputTranscoder16KeyCandidateImplENS_14default_deleteIS7_EEEEEE7__cloneEPNS0_6__baseISB_EE
00007ffa0d08bdbe (__TEXT,__text) non-external __ZNKSt3__110__function6__funcIZ58ITTouchTranscoderSessionEnumerateKeyCandidatesForLastTouchE3$_2NS_9allocatorIS2_EEFbNS_10unique_ptrIN15InputTranscoder16KeyCandidateImplENS_14default_deleteIS7_EEEEEE7__cloneEv
00007ffa0d092e1a (__TEXT,__text) non-external (was a private external) __ZNKSt3__110__function6__funcIZN15InputTranscoder19TouchTranscoderImpl10addLexiconEPK10_LXLexiconE3$_0NS_9allocatorIS7_EEFvRNS2_10CTCDecoderEEE11target_typeEv
00007ffa0d092dfe (__TEXT,__text) non-external (was a private external) __ZNKSt3__110__function6__funcIZN15InputTranscoder19TouchTranscoderImpl10addLexiconEPK10_LXLexiconE3$_0NS_9allocatorIS7_EEFvRNS2_10CTCDecoderEEE6targetERKSt9type_info
00007ffa0d092db8 (__TEXT,__text) non-external (was a private external) __ZNKSt3__110__function6__funcIZN15InputTranscoder19TouchTranscoderImpl10addLexiconEPK10_LXLexiconE3$_0NS_9allocatorIS7_EEFvRNS2_10CTCDecoderEEE7__cloneEPNS0_6__baseISC_EE
00007ffa0d092d8c (__TEXT,__text) non-external (was a private external) __ZNKSt3__110__function6__funcIZN15InputTranscoder19TouchTranscoderImpl10addLexiconEPK10_LXLexiconE3$_0NS_9allocatorIS7_EEFvRNS2_10CTCDecoderEEE7__cloneEv
00007ffa0d092ef6 (__TEXT,__text) non-external (was a private external) __ZNKSt3__110__function6__funcIZN15InputTranscoder19TouchTranscoderImpl13removeLexiconEPK10_LXLexiconE3$_1NS_9allocatorIS7_EEFvRNS2_10CTCDecoderEEE11target_typeEv
00007ffa0d092eda (__TEXT,__text) non-external (was a private external) __ZNKSt3__110__function6__funcIZN15InputTranscoder19TouchTranscoderImpl13removeLexiconEPK10_LXLexiconE3$_1NS_9allocatorIS7_EEFvRNS2_10CTCDecoderEEE6targetERKSt9type_info
00007ffa0d092e64 (__TEXT,__text) non-external (was a private external) __ZNKSt3__110__function6__funcIZN15InputTranscoder19TouchTranscoderImpl13removeLexiconEPK10_LXLexiconE3$_1NS_9allocatorIS7_EEFvRNS2_10CTCDecoderEEE7__cloneEPNS0_6__baseISC_EE
00007ffa0d092e38 (__TEXT,__text) non-external (was a private external) __ZNKSt3__110__function6__funcIZN15InputTranscoder19TouchTranscoderImpl13removeLexiconEPK10_LXLexiconE3$_1NS_9allocatorIS7_EEFvRNS2_10CTCDecoderEEE7__cloneEv
00007ffa0d092f7a (__TEXT,__text) non-external (was a private external) __ZNKSt3__110__function6__funcIZN15InputTranscoder19TouchTranscoderImpl24clearNeuralNetworkBufferEvE3$_2NS_9allocatorIS4_EEFvRNS2_13MontrealModelEEE11target_typeEv
00007ffa0d092f5e (__TEXT,__text) non-external (was a private external) __ZNKSt3__110__function6__funcIZN15InputTranscoder19TouchTranscoderImpl24clearNeuralNetworkBufferEvE3$_2NS_9allocatorIS4_EEFvRNS2_13MontrealModelEEE6targetERKSt9type_info
00007ffa0d092f2e (__TEXT,__text) non-external (was a private external) __ZNKSt3__110__function6__funcIZN15InputTranscoder19TouchTranscoderImpl24clearNeuralNetworkBufferEvE3$_2NS_9allocatorIS4_EEFvRNS2_13MontrealModelEEE7__cloneEPNS0_6__baseIS9_EE
00007ffa0d092f14 (__TEXT,__text) non-external (was a private external) __ZNKSt3__110__function6__funcIZN15InputTranscoder19TouchTranscoderImpl24clearNeuralNetworkBufferEvE3$_2NS_9allocatorIS4_EEFvRNS2_13MontrealModelEEE7__cloneEv
00007ffa0d09bf7a (__TEXT,__text) non-external __ZNKSt3__110__function6__funcIZN15InputTranscoder26TouchTranscoderSessionImpl15shouldRunBigramERKNS_12basic_stringIcNS_11char_traitsIcEENS_9allocatorIcEEEESB_E4$_11NS7_ISC_EEFbRNS2_10CTCDecoderEEE11target_typeEv
00007ffa0d09bf5e (__TEXT,__text) non-external __ZNKSt3__110__function6__funcIZN15InputTranscoder26TouchTranscoderSessionImpl15shouldRunBigramERKNS_12basic_stringIcNS_11char_traitsIcEENS_9allocatorIcEEEESB_E4$_11NS7_ISC_EEFbRNS2_10CTCDecoderEEE6targetERKSt9type_info
00007ffa0d09bf1e (__TEXT,__text) non-external __ZNKSt3__110__function6__funcIZN15InputTranscoder26TouchTranscoderSessionImpl15shouldRunBigramERKNS_12basic_stringIcNS_11char_traitsIcEENS_9allocatorIcEEEESB_E4$_11NS7_ISC_EEFbRNS2_10CTCDecoderEEE7__cloneEPNS0_6__baseISG_EE
00007ffa0d09bef2 (__TEXT,__text) non-external __ZNKSt3__110__function6__funcIZN15InputTranscoder26TouchTranscoderSessionImpl15shouldRunBigramERKNS_12basic_stringIcNS_11char_traitsIcEENS_9allocatorIcEEEESB_E4$_11NS7_ISC_EEFbRNS2_10CTCDecoderEEE7__cloneEv
00007ffa0d09b5c8 (__TEXT,__text) non-external __ZNKSt3__110__function6__funcIZN15InputTranscoder26TouchTranscoderSessionImpl21addCandidateErrorTypeERNS_6vectorINS2_20CTCSurfaceFormOutputENS_9allocatorIS5_EEEEE3$_1NS6_ISA_EEF26ITAutocorrectionOperationsRNS2_14KeyboardLayoutEEE11target_typeEv
00007ffa0d09b5ac (__TEXT,__text) non-external __ZNKSt3__110__function6__funcIZN15InputTranscoder26TouchTranscoderSessionImpl21addCandidateErrorTypeERNS_6vectorINS2_20CTCSurfaceFormOutputENS_9allocatorIS5_EEEEE3$_1NS6_ISA_EEF26ITAutocorrectionOperationsRNS2_14KeyboardLayoutEEE6targetERKSt9type_info
00007ffa0d09b542 (__TEXT,__text) non-external __ZNKSt3__110__function6__funcIZN15InputTranscoder26TouchTranscoderSessionImpl21addCandidateErrorTypeERNS_6vectorINS2_20CTCSurfaceFormOutputENS_9allocatorIS5_EEEEE3$_1NS6_ISA_EEF26ITAutocorrectionOperationsRNS2_14KeyboardLayoutEEE7__cloneEPNS0_6__baseISF_EE
00007ffa0d09b4f8 (__TEXT,__text) non-external __ZNKSt3__110__function6__funcIZN15InputTranscoder26TouchTranscoderSessionImpl21addCandidateErrorTypeERNS_6vectorINS2_20CTCSurfaceFormOutputENS_9allocatorIS5_EEEEE3$_1NS6_ISA_EEF26ITAutocorrectionOperationsRNS2_14KeyboardLayoutEEE7__cloneEv
00007ffa0d09b974 (__TEXT,__text) non-external __ZNKSt3__110__function6__funcIZN15InputTranscoder26TouchTranscoderSessionImpl22getEditDistancePenaltyERKNS_12basic_stringIcNS_11char_traitsIcEENS_9allocatorIcEEEESB_E3$_2NS7_ISC_EEFdRNS2_14KeyboardLayoutEEE11target_typeEv
00007ffa0d09b958 (__TEXT,__text) non-external __ZNKSt3__110__function6__funcIZN15InputTranscoder26TouchTranscoderSessionImpl22getEditDistancePenaltyERKNS_12basic_stringIcNS_11char_traitsIcEENS_9allocatorIcEEEESB_E3$_2NS7_ISC_EEFdRNS2_14KeyboardLayoutEEE6targetERKSt9type_info
00007ffa0d09b806 (__TEXT,__text) non-external __ZNKSt3__110__function6__funcIZN15InputTranscoder26TouchTranscoderSessionImpl22getEditDistancePenaltyERKNS_12basic_stringIcNS_11char_traitsIcEENS_9allocatorIcEEEESB_E3$_2NS7_ISC_EEFdRNS2_14KeyboardLayoutEEE7__cloneEPNS0_6__baseISG_EE
00007ffa0d09b7bc (__TEXT,__text) non-external __ZNKSt3__110__function6__funcIZN15InputTranscoder26TouchTranscoderSessionImpl22getEditDistancePenaltyERKNS_12basic_stringIcNS_11char_traitsIcEENS_9allocatorIcEEEESB_E3$_2NS7_ISC_EEFdRNS2_14KeyboardLayoutEEE7__cloneEv
00007ffa0d09c418 (__TEXT,__text) non-external __ZNKSt3__110__function6__funcIZN15InputTranscoder26TouchTranscoderSessionImpl23enumerateCandidatesImplEPK14__CFDictionaryRKNS_8functionIFbNS_10unique_ptrINS2_13CandidateImplENS_14default_deleteIS9_EEEEEEERNS_12basic_stringIcNS_11char_traitsIcEENS_9allocatorIcEEEEE4$_12NSK_ISO_EEFvRNS2_10CTCDecoderEEE11target_typeEv
00007ffa0d09c3fc (__TEXT,__text) non-external __ZNKSt3__110__function6__funcIZN15InputTranscoder26TouchTranscoderSessionImpl23enumerateCandidatesImplEPK14__CFDictionaryRKNS_8functionIFbNS_10unique_ptrINS2_13CandidateImplENS_14default_deleteIS9_EEEEEEERNS_12basic_stringIcNS_11char_traitsIcEENS_9allocatorIcEEEEE4$_12NSK_ISO_EEFvRNS2_10CTCDecoderEEE6targetERKSt9type_info
00007ffa0d09bfe4 (__TEXT,__text) non-external __ZNKSt3__110__function6__funcIZN15InputTranscoder26TouchTranscoderSessionImpl23enumerateCandidatesImplEPK14__CFDictionaryRKNS_8functionIFbNS_10unique_ptrINS2_13CandidateImplENS_14default_deleteIS9_EEEEEEERNS_12basic_stringIcNS_11char_traitsIcEENS_9allocatorIcEEEEE4$_12NSK_ISO_EEFvRNS2_10CTCDecoderEEE7__cloneEPNS0_6__baseISS_EE
00007ffa0d09bf98 (__TEXT,__text) non-external __ZNKSt3__110__function6__funcIZN15InputTranscoder26TouchTranscoderSessionImpl23enumerateCandidatesImplEPK14__CFDictionaryRKNS_8functionIFbNS_10unique_ptrINS2_13CandidateImplENS_14default_deleteIS9_EEEEEEERNS_12basic_stringIcNS_11char_traitsIcEENS_9allocatorIcEEEEE4$_12NSK_ISO_EEFvRNS2_10CTCDecoderEEE7__cloneEv
00007ffa0d09be1a (__TEXT,__text) non-external __ZNKSt3__110__function6__funcIZN15InputTranscoder26TouchTranscoderSessionImpl28uniquifyEquivalentCandidatesERNS_6vectorINS2_20CTCSurfaceFormOutputENS_9allocatorIS5_EEEEE4$_10NS6_ISA_EEFNS_12basic_stringIcNS_11char_traitsIcEENS6_IcEEEERNS2_14KeyboardLayoutEEE11target_typeEv
00007ffa0d09bdfe (__TEXT,__text) non-external __ZNKSt3__110__function6__funcIZN15InputTranscoder26TouchTranscoderSessionImpl28uniquifyEquivalentCandidatesERNS_6vectorINS2_20CTCSurfaceFormOutputENS_9allocatorIS5_EEEEE4$_10NS6_ISA_EEFNS_12basic_stringIcNS_11char_traitsIcEENS6_IcEEEERNS2_14KeyboardLayoutEEE6targetERKSt9type_info
00007ffa0d09bd94 (__TEXT,__text) non-external __ZNKSt3__110__function6__funcIZN15InputTranscoder26TouchTranscoderSessionImpl28uniquifyEquivalentCandidatesERNS_6vectorINS2_20CTCSurfaceFormOutputENS_9allocatorIS5_EEEEE4$_10NS6_ISA_EEFNS_12basic_stringIcNS_11char_traitsIcEENS6_IcEEEERNS2_14KeyboardLayoutEEE7__cloneEPNS0_6__baseISJ_EE
00007ffa0d09bd4a (__TEXT,__text) non-external __ZNKSt3__110__function6__funcIZN15InputTranscoder26TouchTranscoderSessionImpl28uniquifyEquivalentCandidatesERNS_6vectorINS2_20CTCSurfaceFormOutputENS_9allocatorIS5_EEEEE4$_10NS6_ISA_EEFNS_12basic_stringIcNS_11char_traitsIcEENS6_IcEEEERNS2_14KeyboardLayoutEEE7__cloneEv
00007ffa0d086f56 (__TEXT,__text) non-external __ZNKSt3__110__function6__funcIZNK15InputTranscoder13RNNRecognizer9recognizeERKNS2_14InputProcessorERNS2_18TranscoderMediatorEE3$_0NS_9allocatorIS9_EEFNS_4spanIKfLm18446744073709551615EEERNS2_13MontrealModelEEE11target_typeEv
00007ffa0d086f3a (__TEXT,__text) non-external __ZNKSt3__110__function6__funcIZNK15InputTranscoder13RNNRecognizer9recognizeERKNS2_14InputProcessorERNS2_18TranscoderMediatorEE3$_0NS_9allocatorIS9_EEFNS_4spanIKfLm18446744073709551615EEERNS2_13MontrealModelEEE6targetERKSt9type_info
00007ffa0d086ed6 (__TEXT,__text) non-external __ZNKSt3__110__function6__funcIZNK15InputTranscoder13RNNRecognizer9recognizeERKNS2_14InputProcessorERNS2_18TranscoderMediatorEE3$_0NS_9allocatorIS9_EEFNS_4spanIKfLm18446744073709551615EEERNS2_13MontrealModelEEE7__cloneEPNS0_6__baseISH_EE
00007ffa0d086eaa (__TEXT,__text) non-external __ZNKSt3__110__function6__funcIZNK15InputTranscoder13RNNRecognizer9recognizeERKNS2_14InputProcessorERNS2_18TranscoderMediatorEE3$_0NS_9allocatorIS9_EEFNS_4spanIKfLm18446744073709551615EEERNS2_13MontrealModelEEE7__cloneEv
00007ffa0d08c13a (__TEXT,__text) non-external __ZNKSt3__110__function6__funcIZNK15InputTranscoder14CRNNRecognizer9recognizeERKNS2_14InputProcessorERNS2_18TranscoderMediatorEE3$_0NS_9allocatorIS9_EEFNS_4spanIKfLm18446744073709551615EEERNS2_13MontrealModelEEE11target_typeEv
00007ffa0d08c11e (__TEXT,__text) non-external __ZNKSt3__110__function6__funcIZNK15InputTranscoder14CRNNRecognizer9recognizeERKNS2_14InputProcessorERNS2_18TranscoderMediatorEE3$_0NS_9allocatorIS9_EEFNS_4spanIKfLm18446744073709551615EEERNS2_13MontrealModelEEE6targetERKSt9type_info
00007ffa0d08c0a4 (__TEXT,__text) non-external __ZNKSt3__110__function6__funcIZNK15InputTranscoder14CRNNRecognizer9recognizeERKNS2_14InputProcessorERNS2_18TranscoderMediatorEE3$_0NS_9allocatorIS9_EEFNS_4spanIKfLm18446744073709551615EEERNS2_13MontrealModelEEE7__cloneEPNS0_6__baseISH_EE
00007ffa0d08c070 (__TEXT,__text) non-external __ZNKSt3__110__function6__funcIZNK15InputTranscoder14CRNNRecognizer9recognizeERKNS2_14InputProcessorERNS2_18TranscoderMediatorEE3$_0NS_9allocatorIS9_EEFNS_4spanIKfLm18446744073709551615EEERNS2_13MontrealModelEEE7__cloneEv
00007ffa0d08c370 (__TEXT,__text) non-external __ZNKSt3__110__function6__funcIZNK15InputTranscoder14LRNNRecognizer9recognizeERKNS2_14InputProcessorERNS2_18TranscoderMediatorEE3$_0NS_9allocatorIS9_EEFNS_4spanIKfLm18446744073709551615EEERNS2_13MontrealModelEEE11target_typeEv
00007ffa0d08c354 (__TEXT,__text) non-external __ZNKSt3__110__function6__funcIZNK15InputTranscoder14LRNNRecognizer9recognizeERKNS2_14InputProcessorERNS2_18TranscoderMediatorEE3$_0NS_9allocatorIS9_EEFNS_4spanIKfLm18446744073709551615EEERNS2_13MontrealModelEEE6targetERKSt9type_info
00007ffa0d08c2da (__TEXT,__text) non-external __ZNKSt3__110__function6__funcIZNK15InputTranscoder14LRNNRecognizer9recognizeERKNS2_14InputProcessorERNS2_18TranscoderMediatorEE3$_0NS_9allocatorIS9_EEFNS_4spanIKfLm18446744073709551615EEERNS2_13MontrealModelEEE7__cloneEPNS0_6__baseISH_EE
00007ffa0d08c2a6 (__TEXT,__text) non-external __ZNKSt3__110__function6__funcIZNK15InputTranscoder14LRNNRecognizer9recognizeERKNS2_14InputProcessorERNS2_18TranscoderMediatorEE3$_0NS_9allocatorIS9_EEFNS_4spanIKfLm18446744073709551615EEERNS2_13MontrealModelEEE7__cloneEv
00007ffa0d0a7094 (__TEXT,__text) non-external __ZNKSt3__110__function6__funcIZNK15InputTranscoder22PathKeyLayoutProcessor21input_stream_for_pathERKNS2_4PathEE3$_2NS_9allocatorIS7_EEFK7CGPointRNS2_14KeyboardLayoutEEE11target_typeEv
00007ffa0d0a7078 (__TEXT,__text) non-external __ZNKSt3__110__function6__funcIZNK15InputTranscoder22PathKeyLayoutProcessor21input_stream_for_pathERKNS2_4PathEE3$_2NS_9allocatorIS7_EEFK7CGPointRNS2_14KeyboardLayoutEEE6targetERKSt9type_info
00007ffa0d0a702a (__TEXT,__text) non-external __ZNKSt3__110__function6__funcIZNK15InputTranscoder22PathKeyLayoutProcessor21input_stream_for_pathERKNS2_4PathEE3$_2NS_9allocatorIS7_EEFK7CGPointRNS2_14KeyboardLayoutEEE7__cloneEPNS0_6__baseISE_EE
00007ffa0d0a6ffe (__TEXT,__text) non-external __ZNKSt3__110__function6__funcIZNK15InputTranscoder22PathKeyLayoutProcessor21input_stream_for_pathERKNS2_4PathEE3$_2NS_9allocatorIS7_EEFK7CGPointRNS2_14KeyboardLayoutEEE7__cloneEv
00007ffa0d0a73b2 (__TEXT,__text) non-external (was a private external) __ZNKSt3__110__function6__funcIZNK15InputTranscoder22PathKeyLayoutProcessor23key_class_for_touch_keyERK9ITKeyInfoE3$_0NS_9allocatorIS7_EEFbRNS2_14KeyboardLayoutEEE11target_typeEv
00007ffa0d0a7396 (__TEXT,__text) non-external (was a private external) __ZNKSt3__110__function6__funcIZNK15InputTranscoder22PathKeyLayoutProcessor23key_class_for_touch_keyERK9ITKeyInfoE3$_0NS_9allocatorIS7_EEFbRNS2_14KeyboardLayoutEEE6targetERKSt9type_info
00007ffa0d0a7368 (__TEXT,__text) non-external (was a private external) __ZNKSt3__110__function6__funcIZNK15InputTranscoder22PathKeyLayoutProcessor23key_class_for_touch_keyERK9ITKeyInfoE3$_0NS_9allocatorIS7_EEFbRNS2_14KeyboardLayoutEEE7__cloneEPNS0_6__baseISC_EE
00007ffa0d0a734e (__TEXT,__text) non-external (was a private external) __ZNKSt3__110__function6__funcIZNK15InputTranscoder22PathKeyLayoutProcessor23key_class_for_touch_keyERK9ITKeyInfoE3$_0NS_9allocatorIS7_EEFbRNS2_14KeyboardLayoutEEE7__cloneEv
00007ffa0d0a6fe0 (__TEXT,__text) non-external __ZNKSt3__110__function6__funcIZNK15InputTranscoder22PathKeyLayoutProcessor29input_feature_stream_for_pathERKNS2_4PathEbjbjE3$_1NS_9allocatorIS7_EEFK7CGPointRNS2_14KeyboardLayoutEEE11target_typeEv
00007ffa0d0a6fc4 (__TEXT,__text) non-external __ZNKSt3__110__function6__funcIZNK15InputTranscoder22PathKeyLayoutProcessor29input_feature_stream_for_pathERKNS2_4PathEbjbjE3$_1NS_9allocatorIS7_EEFK7CGPointRNS2_14KeyboardLayoutEEE6targetERKSt9type_info
00007ffa0d0a6f76 (__TEXT,__text) non-external __ZNKSt3__110__function6__funcIZNK15InputTranscoder22PathKeyLayoutProcessor29input_feature_stream_for_pathERKNS2_4PathEbjbjE3$_1NS_9allocatorIS7_EEFK7CGPointRNS2_14KeyboardLayoutEEE7__cloneEPNS0_6__baseISE_EE
00007ffa0d0a6f4a (__TEXT,__text) non-external __ZNKSt3__110__function6__funcIZNK15InputTranscoder22PathKeyLayoutProcessor29input_feature_stream_for_pathERKNS2_4PathEbjbjE3$_1NS_9allocatorIS7_EEFK7CGPointRNS2_14KeyboardLayoutEEE7__cloneEv
00007ffa0d09bba8 (__TEXT,__text) non-external __ZNKSt3__110__function6__funcIZNK15InputTranscoder26TouchTranscoderSessionImpl31updateCondenseFormForCandidatesERNS_6vectorINS2_20CTCSurfaceFormOutputENS_9allocatorIS5_EEEE12ITTypingModeE3$_9NS6_ISB_EEFNS_12basic_stringIcNS_11char_traitsIcEENS6_IcEEEERNS2_14KeyboardLayoutEEE11target_typeEv
00007ffa0d09bb8c (__TEXT,__text) non-external __ZNKSt3__110__function6__funcIZNK15InputTranscoder26TouchTranscoderSessionImpl31updateCondenseFormForCandidatesERNS_6vectorINS2_20CTCSurfaceFormOutputENS_9allocatorIS5_EEEE12ITTypingModeE3$_9NS6_ISB_EEFNS_12basic_stringIcNS_11char_traitsIcEENS6_IcEEEERNS2_14KeyboardLayoutEEE6targetERKSt9type_info
00007ffa0d09bb1a (__TEXT,__text) non-external __ZNKSt3__110__function6__funcIZNK15InputTranscoder26TouchTranscoderSessionImpl31updateCondenseFormForCandidatesERNS_6vectorINS2_20CTCSurfaceFormOutputENS_9allocatorIS5_EEEE12ITTypingModeE3$_9NS6_ISB_EEFNS_12basic_stringIcNS_11char_traitsIcEENS6_IcEEEERNS2_14KeyboardLayoutEEE7__cloneEPNS0_6__baseISK_EE
00007ffa0d09bad0 (__TEXT,__text) non-external __ZNKSt3__110__function6__funcIZNK15InputTranscoder26TouchTranscoderSessionImpl31updateCondenseFormForCandidatesERNS_6vectorINS2_20CTCSurfaceFormOutputENS_9allocatorIS5_EEEE12ITTypingModeE3$_9NS6_ISB_EEFNS_12basic_stringIcNS_11char_traitsIcEENS6_IcEEEERNS2_14KeyboardLayoutEEE7__cloneEv
00007ffa0d0aea48 (__TEXT,__text) non-external (was a private external) __ZNKSt3__110__function6__funcIZNK15InputTranscoder4Path22is_curvature_local_maxEjdE3$_0NS_9allocatorIS4_EEFdjEE11target_typeEv
00007ffa0d0aea2c (__TEXT,__text) non-external (was a private external) __ZNKSt3__110__function6__funcIZNK15InputTranscoder4Path22is_curvature_local_maxEjdE3$_0NS_9allocatorIS4_EEFdjEE6targetERKSt9type_info
00007ffa0d0ae9ec (__TEXT,__text) non-external (was a private external) __ZNKSt3__110__function6__funcIZNK15InputTranscoder4Path22is_curvature_local_maxEjdE3$_0NS_9allocatorIS4_EEFdjEE7__cloneEPNS0_6__baseIS7_EE
00007ffa0d0ae9c0 (__TEXT,__text) non-external (was a private external) __ZNKSt3__110__function6__funcIZNK15InputTranscoder4Path22is_curvature_local_maxEjdE3$_0NS_9allocatorIS4_EEFdjEE7__cloneEv
00007ffa0d0a499e (__TEXT,__text) non-external __ZNKSt3__112__hash_tableINS_17__hash_value_typeINS_12basic_stringIcNS_11char_traitsIcEENS_9allocatorIcEEEEjEENS_22__unordered_map_hasherIS7_S8_NS_4hashIS7_EENS_8equal_toIS7_EELb1EEENS_21__unordered_map_equalIS7_S8_SD_SB_Lb1EEENS5_IS8_EEE4findIS7_EENS_21__hash_const_iteratorIPNS_11__hash_nodeIS8_PvEEEERKT_
00007ffa0d0a48b6 (__TEXT,__text) non-external __ZNKSt3__112__hash_tableINS_17__hash_value_typeIjNS_12basic_stringIcNS_11char_traitsIcEENS_9allocatorIcEEEEEENS_22__unordered_map_hasherIjS8_NS_4hashIjEENS_8equal_toIjEELb1EEENS_21__unordered_map_equalIjS8_SD_SB_Lb1EEENS5_IS8_EEE4findIjEENS_21__hash_const_iteratorIPNS_11__hash_nodeIS8_PvEEEERKT_
00007ffa0d0a354c (__TEXT,__text) non-external __ZNKSt3__112__hash_tableINS_17__hash_value_typeIjjEENS_22__unordered_map_hasherIjS2_NS_4hashIjEENS_8equal_toIjEELb1EEENS_21__unordered_map_equalIjS2_S7_S5_Lb1EEENS_9allocatorIS2_EEE4findIjEENS_21__hash_const_iteratorIPNS_11__hash_nodeIS2_PvEEEERKT_
00007ffa0d086c90 (__TEXT,__text) non-external (was a private external) __ZNKSt3__112basic_stringIcNS_11char_traitsIcEENS_9allocatorIcEEE20__throw_length_errorB7v160006Ev
00007ffa0d088d9a (__TEXT,__text) non-external (was a private external) __ZNKSt3__112basic_stringIcNS_11char_traitsIcEENS_9allocatorIcEEE20__throw_out_of_rangeB7v160006Ev
00007ffa0d0a6dc6 (__TEXT,__text) non-external __ZNKSt3__112basic_stringIcNS_11char_traitsIcEENS_9allocatorIcEEE4findB7v160006EPKcm
                 (undefined) external __ZNKSt3__112basic_stringIcNS_11char_traitsIcEENS_9allocatorIcEEE4findEcm (from libc++)
00007ffa0d0a42ce (__TEXT,__text) non-external (was a private external) __ZNKSt3__113__string_hashIcNS_9allocatorIcEEEclERKNS_12basic_stringIcNS_11char_traitsIcEES2_EE
00007ffa0d08dad4 (__TEXT,__text) non-external __ZNKSt3__114default_deleteIN15InputTranscoder10CTCDecoderEEclB7v160006EPS2_
00007ffa0d087326 (__TEXT,__text) non-external (was a private external) __ZNKSt3__114default_deleteIN15InputTranscoder13CandidateImplEEclB7v160006EPS2_
00007ffa0d08db6e (__TEXT,__text) non-external __ZNKSt3__114default_deleteIN15InputTranscoder13MontrealModelEEclB7v160006EPS2_
00007ffa0d0873ea (__TEXT,__text) non-external (was a private external) __ZNKSt3__114default_deleteIN15InputTranscoder16KeyCandidateImplEEclB7v160006EPS2_
00007ffa0d0ad400 (__TEXT,__text) non-external __ZNKSt3__114default_deleteIN15InputTranscoder18LayoutInfoAssortedEEclB7v160006EPS2_
00007ffa0d08dba8 (__TEXT,__text) non-external __ZNKSt3__114default_deleteIN15InputTranscoder18TranscoderMediatorEEclB7v160006EPS2_
00007ffa0d08747e (__TEXT,__text) non-external (was a private external) __ZNKSt3__114default_deleteIN15InputTranscoder19TouchTranscoderImplEEclB7v160006EPS2_
00007ffa0d087afe (__TEXT,__text) non-external (was a private external) __ZNKSt3__114default_deleteIN15InputTranscoder8LMScorerEEclB7v160006EPS2_
                 (undefined) external __ZNKSt3__115basic_stringbufIcNS_11char_traitsIcEENS_9allocatorIcEEE3strEv (from libc++)
                 (undefined) external __ZNKSt3__119__shared_weak_count13__get_deleterERKSt9type_info (from libc++)
00007ffa0d0ad3da (__TEXT,__text) non-external __ZNKSt3__120__shared_ptr_pointerIPN15InputTranscoder18LayoutInfoAssortedENS_10shared_ptrIS2_E27__shared_ptr_default_deleteIS2_S2_EENS_9allocatorIS2_EEE13__get_deleterERKSt9type_info
00007ffa0d08dd5e (__TEXT,__text) non-external __ZNKSt3__120__shared_ptr_pointerIPN15InputTranscoder18TranscoderMediatorENS_14default_deleteIS2_EENS_9allocatorIS2_EEE13__get_deleterERKSt9type_info
00007ffa0d08d982 (__TEXT,__text) non-external (was a private external) __ZNKSt3__129_AllocatorDestroyRangeReverseINS_9allocatorINS_12basic_stringIcNS_11char_traitsIcEENS1_IcEEEEEEPS6_EclB7v160006Ev
                 (undefined) external __ZNKSt3__16locale9use_facetERNS0_2idE (from libc++)
00007ffa0d0ad2c0 (__TEXT,__text) non-external (was a private external) __ZNKSt3__16vectorI9ITKeyInfoNS_9allocatorIS1_EEE20__throw_length_errorB7v160006Ev
00007ffa0d0999cc (__TEXT,__text) non-external (was a private external) __ZNKSt3__16vectorIN15InputTranscoder10PathSampleENS_9allocatorIS2_EEE20__throw_length_errorB7v160006Ev
00007ffa0d087cb4 (__TEXT,__text) non-external (was a private external) __ZNKSt3__16vectorIN15InputTranscoder12InputFeatureENS_9allocatorIS2_EEE20__throw_length_errorB7v160006Ev
00007ffa0d0ad83a (__TEXT,__text) non-external __ZNKSt3__16vectorIN15InputTranscoder16KeyCandidateImplENS_9allocatorIS2_EEE20__throw_length_errorB7v160006Ev
00007ffa0d091f00 (__TEXT,__text) non-external (was a private external) __ZNKSt3__16vectorIN15InputTranscoder20CTCSurfaceFormOutputENS_9allocatorIS2_EEE20__throw_length_errorB7v160006Ev
00007ffa0d0a0e96 (__TEXT,__text) non-external __ZNKSt3__16vectorIN15InputTranscoder20DecoderConfigurationENS_9allocatorIS2_EEE20__throw_length_errorB7v160006Ev
00007ffa0d0a1202 (__TEXT,__text) non-external __ZNKSt3__16vectorIN15InputTranscoder23TranscoderConfigurationENS_9allocatorIS2_EEE20__throw_length_errorB7v160006Ev
00007ffa0d0903a4 (__TEXT,__text) non-external __ZNKSt3__16vectorIN15InputTranscoder9CTCOutputENS_9allocatorIS2_EEE20__throw_length_errorB7v160006Ev
00007ffa0d089e1e (__TEXT,__text) non-external __ZNKSt3__16vectorIN3nlp11CFScopedPtrIPK10_LXLexiconEENS_9allocatorIS6_EEE20__throw_length_errorB7v160006Ev
00007ffa0d0ad300 (__TEXT,__text) non-external __ZNKSt3__16vectorIN3nlp11CFScopedPtrIPK10__CFStringEENS_9allocatorIS6_EEE20__throw_length_errorB7v160006Ev
00007ffa0d0adb28 (__TEXT,__text) non-external __ZNKSt3__16vectorINS0_IdNS_9allocatorIdEEEENS1_IS3_EEE20__throw_length_errorB7v160006Ev
00007ffa0d08b390 (__TEXT,__text) non-external __ZNKSt3__16vectorINS0_IfNS_9allocatorIfEEEENS1_IS3_EEE20__throw_length_errorB7v160006Ev
00007ffa0d0adb9c (__TEXT,__text) non-external __ZNKSt3__16vectorINS0_IjNS_9allocatorIjEEEENS1_IS3_EEE20__throw_length_errorB7v160006Ev
00007ffa0d09b07a (__TEXT,__text) non-external __ZNKSt3__16vectorINS_10unique_ptrIN15InputTranscoder13CandidateImplENS_14default_deleteIS3_EEEENS_9allocatorIS6_EEE20__throw_length_errorB7v160006Ev
00007ffa0d08d87c (__TEXT,__text) non-external (was a private external) __ZNKSt3__16vectorINS_12basic_stringIcNS_11char_traitsIcEENS_9allocatorIcEEEENS4_IS6_EEE20__throw_length_errorB7v160006Ev
00007ffa0d089f50 (__TEXT,__text) non-external (was a private external) __ZNKSt3__16vectorINS_4pairIN3nlp11CFScopedPtrIPK9_LXCursorEEbEENS_9allocatorIS8_EEE20__throw_length_errorB7v160006Ev
00007ffa0d09b244 (__TEXT,__text) non-external __ZNKSt3__16vectorINS_4pairIPN15InputTranscoder8PathTrieENS2_20CTCSurfaceFormOutputEEENS_9allocatorIS6_EEE20__throw_length_errorB7v160006Ev
00007ffa0d09d9b8 (__TEXT,__text) non-external __ZNKSt3__16vectorINS_4pairIjfEENS_9allocatorIS2_EEE20__throw_length_errorB7v160006Ev
00007ffa0d089e2e (__TEXT,__text) non-external __ZNKSt3__16vectorIPK10_LXLexiconNS_9allocatorIS3_EEE20__throw_length_errorB7v160006Ev
00007ffa0d0a2a38 (__TEXT,__text) non-external __ZNKSt3__16vectorIPKvNS_9allocatorIS2_EEE20__throw_length_errorB7v160006Ev
00007ffa0d091dd6 (__TEXT,__text) non-external (was a private external) __ZNKSt3__16vectorIPN15InputTranscoder8PathTrieENS_9allocatorIS3_EEE20__throw_length_errorB7v160006Ev
00007ffa0d0ad9fe (__TEXT,__text) non-external __ZNKSt3__16vectorIdNS_9allocatorIdEEE20__throw_length_errorB7v160006Ev
00007ffa0d08b22c (__TEXT,__text) non-external (was a private external) __ZNKSt3__16vectorIfNS_9allocatorIfEEE20__throw_length_errorB7v160006Ev
00007ffa0d08b42c (__TEXT,__text) non-external (was a private external) __ZNKSt3__16vectorIjNS_9allocatorIjEEE20__throw_length_errorB7v160006Ev
00007ffa0d0adc10 (__TEXT,__text) non-external __ZNKSt3__16vectorItNS_9allocatorItEEE20__throw_length_errorB7v160006Ev
00007ffa0d0a47e2 (__TEXT,__text) non-external (was a private external) __ZNKSt3__18equal_toINS_12basic_stringIcNS_11char_traitsIcEENS_9allocatorIcEEEEEclB7v160006ERKS6_S9_
                 (undefined) external __ZNKSt3__18ios_base6getlocEv (from libc++)
                 (undefined) external __ZNKSt9exception4whatEv (from libc++)
                 (undefined) external __ZNSt11logic_errorC2EPKc (from libc++)
00007ffa0d086cec (__TEXT,__text) non-external (was a private external) __ZNSt12length_errorC1B7v160006EPKc
                 (undefined) external __ZNSt12length_errorD1Ev (from libc++)
00007ffa0d088df6 (__TEXT,__text) non-external (was a private external) __ZNSt12out_of_rangeC1B7v160006EPKc
                 (undefined) external __ZNSt12out_of_rangeD1Ev (from libc++)
                 (undefined) external __ZNSt13runtime_errorC1EPKc (from libc++)
                 (undefined) external __ZNSt13runtime_errorD1Ev (from libc++)
                 (undefined) external __ZNSt20bad_array_new_lengthC1Ev (from libc++)
                 (undefined) external __ZNSt20bad_array_new_lengthD1Ev (from libc++)
00007ffa0d09b654 (__TEXT,__text) non-external __ZNSt3__110__function12__alloc_funcIZN15InputTranscoder26TouchTranscoderSessionImpl21addCandidateErrorTypeERNS_6vectorINS2_20CTCSurfaceFormOutputENS_9allocatorIS5_EEEEE3$_1NS6_ISA_EEF26ITAutocorrectionOperationsRNS2_14KeyboardLayoutEEE7destroyB7v160006Ev
00007ffa0d09ba00 (__TEXT,__text) non-external __ZNSt3__110__function12__alloc_funcIZN15InputTranscoder26TouchTranscoderSessionImpl22getEditDistancePenaltyERKNS_12basic_stringIcNS_11char_traitsIcEENS_9allocatorIcEEEESB_E3$_2NS7_ISC_EEFdRNS2_14KeyboardLayoutEEE7destroyB7v160006Ev
00007ffa0d09beae (__TEXT,__text) non-external __ZNSt3__110__function12__alloc_funcIZN15InputTranscoder26TouchTranscoderSessionImpl28uniquifyEquivalentCandidatesERNS_6vectorINS2_20CTCSurfaceFormOutputENS_9allocatorIS5_EEEEE4$_10NS6_ISA_EEFNS_12basic_stringIcNS_11char_traitsIcEENS6_IcEEEERNS2_14KeyboardLayoutEEE7destroyB7v160006Ev
00007ffa0d09bc8a (__TEXT,__text) non-external __ZNSt3__110__function12__alloc_funcIZNK15InputTranscoder26TouchTranscoderSessionImpl31updateCondenseFormForCandidatesERNS_6vectorINS2_20CTCSurfaceFormOutputENS_9allocatorIS5_EEEE12ITTypingModeE3$_9NS6_ISB_EEFNS_12basic_stringIcNS_11char_traitsIcEENS6_IcEEEERNS2_14KeyboardLayoutEEE7destroyB7v160006Ev
00007ffa0d09cbf0 (__TEXT,__text) non-external __ZNSt3__110__function6__funcINS_6__bindIMN15InputTranscoder26TouchTranscoderSessionImplEKFvRNS_6vectorINS3_20CTCSurfaceFormOutputENS_9allocatorIS6_EEEERjSB_PK14__CFDictionaryPNS3_8PathTrieERNS5_INS_4pairISG_S6_EENS7_ISI_EEEERbEJPS4_NS_17reference_wrapperIS9_EENSQ_IjEESS_RSE_RKNS_12placeholders4__phILi1EEERKNSV_ILi2EEERKNSV_ILi3EEEEEENS7_IS15_EEFvSG_SL_SM_EE18destroy_deallocateEv
00007ffa0d09cbea (__TEXT,__text) non-external __ZNSt3__110__function6__funcINS_6__bindIMN15InputTranscoder26TouchTranscoderSessionImplEKFvRNS_6vectorINS3_20CTCSurfaceFormOutputENS_9allocatorIS6_EEEERjSB_PK14__CFDictionaryPNS3_8PathTrieERNS5_INS_4pairISG_S6_EENS7_ISI_EEEERbEJPS4_NS_17reference_wrapperIS9_EENSQ_IjEESS_RSE_RKNS_12placeholders4__phILi1EEERKNSV_ILi2EEERKNSV_ILi3EEEEEENS7_IS15_EEFvSG_SL_SM_EE7destroyEv
00007ffa0d09cb6c (__TEXT,__text) non-external __ZNSt3__110__function6__funcINS_6__bindIMN15InputTranscoder26TouchTranscoderSessionImplEKFvRNS_6vectorINS3_20CTCSurfaceFormOutputENS_9allocatorIS6_EEEERjSB_PK14__CFDictionaryPNS3_8PathTrieERNS5_INS_4pairISG_S6_EENS7_ISI_EEEERbEJPS4_NS_17reference_wrapperIS9_EENSQ_IjEESS_RSE_RKNS_12placeholders4__phILi1EEERKNSV_ILi2EEERKNSV_ILi3EEEEEENS7_IS15_EEFvSG_SL_SM_EED0Ev
00007ffa0d09cb66 (__TEXT,__text) non-external __ZNSt3__110__function6__funcINS_6__bindIMN15InputTranscoder26TouchTranscoderSessionImplEKFvRNS_6vectorINS3_20CTCSurfaceFormOutputENS_9allocatorIS6_EEEERjSB_PK14__CFDictionaryPNS3_8PathTrieERNS5_INS_4pairISG_S6_EENS7_ISI_EEEERbEJPS4_NS_17reference_wrapperIS9_EENSQ_IjEESS_RSE_RKNS_12placeholders4__phILi1EEERKNSV_ILi2EEERKNSV_ILi3EEEEEENS7_IS15_EEFvSG_SL_SM_EED1Ev
00007ffa0d09cbfa (__TEXT,__text) non-external __ZNSt3__110__function6__funcINS_6__bindIMN15InputTranscoder26TouchTranscoderSessionImplEKFvRNS_6vectorINS3_20CTCSurfaceFormOutputENS_9allocatorIS6_EEEERjSB_PK14__CFDictionaryPNS3_8PathTrieERNS5_INS_4pairISG_S6_EENS7_ISI_EEEERbEJPS4_NS_17reference_wrapperIS9_EENSQ_IjEESS_RSE_RKNS_12placeholders4__phILi1EEERKNSV_ILi2EEERKNSV_ILi3EEEEEENS7_IS15_EEFvSG_SL_SM_EEclEOSG_SL_SM_
00007ffa0d09ce5a (__TEXT,__text) non-external __ZNSt3__110__function6__funcINS_6__bindIMN15InputTranscoder26TouchTranscoderSessionImplEKFvRNS_6vectorINS3_20CTCSurfaceFormOutputENS_9allocatorIS6_EEEESA_RKNS_4pairIPNS3_8PathTrieES6_EEEJPS4_NS_17reference_wrapperIS9_EESL_RKNS_12placeholders4__phILi1EEEEEENS7_ISR_EEFvSG_EE18destroy_deallocateEv
00007ffa0d09ce54 (__TEXT,__text) non-external __ZNSt3__110__function6__funcINS_6__bindIMN15InputTranscoder26TouchTranscoderSessionImplEKFvRNS_6vectorINS3_20CTCSurfaceFormOutputENS_9allocatorIS6_EEEESA_RKNS_4pairIPNS3_8PathTrieES6_EEEJPS4_NS_17reference_wrapperIS9_EESL_RKNS_12placeholders4__phILi1EEEEEENS7_ISR_EEFvSG_EE7destroyEv
00007ffa0d09cde6 (__TEXT,__text) non-external __ZNSt3__110__function6__funcINS_6__bindIMN15InputTranscoder26TouchTranscoderSessionImplEKFvRNS_6vectorINS3_20CTCSurfaceFormOutputENS_9allocatorIS6_EEEESA_RKNS_4pairIPNS3_8PathTrieES6_EEEJPS4_NS_17reference_wrapperIS9_EESL_RKNS_12placeholders4__phILi1EEEEEENS7_ISR_EEFvSG_EED0Ev
00007ffa0d09cde0 (__TEXT,__text) non-external __ZNSt3__110__function6__funcINS_6__bindIMN15InputTranscoder26TouchTranscoderSessionImplEKFvRNS_6vectorINS3_20CTCSurfaceFormOutputENS_9allocatorIS6_EEEESA_RKNS_4pairIPNS3_8PathTrieES6_EEEJPS4_NS_17reference_wrapperIS9_EESL_RKNS_12placeholders4__phILi1EEEEEENS7_ISR_EEFvSG_EED1Ev
00007ffa0d09ce64 (__TEXT,__text) non-external __ZNSt3__110__function6__funcINS_6__bindIMN15InputTranscoder26TouchTranscoderSessionImplEKFvRNS_6vectorINS3_20CTCSurfaceFormOutputENS_9allocatorIS6_EEEESA_RKNS_4pairIPNS3_8PathTrieES6_EEEJPS4_NS_17reference_wrapperIS9_EESL_RKNS_12placeholders4__phILi1EEEEEENS7_ISR_EEFvSG_EEclESG_
00007ffa0d09cd3c (__TEXT,__text) non-external __ZNSt3__110__function6__funcINS_6__bindIPFNS_6vectorINS_4pairIPN15InputTranscoder8PathTrieENS5_20CTCSurfaceFormOutputEEENS_9allocatorIS9_EEEERKNS_12basic_stringIcNS_11char_traitsIcEENSA_IcEEEERKSC_EJSJ_RKNS_12placeholders4__phILi1EEEEEENSA_IST_EEFSC_SL_EE18destroy_deallocateEv
00007ffa0d09cd26 (__TEXT,__text) non-external __ZNSt3__110__function6__funcINS_6__bindIPFNS_6vectorINS_4pairIPN15InputTranscoder8PathTrieENS5_20CTCSurfaceFormOutputEEENS_9allocatorIS9_EEEERKNS_12basic_stringIcNS_11char_traitsIcEENSA_IcEEEERKSC_EJSJ_RKNS_12placeholders4__phILi1EEEEEENSA_IST_EEFSC_SL_EE7destroyEv
00007ffa0d09cc8c (__TEXT,__text) non-external __ZNSt3__110__function6__funcINS_6__bindIPFNS_6vectorINS_4pairIPN15InputTranscoder8PathTrieENS5_20CTCSurfaceFormOutputEEENS_9allocatorIS9_EEEERKNS_12basic_stringIcNS_11char_traitsIcEENSA_IcEEEERKSC_EJSJ_RKNS_12placeholders4__phILi1EEEEEENSA_IST_EEFSC_SL_EED0Ev
00007ffa0d09cc6c (__TEXT,__text) non-external __ZNSt3__110__function6__funcINS_6__bindIPFNS_6vectorINS_4pairIPN15InputTranscoder8PathTrieENS5_20CTCSurfaceFormOutputEEENS_9allocatorIS9_EEEERKNS_12basic_stringIcNS_11char_traitsIcEENSA_IcEEEERKSC_EJSJ_RKNS_12placeholders4__phILi1EEEEEENSA_IST_EEFSC_SL_EED1Ev
00007ffa0d09cd62 (__TEXT,__text) non-external __ZNSt3__110__function6__funcINS_6__bindIPFNS_6vectorINS_4pairIPN15InputTranscoder8PathTrieENS5_20CTCSurfaceFormOutputEEENS_9allocatorIS9_EEEERKNS_12basic_stringIcNS_11char_traitsIcEENSA_IcEEEERKSC_EJSJ_RKNS_12placeholders4__phILi1EEEEEENSA_IST_EEFSC_SL_EEclESL_
00007ffa0d09b6f2 (__TEXT,__text) non-external __ZNSt3__110__function6__funcINS_6__bindIRF7CGPointS3_RN15InputTranscoder14KeyboardLayoutEEJRS3_RKNS_12placeholders4__phILi1EEEEEENS_9allocatorISF_EEFS3_S6_EE18destroy_deallocateEv
00007ffa0d09b6ec (__TEXT,__text) non-external __ZNSt3__110__function6__funcINS_6__bindIRF7CGPointS3_RN15InputTranscoder14KeyboardLayoutEEJRS3_RKNS_12placeholders4__phILi1EEEEEENS_9allocatorISF_EEFS3_S6_EE7destroyEv
00007ffa0d09b68e (__TEXT,__text) non-external __ZNSt3__110__function6__funcINS_6__bindIRF7CGPointS3_RN15InputTranscoder14KeyboardLayoutEEJRS3_RKNS_12placeholders4__phILi1EEEEEENS_9allocatorISF_EEFS3_S6_EED0Ev
00007ffa0d09b688 (__TEXT,__text) non-external __ZNSt3__110__function6__funcINS_6__bindIRF7CGPointS3_RN15InputTranscoder14KeyboardLayoutEEJRS3_RKNS_12placeholders4__phILi1EEEEEENS_9allocatorISF_EEFS3_S6_EED1Ev
00007ffa0d09b6fc (__TEXT,__text) non-external __ZNSt3__110__function6__funcINS_6__bindIRF7CGPointS3_RN15InputTranscoder14KeyboardLayoutEEJRS3_RKNS_12placeholders4__phILi1EEEEEENS_9allocatorISF_EEFS3_S6_EEclES6_
00007ffa0d0a713c (__TEXT,__text) non-external __ZNSt3__110__function6__funcINS_6__bindIRFNS_12basic_stringIcNS_11char_traitsIcEENS_9allocatorIcEEEERKN15InputTranscoder10PathSampleERNS9_14KeyboardLayoutEbEJSC_RKNS_12placeholders4__phILi1EEERKbEEENS6_ISO_EEFS8_SE_EE18destroy_deallocateEv
00007ffa0d0a7136 (__TEXT,__text) non-external __ZNSt3__110__function6__funcINS_6__bindIRFNS_12basic_stringIcNS_11char_traitsIcEENS_9allocatorIcEEEERKN15InputTranscoder10PathSampleERNS9_14KeyboardLayoutEbEJSC_RKNS_12placeholders4__phILi1EEERKbEEENS6_ISO_EEFS8_SE_EE7destroyEv
00007ffa0d0a70a8 (__TEXT,__text) non-external __ZNSt3__110__function6__funcINS_6__bindIRFNS_12basic_stringIcNS_11char_traitsIcEENS_9allocatorIcEEEERKN15InputTranscoder10PathSampleERNS9_14KeyboardLayoutEbEJSC_RKNS_12placeholders4__phILi1EEERKbEEENS6_ISO_EEFS8_SE_EED0Ev
00007ffa0d0a70a2 (__TEXT,__text) non-external __ZNSt3__110__function6__funcINS_6__bindIRFNS_12basic_stringIcNS_11char_traitsIcEENS_9allocatorIcEEEERKN15InputTranscoder10PathSampleERNS9_14KeyboardLayoutEbEJSC_RKNS_12placeholders4__phILi1EEERKbEEENS6_ISO_EEFS8_SE_EED1Ev
00007ffa0d0a7146 (__TEXT,__text) non-external __ZNSt3__110__function6__funcINS_6__bindIRFNS_12basic_stringIcNS_11char_traitsIcEENS_9allocatorIcEEEERKN15InputTranscoder10PathSampleERNS9_14KeyboardLayoutEbEJSC_RKNS_12placeholders4__phILi1EEERKbEEENS6_ISO_EEFS8_SE_EEclESE_
00007ffa0d0a745a (__TEXT,__text) non-external __ZNSt3__110__function6__funcINS_6__bindIRFNS_12basic_stringIcNS_11char_traitsIcEENS_9allocatorIcEEEERKN15InputTranscoder10PathSampleERNS9_14KeyboardLayoutEbEJSC_RKNS_12placeholders4__phILi1EEEbEEENS6_ISM_EEFS8_SE_EE18destroy_deallocateEv
00007ffa0d0a7454 (__TEXT,__text) non-external __ZNSt3__110__function6__funcINS_6__bindIRFNS_12basic_stringIcNS_11char_traitsIcEENS_9allocatorIcEEEERKN15InputTranscoder10PathSampleERNS9_14KeyboardLayoutEbEJSC_RKNS_12placeholders4__phILi1EEEbEEENS6_ISM_EEFS8_SE_EE7destroyEv
00007ffa0d0a73c6 (__TEXT,__text) non-external __ZNSt3__110__function6__funcINS_6__bindIRFNS_12basic_stringIcNS_11char_traitsIcEENS_9allocatorIcEEEERKN15InputTranscoder10PathSampleERNS9_14KeyboardLayoutEbEJSC_RKNS_12placeholders4__phILi1EEEbEEENS6_ISM_EEFS8_SE_EED0Ev
00007ffa0d0a73c0 (__TEXT,__text) non-external __ZNSt3__110__function6__funcINS_6__bindIRFNS_12basic_stringIcNS_11char_traitsIcEENS_9allocatorIcEEEERKN15InputTranscoder10PathSampleERNS9_14KeyboardLayoutEbEJSC_RKNS_12placeholders4__phILi1EEEbEEENS6_ISM_EEFS8_SE_EED1Ev
00007ffa0d0a7464 (__TEXT,__text) non-external __ZNSt3__110__function6__funcINS_6__bindIRFNS_12basic_stringIcNS_11char_traitsIcEENS_9allocatorIcEEEERKN15InputTranscoder10PathSampleERNS9_14KeyboardLayoutEbEJSC_RKNS_12placeholders4__phILi1EEEbEEENS6_ISM_EEFS8_SE_EEclESE_
00007ffa0d0a7274 (__TEXT,__text) non-external __ZNSt3__110__function6__funcINS_6__bindIRFNS_12basic_stringIcNS_11char_traitsIcEENS_9allocatorIcEEEERKN15InputTranscoder10PathSampleERNS9_14KeyboardLayoutEbRKS8_EJSC_RKNS_12placeholders4__phILi1EEERKbSG_EEENS6_ISQ_EEFS8_SE_EE18destroy_deallocateEv
00007ffa0d0a725e (__TEXT,__text) non-external __ZNSt3__110__function6__funcINS_6__bindIRFNS_12basic_stringIcNS_11char_traitsIcEENS_9allocatorIcEEEERKN15InputTranscoder10PathSampleERNS9_14KeyboardLayoutEbRKS8_EJSC_RKNS_12placeholders4__phILi1EEERKbSG_EEENS6_ISQ_EEFS8_SE_EE7destroyEv
00007ffa0d0a71b2 (__TEXT,__text) non-external __ZNSt3__110__function6__funcINS_6__bindIRFNS_12basic_stringIcNS_11char_traitsIcEENS_9allocatorIcEEEERKN15InputTranscoder10PathSampleERNS9_14KeyboardLayoutEbRKS8_EJSC_RKNS_12placeholders4__phILi1EEERKbSG_EEENS6_ISQ_EEFS8_SE_EED0Ev
00007ffa0d0a7192 (__TEXT,__text) non-external __ZNSt3__110__function6__funcINS_6__bindIRFNS_12basic_stringIcNS_11char_traitsIcEENS_9allocatorIcEEEERKN15InputTranscoder10PathSampleERNS9_14KeyboardLayoutEbRKS8_EJSC_RKNS_12placeholders4__phILi1EEERKbSG_EEENS6_ISQ_EEFS8_SE_EED1Ev
00007ffa0d0a729a (__TEXT,__text) non-external __ZNSt3__110__function6__funcINS_6__bindIRFNS_12basic_stringIcNS_11char_traitsIcEENS_9allocatorIcEEEERKN15InputTranscoder10PathSampleERNS9_14KeyboardLayoutEbRKS8_EJSC_RKNS_12placeholders4__phILi1EEERKbSG_EEENS6_ISQ_EEFS8_SE_EEclESE_
00007ffa0d09cf28 (__TEXT,__text) non-external __ZNSt3__110__function6__funcINS_6__bindIRFNS_6vectorIN15InputTranscoder16KeyCandidateImplENS_9allocatorIS5_EEEE7CGPointRNS4_14KeyboardLayoutEEJRKS9_RKNS_12placeholders4__phILi1EEEEEENS6_ISL_EEFS8_SB_EE18destroy_deallocateEv
00007ffa0d09cf22 (__TEXT,__text) non-external __ZNSt3__110__function6__funcINS_6__bindIRFNS_6vectorIN15InputTranscoder16KeyCandidateImplENS_9allocatorIS5_EEEE7CGPointRNS4_14KeyboardLayoutEEJRKS9_RKNS_12placeholders4__phILi1EEEEEENS6_ISL_EEFS8_SB_EE7destroyEv
00007ffa0d09cec4 (__TEXT,__text) non-external __ZNSt3__110__function6__funcINS_6__bindIRFNS_6vectorIN15InputTranscoder16KeyCandidateImplENS_9allocatorIS5_EEEE7CGPointRNS4_14KeyboardLayoutEEJRKS9_RKNS_12placeholders4__phILi1EEEEEENS6_ISL_EEFS8_SB_EED0Ev
00007ffa0d09cebe (__TEXT,__text) non-external __ZNSt3__110__function6__funcINS_6__bindIRFNS_6vectorIN15InputTranscoder16KeyCandidateImplENS_9allocatorIS5_EEEE7CGPointRNS4_14KeyboardLayoutEEJRKS9_RKNS_12placeholders4__phILi1EEEEEENS6_ISL_EEFS8_SB_EED1Ev
00007ffa0d09cf32 (__TEXT,__text) non-external __ZNSt3__110__function6__funcINS_6__bindIRFNS_6vectorIN15InputTranscoder16KeyCandidateImplENS_9allocatorIS5_EEEE7CGPointRNS4_14KeyboardLayoutEEJRKS9_RKNS_12placeholders4__phILi1EEEEEENS6_ISL_EEFS8_SB_EEclESB_
00007ffa0d089294 (__TEXT,__text) non-external __ZNSt3__110__function6__funcIZ28ITDecoderEnumerateCandidatesE3$_0NS_9allocatorIS2_EEFvNS_10unique_ptrIN15InputTranscoder13CandidateImplENS_14default_deleteIS7_EEEERbEE18destroy_deallocateEv
00007ffa0d08928e (__TEXT,__text) non-external __ZNSt3__110__function6__funcIZ28ITDecoderEnumerateCandidatesE3$_0NS_9allocatorIS2_EEFvNS_10unique_ptrIN15InputTranscoder13CandidateImplENS_14default_deleteIS7_EEEERbEE7destroyEv
00007ffa0d089240 (__TEXT,__text) non-external __ZNSt3__110__function6__funcIZ28ITDecoderEnumerateCandidatesE3$_0NS_9allocatorIS2_EEFvNS_10unique_ptrIN15InputTranscoder13CandidateImplENS_14default_deleteIS7_EEEERbEED0Ev
00007ffa0d08923a (__TEXT,__text) non-external __ZNSt3__110__function6__funcIZ28ITDecoderEnumerateCandidatesE3$_0NS_9allocatorIS2_EEFvNS_10unique_ptrIN15InputTranscoder13CandidateImplENS_14default_deleteIS7_EEEERbEED1Ev
00007ffa0d08929e (__TEXT,__text) non-external __ZNSt3__110__function6__funcIZ28ITDecoderEnumerateCandidatesE3$_0NS_9allocatorIS2_EEFvNS_10unique_ptrIN15InputTranscoder13CandidateImplENS_14default_deleteIS7_EEEERbEEclEOSA_SB_
00007ffa0d0893dc (__TEXT,__text) non-external __ZNSt3__110__function6__funcIZ39ITDecoderEnumerateCandidatesWithOptionsE3$_1NS_9allocatorIS2_EEFvNS_10unique_ptrIN15InputTranscoder13CandidateImplENS_14default_deleteIS7_EEEERbEE18destroy_deallocateEv
00007ffa0d0893d6 (__TEXT,__text) non-external __ZNSt3__110__function6__funcIZ39ITDecoderEnumerateCandidatesWithOptionsE3$_1NS_9allocatorIS2_EEFvNS_10unique_ptrIN15InputTranscoder13CandidateImplENS_14default_deleteIS7_EEEERbEE7destroyEv
00007ffa0d089388 (__TEXT,__text) non-external __ZNSt3__110__function6__funcIZ39ITDecoderEnumerateCandidatesWithOptionsE3$_1NS_9allocatorIS2_EEFvNS_10unique_ptrIN15InputTranscoder13CandidateImplENS_14default_deleteIS7_EEEERbEED0Ev
00007ffa0d089382 (__TEXT,__text) non-external __ZNSt3__110__function6__funcIZ39ITDecoderEnumerateCandidatesWithOptionsE3$_1NS_9allocatorIS2_EEFvNS_10unique_ptrIN15InputTranscoder13CandidateImplENS_14default_deleteIS7_EEEERbEED1Ev
00007ffa0d0893e6 (__TEXT,__text) non-external __ZNSt3__110__function6__funcIZ39ITDecoderEnumerateCandidatesWithOptionsE3$_1NS_9allocatorIS2_EEFvNS_10unique_ptrIN15InputTranscoder13CandidateImplENS_14default_deleteIS7_EEEERbEEclEOSA_SB_
00007ffa0d08bb70 (__TEXT,__text) non-external __ZNSt3__110__function6__funcIZ43ITTouchTranscoderSessionEnumerateCandidatesE3$_0NS_9allocatorIS2_EEFbNS_10unique_ptrIN15InputTranscoder13CandidateImplENS_14default_deleteIS7_EEEEEE18destroy_deallocateEv
00007ffa0d08bb6a (__TEXT,__text) non-external __ZNSt3__110__function6__funcIZ43ITTouchTranscoderSessionEnumerateCandidatesE3$_0NS_9allocatorIS2_EEFbNS_10unique_ptrIN15InputTranscoder13CandidateImplENS_14default_deleteIS7_EEEEEE7destroyEv
00007ffa0d08bb1c (__TEXT,__text) non-external __ZNSt3__110__function6__funcIZ43ITTouchTranscoderSessionEnumerateCandidatesE3$_0NS_9allocatorIS2_EEFbNS_10unique_ptrIN15InputTranscoder13CandidateImplENS_14default_deleteIS7_EEEEEED0Ev
00007ffa0d08bb16 (__TEXT,__text) non-external __ZNSt3__110__function6__funcIZ43ITTouchTranscoderSessionEnumerateCandidatesE3$_0NS_9allocatorIS2_EEFbNS_10unique_ptrIN15InputTranscoder13CandidateImplENS_14default_deleteIS7_EEEEEED1Ev
00007ffa0d08bb7a (__TEXT,__text) non-external __ZNSt3__110__function6__funcIZ43ITTouchTranscoderSessionEnumerateCandidatesE3$_0NS_9allocatorIS2_EEFbNS_10unique_ptrIN15InputTranscoder13CandidateImplENS_14default_deleteIS7_EEEEEEclEOSA_
00007ffa0d08bcbc (__TEXT,__text) non-external __ZNSt3__110__function6__funcIZ54ITTouchTranscoderSessionEnumerateCandidatesWithOptionsE3$_1NS_9allocatorIS2_EEFbNS_10unique_ptrIN15InputTranscoder13CandidateImplENS_14default_deleteIS7_EEEEEE18destroy_deallocateEv
00007ffa0d08bcb6 (__TEXT,__text) non-external __ZNSt3__110__function6__funcIZ54ITTouchTranscoderSessionEnumerateCandidatesWithOptionsE3$_1NS_9allocatorIS2_EEFbNS_10unique_ptrIN15InputTranscoder13CandidateImplENS_14default_deleteIS7_EEEEEE7destroyEv
00007ffa0d08bc68 (__TEXT,__text) non-external __ZNSt3__110__function6__funcIZ54ITTouchTranscoderSessionEnumerateCandidatesWithOptionsE3$_1NS_9allocatorIS2_EEFbNS_10unique_ptrIN15InputTranscoder13CandidateImplENS_14default_deleteIS7_EEEEEED0Ev
00007ffa0d08bc62 (__TEXT,__text) non-external __ZNSt3__110__function6__funcIZ54ITTouchTranscoderSessionEnumerateCandidatesWithOptionsE3$_1NS_9allocatorIS2_EEFbNS_10unique_ptrIN15InputTranscoder13CandidateImplENS_14default_deleteIS7_EEEEEED1Ev
00007ffa0d08bcc6 (__TEXT,__text) non-external __ZNSt3__110__function6__funcIZ54ITTouchTranscoderSessionEnumerateCandidatesWithOptionsE3$_1NS_9allocatorIS2_EEFbNS_10unique_ptrIN15InputTranscoder13CandidateImplENS_14default_deleteIS7_EEEEEEclEOSA_
00007ffa0d08be08 (__TEXT,__text) non-external __ZNSt3__110__function6__funcIZ58ITTouchTranscoderSessionEnumerateKeyCandidatesForLastTouchE3$_2NS_9allocatorIS2_EEFbNS_10unique_ptrIN15InputTranscoder16KeyCandidateImplENS_14default_deleteIS7_EEEEEE18destroy_deallocateEv
00007ffa0d08be02 (__TEXT,__text) non-external __ZNSt3__110__function6__funcIZ58ITTouchTranscoderSessionEnumerateKeyCandidatesForLastTouchE3$_2NS_9allocatorIS2_EEFbNS_10unique_ptrIN15InputTranscoder16KeyCandidateImplENS_14default_deleteIS7_EEEEEE7destroyEv
00007ffa0d08bdb4 (__TEXT,__text) non-external __ZNSt3__110__function6__funcIZ58ITTouchTranscoderSessionEnumerateKeyCandidatesForLastTouchE3$_2NS_9allocatorIS2_EEFbNS_10unique_ptrIN15InputTranscoder16KeyCandidateImplENS_14default_deleteIS7_EEEEEED0Ev
00007ffa0d08bdae (__TEXT,__text) non-external __ZNSt3__110__function6__funcIZ58ITTouchTranscoderSessionEnumerateKeyCandidatesForLastTouchE3$_2NS_9allocatorIS2_EEFbNS_10unique_ptrIN15InputTranscoder16KeyCandidateImplENS_14default_deleteIS7_EEEEEED1Ev
00007ffa0d08be12 (__TEXT,__text) non-external __ZNSt3__110__function6__funcIZ58ITTouchTranscoderSessionEnumerateKeyCandidatesForLastTouchE3$_2NS_9allocatorIS2_EEFbNS_10unique_ptrIN15InputTranscoder16KeyCandidateImplENS_14default_deleteIS7_EEEEEEclEOSA_
00007ffa0d092dd6 (__TEXT,__text) non-external (was a private external) __ZNSt3__110__function6__funcIZN15InputTranscoder19TouchTranscoderImpl10addLexiconEPK10_LXLexiconE3$_0NS_9allocatorIS7_EEFvRNS2_10CTCDecoderEEE18destroy_deallocateEv
00007ffa0d092dd0 (__TEXT,__text) non-external (was a private external) __ZNSt3__110__function6__funcIZN15InputTranscoder19TouchTranscoderImpl10addLexiconEPK10_LXLexiconE3$_0NS_9allocatorIS7_EEFvRNS2_10CTCDecoderEEE7destroyEv
00007ffa0d092d82 (__TEXT,__text) non-external (was a private external) __ZNSt3__110__function6__funcIZN15InputTranscoder19TouchTranscoderImpl10addLexiconEPK10_LXLexiconE3$_0NS_9allocatorIS7_EEFvRNS2_10CTCDecoderEEED0Ev
00007ffa0d092d7c (__TEXT,__text) non-external (was a private external) __ZNSt3__110__function6__funcIZN15InputTranscoder19TouchTranscoderImpl10addLexiconEPK10_LXLexiconE3$_0NS_9allocatorIS7_EEFvRNS2_10CTCDecoderEEED1Ev
00007ffa0d092de0 (__TEXT,__text) non-external (was a private external) __ZNSt3__110__function6__funcIZN15InputTranscoder19TouchTranscoderImpl10addLexiconEPK10_LXLexiconE3$_0NS_9allocatorIS7_EEFvRNS2_10CTCDecoderEEEclESB_
00007ffa0d092e82 (__TEXT,__text) non-external (was a private external) __ZNSt3__110__function6__funcIZN15InputTranscoder19TouchTranscoderImpl13removeLexiconEPK10_LXLexiconE3$_1NS_9allocatorIS7_EEFvRNS2_10CTCDecoderEEE18destroy_deallocateEv
00007ffa0d092e7c (__TEXT,__text) non-external (was a private external) __ZNSt3__110__function6__funcIZN15InputTranscoder19TouchTranscoderImpl13removeLexiconEPK10_LXLexiconE3$_1NS_9allocatorIS7_EEFvRNS2_10CTCDecoderEEE7destroyEv
00007ffa0d092e2e (__TEXT,__text) non-external (was a private external) __ZNSt3__110__function6__funcIZN15InputTranscoder19TouchTranscoderImpl13removeLexiconEPK10_LXLexiconE3$_1NS_9allocatorIS7_EEFvRNS2_10CTCDecoderEEED0Ev
00007ffa0d092e28 (__TEXT,__text) non-external (was a private external) __ZNSt3__110__function6__funcIZN15InputTranscoder19TouchTranscoderImpl13removeLexiconEPK10_LXLexiconE3$_1NS_9allocatorIS7_EEFvRNS2_10CTCDecoderEEED1Ev
00007ffa0d092e8c (__TEXT,__text) non-external (was a private external) __ZNSt3__110__function6__funcIZN15InputTranscoder19TouchTranscoderImpl13removeLexiconEPK10_LXLexiconE3$_1NS_9allocatorIS7_EEFvRNS2_10CTCDecoderEEEclESB_
00007ffa0d092f44 (__TEXT,__text) non-external (was a private external) __ZNSt3__110__function6__funcIZN15InputTranscoder19TouchTranscoderImpl24clearNeuralNetworkBufferEvE3$_2NS_9allocatorIS4_EEFvRNS2_13MontrealModelEEE18destroy_deallocateEv
00007ffa0d092f3e (__TEXT,__text) non-external (was a private external) __ZNSt3__110__function6__funcIZN15InputTranscoder19TouchTranscoderImpl24clearNeuralNetworkBufferEvE3$_2NS_9allocatorIS4_EEFvRNS2_13MontrealModelEEE7destroyEv
00007ffa0d092f0a (__TEXT,__text) non-external (was a private external) __ZNSt3__110__function6__funcIZN15InputTranscoder19TouchTranscoderImpl24clearNeuralNetworkBufferEvE3$_2NS_9allocatorIS4_EEFvRNS2_13MontrealModelEEED0Ev
00007ffa0d092f04 (__TEXT,__text) non-external (was a private external) __ZNSt3__110__function6__funcIZN15InputTranscoder19TouchTranscoderImpl24clearNeuralNetworkBufferEvE3$_2NS_9allocatorIS4_EEFvRNS2_13MontrealModelEEED1Ev
00007ffa0d092f4e (__TEXT,__text) non-external (was a private external) __ZNSt3__110__function6__funcIZN15InputTranscoder19TouchTranscoderImpl24clearNeuralNetworkBufferEvE3$_2NS_9allocatorIS4_EEFvRNS2_13MontrealModelEEEclES8_
00007ffa0d09bf3c (__TEXT,__text) non-external __ZNSt3__110__function6__funcIZN15InputTranscoder26TouchTranscoderSessionImpl15shouldRunBigramERKNS_12basic_stringIcNS_11char_traitsIcEENS_9allocatorIcEEEESB_E4$_11NS7_ISC_EEFbRNS2_10CTCDecoderEEE18destroy_deallocateEv
00007ffa0d09bf36 (__TEXT,__text) non-external __ZNSt3__110__function6__funcIZN15InputTranscoder26TouchTranscoderSessionImpl15shouldRunBigramERKNS_12basic_stringIcNS_11char_traitsIcEENS_9allocatorIcEEEESB_E4$_11NS7_ISC_EEFbRNS2_10CTCDecoderEEE7destroyEv
00007ffa0d09bee8 (__TEXT,__text) non-external __ZNSt3__110__function6__funcIZN15InputTranscoder26TouchTranscoderSessionImpl15shouldRunBigramERKNS_12basic_stringIcNS_11char_traitsIcEENS_9allocatorIcEEEESB_E4$_11NS7_ISC_EEFbRNS2_10CTCDecoderEEED0Ev
00007ffa0d09bee2 (__TEXT,__text) non-external __ZNSt3__110__function6__funcIZN15InputTranscoder26TouchTranscoderSessionImpl15shouldRunBigramERKNS_12basic_stringIcNS_11char_traitsIcEENS_9allocatorIcEEEESB_E4$_11NS7_ISC_EEFbRNS2_10CTCDecoderEEED1Ev
00007ffa0d09bf46 (__TEXT,__text) non-external __ZNSt3__110__function6__funcIZN15InputTranscoder26TouchTranscoderSessionImpl15shouldRunBigramERKNS_12basic_stringIcNS_11char_traitsIcEENS_9allocatorIcEEEESB_E4$_11NS7_ISC_EEFbRNS2_10CTCDecoderEEEclESF_
00007ffa0d09b570 (__TEXT,__text) non-external __ZNSt3__110__function6__funcIZN15InputTranscoder26TouchTranscoderSessionImpl21addCandidateErrorTypeERNS_6vectorINS2_20CTCSurfaceFormOutputENS_9allocatorIS5_EEEEE3$_1NS6_ISA_EEF26ITAutocorrectionOperationsRNS2_14KeyboardLayoutEEE18destroy_deallocateEv
00007ffa0d09b562 (__TEXT,__text) non-external __ZNSt3__110__function6__funcIZN15InputTranscoder26TouchTranscoderSessionImpl21addCandidateErrorTypeERNS_6vectorINS2_20CTCSurfaceFormOutputENS_9allocatorIS5_EEEEE3$_1NS6_ISA_EEF26ITAutocorrectionOperationsRNS2_14KeyboardLayoutEEE7destroyEv
00007ffa0d09b4b8 (__TEXT,__text) non-external __ZNSt3__110__function6__funcIZN15InputTranscoder26TouchTranscoderSessionImpl21addCandidateErrorTypeERNS_6vectorINS2_20CTCSurfaceFormOutputENS_9allocatorIS5_EEEEE3$_1NS6_ISA_EEF26ITAutocorrectionOperationsRNS2_14KeyboardLayoutEEED0Ev
00007ffa0d09b47a (__TEXT,__text) non-external __ZNSt3__110__function6__funcIZN15InputTranscoder26TouchTranscoderSessionImpl21addCandidateErrorTypeERNS_6vectorINS2_20CTCSurfaceFormOutputENS_9allocatorIS5_EEEEE3$_1NS6_ISA_EEF26ITAutocorrectionOperationsRNS2_14KeyboardLayoutEEED1Ev
00007ffa0d09b590 (__TEXT,__text) non-external __ZNSt3__110__function6__funcIZN15InputTranscoder26TouchTranscoderSessionImpl21addCandidateErrorTypeERNS_6vectorINS2_20CTCSurfaceFormOutputENS_9allocatorIS5_EEEEE3$_1NS6_ISA_EEF26ITAutocorrectionOperationsRNS2_14KeyboardLayoutEEEclESE_
00007ffa0d09b834 (__TEXT,__text) non-external __ZNSt3__110__function6__funcIZN15InputTranscoder26TouchTranscoderSessionImpl22getEditDistancePenaltyERKNS_12basic_stringIcNS_11char_traitsIcEENS_9allocatorIcEEEESB_E3$_2NS7_ISC_EEFdRNS2_14KeyboardLayoutEEE18destroy_deallocateEv
00007ffa0d09b826 (__TEXT,__text) non-external __ZNSt3__110__function6__funcIZN15InputTranscoder26TouchTranscoderSessionImpl22getEditDistancePenaltyERKNS_12basic_stringIcNS_11char_traitsIcEENS_9allocatorIcEEEESB_E3$_2NS7_ISC_EEFdRNS2_14KeyboardLayoutEEE7destroyEv
00007ffa0d09b77c (__TEXT,__text) non-external __ZNSt3__110__function6__funcIZN15InputTranscoder26TouchTranscoderSessionImpl22getEditDistancePenaltyERKNS_12basic_stringIcNS_11char_traitsIcEENS_9allocatorIcEEEESB_E3$_2NS7_ISC_EEFdRNS2_14KeyboardLayoutEEED0Ev
00007ffa0d09b73e (__TEXT,__text) non-external __ZNSt3__110__function6__funcIZN15InputTranscoder26TouchTranscoderSessionImpl22getEditDistancePenaltyERKNS_12basic_stringIcNS_11char_traitsIcEENS_9allocatorIcEEEESB_E3$_2NS7_ISC_EEFdRNS2_14KeyboardLayoutEEED1Ev
00007ffa0d09b854 (__TEXT,__text) non-external __ZNSt3__110__function6__funcIZN15InputTranscoder26TouchTranscoderSessionImpl22getEditDistancePenaltyERKNS_12basic_stringIcNS_11char_traitsIcEENS_9allocatorIcEEEESB_E3$_2NS7_ISC_EEFdRNS2_14KeyboardLayoutEEEclESF_
00007ffa0d09c022 (__TEXT,__text) non-external __ZNSt3__110__function6__funcIZN15InputTranscoder26TouchTranscoderSessionImpl23enumerateCandidatesImplEPK14__CFDictionaryRKNS_8functionIFbNS_10unique_ptrINS2_13CandidateImplENS_14default_deleteIS9_EEEEEEERNS_12basic_stringIcNS_11char_traitsIcEENS_9allocatorIcEEEEE4$_12NSK_ISO_EEFvRNS2_10CTCDecoderEEE18destroy_deallocateEv
00007ffa0d09c01c (__TEXT,__text) non-external __ZNSt3__110__function6__funcIZN15InputTranscoder26TouchTranscoderSessionImpl23enumerateCandidatesImplEPK14__CFDictionaryRKNS_8functionIFbNS_10unique_ptrINS2_13CandidateImplENS_14default_deleteIS9_EEEEEEERNS_12basic_stringIcNS_11char_traitsIcEENS_9allocatorIcEEEEE4$_12NSK_ISO_EEFvRNS2_10CTCDecoderEEE7destroyEv
00007ffa0d09bf8e (__TEXT,__text) non-external __ZNSt3__110__function6__funcIZN15InputTranscoder26TouchTranscoderSessionImpl23enumerateCandidatesImplEPK14__CFDictionaryRKNS_8functionIFbNS_10unique_ptrINS2_13CandidateImplENS_14default_deleteIS9_EEEEEEERNS_12basic_stringIcNS_11char_traitsIcEENS_9allocatorIcEEEEE4$_12NSK_ISO_EEFvRNS2_10CTCDecoderEEED0Ev
00007ffa0d09bf88 (__TEXT,__text) non-external __ZNSt3__110__function6__funcIZN15InputTranscoder26TouchTranscoderSessionImpl23enumerateCandidatesImplEPK14__CFDictionaryRKNS_8functionIFbNS_10unique_ptrINS2_13CandidateImplENS_14default_deleteIS9_EEEEEEERNS_12basic_stringIcNS_11char_traitsIcEENS_9allocatorIcEEEEE4$_12NSK_ISO_EEFvRNS2_10CTCDecoderEEED1Ev
00007ffa0d09c02c (__TEXT,__text) non-external __ZNSt3__110__function6__funcIZN15InputTranscoder26TouchTranscoderSessionImpl23enumerateCandidatesImplEPK14__CFDictionaryRKNS_8functionIFbNS_10unique_ptrINS2_13CandidateImplENS_14default_deleteIS9_EEEEEEERNS_12basic_stringIcNS_11char_traitsIcEENS_9allocatorIcEEEEE4$_12NSK_ISO_EEFvRNS2_10CTCDecoderEEEclESR_
00007ffa0d09bdc2 (__TEXT,__text) non-external __ZNSt3__110__function6__funcIZN15InputTranscoder26TouchTranscoderSessionImpl28uniquifyEquivalentCandidatesERNS_6vectorINS2_20CTCSurfaceFormOutputENS_9allocatorIS5_EEEEE4$_10NS6_ISA_EEFNS_12basic_stringIcNS_11char_traitsIcEENS6_IcEEEERNS2_14KeyboardLayoutEEE18destroy_deallocateEv
00007ffa0d09bdb4 (__TEXT,__text) non-external __ZNSt3__110__function6__funcIZN15InputTranscoder26TouchTranscoderSessionImpl28uniquifyEquivalentCandidatesERNS_6vectorINS2_20CTCSurfaceFormOutputENS_9allocatorIS5_EEEEE4$_10NS6_ISA_EEFNS_12basic_stringIcNS_11char_traitsIcEENS6_IcEEEERNS2_14KeyboardLayoutEEE7destroyEv
00007ffa0d09bd0a (__TEXT,__text) non-external __ZNSt3__110__function6__funcIZN15InputTranscoder26TouchTranscoderSessionImpl28uniquifyEquivalentCandidatesERNS_6vectorINS2_20CTCSurfaceFormOutputENS_9allocatorIS5_EEEEE4$_10NS6_ISA_EEFNS_12basic_stringIcNS_11char_traitsIcEENS6_IcEEEERNS2_14KeyboardLayoutEEED0Ev
00007ffa0d09bccc (__TEXT,__text) non-external __ZNSt3__110__function6__funcIZN15InputTranscoder26TouchTranscoderSessionImpl28uniquifyEquivalentCandidatesERNS_6vectorINS2_20CTCSurfaceFormOutputENS_9allocatorIS5_EEEEE4$_10NS6_ISA_EEFNS_12basic_stringIcNS_11char_traitsIcEENS6_IcEEEERNS2_14KeyboardLayoutEEED1Ev
00007ffa0d09bde2 (__TEXT,__text) non-external __ZNSt3__110__function6__funcIZN15InputTranscoder26TouchTranscoderSessionImpl28uniquifyEquivalentCandidatesERNS_6vectorINS2_20CTCSurfaceFormOutputENS_9allocatorIS5_EEEEE4$_10NS6_ISA_EEFNS_12basic_stringIcNS_11char_traitsIcEENS6_IcEEEERNS2_14KeyboardLayoutEEEclESI_
00007ffa0d086ef4 (__TEXT,__text) non-external __ZNSt3__110__function6__funcIZNK15InputTranscoder13RNNRecognizer9recognizeERKNS2_14InputProcessorERNS2_18TranscoderMediatorEE3$_0NS_9allocatorIS9_EEFNS_4spanIKfLm18446744073709551615EEERNS2_13MontrealModelEEE18destroy_deallocateEv
00007ffa0d086eee (__TEXT,__text) non-external __ZNSt3__110__function6__funcIZNK15InputTranscoder13RNNRecognizer9recognizeERKNS2_14InputProcessorERNS2_18TranscoderMediatorEE3$_0NS_9allocatorIS9_EEFNS_4spanIKfLm18446744073709551615EEERNS2_13MontrealModelEEE7destroyEv
00007ffa0d086ea0 (__TEXT,__text) non-external __ZNSt3__110__function6__funcIZNK15InputTranscoder13RNNRecognizer9recognizeERKNS2_14InputProcessorERNS2_18TranscoderMediatorEE3$_0NS_9allocatorIS9_EEFNS_4spanIKfLm18446744073709551615EEERNS2_13MontrealModelEEED0Ev
00007ffa0d086e9a (__TEXT,__text) non-external __ZNSt3__110__function6__funcIZNK15InputTranscoder13RNNRecognizer9recognizeERKNS2_14InputProcessorERNS2_18TranscoderMediatorEE3$_0NS_9allocatorIS9_EEFNS_4spanIKfLm18446744073709551615EEERNS2_13MontrealModelEEED1Ev
00007ffa0d086efe (__TEXT,__text) non-external __ZNSt3__110__function6__funcIZNK15InputTranscoder13RNNRecognizer9recognizeERKNS2_14InputProcessorERNS2_18TranscoderMediatorEE3$_0NS_9allocatorIS9_EEFNS_4spanIKfLm18446744073709551615EEERNS2_13MontrealModelEEEclESG_
00007ffa0d08c0ca (__TEXT,__text) non-external __ZNSt3__110__function6__funcIZNK15InputTranscoder14CRNNRecognizer9recognizeERKNS2_14InputProcessorERNS2_18TranscoderMediatorEE3$_0NS_9allocatorIS9_EEFNS_4spanIKfLm18446744073709551615EEERNS2_13MontrealModelEEE18destroy_deallocateEv
00007ffa0d08c0c4 (__TEXT,__text) non-external __ZNSt3__110__function6__funcIZNK15InputTranscoder14CRNNRecognizer9recognizeERKNS2_14InputProcessorERNS2_18TranscoderMediatorEE3$_0NS_9allocatorIS9_EEFNS_4spanIKfLm18446744073709551615EEERNS2_13MontrealModelEEE7destroyEv
00007ffa0d08c066 (__TEXT,__text) non-external __ZNSt3__110__function6__funcIZNK15InputTranscoder14CRNNRecognizer9recognizeERKNS2_14InputProcessorERNS2_18TranscoderMediatorEE3$_0NS_9allocatorIS9_EEFNS_4spanIKfLm18446744073709551615EEERNS2_13MontrealModelEEED0Ev
00007ffa0d08c060 (__TEXT,__text) non-external __ZNSt3__110__function6__funcIZNK15InputTranscoder14CRNNRecognizer9recognizeERKNS2_14InputProcessorERNS2_18TranscoderMediatorEE3$_0NS_9allocatorIS9_EEFNS_4spanIKfLm18446744073709551615EEERNS2_13MontrealModelEEED1Ev
00007ffa0d08c0d4 (__TEXT,__text) non-external __ZNSt3__110__function6__funcIZNK15InputTranscoder14CRNNRecognizer9recognizeERKNS2_14InputProcessorERNS2_18TranscoderMediatorEE3$_0NS_9allocatorIS9_EEFNS_4spanIKfLm18446744073709551615EEERNS2_13MontrealModelEEEclESG_
00007ffa0d08c300 (__TEXT,__text) non-external __ZNSt3__110__function6__funcIZNK15InputTranscoder14LRNNRecognizer9recognizeERKNS2_14InputProcessorERNS2_18TranscoderMediatorEE3$_0NS_9allocatorIS9_EEFNS_4spanIKfLm18446744073709551615EEERNS2_13MontrealModelEEE18destroy_deallocateEv
00007ffa0d08c2fa (__TEXT,__text) non-external __ZNSt3__110__function6__funcIZNK15InputTranscoder14LRNNRecognizer9recognizeERKNS2_14InputProcessorERNS2_18TranscoderMediatorEE3$_0NS_9allocatorIS9_EEFNS_4spanIKfLm18446744073709551615EEERNS2_13MontrealModelEEE7destroyEv
00007ffa0d08c29c (__TEXT,__text) non-external __ZNSt3__110__function6__funcIZNK15InputTranscoder14LRNNRecognizer9recognizeERKNS2_14InputProcessorERNS2_18TranscoderMediatorEE3$_0NS_9allocatorIS9_EEFNS_4spanIKfLm18446744073709551615EEERNS2_13MontrealModelEEED0Ev
00007ffa0d08c296 (__TEXT,__text) non-external __ZNSt3__110__function6__funcIZNK15InputTranscoder14LRNNRecognizer9recognizeERKNS2_14InputProcessorERNS2_18TranscoderMediatorEE3$_0NS_9allocatorIS9_EEFNS_4spanIKfLm18446744073709551615EEERNS2_13MontrealModelEEED1Ev
00007ffa0d08c30a (__TEXT,__text) non-external __ZNSt3__110__function6__funcIZNK15InputTranscoder14LRNNRecognizer9recognizeERKNS2_14InputProcessorERNS2_18TranscoderMediatorEE3$_0NS_9allocatorIS9_EEFNS_4spanIKfLm18446744073709551615EEERNS2_13MontrealModelEEEclESG_
00007ffa0d0a7048 (__TEXT,__text) non-external __ZNSt3__110__function6__funcIZNK15InputTranscoder22PathKeyLayoutProcessor21input_stream_for_pathERKNS2_4PathEE3$_2NS_9allocatorIS7_EEFK7CGPointRNS2_14KeyboardLayoutEEE18destroy_deallocateEv
00007ffa0d0a7042 (__TEXT,__text) non-external __ZNSt3__110__function6__funcIZNK15InputTranscoder22PathKeyLayoutProcessor21input_stream_for_pathERKNS2_4PathEE3$_2NS_9allocatorIS7_EEFK7CGPointRNS2_14KeyboardLayoutEEE7destroyEv
00007ffa0d0a6ff4 (__TEXT,__text) non-external __ZNSt3__110__function6__funcIZNK15InputTranscoder22PathKeyLayoutProcessor21input_stream_for_pathERKNS2_4PathEE3$_2NS_9allocatorIS7_EEFK7CGPointRNS2_14KeyboardLayoutEEED0Ev
00007ffa0d0a6fee (__TEXT,__text) non-external __ZNSt3__110__function6__funcIZNK15InputTranscoder22PathKeyLayoutProcessor21input_stream_for_pathERKNS2_4PathEE3$_2NS_9allocatorIS7_EEFK7CGPointRNS2_14KeyboardLayoutEEED1Ev
00007ffa0d0a7052 (__TEXT,__text) non-external __ZNSt3__110__function6__funcIZNK15InputTranscoder22PathKeyLayoutProcessor21input_stream_for_pathERKNS2_4PathEE3$_2NS_9allocatorIS7_EEFK7CGPointRNS2_14KeyboardLayoutEEEclESD_
00007ffa0d0a737e (__TEXT,__text) non-external (was a private external) __ZNSt3__110__function6__funcIZNK15InputTranscoder22PathKeyLayoutProcessor23key_class_for_touch_keyERK9ITKeyInfoE3$_0NS_9allocatorIS7_EEFbRNS2_14KeyboardLayoutEEE18destroy_deallocateEv
00007ffa0d0a7378 (__TEXT,__text) non-external (was a private external) __ZNSt3__110__function6__funcIZNK15InputTranscoder22PathKeyLayoutProcessor23key_class_for_touch_keyERK9ITKeyInfoE3$_0NS_9allocatorIS7_EEFbRNS2_14KeyboardLayoutEEE7destroyEv
00007ffa0d0a7344 (__TEXT,__text) non-external (was a private external) __ZNSt3__110__function6__funcIZNK15InputTranscoder22PathKeyLayoutProcessor23key_class_for_touch_keyERK9ITKeyInfoE3$_0NS_9allocatorIS7_EEFbRNS2_14KeyboardLayoutEEED0Ev
00007ffa0d0a733e (__TEXT,__text) non-external (was a private external) __ZNSt3__110__function6__funcIZNK15InputTranscoder22PathKeyLayoutProcessor23key_class_for_touch_keyERK9ITKeyInfoE3$_0NS_9allocatorIS7_EEFbRNS2_14KeyboardLayoutEEED1Ev
00007ffa0d0a7388 (__TEXT,__text) non-external (was a private external) __ZNSt3__110__function6__funcIZNK15InputTranscoder22PathKeyLayoutProcessor23key_class_for_touch_keyERK9ITKeyInfoE3$_0NS_9allocatorIS7_EEFbRNS2_14KeyboardLayoutEEEclESB_
00007ffa0d0a6f94 (__TEXT,__text) non-external __ZNSt3__110__function6__funcIZNK15InputTranscoder22PathKeyLayoutProcessor29input_feature_stream_for_pathERKNS2_4PathEbjbjE3$_1NS_9allocatorIS7_EEFK7CGPointRNS2_14KeyboardLayoutEEE18destroy_deallocateEv
00007ffa0d0a6f8e (__TEXT,__text) non-external __ZNSt3__110__function6__funcIZNK15InputTranscoder22PathKeyLayoutProcessor29input_feature_stream_for_pathERKNS2_4PathEbjbjE3$_1NS_9allocatorIS7_EEFK7CGPointRNS2_14KeyboardLayoutEEE7destroyEv
00007ffa0d0a6f40 (__TEXT,__text) non-external __ZNSt3__110__function6__funcIZNK15InputTranscoder22PathKeyLayoutProcessor29input_feature_stream_for_pathERKNS2_4PathEbjbjE3$_1NS_9allocatorIS7_EEFK7CGPointRNS2_14KeyboardLayoutEEED0Ev
00007ffa0d0a6f3a (__TEXT,__text) non-external __ZNSt3__110__function6__funcIZNK15InputTranscoder22PathKeyLayoutProcessor29input_feature_stream_for_pathERKNS2_4PathEbjbjE3$_1NS_9allocatorIS7_EEFK7CGPointRNS2_14KeyboardLayoutEEED1Ev
00007ffa0d0a6f9e (__TEXT,__text) non-external __ZNSt3__110__function6__funcIZNK15InputTranscoder22PathKeyLayoutProcessor29input_feature_stream_for_pathERKNS2_4PathEbjbjE3$_1NS_9allocatorIS7_EEFK7CGPointRNS2_14KeyboardLayoutEEEclESD_
00007ffa0d09bb48 (__TEXT,__text) non-external __ZNSt3__110__function6__funcIZNK15InputTranscoder26TouchTranscoderSessionImpl31updateCondenseFormForCandidatesERNS_6vectorINS2_20CTCSurfaceFormOutputENS_9allocatorIS5_EEEE12ITTypingModeE3$_9NS6_ISB_EEFNS_12basic_stringIcNS_11char_traitsIcEENS6_IcEEEERNS2_14KeyboardLayoutEEE18destroy_deallocateEv
00007ffa0d09bb3a (__TEXT,__text) non-external __ZNSt3__110__function6__funcIZNK15InputTranscoder26TouchTranscoderSessionImpl31updateCondenseFormForCandidatesERNS_6vectorINS2_20CTCSurfaceFormOutputENS_9allocatorIS5_EEEE12ITTypingModeE3$_9NS6_ISB_EEFNS_12basic_stringIcNS_11char_traitsIcEENS6_IcEEEERNS2_14KeyboardLayoutEEE7destroyEv
00007ffa0d09ba82 (__TEXT,__text) non-external __ZNSt3__110__function6__funcIZNK15InputTranscoder26TouchTranscoderSessionImpl31updateCondenseFormForCandidatesERNS_6vectorINS2_20CTCSurfaceFormOutputENS_9allocatorIS5_EEEE12ITTypingModeE3$_9NS6_ISB_EEFNS_12basic_stringIcNS_11char_traitsIcEENS6_IcEEEERNS2_14KeyboardLayoutEEED0Ev
00007ffa0d09ba34 (__TEXT,__text) non-external __ZNSt3__110__function6__funcIZNK15InputTranscoder26TouchTranscoderSessionImpl31updateCondenseFormForCandidatesERNS_6vectorINS2_20CTCSurfaceFormOutputENS_9allocatorIS5_EEEE12ITTypingModeE3$_9NS6_ISB_EEFNS_12basic_stringIcNS_11char_traitsIcEENS6_IcEEEERNS2_14KeyboardLayoutEEED1Ev
00007ffa0d09bb68 (__TEXT,__text) non-external __ZNSt3__110__function6__funcIZNK15InputTranscoder26TouchTranscoderSessionImpl31updateCondenseFormForCandidatesERNS_6vectorINS2_20CTCSurfaceFormOutputENS_9allocatorIS5_EEEE12ITTypingModeE3$_9NS6_ISB_EEFNS_12basic_stringIcNS_11char_traitsIcEENS6_IcEEEERNS2_14KeyboardLayoutEEEclESJ_
00007ffa0d0aea0a (__TEXT,__text) non-external (was a private external) __ZNSt3__110__function6__funcIZNK15InputTranscoder4Path22is_curvature_local_maxEjdE3$_0NS_9allocatorIS4_EEFdjEE18destroy_deallocateEv
00007ffa0d0aea04 (__TEXT,__text) non-external (was a private external) __ZNSt3__110__function6__funcIZNK15InputTranscoder4Path22is_curvature_local_maxEjdE3$_0NS_9allocatorIS4_EEFdjEE7destroyEv
00007ffa0d0ae9b6 (__TEXT,__text) non-external (was a private external) __ZNSt3__110__function6__funcIZNK15InputTranscoder4Path22is_curvature_local_maxEjdE3$_0NS_9allocatorIS4_EEFdjEED0Ev
00007ffa0d0ae9b0 (__TEXT,__text) non-external (was a private external) __ZNSt3__110__function6__funcIZNK15InputTranscoder4Path22is_curvature_local_maxEjdE3$_0NS_9allocatorIS4_EEFdjEED1Ev
00007ffa0d0aea14 (__TEXT,__text) non-external (was a private external) __ZNSt3__110__function6__funcIZNK15InputTranscoder4Path22is_curvature_local_maxEjdE3$_0NS_9allocatorIS4_EEFdjEEclEOj
00007ffa0d08dc5a (__TEXT,__text) non-external __ZNSt3__110shared_ptrIKN15InputTranscoder10PlistBiMapINS_12basic_stringIcNS_11char_traitsIcEENS_9allocatorIcEEEEjEEED2B7v160006Ev
00007ffa0d08dcec (__TEXT,__text) non-external __ZNSt3__110shared_ptrIKN15InputTranscoder10PlistBiMapIjNS_12basic_stringIcNS_11char_traitsIcEENS_9allocatorIcEEEEEEED2B7v160006Ev
00007ffa0d0891fc (__TEXT,__text) non-external __ZNSt3__110shared_ptrIKN15InputTranscoder10PlistBiMapIjjEEED2B7v160006Ev
00007ffa0d087548 (__TEXT,__text) non-external (was a private external) __ZNSt3__110shared_ptrIKN15InputTranscoder5BiMapINS_12basic_stringIcNS_11char_traitsIcEENS_9allocatorIcEEEEjEEED2B7v160006Ev
00007ffa0d087508 (__TEXT,__text) non-external (was a private external) __ZNSt3__110shared_ptrIKN15InputTranscoder5BiMapIjNS_12basic_stringIcNS_11char_traitsIcEENS_9allocatorIcEEEEEEED2B7v160006Ev
00007ffa0d087a16 (__TEXT,__text) non-external (was a private external) __ZNSt3__110shared_ptrIKN15InputTranscoder5BiMapIjjEEED2B7v160006Ev
00007ffa0d0874c8 (__TEXT,__text) non-external (was a private external) __ZNSt3__110shared_ptrIN15InputTranscoder18TranscoderMediatorEED2B7v160006Ev
00007ffa0d0878fc (__TEXT,__text) non-external (was a private external) __ZNSt3__110unique_ptrIN15InputTranscoder11DecoderImplENS_14default_deleteIS2_EEE5resetB7v160006EPS2_
00007ffa0d087b42 (__TEXT,__text) non-external (was a private external) __ZNSt3__110unique_ptrIN15InputTranscoder13LanguageModelENS_14default_deleteIS2_EEE5resetB7v160006EPS2_
00007ffa0d087712 (__TEXT,__text) non-external (was a private external) __ZNSt3__110unique_ptrIN15InputTranscoder26TouchTranscoderSessionImplENS_14default_deleteIS2_EEE5resetB7v160006EPS2_
00007ffa0d0ad734 (__TEXT,__text) non-external __ZNSt3__110unique_ptrINS_11__hash_nodeINS_17__hash_value_typeINS_12basic_stringIcNS_11char_traitsIcEENS_9allocatorIcEEEENS_10shared_ptrIN15InputTranscoder18LayoutInfoAssortedEEEEEPvEENS_22__hash_node_destructorINS6_ISF_EEEEE5resetB7v160006EPSF_
00007ffa0d08f381 (__TEXT,__text) non-external __ZNSt3__111__introsortINS_17_ClassicAlgPolicyERPFbPKN15InputTranscoder8PathTrieES5_EPPS3_EEvT1_SB_T0_NS_15iterator_traitsISB_E15difference_typeE
00007ffa0d099a29 (__TEXT,__text) non-external __ZNSt3__111__introsortINS_17_ClassicAlgPolicyERPFbRKN15InputTranscoder20CTCSurfaceFormOutputES5_EPS3_EEvT1_SA_T0_NS_15iterator_traitsISA_E15difference_typeE
00007ffa0d09d9f6 (__TEXT,__text) non-external __ZNSt3__111__sift_downB7v160006INS_17_ClassicAlgPolicyERPFbRKNS_4pairImdEES5_ENS_11__wrap_iterIPNS2_IjfEEEEEEvT1_OT0_NS_15iterator_traitsISD_E15difference_typeESD_
00007ffa0d091f3d (__TEXT,__text) non-external (was a private external) __ZNSt3__112__destroy_atB7v160006IN15InputTranscoder20CTCSurfaceFormOutputELi0EEEvPT_
00007ffa0d0a0ea6 (__TEXT,__text) non-external __ZNSt3__112__destroy_atB7v160006IN15InputTranscoder20DecoderConfigurationELi0EEEvPT_
00007ffa0d090257 (__TEXT,__text) non-external (was a private external) __ZNSt3__112__destroy_atB7v160006INS_4pairIPN15InputTranscoder8PathTrieENS2_20CTCSurfaceFormOutputEEELi0EEEvPT_
00007ffa0d0ad440 (__TEXT,__text) non-external __ZNSt3__112__hash_tableINS_17__hash_value_typeINS_12basic_stringIcNS_11char_traitsIcEENS_9allocatorIcEEEENS_10shared_ptrIN15InputTranscoder18LayoutInfoAssortedEEEEENS_22__unordered_map_hasherIS7_SC_NS_4hashIS7_EENS_8equal_toIS7_EELb1EEENS_21__unordered_map_equalIS7_SC_SH_SF_Lb1EEENS5_ISC_EEE8__rehashILb1EEEvm
00007ffa0d0a3cce (__TEXT,__text) non-external __ZNSt3__112__hash_tableINS_17__hash_value_typeINS_12basic_stringIcNS_11char_traitsIcEENS_9allocatorIcEEEEjEENS_22__unordered_map_hasherIS7_S8_NS_4hashIS7_EENS_8equal_toIS7_EELb1EEENS_21__unordered_map_equalIS7_S8_SD_SB_Lb1EEENS5_IS8_EEE25__emplace_unique_key_argsIS7_JRKNS_21piecewise_construct_tENS_5tupleIJRKS7_EEENSN_IJEEEEEENS_4pairINS_15__hash_iteratorIPNS_11__hash_nodeIS8_PvEEEEbEERKT_DpOT0_
00007ffa0d0a3692 (__TEXT,__text) non-external __ZNSt3__112__hash_tableINS_17__hash_value_typeINS_12basic_stringIcNS_11char_traitsIcEENS_9allocatorIcEEEEjEENS_22__unordered_map_hasherIS7_S8_NS_4hashIS7_EENS_8equal_toIS7_EELb1EEENS_21__unordered_map_equalIS7_S8_SD_SB_Lb1EEENS5_IS8_EEED2Ev
00007ffa0d0a372e (__TEXT,__text) non-external __ZNSt3__112__hash_tableINS_17__hash_value_typeIjNS_12basic_stringIcNS_11char_traitsIcEENS_9allocatorIcEEEEEENS_22__unordered_map_hasherIjS8_NS_4hashIjEENS_8equal_toIjEELb1EEENS_21__unordered_map_equalIjS8_SD_SB_Lb1EEENS5_IS8_EEE25__emplace_unique_key_argsIjJRKNS_21piecewise_construct_tENS_5tupleIJRKjEEENSN_IJEEEEEENS_4pairINS_15__hash_iteratorIPNS_11__hash_nodeIS8_PvEEEEbEERKT_DpOT0_
00007ffa0d0a3634 (__TEXT,__text) non-external __ZNSt3__112__hash_tableINS_17__hash_value_typeIjNS_12basic_stringIcNS_11char_traitsIcEENS_9allocatorIcEEEEEENS_22__unordered_map_hasherIjS8_NS_4hashIjEENS_8equal_toIjEELb1EEENS_21__unordered_map_equalIjS8_SD_SB_Lb1EEENS5_IS8_EEED2Ev
00007ffa0d0a2ffe (__TEXT,__text) non-external __ZNSt3__112__hash_tableINS_17__hash_value_typeIjjEENS_22__unordered_map_hasherIjS2_NS_4hashIjEENS_8equal_toIjEELb1EEENS_21__unordered_map_equalIjS2_S7_S5_Lb1EEENS_9allocatorIS2_EEE25__emplace_unique_key_argsIjJRKNS_21piecewise_construct_tENS_5tupleIJRKjEEENSI_IJEEEEEENS_4pairINS_15__hash_iteratorIPNS_11__hash_nodeIS2_PvEEEEbEERKT_DpOT0_
00007ffa0d0a2c64 (__TEXT,__text) non-external __ZNSt3__112__hash_tableINS_17__hash_value_typeIjjEENS_22__unordered_map_hasherIjS2_NS_4hashIjEENS_8equal_toIjEELb1EEENS_21__unordered_map_equalIjS2_S7_S5_Lb1EEENS_9allocatorIS2_EEED2Ev
00007ffa0d0ad310 (__TEXT,__text) non-external __ZNSt3__112__hash_tableItNS_4hashItEENS_8equal_toItEENS_9allocatorItEEED2Ev
                 (undefined) external __ZNSt3__112__next_primeEm (from libc++)
00007ffa0d0a72ea (__TEXT,__text) non-external __ZNSt3__112__tuple_implINS_15__tuple_indicesIJLm0ELm1ELm2ELm3EEEEJN15InputTranscoder10PathSampleENS_12placeholders4__phILi1EEEbNS_12basic_stringIcNS_11char_traitsIcEENS_9allocatorIcEEEEEEC2ERKSE_
00007ffa0d08a0ae (__TEXT,__text) non-external (was a private external) __ZNSt3__112basic_stringIcNS_11char_traitsIcEENS_9allocatorIcEEE17__assign_no_aliasILb0EEERS5_PKcm
00007ffa0d08a04e (__TEXT,__text) non-external (was a private external) __ZNSt3__112basic_stringIcNS_11char_traitsIcEENS_9allocatorIcEEE17__assign_no_aliasILb1EEERS5_PKcm
                 (undefined) external __ZNSt3__112basic_stringIcNS_11char_traitsIcEENS_9allocatorIcEEE21__grow_by_and_replaceEmmmmmmPKc (from libc++)
00007ffa0d088ec6 (__TEXT,__text) non-external (was a private external) __ZNSt3__112basic_stringIcNS_11char_traitsIcEENS_9allocatorIcEEE25__init_copy_ctor_externalEPKcm
00007ffa0d091de6 (__TEXT,__text) non-external (was a private external) __ZNSt3__112basic_stringIcNS_11char_traitsIcEENS_9allocatorIcEEE26__erase_external_with_moveEmm
                 (undefined) external __ZNSt3__112basic_stringIcNS_11char_traitsIcEENS_9allocatorIcEEE5eraseEmm (from libc++)
                 (undefined) external __ZNSt3__112basic_stringIcNS_11char_traitsIcEENS_9allocatorIcEEE6appendEPKc (from libc++)
                 (undefined) external __ZNSt3__112basic_stringIcNS_11char_traitsIcEENS_9allocatorIcEEE6appendEPKcm (from libc++)
                 (undefined) external __ZNSt3__112basic_stringIcNS_11char_traitsIcEENS_9allocatorIcEEE6appendEmc (from libc++)
                 (undefined) external __ZNSt3__112basic_stringIcNS_11char_traitsIcEENS_9allocatorIcEEE6assignEPKc (from libc++)
                 (undefined) external __ZNSt3__112basic_stringIcNS_11char_traitsIcEENS_9allocatorIcEEE6insertEmPKcm (from libc++)
                 (undefined) external __ZNSt3__112basic_stringIcNS_11char_traitsIcEENS_9allocatorIcEEE6resizeEmc (from libc++)
                 (undefined) external __ZNSt3__112basic_stringIcNS_11char_traitsIcEENS_9allocatorIcEEEC1ERKS5_ (from libc++)
00007ffa0d09afa6 (__TEXT,__text) non-external (was a private external) __ZNSt3__112basic_stringIcNS_11char_traitsIcEENS_9allocatorIcEEEC2B7v160006ENS_24__uninitialized_size_tagEmRKS4_
00007ffa0d09de76 (__TEXT,__text) non-external (was a private external) __ZNSt3__112basic_stringIcNS_11char_traitsIcEENS_9allocatorIcEEEC2B7v160006Emc
00007ffa0d086c16 (__TEXT,__text) non-external (was a private external) __ZNSt3__112basic_stringIcNS_11char_traitsIcEENS_9allocatorIcEEEC2B7v160006IDnEEPKc
00007ffa0d0af43a (__TEXT,__text) non-external (was a private external) __ZNSt3__112basic_stringIcNS_11char_traitsIcEENS_9allocatorIcEEEC2B7v160006INS_11__wrap_iterIPKcEEvEET_SB_
                 (undefined) external __ZNSt3__112basic_stringIcNS_11char_traitsIcEENS_9allocatorIcEEEC2ERKS5_mmRKS4_ (from libc++)
                 (undefined) external __ZNSt3__112basic_stringIcNS_11char_traitsIcEENS_9allocatorIcEEEaSERKS5_ (from libc++)
00007ffa0d09b2cc (__TEXT,__text) non-external __ZNSt3__112construct_atB7v160006IN15InputTranscoder20CTCSurfaceFormOutputEJRKS2_EPS2_EEPT_S7_DpOT0_
00007ffa0d09b3f1 (__TEXT,__text) non-external __ZNSt3__112construct_atB7v160006IN15InputTranscoder20CTCSurfaceFormOutputEJRS2_EPS2_EEPT_S6_DpOT0_
00007ffa0d0a0da0 (__TEXT,__text) non-external __ZNSt3__112construct_atB7v160006IN15InputTranscoder20DecoderConfigurationEJS2_EPS2_EEPT_S5_DpOT0_
00007ffa0d08fe0c (__TEXT,__text) non-external __ZNSt3__113__nth_elementB7v160006INS_17_ClassicAlgPolicyERPFbPKN15InputTranscoder8PathTrieES5_ENS_11__wrap_iterIPPS3_EEEEvT1_SD_SD_T0_
                 (undefined) external __ZNSt3__113basic_ostreamIcNS_11char_traitsIcEEE6sentryC1ERS3_ (from libc++)
                 (undefined) external __ZNSt3__113basic_ostreamIcNS_11char_traitsIcEEE6sentryD1Ev (from libc++)
                 (undefined) external __ZNSt3__113basic_ostreamIcNS_11char_traitsIcEEED2Ev (from libc++)
                 (undefined) external __ZNSt3__113basic_ostreamIcNS_11char_traitsIcEEElsEd (from libc++)
                 (undefined) external __ZNSt3__113basic_ostreamIcNS_11char_traitsIcEEElsEf (from libc++)
00007ffa0d0ad8b0 (__TEXT,__text) non-external __ZNSt3__114__split_bufferIN15InputTranscoder16KeyCandidateImplERNS_9allocatorIS2_EEED2Ev
00007ffa0d091f70 (__TEXT,__text) non-external (was a private external) __ZNSt3__114__split_bufferIN15InputTranscoder20CTCSurfaceFormOutputERNS_9allocatorIS2_EEED2Ev
00007ffa0d0a0ef8 (__TEXT,__text) non-external __ZNSt3__114__split_bufferIN15InputTranscoder20DecoderConfigurationERNS_9allocatorIS2_EEED2Ev
00007ffa0d0a1212 (__TEXT,__text) non-external __ZNSt3__114__split_bufferIN15InputTranscoder23TranscoderConfigurationERNS_9allocatorIS2_EEED2Ev
00007ffa0d0903b4 (__TEXT,__text) non-external __ZNSt3__114__split_bufferIN15InputTranscoder9CTCOutputERNS_9allocatorIS2_EEED2Ev
00007ffa0d09b08a (__TEXT,__text) non-external __ZNSt3__114__split_bufferINS_10unique_ptrIN15InputTranscoder13CandidateImplENS_14default_deleteIS3_EEEERNS_9allocatorIS6_EEED2Ev
00007ffa0d0a0a16 (__TEXT,__text) non-external __ZNSt3__114__split_bufferINS_12basic_stringIcNS_11char_traitsIcEENS_9allocatorIcEEEERNS4_IS6_EEED2Ev
00007ffa0d089f8e (__TEXT,__text) non-external (was a private external) __ZNSt3__114__split_bufferINS_4pairIN3nlp11CFScopedPtrIPK9_LXCursorEEbEERNS_9allocatorIS8_EEED2Ev
00007ffa0d09b28c (__TEXT,__text) non-external __ZNSt3__114__split_bufferINS_4pairIPN15InputTranscoder8PathTrieENS2_20CTCSurfaceFormOutputEEERNS_9allocatorIS6_EEED2Ev
00007ffa0d08b3d8 (__TEXT,__text) non-external __ZNSt3__114__split_bufferINS_6vectorIfNS_9allocatorIfEEEERNS2_IS4_EEED2Ev
                 (undefined) external __ZNSt3__114basic_iostreamIcNS_11char_traitsIcEEED2Ev (from libc++)
00007ffa0d089108 (__TEXT,__text) non-external (was a private external) __ZNSt3__115allocate_sharedB7v160006IKN15InputTranscoder10PlistBiMapIjjEENS_9allocatorIS4_EEJRKNS_12basic_stringIcNS_11char_traitsIcEENS5_IcEEEEEvEENS_10shared_ptrIT_EERKT0_DpOT1_
                 (undefined) external __ZNSt3__115basic_streambufIcNS_11char_traitsIcEEEC2Ev (from libc++)
                 (undefined) external __ZNSt3__115basic_streambufIcNS_11char_traitsIcEEED2Ev (from libc++)
00007ffa0d09dd6b (__TEXT,__text) non-external (was a private external) __ZNSt3__116__pad_and_outputB7v160006IcNS_11char_traitsIcEEEENS_19ostreambuf_iteratorIT_T0_EES6_PKS4_S8_S8_RNS_8ios_baseES4_
00007ffa0d090444 (__TEXT,__text) non-external (was a private external) __ZNSt3__117bad_function_callD0Ev
00007ffa0d09043a (__TEXT,__text) non-external (was a private external) __ZNSt3__117bad_function_callD1Ev
00007ffa0d0a2e36 (__TEXT,__text) non-external __ZNSt3__118basic_stringstreamIcNS_11char_traitsIcEENS_9allocatorIcEEEC1B7v160006Ev
00007ffa0d0a2f80 (__TEXT,__text) non-external __ZNSt3__118basic_stringstreamIcNS_11char_traitsIcEENS_9allocatorIcEEED1Ev
00007ffa0d0ad2d0 (__TEXT,__text) non-external (was a private external) __ZNSt3__119__allocate_at_leastB7v160006INS_9allocatorI9ITKeyInfoEEEENS_19__allocation_resultINS_16allocator_traitsIT_E7pointerEEERS6_m
00007ffa0d0999dc (__TEXT,__text) non-external (was a private external) __ZNSt3__119__allocate_at_leastB7v160006INS_9allocatorIN15InputTranscoder10PathSampleEEEEENS_19__allocation_resultINS_16allocator_traitsIT_E7pointerEEERS7_m
00007ffa0d087cc5 (__TEXT,__text) non-external (was a private external) __ZNSt3__119__allocate_at_leastB7v160006INS_9allocatorIN15InputTranscoder12InputFeatureEEEEENS_19__allocation_resultINS_16allocator_traitsIT_E7pointerEEERS7_m
00007ffa0d0ad84a (__TEXT,__text) non-external __ZNSt3__119__allocate_at_leastB7v160006INS_9allocatorIN15InputTranscoder16KeyCandidateImplEEEEENS_19__allocation_resultINS_16allocator_traitsIT_E7pointerEEERS7_m
00007ffa0d091f10 (__TEXT,__text) non-external (was a private external) __ZNSt3__119__allocate_at_leastB7v160006INS_9allocatorIN15InputTranscoder20CTCSurfaceFormOutputEEEEENS_19__allocation_resultINS_16allocator_traitsIT_E7pointerEEERS7_m
00007ffa0d08d88c (__TEXT,__text) non-external (was a private external) __ZNSt3__119__allocate_at_leastB7v160006INS_9allocatorINS_12basic_stringIcNS_11char_traitsIcEENS1_IcEEEEEEEENS_19__allocation_resultINS_16allocator_traitsIT_E7pointerEEERSA_m
00007ffa0d089f60 (__TEXT,__text) non-external (was a private external) __ZNSt3__119__allocate_at_leastB7v160006INS_9allocatorINS_4pairIN3nlp11CFScopedPtrIPK9_LXCursorEEbEEEEEENS_19__allocation_resultINS_16allocator_traitsIT_E7pointerEEERSD_m
00007ffa0d09b254 (__TEXT,__text) non-external __ZNSt3__119__allocate_at_leastB7v160006INS_9allocatorINS_4pairIPN15InputTranscoder8PathTrieENS3_20CTCSurfaceFormOutputEEEEEEENS_19__allocation_resultINS_16allocator_traitsIT_E7pointerEEERSB_m
00007ffa0d09d9c8 (__TEXT,__text) non-external __ZNSt3__119__allocate_at_leastB7v160006INS_9allocatorINS_4pairIjfEEEEEENS_19__allocation_resultINS_16allocator_traitsIT_E7pointerEEERS7_m
00007ffa0d08b3a0 (__TEXT,__text) non-external __ZNSt3__119__allocate_at_leastB7v160006INS_9allocatorINS_6vectorIfNS1_IfEEEEEEEENS_19__allocation_resultINS_16allocator_traitsIT_E7pointerEEERS8_m
00007ffa0d08fdde (__TEXT,__text) non-external (was a private external) __ZNSt3__119__allocate_at_leastB7v160006INS_9allocatorIPN15InputTranscoder8PathTrieEEEEENS_19__allocation_resultINS_16allocator_traitsIT_E7pointerEEERS8_m
00007ffa0d08b23c (__TEXT,__text) non-external (was a private external) __ZNSt3__119__allocate_at_leastB7v160006INS_9allocatorIfEEEENS_19__allocation_resultINS_16allocator_traitsIT_E7pointerEEERS5_m
00007ffa0d08b43c (__TEXT,__text) non-external (was a private external) __ZNSt3__119__allocate_at_leastB7v160006INS_9allocatorIjEEEENS_19__allocation_resultINS_16allocator_traitsIT_E7pointerEEERS5_m
00007ffa0d0adc20 (__TEXT,__text) non-external __ZNSt3__119__allocate_at_leastB7v160006INS_9allocatorItEEEENS_19__allocation_resultINS_16allocator_traitsIT_E7pointerEEERS5_m
                 (undefined) external __ZNSt3__119__shared_weak_count14__release_weakEv (from libc++)
                 (undefined) external __ZNSt3__119__shared_weak_countD2Ev (from libc++)
00007ffa0d09d864 (__TEXT,__text) non-external (was a private external) __ZNSt3__119basic_ostringstreamIcNS_11char_traitsIcEENS_9allocatorIcEEEC1B7v160006Ev
00007ffa0d09d942 (__TEXT,__text) non-external (was a private external) __ZNSt3__119basic_ostringstreamIcNS_11char_traitsIcEENS_9allocatorIcEEED1Ev
00007ffa0d08dc40 (__TEXT,__text) non-external __ZNSt3__120__shared_ptr_emplaceIKN15InputTranscoder10PlistBiMapINS_12basic_stringIcNS_11char_traitsIcEENS_9allocatorIcEEEEjEENS6_ISA_EEE16__on_zero_sharedEv
00007ffa0d08dc50 (__TEXT,__text) non-external __ZNSt3__120__shared_ptr_emplaceIKN15InputTranscoder10PlistBiMapINS_12basic_stringIcNS_11char_traitsIcEENS_9allocatorIcEEEEjEENS6_ISA_EEE21__on_zero_shared_weakEv
00007ffa0d08dc1a (__TEXT,__text) non-external __ZNSt3__120__shared_ptr_emplaceIKN15InputTranscoder10PlistBiMapINS_12basic_stringIcNS_11char_traitsIcEENS_9allocatorIcEEEEjEENS6_ISA_EEED0Ev
00007ffa0d08dc06 (__TEXT,__text) non-external __ZNSt3__120__shared_ptr_emplaceIKN15InputTranscoder10PlistBiMapINS_12basic_stringIcNS_11char_traitsIcEENS_9allocatorIcEEEEjEENS6_ISA_EEED1Ev
00007ffa0d08dcd2 (__TEXT,__text) non-external __ZNSt3__120__shared_ptr_emplaceIKN15InputTranscoder10PlistBiMapIjNS_12basic_stringIcNS_11char_traitsIcEENS_9allocatorIcEEEEEENS6_ISA_EEE16__on_zero_sharedEv
00007ffa0d08dce2 (__TEXT,__text) non-external __ZNSt3__120__shared_ptr_emplaceIKN15InputTranscoder10PlistBiMapIjNS_12basic_stringIcNS_11char_traitsIcEENS_9allocatorIcEEEEEENS6_ISA_EEE21__on_zero_shared_weakEv
00007ffa0d08dcac (__TEXT,__text) non-external __ZNSt3__120__shared_ptr_emplaceIKN15InputTranscoder10PlistBiMapIjNS_12basic_stringIcNS_11char_traitsIcEENS_9allocatorIcEEEEEENS6_ISA_EEED0Ev
00007ffa0d08dc98 (__TEXT,__text) non-external __ZNSt3__120__shared_ptr_emplaceIKN15InputTranscoder10PlistBiMapIjNS_12basic_stringIcNS_11char_traitsIcEENS_9allocatorIcEEEEEENS6_ISA_EEED1Ev
00007ffa0d0891e2 (__TEXT,__text) non-external (was a private external) __ZNSt3__120__shared_ptr_emplaceIKN15InputTranscoder10PlistBiMapIjjEENS_9allocatorIS4_EEE16__on_zero_sharedEv
00007ffa0d0891f2 (__TEXT,__text) non-external (was a private external) __ZNSt3__120__shared_ptr_emplaceIKN15InputTranscoder10PlistBiMapIjjEENS_9allocatorIS4_EEE21__on_zero_shared_weakEv
00007ffa0d089160 (__TEXT,__text) non-external (was a private external) __ZNSt3__120__shared_ptr_emplaceIKN15InputTranscoder10PlistBiMapIjjEENS_9allocatorIS4_EEEC2B7v160006IJRKNS_12basic_stringIcNS_11char_traitsIcEENS5_IcEEEEEEES6_DpOT_
00007ffa0d0891b8 (__TEXT,__text) non-external (was a private external) __ZNSt3__120__shared_ptr_emplaceIKN15InputTranscoder10PlistBiMapIjjEENS_9allocatorIS4_EEED0Ev
00007ffa0d0891a0 (__TEXT,__text) non-external (was a private external) __ZNSt3__120__shared_ptr_emplaceIKN15InputTranscoder10PlistBiMapIjjEENS_9allocatorIS4_EEED1Ev
00007ffa0d0ad3cc (__TEXT,__text) non-external __ZNSt3__120__shared_ptr_pointerIPN15InputTranscoder18LayoutInfoAssortedENS_10shared_ptrIS2_E27__shared_ptr_default_deleteIS2_S2_EENS_9allocatorIS2_EEE16__on_zero_sharedEv
00007ffa0d0ad3f6 (__TEXT,__text) non-external __ZNSt3__120__shared_ptr_pointerIPN15InputTranscoder18LayoutInfoAssortedENS_10shared_ptrIS2_E27__shared_ptr_default_deleteIS2_S2_EENS_9allocatorIS2_EEE21__on_zero_shared_weakEv
00007ffa0d0ad3b0 (__TEXT,__text) non-external __ZNSt3__120__shared_ptr_pointerIPN15InputTranscoder18LayoutInfoAssortedENS_10shared_ptrIS2_E27__shared_ptr_default_deleteIS2_S2_EENS_9allocatorIS2_EEED0Ev
00007ffa0d0ad3a6 (__TEXT,__text) non-external __ZNSt3__120__shared_ptr_pointerIPN15InputTranscoder18LayoutInfoAssortedENS_10shared_ptrIS2_E27__shared_ptr_default_deleteIS2_S2_EENS_9allocatorIS2_EEED1Ev
00007ffa0d08dd50 (__TEXT,__text) non-external __ZNSt3__120__shared_ptr_pointerIPN15InputTranscoder18TranscoderMediatorENS_14default_deleteIS2_EENS_9allocatorIS2_EEE16__on_zero_sharedEv
00007ffa0d08dd7a (__TEXT,__text) non-external __ZNSt3__120__shared_ptr_pointerIPN15InputTranscoder18TranscoderMediatorENS_14default_deleteIS2_EENS_9allocatorIS2_EEE21__on_zero_shared_weakEv
00007ffa0d08dd34 (__TEXT,__text) non-external __ZNSt3__120__shared_ptr_pointerIPN15InputTranscoder18TranscoderMediatorENS_14default_deleteIS2_EENS_9allocatorIS2_EEED0Ev
00007ffa0d08dd2a (__TEXT,__text) non-external __ZNSt3__120__shared_ptr_pointerIPN15InputTranscoder18TranscoderMediatorENS_14default_deleteIS2_EENS_9allocatorIS2_EEED1Ev
00007ffa0d086ca0 (__TEXT,__text) non-external (was a private external) __ZNSt3__120__throw_length_errorB7v160006EPKc
00007ffa0d088daa (__TEXT,__text) non-external (was a private external) __ZNSt3__120__throw_out_of_rangeB7v160006EPKc
00007ffa0d0a4594 (__TEXT,__text) non-external (was a private external) __ZNSt3__121__murmur2_or_cityhashImLm64EE18__hash_len_0_to_16EPKcm
00007ffa0d0a4676 (__TEXT,__text) non-external (was a private external) __ZNSt3__121__murmur2_or_cityhashImLm64EE19__hash_len_17_to_32EPKcm
00007ffa0d0a470a (__TEXT,__text) non-external (was a private external) __ZNSt3__121__murmur2_or_cityhashImLm64EE19__hash_len_33_to_64EPKcm
00007ffa0d0a4306 (__TEXT,__text) non-external (was a private external) __ZNSt3__121__murmur2_or_cityhashImLm64EEclEPKvm
00007ffa0d089f04 (__TEXT,__text) non-external (was a private external) __ZNSt3__121__unwrap_and_dispatchB7v160006INS_10__overloadINS_11__move_loopINS_17_ClassicAlgPolicyEEENS_14__move_trivialEEEPN3nlp11CFScopedPtrIPK10_LXLexiconEESD_SD_Li0EEENS_4pairIT0_T2_EESF_T1_SG_
00007ffa0d09cdaa (__TEXT,__text) non-external __ZNSt3__122__compressed_pair_elemINS_6__bindIPFNS_6vectorINS_4pairIPN15InputTranscoder8PathTrieENS4_20CTCSurfaceFormOutputEEENS_9allocatorIS8_EEEERKNS_12basic_stringIcNS_11char_traitsIcEENS9_IcEEEERKSB_EJSI_RKNS_12placeholders4__phILi1EEEEEELi0ELb0EEC2B7v160006IJRKSS_EJLm0EEEENS_21piecewise_construct_tENS_5tupleIJDpT_EEENS_15__tuple_indicesIJXspT0_EEEE
00007ffa0d09b5d6 (__TEXT,__text) non-external __ZNSt3__122__compressed_pair_elemIZN15InputTranscoder26TouchTranscoderSessionImpl21addCandidateErrorTypeERNS_6vectorINS1_20CTCSurfaceFormOutputENS_9allocatorIS4_EEEEE3$_1Li0ELb0EEC2B7v160006IJRKS9_EJLm0EEEENS_21piecewise_construct_tENS_5tupleIJDpT_EEENS_15__tuple_indicesIJXspT0_EEEE
00007ffa0d09b982 (__TEXT,__text) non-external __ZNSt3__122__compressed_pair_elemIZN15InputTranscoder26TouchTranscoderSessionImpl22getEditDistancePenaltyERKNS_12basic_stringIcNS_11char_traitsIcEENS_9allocatorIcEEEESA_E3$_2Li0ELb0EEC2B7v160006IJRKSB_EJLm0EEEENS_21piecewise_construct_tENS_5tupleIJDpT_EEENS_15__tuple_indicesIJXspT0_EEEE
00007ffa0d09be28 (__TEXT,__text) non-external __ZNSt3__122__compressed_pair_elemIZN15InputTranscoder26TouchTranscoderSessionImpl28uniquifyEquivalentCandidatesERNS_6vectorINS1_20CTCSurfaceFormOutputENS_9allocatorIS4_EEEEE4$_10Li0ELb0EEC2B7v160006IJRKS9_EJLm0EEEENS_21piecewise_construct_tENS_5tupleIJDpT_EEENS_15__tuple_indicesIJXspT0_EEEE
00007ffa0d09bbb6 (__TEXT,__text) non-external __ZNSt3__122__compressed_pair_elemIZNK15InputTranscoder26TouchTranscoderSessionImpl31updateCondenseFormForCandidatesERNS_6vectorINS1_20CTCSurfaceFormOutputENS_9allocatorIS4_EEEE12ITTypingModeE3$_9Li0ELb0EEC2B7v160006IJRKSA_EJLm0EEEENS_21piecewise_construct_tENS_5tupleIJDpT_EEENS_15__tuple_indicesIJXspT0_EEEE
00007ffa0d0a487c (__TEXT,__text) non-external __ZNSt3__122__hash_node_destructorINS_9allocatorINS_11__hash_nodeINS_17__hash_value_typeINS_12basic_stringIcNS_11char_traitsIcEENS1_IcEEEEjEEPvEEEEEclB7v160006EPSB_
00007ffa0d0a3c94 (__TEXT,__text) non-external __ZNSt3__122__hash_node_destructorINS_9allocatorINS_11__hash_nodeINS_17__hash_value_typeIjNS_12basic_stringIcNS_11char_traitsIcEENS1_IcEEEEEEPvEEEEEclB7v160006EPSB_
00007ffa0d0890c0 (__TEXT,__text) non-external __ZNSt3__124__optional_destruct_baseIN10applesauce2CF6URLRefELb0EED2B7v160006Ev
00007ffa0d09dc1b (__TEXT,__text) non-external (was a private external) __ZNSt3__124__put_character_sequenceB7v160006IcNS_11char_traitsIcEEEERNS_13basic_ostreamIT_T0_EES7_PKS4_m
00007ffa0d090407 (__TEXT,__text) non-external (was a private external) __ZNSt3__125__throw_bad_function_callB7v160006Ev
00007ffa0d08fab1 (__TEXT,__text) non-external __ZNSt3__127__insertion_sort_incompleteIRPFbPKN15InputTranscoder8PathTrieES4_EPPS2_EEbT0_SA_T_
00007ffa0d09aa82 (__TEXT,__text) non-external __ZNSt3__127__insertion_sort_incompleteIRPFbRKN15InputTranscoder20CTCSurfaceFormOutputES4_EPS2_EEbT0_S9_T_
00007ffa0d0ad874 (__TEXT,__text) non-external __ZNSt3__128__exception_guard_exceptionsINS_29_AllocatorDestroyRangeReverseINS_9allocatorIN15InputTranscoder16KeyCandidateImplEEENS_16reverse_iteratorIPS4_EEEEED2B7v160006Ev
00007ffa0d0ad900 (__TEXT,__text) non-external __ZNSt3__128__exception_guard_exceptionsINS_29_AllocatorDestroyRangeReverseINS_9allocatorIN15InputTranscoder16KeyCandidateImplEEEPS4_EEED2B7v160006Ev
00007ffa0d08d968 (__TEXT,__text) non-external (was a private external) __ZNSt3__128__exception_guard_exceptionsINS_29_AllocatorDestroyRangeReverseINS_9allocatorINS_12basic_stringIcNS_11char_traitsIcEENS2_IcEEEEEEPS7_EEED2B7v160006Ev
00007ffa0d0ad940 (__TEXT,__text) non-external __ZNSt3__128__exception_guard_exceptionsINS_6vectorIN15InputTranscoder16KeyCandidateImplENS_9allocatorIS3_EEE16__destroy_vectorEED2B7v160006Ev
00007ffa0d08d9bc (__TEXT,__text) non-external (was a private external) __ZNSt3__128__exception_guard_exceptionsINS_6vectorINS_12basic_stringIcNS_11char_traitsIcEENS_9allocatorIcEEEENS5_IS7_EEE16__destroy_vectorEED2B7v160006Ev
00007ffa0d09cb4c (__TEXT,__text) non-external __ZNSt3__128__exception_guard_exceptionsINS_6vectorINS_4pairIPN15InputTranscoder8PathTrieENS3_20CTCSurfaceFormOutputEEENS_9allocatorIS7_EEE16__destroy_vectorEED2B7v160006Ev
00007ffa0d08d8c4 (__TEXT,__text) non-external (was a private external) __ZNSt3__130__uninitialized_allocator_copyB7v160006INS_9allocatorINS_12basic_stringIcNS_11char_traitsIcEENS1_IcEEEEEEPS6_S8_S8_EET2_RT_T0_T1_S9_
00007ffa0d09c9a9 (__TEXT,__text) non-external __ZNSt3__130__uninitialized_allocator_copyB7v160006INS_9allocatorINS_4pairIPN15InputTranscoder8PathTrieENS3_20CTCSurfaceFormOutputEEEEEPS7_S9_S9_EET2_RT_T0_T1_SA_
00007ffa0d0af3e2 (__TEXT,__text) non-external (was a private external) __ZNSt3__14pairINS_12basic_stringIcNS_11char_traitsIcEENS_9allocatorIcEEEES6_EC2B7v160006IRA1_KcRKS6_LPv0EEEOT_OT0_
00007ffa0d0af4ba (__TEXT,__text) non-external (was a private external) __ZNSt3__14pairINS_12basic_stringIcNS_11char_traitsIcEENS_9allocatorIcEEEES6_EC2B7v160006IRS6_S9_LPv0EEEOT_OT0_
00007ffa0d097ed4 (__TEXT,__text) non-external __ZNSt3__14pairINS_12basic_stringIcNS_11char_traitsIcEENS_9allocatorIcEEEES6_ED1Ev
00007ffa0d09ca16 (__TEXT,__text) non-external __ZNSt3__14pairIPN15InputTranscoder8PathTrieENS1_20CTCSurfaceFormOutputEEC2ERKS5_
00007ffa0d098b78 (__TEXT,__text) non-external __ZNSt3__14pairIPN15InputTranscoder8PathTrieENS1_20CTCSurfaceFormOutputEED1Ev
                 (undefined) external __ZNSt3__14stoiERKNS_12basic_stringIcNS_11char_traitsIcEENS_9allocatorIcEEEEPmi (from libc++)
                 (undefined) external __ZNSt3__15ctypeIcE2idE (from libc++)
                 (undefined) external __ZNSt3__15mutex4lockEv (from libc++)
                 (undefined) external __ZNSt3__15mutex6unlockEv (from libc++)
                 (undefined) external __ZNSt3__16localeD1Ev (from libc++)
00007ffa0d089e98 (__TEXT,__text) non-external (was a private external) __ZNSt3__16removeB7v160006INS_11__wrap_iterIPN3nlp11CFScopedPtrIPK10_LXLexiconEEEES6_EET_SA_SA_RKT0_
00007ffa0d0ad27e (__TEXT,__text) non-external (was a private external) __ZNSt3__16vectorI9ITKeyInfoNS_9allocatorIS1_EEE11__vallocateB7v160006Em
00007ffa0d0ad79c (__TEXT,__text) non-external (was a private external) __ZNSt3__16vectorI9ITKeyInfoNS_9allocatorIS1_EEEC2INS_11__wrap_iterIPKS1_EELi0EEET_SA_
00007ffa0d099990 (__TEXT,__text) non-external (was a private external) __ZNSt3__16vectorIN15InputTranscoder10PathSampleENS_9allocatorIS2_EEE11__vallocateB7v160006Em
00007ffa0d0ae196 (__TEXT,__text) non-external (was a private external) __ZNSt3__16vectorIN15InputTranscoder10PathSampleENS_9allocatorIS2_EEE6resizeEm
00007ffa0d0ae858 (__TEXT,__text) non-external (was a private external) __ZNSt3__16vectorIN15InputTranscoder10PathSampleENS_9allocatorIS2_EEE8__appendEm
00007ffa0d099906 (__TEXT,__text) non-external (was a private external) __ZNSt3__16vectorIN15InputTranscoder10PathSampleENS_9allocatorIS2_EEEC2ERKS5_
00007ffa0d09b37c (__TEXT,__text) non-external (was a private external) __ZNSt3__16vectorIN15InputTranscoder16KeyCandidateImplENS_9allocatorIS2_EEE16__destroy_vectorclB7v160006Ev
00007ffa0d09b3ae (__TEXT,__text) non-external (was a private external) __ZNSt3__16vectorIN15InputTranscoder16KeyCandidateImplENS_9allocatorIS2_EEE22__base_destruct_at_endB7v160006EPS2_
00007ffa0d09b356 (__TEXT,__text) non-external (was a private external) __ZNSt3__16vectorIN15InputTranscoder16KeyCandidateImplENS_9allocatorIS2_EEED2B7v160006Ev
00007ffa0d094456 (__TEXT,__text) non-external __ZNSt3__16vectorIN15InputTranscoder20CTCSurfaceFormOutputENS_9allocatorIS2_EEE5eraseENS_11__wrap_iterIPKS2_EES9_
00007ffa0d099310 (__TEXT,__text) non-external __ZNSt3__16vectorIN15InputTranscoder20CTCSurfaceFormOutputENS_9allocatorIS2_EEE6insertINS_11__wrap_iterIPS2_EELi0EEES9_NS7_IPKS2_EET_SD_
00007ffa0d09904a (__TEXT,__text) non-external __ZNSt3__16vectorIN15InputTranscoder20CTCSurfaceFormOutputENS_9allocatorIS2_EEE6resizeEm
00007ffa0d09b146 (__TEXT,__text) non-external __ZNSt3__16vectorIN15InputTranscoder20CTCSurfaceFormOutputENS_9allocatorIS2_EEED2B7v160006Ev
00007ffa0d0a0f3c (__TEXT,__text) non-external __ZNSt3__16vectorIN15InputTranscoder20DecoderConfigurationENS_9allocatorIS2_EEED2B7v160006Ev
00007ffa0d0a1256 (__TEXT,__text) non-external __ZNSt3__16vectorIN15InputTranscoder23TranscoderConfigurationENS_9allocatorIS2_EEED2B7v160006Ev
00007ffa0d09032e (__TEXT,__text) non-external (was a private external) __ZNSt3__16vectorIN15InputTranscoder9CTCOutputENS_9allocatorIS2_EEE16__destroy_vectorclB7v160006Ev
00007ffa0d09035e (__TEXT,__text) non-external (was a private external) __ZNSt3__16vectorIN15InputTranscoder9CTCOutputENS_9allocatorIS2_EEE7__clearB7v160006Ev
00007ffa0d090308 (__TEXT,__text) non-external (was a private external) __ZNSt3__16vectorIN15InputTranscoder9CTCOutputENS_9allocatorIS2_EEED2B7v160006Ev
00007ffa0d087a7c (__TEXT,__text) non-external (was a private external) __ZNSt3__16vectorIN3nlp11CFScopedPtrIPK10_LXLexiconEENS_9allocatorIS6_EEE16__destroy_vectorclB7v160006Ev
00007ffa0d089e3e (__TEXT,__text) non-external (was a private external) __ZNSt3__16vectorIN3nlp11CFScopedPtrIPK10_LXLexiconEENS_9allocatorIS6_EEE5eraseENS_11__wrap_iterIPKS6_EESD_
00007ffa0d087a56 (__TEXT,__text) non-external (was a private external) __ZNSt3__16vectorIN3nlp11CFScopedPtrIPK10_LXLexiconEENS_9allocatorIS6_EEED2B7v160006Ev
00007ffa0d0ad350 (__TEXT,__text) non-external __ZNSt3__16vectorIN3nlp11CFScopedPtrIPK10__CFStringEENS_9allocatorIS6_EEED2B7v160006Ev
00007ffa0d0adb38 (__TEXT,__text) non-external __ZNSt3__16vectorINS0_IdNS_9allocatorIdEEEENS1_IS3_EEE16__destroy_vectorclB7v160006Ev
00007ffa0d0ada0e (__TEXT,__text) non-external __ZNSt3__16vectorINS0_IdNS_9allocatorIdEEEENS1_IS3_EEEC2EmRKS3_
00007ffa0d08b290 (__TEXT,__text) non-external (was a private external) __ZNSt3__16vectorINS0_IfNS_9allocatorIfEEEENS1_IS3_EEE16__destroy_vectorclB7v160006Ev
00007ffa0d08b306 (__TEXT,__text) non-external __ZNSt3__16vectorINS0_IfNS_9allocatorIfEEEENS1_IS3_EEE26__swap_out_circular_bufferERNS_14__split_bufferIS3_RS4_EE
00007ffa0d08b2c0 (__TEXT,__text) non-external (was a private external) __ZNSt3__16vectorINS0_IfNS_9allocatorIfEEEENS1_IS3_EEE7__clearB7v160006Ev
00007ffa0d08b26a (__TEXT,__text) non-external (was a private external) __ZNSt3__16vectorINS0_IfNS_9allocatorIfEEEENS1_IS3_EEED2B7v160006Ev
00007ffa0d0adbac (__TEXT,__text) non-external __ZNSt3__16vectorINS0_IjNS_9allocatorIjEEEENS1_IS3_EEE16__destroy_vectorclB7v160006Ev
00007ffa0d09b0dc (__TEXT,__text) non-external __ZNSt3__16vectorINS_10unique_ptrIN15InputTranscoder13CandidateImplENS_14default_deleteIS3_EEEENS_9allocatorIS6_EEED2B7v160006Ev
00007ffa0d08d838 (__TEXT,__text) non-external (was a private external) __ZNSt3__16vectorINS_12basic_stringIcNS_11char_traitsIcEENS_9allocatorIcEEEENS4_IS6_EEE11__vallocateB7v160006Em
00007ffa0d087656 (__TEXT,__text) non-external (was a private external) __ZNSt3__16vectorINS_12basic_stringIcNS_11char_traitsIcEENS_9allocatorIcEEEENS4_IS6_EEE16__destroy_vectorclB7v160006Ev
00007ffa0d087688 (__TEXT,__text) non-external (was a private external) __ZNSt3__16vectorINS_12basic_stringIcNS_11char_traitsIcEENS_9allocatorIcEEEENS4_IS6_EEE22__base_destruct_at_endB7v160006EPS6_
00007ffa0d08d79e (__TEXT,__text) non-external (was a private external) __ZNSt3__16vectorINS_12basic_stringIcNS_11char_traitsIcEENS_9allocatorIcEEEENS4_IS6_EEEC2ERKS8_
00007ffa0d087630 (__TEXT,__text) non-external (was a private external) __ZNSt3__16vectorINS_12basic_stringIcNS_11char_traitsIcEENS_9allocatorIcEEEENS4_IS6_EEED2B7v160006Ev
00007ffa0d089ff6 (__TEXT,__text) non-external (was a private external) __ZNSt3__16vectorINS_4pairIN3nlp11CFScopedPtrIPK9_LXCursorEEbEENS_9allocatorIS8_EEE16__destroy_vectorclB7v160006Ev
00007ffa0d089fd0 (__TEXT,__text) non-external (was a private external) __ZNSt3__16vectorINS_4pairIN3nlp11CFScopedPtrIPK9_LXCursorEEbEENS_9allocatorIS8_EEED2B7v160006Ev
00007ffa0d09c96a (__TEXT,__text) non-external __ZNSt3__16vectorINS_4pairIPN15InputTranscoder8PathTrieENS2_20CTCSurfaceFormOutputEEENS_9allocatorIS6_EEE11__vallocateB7v160006Em
00007ffa0d090200 (__TEXT,__text) non-external (was a private external) __ZNSt3__16vectorINS_4pairIPN15InputTranscoder8PathTrieENS2_20CTCSurfaceFormOutputEEENS_9allocatorIS6_EEE13__vdeallocateEv
00007ffa0d0902b2 (__TEXT,__text) non-external (was a private external) __ZNSt3__16vectorINS_4pairIPN15InputTranscoder8PathTrieENS2_20CTCSurfaceFormOutputEEENS_9allocatorIS6_EEE16__destroy_vectorclB7v160006Ev
00007ffa0d09b19a (__TEXT,__text) non-external __ZNSt3__16vectorINS_4pairIPN15InputTranscoder8PathTrieENS2_20CTCSurfaceFormOutputEEENS_9allocatorIS6_EEE26__swap_out_circular_bufferERNS_14__split_bufferIS6_RS8_EE
00007ffa0d09c79c (__TEXT,__text) non-external __ZNSt3__16vectorINS_4pairIPN15InputTranscoder8PathTrieENS2_20CTCSurfaceFormOutputEEENS_9allocatorIS6_EEE6assignIPS6_Li0EEEvT_SC_
00007ffa0d09c68a (__TEXT,__text) non-external __ZNSt3__16vectorINS_4pairIPN15InputTranscoder8PathTrieENS2_20CTCSurfaceFormOutputEEENS_9allocatorIS6_EEE9push_backB7v160006ERKS6_
00007ffa0d09cab6 (__TEXT,__text) non-external __ZNSt3__16vectorINS_4pairIPN15InputTranscoder8PathTrieENS2_20CTCSurfaceFormOutputEEENS_9allocatorIS6_EEEC2ERKS9_
00007ffa0d09028c (__TEXT,__text) non-external (was a private external) __ZNSt3__16vectorINS_4pairIPN15InputTranscoder8PathTrieENS2_20CTCSurfaceFormOutputEEENS_9allocatorIS6_EEED2B7v160006Ev
00007ffa0d09d592 (__TEXT,__text) non-external __ZNSt3__16vectorINS_4pairIjfEENS_9allocatorIS2_EEE5eraseENS_11__wrap_iterIPKS2_EES9_
00007ffa0d0a29b4 (__TEXT,__text) non-external __ZNSt3__16vectorIPKvNS_9allocatorIS2_EEEC2Em
00007ffa0d0ad9c2 (__TEXT,__text) non-external __ZNSt3__16vectorIdNS_9allocatorIdEEE11__vallocateB7v160006Em
00007ffa0d0ad95a (__TEXT,__text) non-external __ZNSt3__16vectorIdNS_9allocatorIdEEEC2Em
00007ffa0d08b1f2 (__TEXT,__text) non-external (was a private external) __ZNSt3__16vectorIfNS_9allocatorIfEEE11__vallocateB7v160006Em
00007ffa0d08aeee (__TEXT,__text) non-external (was a private external) __ZNSt3__16vectorIfNS_9allocatorIfEEE6insertINS_11__wrap_iterIPKfEELi0EEENS5_IPfEES8_T_SB_
00007ffa0d08ae5e (__TEXT,__text) non-external (was a private external) __ZNSt3__16vectorIfNS_9allocatorIfEEE7reserveEm
00007ffa0d08b17c (__TEXT,__text) non-external __ZNSt3__16vectorIfNS_9allocatorIfEEEC2EmRKf
00007ffa0d08b46a (__TEXT,__text) non-external (was a private external) __ZNSt3__16vectorIjNS_9allocatorIjEEE11__vallocateB7v160006Em
00007ffa0d08f24e (__TEXT,__text) non-external (was a private external) __ZNSt3__16vectorIjNS_9allocatorIjEEE6assignINS_11__wrap_iterIPKjEELi0EEEvT_S9_
00007ffa0d0ae35e (__TEXT,__text) non-external (was a private external) __ZNSt3__16vectorIjNS_9allocatorIjEEE6insertENS_11__wrap_iterIPKjEERS5_
00007ffa0d09b00a (__TEXT,__text) non-external (was a private external) __ZNSt3__16vectorIjNS_9allocatorIjEEEC2ERKS3_
00007ffa0d0a9414 (__TEXT,__text) non-external (was a private external) __ZNSt3__16vectorIjNS_9allocatorIjEEEC2Em
00007ffa0d090143 (__TEXT,__text) non-external __ZNSt3__17__sort3B7v160006INS_17_ClassicAlgPolicyERPFbPKN15InputTranscoder8PathTrieES5_ENS_11__wrap_iterIPPS3_EEEEjT1_SD_SD_T0_
00007ffa0d08f9f4 (__TEXT,__text) non-external __ZNSt3__17__sort3B7v160006INS_17_ClassicAlgPolicyERPFbPKN15InputTranscoder8PathTrieES5_EPPS3_EEjT1_SB_SB_T0_
00007ffa0d09a9cc (__TEXT,__text) non-external __ZNSt3__17__sort3B7v160006INS_17_ClassicAlgPolicyERPFbRKN15InputTranscoder20CTCSurfaceFormOutputES5_EPS3_EEjT1_SA_SA_T0_
00007ffa0d08fc58 (__TEXT,__text) non-external __ZNSt3__17__sort4B7v160006INS_17_ClassicAlgPolicyERPFbPKN15InputTranscoder8PathTrieES5_EPPS3_EEjT1_SB_SB_SB_T0_
00007ffa0d09adb4 (__TEXT,__text) non-external __ZNSt3__17__sort4B7v160006INS_17_ClassicAlgPolicyERPFbRKN15InputTranscoder20CTCSurfaceFormOutputES5_EPS3_EEjT1_SA_SA_SA_T0_
00007ffa0d08fcfa (__TEXT,__text) non-external __ZNSt3__17__sort5IRPFbPKN15InputTranscoder8PathTrieES4_EPPS2_EEjT0_SA_SA_SA_SA_T_
00007ffa0d09ae4d (__TEXT,__text) non-external __ZNSt3__17__sort5IRPFbRKN15InputTranscoder20CTCSurfaceFormOutputES4_EPS2_EEjT0_S9_S9_S9_S9_T_
00007ffa0d09a874 (__TEXT,__text) non-external __ZNSt3__18_IterOpsINS_17_ClassicAlgPolicyEE9iter_swapB7v160006IRPN15InputTranscoder20CTCSurfaceFormOutputES7_EEvOT_OT0_
                 (undefined) external __ZNSt3__18ios_base33__set_badbit_and_consider_rethrowEv (from libc++)
                 (undefined) external __ZNSt3__18ios_base4initEPv (from libc++)
                 (undefined) external __ZNSt3__18ios_base5clearEj (from libc++)
00007ffa0d0adc45 (__TEXT,__text) non-external __ZNSt3__19__sift_upB7v160006INS_17_ClassicAlgPolicyERZNK15InputTranscoder18KeyboardLayoutImpl20enumerateNearestKeysE7CGPointU13block_pointerFv9ITKeyInfoPbEE3$_1NS_11__wrap_iterIPS5_EEEEvT1_SE_OT0_NS_15iterator_traitsISE_E15difference_typeE
                 (undefined) external __ZNSt3__19basic_iosIcNS_11char_traitsIcEEED2Ev (from libc++)
                 (undefined) external __ZNSt3__19to_stringEj (from libc++)
                 (undefined) external __ZNSt3__19to_stringEl (from libc++)
00007ffa0d0a6d14 (__TEXT,__text) non-external __ZNSt3__1eqB7v160006IcNS_11char_traitsIcEENS_9allocatorIcEEEEbRKNS_12basic_stringIT_T0_T1_EEPKS6_
00007ffa0d0a2f5e (__TEXT,__text) non-external __ZNSt3__1lsB7v160006IcNS_11char_traitsIcEENS_9allocatorIcEEEERNS_13basic_ostreamIT_T0_EES9_RKNS_12basic_stringIS6_S7_T1_EE
00007ffa0d0a868b (__TEXT,__text) non-external __ZNSt3__1plB7v160006IcNS_11char_traitsIcEENS_9allocatorIcEEEENS_12basic_stringIT_T0_T1_EEOS9_RKS9_
00007ffa0d08866a (__TEXT,__text) non-external (was a private external) __ZNSt3__1plB7v160006IcNS_11char_traitsIcEENS_9allocatorIcEEEENS_12basic_stringIT_T0_T1_EEPKS6_OS9_
                 (undefined) external __ZNSt3__1plIcNS_11char_traitsIcEENS_9allocatorIcEEEENS_12basic_stringIT_T0_T1_EEPKS6_RKS9_ (from libc++)
00007ffa0d09af61 (__TEXT,__text) non-external (was a private external) __ZNSt3__1ssB7v160006IcNS_11char_traitsIcEEEEDaNS_17basic_string_viewIT_T0_EES7_
00007ffa0d0a6d78 (__TEXT,__text) non-external __ZNSt3__1ssB7v160006IcNS_11char_traitsIcEENS_9allocatorIcEEEEDaRKNS_12basic_stringIT_T0_T1_EEPKS7_
00007ffa0d09af23 (__TEXT,__text) non-external __ZNSt3__1ssB7v160006IcNS_11char_traitsIcEENS_9allocatorIcEEEEDaRKNS_12basic_stringIT_T0_T1_EESC_
                 (undefined) external __ZNSt9exceptionD2Ev (from libc++)
00007ffa0d087cf2 (__TEXT,__text) non-external (was a private external) __ZSt28__throw_bad_array_new_lengthB7v160006v
                 (undefined) external __ZSt9terminatev (from libc++)
00007ffa408ecd18 (__DATA_CONST,__const) non-external (was a private external) __ZTI12KeyCandidate
00007ffa408ecd70 (__DATA_CONST,__const) non-external (was a private external) __ZTI15TouchTranscoder
00007ffa408ecdc8 (__DATA_CONST,__const) non-external (was a private external) __ZTI22TouchTranscoderSession
00007ffa408ece20 (__DATA_CONST,__const) non-external (was a private external) __ZTI7Decoder
00007ffa408eccc0 (__DATA_CONST,__const) non-external (was a private external) __ZTI9Candidate
00007ffa408ee188 (__DATA_CONST,__const) non-external (was a private external) __ZTIN15InputTranscoder10PlistBiMapINSt3__112basic_stringIcNS1_11char_traitsIcEENS1_9allocatorIcEEEEjEE
00007ffa408ee160 (__DATA_CONST,__const) non-external (was a private external) __ZTIN15InputTranscoder10PlistBiMapIjNSt3__112basic_stringIcNS1_11char_traitsIcEENS1_9allocatorIcEEEEEE
00007ffa408ee138 (__DATA_CONST,__const) non-external (was a private external) __ZTIN15InputTranscoder10PlistBiMapIjjEE
00007ffa408ecbc8 (__DATA_CONST,__const) non-external (was a private external) __ZTIN15InputTranscoder13RNNRecognizerE
00007ffa408ed1f8 (__DATA_CONST,__const) non-external (was a private external) __ZTIN15InputTranscoder14CRNNRecognizerE
00007ffa408ee690 (__DATA_CONST,__const) non-external (was a private external) __ZTIN15InputTranscoder14KeyboardLayoutE
00007ffa408ed2b8 (__DATA_CONST,__const) non-external (was a private external) __ZTIN15InputTranscoder14LRNNRecognizerE
00007ffa408ed5c0 (__DATA_CONST,__const) non-external (was a private external) __ZTIN15InputTranscoder15LexiconPathTrieE
00007ffa408ee6a0 (__DATA_CONST,__const) non-external (was a private external) __ZTIN15InputTranscoder18KeyboardLayoutImplE
00007ffa408ee1c8 (__DATA_CONST,__const) non-external (was a private external) __ZTIN15InputTranscoder22PathKeyLayoutProcessorE
00007ffa408ecbb8 (__DATA_CONST,__const) non-external (was a private external) __ZTIN15InputTranscoder23NeuralNetworkRecognizerE
00007ffa408ee178 (__DATA_CONST,__const) non-external (was a private external) __ZTIN15InputTranscoder5BiMapINSt3__112basic_stringIcNS1_11char_traitsIcEENS1_9allocatorIcEEEEjEE
00007ffa408ee150 (__DATA_CONST,__const) non-external (was a private external) __ZTIN15InputTranscoder5BiMapIjNSt3__112basic_stringIcNS1_11char_traitsIcEENS1_9allocatorIcEEEEEE
00007ffa408ee128 (__DATA_CONST,__const) non-external (was a private external) __ZTIN15InputTranscoder5BiMapIjjEE
00007ffa408ed5b0 (__DATA_CONST,__const) non-external (was a private external) __ZTIN15InputTranscoder8PathTrieE
00007ffa408ecfc0 (__DATA_CONST,__const) non-external (was a private external) __ZTIN3nlp25ResourceCreationExceptionE
00007ffa408eccb0 (__DATA_CONST,__const) non-external (was a private external) __ZTIN3nlp6CFTypeE
00007ffa408ed940 (__DATA_CONST,__const) non-external (was a private external) __ZTINSt3__110__function6__baseIF26ITAutocorrectionOperationsRN15InputTranscoder14KeyboardLayoutEEEE
00007ffa408ed9d0 (__DATA_CONST,__const) non-external (was a private external) __ZTINSt3__110__function6__baseIF7CGPointRN15InputTranscoder14KeyboardLayoutEEEE
00007ffa408ee2f0 (__DATA_CONST,__const) non-external (was a private external) __ZTINSt3__110__function6__baseIFK7CGPointRN15InputTranscoder14KeyboardLayoutEEEE
00007ffa408edfa8 (__DATA_CONST,__const) non-external (was a private external) __ZTINSt3__110__function6__baseIFNS_12basic_stringIcNS_11char_traitsIcEENS_9allocatorIcEEEERN15InputTranscoder14KeyboardLayoutEEEE
00007ffa408ecc38 (__DATA_CONST,__const) non-external (was a private external) __ZTINSt3__110__function6__baseIFNS_4spanIKfLm18446744073709551615EEERN15InputTranscoder13MontrealModelEEEE
00007ffa408edf40 (__DATA_CONST,__const) non-external (was a private external) __ZTINSt3__110__function6__baseIFNS_6vectorIN15InputTranscoder16KeyCandidateImplENS_9allocatorIS4_EEEERNS3_14KeyboardLayoutEEEE
00007ffa408eddc8 (__DATA_CONST,__const) non-external (was a private external) __ZTINSt3__110__function6__baseIFNS_6vectorINS_4pairIPN15InputTranscoder8PathTrieENS4_20CTCSurfaceFormOutputEEENS_9allocatorIS8_EEEERKSB_EEE
00007ffa408ed088 (__DATA_CONST,__const) non-external (was a private external) __ZTINSt3__110__function6__baseIFbNS_10unique_ptrIN15InputTranscoder13CandidateImplENS_14default_deleteIS4_EEEEEEE
00007ffa408ed198 (__DATA_CONST,__const) non-external (was a private external) __ZTINSt3__110__function6__baseIFbNS_10unique_ptrIN15InputTranscoder16KeyCandidateImplENS_14default_deleteIS4_EEEEEEE
00007ffa408edc20 (__DATA_CONST,__const) non-external (was a private external) __ZTINSt3__110__function6__baseIFbRN15InputTranscoder10CTCDecoderEEEE
00007ffa408ee530 (__DATA_CONST,__const) non-external (was a private external) __ZTINSt3__110__function6__baseIFbRN15InputTranscoder14KeyboardLayoutEEEE
00007ffa408eda90 (__DATA_CONST,__const) non-external (was a private external) __ZTINSt3__110__function6__baseIFdRN15InputTranscoder14KeyboardLayoutEEEE
00007ffa408ee760 (__DATA_CONST,__const) non-external (was a private external) __ZTINSt3__110__function6__baseIFdjEEE
00007ffa408ecf08 (__DATA_CONST,__const) non-external (was a private external) __ZTINSt3__110__function6__baseIFvNS_10unique_ptrIN15InputTranscoder13CandidateImplENS_14default_deleteIS4_EEEERbEEE
00007ffa408edd20 (__DATA_CONST,__const) non-external (was a private external) __ZTINSt3__110__function6__baseIFvPN15InputTranscoder8PathTrieERNS_6vectorINS_4pairIS4_NS2_20CTCSurfaceFormOutputEEENS_9allocatorIS8_EEEERbEEE
00007ffa408ede88 (__DATA_CONST,__const) non-external (was a private external) __ZTINSt3__110__function6__baseIFvRKNS_4pairIPN15InputTranscoder8PathTrieENS3_20CTCSurfaceFormOutputEEEEEE
00007ffa408ed880 (__DATA_CONST,__const) non-external (was a private external) __ZTINSt3__110__function6__baseIFvRN15InputTranscoder10CTCDecoderEEEE
00007ffa408ed848 (__DATA_CONST,__const) non-external (was a private external) __ZTINSt3__110__function6__baseIFvRN15InputTranscoder13MontrealModelEEEE
00007ffa408edd30 (__DATA_CONST,__const) non-external (was a private external) __ZTINSt3__110__function6__funcINS_6__bindIMN15InputTranscoder26TouchTranscoderSessionImplEKFvRNS_6vectorINS3_20CTCSurfaceFormOutputENS_9allocatorIS6_EEEERjSB_PK14__CFDictionaryPNS3_8PathTrieERNS5_INS_4pairISG_S6_EENS7_ISI_EEEERbEJPS4_NS_17reference_wrapperIS9_EENSQ_IjEESS_RSE_RKNS_12placeholders4__phILi1EEERKNSV_ILi2EEERKNSV_ILi3EEEEEENS7_IS15_EEFvSG_SL_SM_EEE
00007ffa408ede98 (__DATA_CONST,__const) non-external (was a private external) __ZTINSt3__110__function6__funcINS_6__bindIMN15InputTranscoder26TouchTranscoderSessionImplEKFvRNS_6vectorINS3_20CTCSurfaceFormOutputENS_9allocatorIS6_EEEESA_RKNS_4pairIPNS3_8PathTrieES6_EEEJPS4_NS_17reference_wrapperIS9_EESL_RKNS_12placeholders4__phILi1EEEEEENS7_ISR_EEFvSG_EEE
00007ffa408eddd8 (__DATA_CONST,__const) non-external (was a private external) __ZTINSt3__110__function6__funcINS_6__bindIPFNS_6vectorINS_4pairIPN15InputTranscoder8PathTrieENS5_20CTCSurfaceFormOutputEEENS_9allocatorIS9_EEEERKNS_12basic_stringIcNS_11char_traitsIcEENSA_IcEEEERKSC_EJSJ_RKNS_12placeholders4__phILi1EEEEEENSA_IST_EEFSC_SL_EEE
00007ffa408ed9e0 (__DATA_CONST,__const) non-external (was a private external) __ZTINSt3__110__function6__funcINS_6__bindIRF7CGPointS3_RN15InputTranscoder14KeyboardLayoutEEJRS3_RKNS_12placeholders4__phILi1EEEEEENS_9allocatorISF_EEFS3_S6_EEE
00007ffa408ee400 (__DATA_CONST,__const) non-external (was a private external) __ZTINSt3__110__function6__funcINS_6__bindIRFNS_12basic_stringIcNS_11char_traitsIcEENS_9allocatorIcEEEERKN15InputTranscoder10PathSampleERNS9_14KeyboardLayoutEbEJSC_RKNS_12placeholders4__phILi1EEERKbEEENS6_ISO_EEFS8_SE_EEE
00007ffa408ee5c0 (__DATA_CONST,__const) non-external (was a private external) __ZTINSt3__110__function6__funcINS_6__bindIRFNS_12basic_stringIcNS_11char_traitsIcEENS_9allocatorIcEEEERKN15InputTranscoder10PathSampleERNS9_14KeyboardLayoutEbEJSC_RKNS_12placeholders4__phILi1EEEbEEENS6_ISM_EEFS8_SE_EEE
00007ffa408ee498 (__DATA_CONST,__const) non-external (was a private external) __ZTINSt3__110__function6__funcINS_6__bindIRFNS_12basic_stringIcNS_11char_traitsIcEENS_9allocatorIcEEEERKN15InputTranscoder10PathSampleERNS9_14KeyboardLayoutEbRKS8_EJSC_RKNS_12placeholders4__phILi1EEERKbSG_EEENS6_ISQ_EEFS8_SE_EEE
00007ffa408edf50 (__DATA_CONST,__const) non-external (was a private external) __ZTINSt3__110__function6__funcINS_6__bindIRFNS_6vectorIN15InputTranscoder16KeyCandidateImplENS_9allocatorIS5_EEEE7CGPointRNS4_14KeyboardLayoutEEJRKS9_RKNS_12placeholders4__phILi1EEEEEENS6_ISL_EEFS8_SB_EEE
00007ffa408ecf18 (__DATA_CONST,__const) non-external __ZTINSt3__110__function6__funcIZ28ITDecoderEnumerateCandidatesE3$_0NS_9allocatorIS2_EEFvNS_10unique_ptrIN15InputTranscoder13CandidateImplENS_14default_deleteIS7_EEEERbEEE
00007ffa408ecf98 (__DATA_CONST,__const) non-external __ZTINSt3__110__function6__funcIZ39ITDecoderEnumerateCandidatesWithOptionsE3$_1NS_9allocatorIS2_EEFvNS_10unique_ptrIN15InputTranscoder13CandidateImplENS_14default_deleteIS7_EEEERbEEE
00007ffa408ed098 (__DATA_CONST,__const) non-external __ZTINSt3__110__function6__funcIZ43ITTouchTranscoderSessionEnumerateCandidatesE3$_0NS_9allocatorIS2_EEFbNS_10unique_ptrIN15InputTranscoder13CandidateImplENS_14default_deleteIS7_EEEEEEE
00007ffa408ed118 (__DATA_CONST,__const) non-external __ZTINSt3__110__function6__funcIZ54ITTouchTranscoderSessionEnumerateCandidatesWithOptionsE3$_1NS_9allocatorIS2_EEFbNS_10unique_ptrIN15InputTranscoder13CandidateImplENS_14default_deleteIS7_EEEEEEE
00007ffa408ed1a8 (__DATA_CONST,__const) non-external __ZTINSt3__110__function6__funcIZ58ITTouchTranscoderSessionEnumerateKeyCandidatesForLastTouchE3$_2NS_9allocatorIS2_EEFbNS_10unique_ptrIN15InputTranscoder16KeyCandidateImplENS_14default_deleteIS7_EEEEEEE
00007ffa408ed748 (__DATA_CONST,__const) non-external (was a private external) __ZTINSt3__110__function6__funcIZN15InputTranscoder19TouchTranscoderImpl10addLexiconEPK10_LXLexiconE3$_0NS_9allocatorIS7_EEFvRNS2_10CTCDecoderEEEE
00007ffa408ed7c8 (__DATA_CONST,__const) non-external (was a private external) __ZTINSt3__110__function6__funcIZN15InputTranscoder19TouchTranscoderImpl13removeLexiconEPK10_LXLexiconE3$_1NS_9allocatorIS7_EEFvRNS2_10CTCDecoderEEEE
00007ffa408ed858 (__DATA_CONST,__const) non-external (was a private external) __ZTINSt3__110__function6__funcIZN15InputTranscoder19TouchTranscoderImpl24clearNeuralNetworkBufferEvE3$_2NS_9allocatorIS4_EEFvRNS2_13MontrealModelEEEE
00007ffa408edc30 (__DATA_CONST,__const) non-external __ZTINSt3__110__function6__funcIZN15InputTranscoder26TouchTranscoderSessionImpl15shouldRunBigramERKNS_12basic_stringIcNS_11char_traitsIcEENS_9allocatorIcEEEESB_E4$_11NS7_ISC_EEFbRNS2_10CTCDecoderEEEE
00007ffa408ed950 (__DATA_CONST,__const) non-external __ZTINSt3__110__function6__funcIZN15InputTranscoder26TouchTranscoderSessionImpl21addCandidateErrorTypeERNS_6vectorINS2_20CTCSurfaceFormOutputENS_9allocatorIS5_EEEEE3$_1NS6_ISA_EEF26ITAutocorrectionOperationsRNS2_14KeyboardLayoutEEEE
00007ffa408edaa0 (__DATA_CONST,__const) non-external __ZTINSt3__110__function6__funcIZN15InputTranscoder26TouchTranscoderSessionImpl22getEditDistancePenaltyERKNS_12basic_stringIcNS_11char_traitsIcEENS_9allocatorIcEEEESB_E3$_2NS7_ISC_EEFdRNS2_14KeyboardLayoutEEEE
00007ffa408edcb0 (__DATA_CONST,__const) non-external __ZTINSt3__110__function6__funcIZN15InputTranscoder26TouchTranscoderSessionImpl23enumerateCandidatesImplEPK14__CFDictionaryRKNS_8functionIFbNS_10unique_ptrINS2_13CandidateImplENS_14default_deleteIS9_EEEEEEERNS_12basic_stringIcNS_11char_traitsIcEENS_9allocatorIcEEEEE4$_12NSK_ISO_EEFvRNS2_10CTCDecoderEEEE
00007ffa408edba0 (__DATA_CONST,__const) non-external __ZTINSt3__110__function6__funcIZN15InputTranscoder26TouchTranscoderSessionImpl28uniquifyEquivalentCandidatesERNS_6vectorINS2_20CTCSurfaceFormOutputENS_9allocatorIS5_EEEEE4$_10NS6_ISA_EEFNS_12basic_stringIcNS_11char_traitsIcEENS6_IcEEEERNS2_14KeyboardLayoutEEEE
00007ffa408ecc48 (__DATA_CONST,__const) non-external __ZTINSt3__110__function6__funcIZNK15InputTranscoder13RNNRecognizer9recognizeERKNS2_14InputProcessorERNS2_18TranscoderMediatorEE3$_0NS_9allocatorIS9_EEFNS_4spanIKfLm18446744073709551615EEERNS2_13MontrealModelEEEE
00007ffa408ed268 (__DATA_CONST,__const) non-external __ZTINSt3__110__function6__funcIZNK15InputTranscoder14CRNNRecognizer9recognizeERKNS2_14InputProcessorERNS2_18TranscoderMediatorEE3$_0NS_9allocatorIS9_EEFNS_4spanIKfLm18446744073709551615EEERNS2_13MontrealModelEEEE
00007ffa408ed328 (__DATA_CONST,__const) non-external __ZTINSt3__110__function6__funcIZNK15InputTranscoder14LRNNRecognizer9recognizeERKNS2_14InputProcessorERNS2_18TranscoderMediatorEE3$_0NS_9allocatorIS9_EEFNS_4spanIKfLm18446744073709551615EEERNS2_13MontrealModelEEEE
00007ffa408ee380 (__DATA_CONST,__const) non-external __ZTINSt3__110__function6__funcIZNK15InputTranscoder22PathKeyLayoutProcessor21input_stream_for_pathERKNS2_4PathEE3$_2NS_9allocatorIS7_EEFK7CGPointRNS2_14KeyboardLayoutEEEE
00007ffa408ee540 (__DATA_CONST,__const) non-external (was a private external) __ZTINSt3__110__function6__funcIZNK15InputTranscoder22PathKeyLayoutProcessor23key_class_for_touch_keyERK9ITKeyInfoE3$_0NS_9allocatorIS7_EEFbRNS2_14KeyboardLayoutEEEE
00007ffa408ee300 (__DATA_CONST,__const) non-external __ZTINSt3__110__function6__funcIZNK15InputTranscoder22PathKeyLayoutProcessor29input_feature_stream_for_pathERKNS2_4PathEbjbjE3$_1NS_9allocatorIS7_EEFK7CGPointRNS2_14KeyboardLayoutEEEE
00007ffa408edb20 (__DATA_CONST,__const) non-external __ZTINSt3__110__function6__funcIZNK15InputTranscoder26TouchTranscoderSessionImpl31updateCondenseFormForCandidatesERNS_6vectorINS2_20CTCSurfaceFormOutputENS_9allocatorIS5_EEEE12ITTypingModeE3$_9NS6_ISB_EEFNS_12basic_stringIcNS_11char_traitsIcEENS6_IcEEEERNS2_14KeyboardLayoutEEEE
00007ffa408ee770 (__DATA_CONST,__const) non-external (was a private external) __ZTINSt3__110__function6__funcIZNK15InputTranscoder4Path22is_curvature_local_maxEjdE3$_0NS_9allocatorIS4_EEFdjEEE
00007ffa408ed480 (__DATA_CONST,__const) non-external (was a private external) __ZTINSt3__117bad_function_callE
00007ffa408edd48 (__DATA_CONST,__const) non-external (was a private external) __ZTINSt3__118__weak_result_typeIMN15InputTranscoder26TouchTranscoderSessionImplEKFvRNS_6vectorINS1_20CTCSurfaceFormOutputENS_9allocatorIS4_EEEERjS9_PK14__CFDictionaryPNS1_8PathTrieERNS3_INS_4pairISE_S4_EENS5_ISG_EEEERbEEE
00007ffa408edeb0 (__DATA_CONST,__const) non-external (was a private external) __ZTINSt3__118__weak_result_typeIMN15InputTranscoder26TouchTranscoderSessionImplEKFvRNS_6vectorINS1_20CTCSurfaceFormOutputENS_9allocatorIS4_EEEES8_RKNS_4pairIPNS1_8PathTrieES4_EEEEE
00007ffa408eda08 (__DATA_CONST,__const) non-external (was a private external) __ZTINSt3__118__weak_result_typeIPF7CGPointS1_RN15InputTranscoder14KeyboardLayoutEEEE
00007ffa408ee418 (__DATA_CONST,__const) non-external (was a private external) __ZTINSt3__118__weak_result_typeIPFNS_12basic_stringIcNS_11char_traitsIcEENS_9allocatorIcEEEERKN15InputTranscoder10PathSampleERNS7_14KeyboardLayoutEbEEE
00007ffa408ee4b0 (__DATA_CONST,__const) non-external (was a private external) __ZTINSt3__118__weak_result_typeIPFNS_12basic_stringIcNS_11char_traitsIcEENS_9allocatorIcEEEERKN15InputTranscoder10PathSampleERNS7_14KeyboardLayoutEbRKS6_EEE
00007ffa408edf78 (__DATA_CONST,__const) non-external (was a private external) __ZTINSt3__118__weak_result_typeIPFNS_6vectorIN15InputTranscoder16KeyCandidateImplENS_9allocatorIS3_EEEE7CGPointRNS2_14KeyboardLayoutEEEE
00007ffa408ede00 (__DATA_CONST,__const) non-external (was a private external) __ZTINSt3__118__weak_result_typeIPFNS_6vectorINS_4pairIPN15InputTranscoder8PathTrieENS3_20CTCSurfaceFormOutputEEENS_9allocatorIS7_EEEERKNS_12basic_stringIcNS_11char_traitsIcEENS8_IcEEEERKSA_EEE
                 (undefined) external __ZTINSt3__119__shared_weak_countE (from libc++)
00007ffa408ed3c8 (__DATA_CONST,__const) non-external (was a private external) __ZTINSt3__120__shared_ptr_emplaceIKN15InputTranscoder10PlistBiMapINS_12basic_stringIcNS_11char_traitsIcEENS_9allocatorIcEEEEjEENS6_ISA_EEEE
00007ffa408ed418 (__DATA_CONST,__const) non-external (was a private external) __ZTINSt3__120__shared_ptr_emplaceIKN15InputTranscoder10PlistBiMapIjNS_12basic_stringIcNS_11char_traitsIcEENS_9allocatorIcEEEEEENS6_ISA_EEEE
00007ffa408ece98 (__DATA_CONST,__const) non-external (was a private external) __ZTINSt3__120__shared_ptr_emplaceIKN15InputTranscoder10PlistBiMapIjjEENS_9allocatorIS4_EEEE
00007ffa408ee6f0 (__DATA_CONST,__const) non-external (was a private external) __ZTINSt3__120__shared_ptr_pointerIPN15InputTranscoder18LayoutInfoAssortedENS_10shared_ptrIS2_E27__shared_ptr_default_deleteIS2_S2_EENS_9allocatorIS2_EEEE
00007ffa408ed468 (__DATA_CONST,__const) non-external (was a private external) __ZTINSt3__120__shared_ptr_pointerIPN15InputTranscoder18TranscoderMediatorENS_14default_deleteIS2_EENS_9allocatorIS2_EEEE
00007ffa408edf68 (__DATA_CONST,__const) non-external (was a private external) __ZTINSt3__134__binary_function_keep_layout_baseI7CGPointRN15InputTranscoder14KeyboardLayoutENS_6vectorINS2_16KeyCandidateImplENS_9allocatorIS6_EEEEEE
00007ffa408ed9f8 (__DATA_CONST,__const) non-external (was a private external) __ZTINSt3__134__binary_function_keep_layout_baseI7CGPointRN15InputTranscoder14KeyboardLayoutES1_EE
00007ffa408eddf0 (__DATA_CONST,__const) non-external (was a private external) __ZTINSt3__134__binary_function_keep_layout_baseIRKNS_12basic_stringIcNS_11char_traitsIcEENS_9allocatorIcEEEERKNS_6vectorINS_4pairIPN15InputTranscoder8PathTrieENSB_20CTCSurfaceFormOutputEEENS4_ISF_EEEESH_EE
00007ffa408edd58 (__DATA_CONST,__const) non-external (was a private external) __ZTINSt3__16__bindIMN15InputTranscoder26TouchTranscoderSessionImplEKFvRNS_6vectorINS1_20CTCSurfaceFormOutputENS_9allocatorIS4_EEEERjS9_PK14__CFDictionaryPNS1_8PathTrieERNS3_INS_4pairISE_S4_EENS5_ISG_EEEERbEJPS2_NS_17reference_wrapperIS7_EENSO_IjEESQ_RSC_RKNS_12placeholders4__phILi1EEERKNST_ILi2EEERKNST_ILi3EEEEEE
00007ffa408edec0 (__DATA_CONST,__const) non-external (was a private external) __ZTINSt3__16__bindIMN15InputTranscoder26TouchTranscoderSessionImplEKFvRNS_6vectorINS1_20CTCSurfaceFormOutputENS_9allocatorIS4_EEEES8_RKNS_4pairIPNS1_8PathTrieES4_EEEJPS2_NS_17reference_wrapperIS7_EESJ_RKNS_12placeholders4__phILi1EEEEEE
00007ffa408ede18 (__DATA_CONST,__const) non-external (was a private external) __ZTINSt3__16__bindIPFNS_6vectorINS_4pairIPN15InputTranscoder8PathTrieENS3_20CTCSurfaceFormOutputEEENS_9allocatorIS7_EEEERKNS_12basic_stringIcNS_11char_traitsIcEENS8_IcEEEERKSA_EJSH_RKNS_12placeholders4__phILi1EEEEEE
00007ffa408eda20 (__DATA_CONST,__const) non-external (was a private external) __ZTINSt3__16__bindIRF7CGPointS1_RN15InputTranscoder14KeyboardLayoutEEJRS1_RKNS_12placeholders4__phILi1EEEEEE
00007ffa408ee428 (__DATA_CONST,__const) non-external (was a private external) __ZTINSt3__16__bindIRFNS_12basic_stringIcNS_11char_traitsIcEENS_9allocatorIcEEEERKN15InputTranscoder10PathSampleERNS7_14KeyboardLayoutEbEJSA_RKNS_12placeholders4__phILi1EEERKbEEE
00007ffa408ee5d8 (__DATA_CONST,__const) non-external (was a private external) __ZTINSt3__16__bindIRFNS_12basic_stringIcNS_11char_traitsIcEENS_9allocatorIcEEEERKN15InputTranscoder10PathSampleERNS7_14KeyboardLayoutEbEJSA_RKNS_12placeholders4__phILi1EEEbEEE
00007ffa408ee4c0 (__DATA_CONST,__const) non-external (was a private external) __ZTINSt3__16__bindIRFNS_12basic_stringIcNS_11char_traitsIcEENS_9allocatorIcEEEERKN15InputTranscoder10PathSampleERNS7_14KeyboardLayoutEbRKS6_EJSA_RKNS_12placeholders4__phILi1EEERKbSE_EEE
00007ffa408edf90 (__DATA_CONST,__const) non-external (was a private external) __ZTINSt3__16__bindIRFNS_6vectorIN15InputTranscoder16KeyCandidateImplENS_9allocatorIS3_EEEE7CGPointRNS2_14KeyboardLayoutEEJRKS7_RKNS_12placeholders4__phILi1EEEEEE
                 (undefined) weak external __ZTISt12length_error (from libc++)
                 (undefined) weak external __ZTISt12out_of_range (from libc++)
                 (undefined) external __ZTISt13runtime_error (from libc++)
                 (undefined) external __ZTISt20bad_array_new_length (from libc++)
                 (undefined) external __ZTISt9exception (from libc++)
00007ffa408ecf30 (__DATA_CONST,__const) non-external __ZTIZ28ITDecoderEnumerateCandidatesE3$_0
00007ffa408ecfb0 (__DATA_CONST,__const) non-external __ZTIZ39ITDecoderEnumerateCandidatesWithOptionsE3$_1
00007ffa408ed0b0 (__DATA_CONST,__const) non-external __ZTIZ43ITTouchTranscoderSessionEnumerateCandidatesE3$_0
00007ffa408ed130 (__DATA_CONST,__const) non-external __ZTIZ54ITTouchTranscoderSessionEnumerateCandidatesWithOptionsE3$_1
00007ffa408ed1c0 (__DATA_CONST,__const) non-external __ZTIZ58ITTouchTranscoderSessionEnumerateKeyCandidatesForLastTouchE3$_2
00007ffa408ed760 (__DATA_CONST,__const) non-external __ZTIZN15InputTranscoder19TouchTranscoderImpl10addLexiconEPK10_LXLexiconE3$_0
00007ffa408ed7e0 (__DATA_CONST,__const) non-external __ZTIZN15InputTranscoder19TouchTranscoderImpl13removeLexiconEPK10_LXLexiconE3$_1
00007ffa408ed870 (__DATA_CONST,__const) non-external __ZTIZN15InputTranscoder19TouchTranscoderImpl24clearNeuralNetworkBufferEvE3$_2
00007ffa408edc48 (__DATA_CONST,__const) non-external __ZTIZN15InputTranscoder26TouchTranscoderSessionImpl15shouldRunBigramERKNSt3__112basic_stringIcNS1_11char_traitsIcEENS1_9allocatorIcEEEES9_E4$_11
00007ffa408ed968 (__DATA_CONST,__const) non-external __ZTIZN15InputTranscoder26TouchTranscoderSessionImpl21addCandidateErrorTypeERNSt3__16vectorINS_20CTCSurfaceFormOutputENS1_9allocatorIS3_EEEEE3$_1
00007ffa408edab8 (__DATA_CONST,__const) non-external __ZTIZN15InputTranscoder26TouchTranscoderSessionImpl22getEditDistancePenaltyERKNSt3__112basic_stringIcNS1_11char_traitsIcEENS1_9allocatorIcEEEES9_E3$_2
00007ffa408eded8 (__DATA_CONST,__const) non-external __ZTIZN15InputTranscoder26TouchTranscoderSessionImpl23enumerateCandidatesImplEPK14__CFDictionaryRKNSt3__18functionIFbNS4_10unique_ptrINS_13CandidateImplENS4_14default_deleteIS7_EEEEEEERNS4_12basic_stringIcNS4_11char_traitsIcEENS4_9allocatorIcEEEEE4$_12
00007ffa408edbb8 (__DATA_CONST,__const) non-external __ZTIZN15InputTranscoder26TouchTranscoderSessionImpl28uniquifyEquivalentCandidatesERNSt3__16vectorINS_20CTCSurfaceFormOutputENS1_9allocatorIS3_EEEEE4$_10
00007ffa408ecc60 (__DATA_CONST,__const) non-external __ZTIZNK15InputTranscoder13RNNRecognizer9recognizeERKNS_14InputProcessorERNS_18TranscoderMediatorEE3$_0
00007ffa408ed280 (__DATA_CONST,__const) non-external __ZTIZNK15InputTranscoder14CRNNRecognizer9recognizeERKNS_14InputProcessorERNS_18TranscoderMediatorEE3$_0
00007ffa408ed340 (__DATA_CONST,__const) non-external __ZTIZNK15InputTranscoder14LRNNRecognizer9recognizeERKNS_14InputProcessorERNS_18TranscoderMediatorEE3$_0
00007ffa408ee398 (__DATA_CONST,__const) non-external __ZTIZNK15InputTranscoder22PathKeyLayoutProcessor21input_stream_for_pathERKNS_4PathEE3$_2
00007ffa408ee558 (__DATA_CONST,__const) non-external __ZTIZNK15InputTranscoder22PathKeyLayoutProcessor23key_class_for_touch_keyERK9ITKeyInfoE3$_0
00007ffa408ee318 (__DATA_CONST,__const) non-external __ZTIZNK15InputTranscoder22PathKeyLayoutProcessor29input_feature_stream_for_pathERKNS_4PathEbjbjE3$_1
00007ffa408edb38 (__DATA_CONST,__const) non-external __ZTIZNK15InputTranscoder26TouchTranscoderSessionImpl31updateCondenseFormForCandidatesERNSt3__16vectorINS_20CTCSurfaceFormOutputENS1_9allocatorIS3_EEEE12ITTypingModeE3$_9
00007ffa408ee788 (__DATA_CONST,__const) non-external __ZTIZNK15InputTranscoder4Path22is_curvature_local_maxEjdE3$_0
00007ffa0d0afba4 (__TEXT,__const) non-external (was a private external) __ZTS12KeyCandidate
00007ffa0d0afbb3 (__TEXT,__const) non-external (was a private external) __ZTS15TouchTranscoder
00007ffa0d0afbc5 (__TEXT,__const) non-external (was a private external) __ZTS22TouchTranscoderSession
00007ffa0d0afbde (__TEXT,__const) non-external (was a private external) __ZTS7Decoder
00007ffa0d0afb8b (__TEXT,__const) non-external (was a private external) __ZTS9Candidate
00007ffa0d0b26c2 (__TEXT,__const) non-external (was a private external) __ZTSN15InputTranscoder10PlistBiMapINSt3__112basic_stringIcNS1_11char_traitsIcEENS1_9allocatorIcEEEEjEE
00007ffa0d0b2602 (__TEXT,__const) non-external (was a private external) __ZTSN15InputTranscoder10PlistBiMapIjNSt3__112basic_stringIcNS1_11char_traitsIcEENS1_9allocatorIcEEEEEE
00007ffa0d0b25c0 (__TEXT,__const) non-external (was a private external) __ZTSN15InputTranscoder10PlistBiMapIjjEE
00007ffa0d0af9a1 (__TEXT,__const) non-external (was a private external) __ZTSN15InputTranscoder13RNNRecognizerE
00007ffa0d0b025e (__TEXT,__const) non-external (was a private external) __ZTSN15InputTranscoder14CRNNRecognizerE
00007ffa0d0b3228 (__TEXT,__const) non-external (was a private external) __ZTSN15InputTranscoder14KeyboardLayoutE
00007ffa0d0b03b7 (__TEXT,__const) non-external (was a private external) __ZTSN15InputTranscoder14LRNNRecognizerE
00007ffa0d0b075d (__TEXT,__const) non-external (was a private external) __ZTSN15InputTranscoder15LexiconPathTrieE
00007ffa0d0b3200 (__TEXT,__const) non-external (was a private external) __ZTSN15InputTranscoder18KeyboardLayoutImplE
00007ffa0d0b27b0 (__TEXT,__const) non-external (was a private external) __ZTSN15InputTranscoder22PathKeyLayoutProcessorE
00007ffa0d0af9c4 (__TEXT,__const) non-external (was a private external) __ZTSN15InputTranscoder23NeuralNetworkRecognizerE
00007ffa0d0b2725 (__TEXT,__const) non-external (was a private external) __ZTSN15InputTranscoder5BiMapINSt3__112basic_stringIcNS1_11char_traitsIcEENS1_9allocatorIcEEEEjEE
00007ffa0d0b2665 (__TEXT,__const) non-external (was a private external) __ZTSN15InputTranscoder5BiMapIjNSt3__112basic_stringIcNS1_11char_traitsIcEENS1_9allocatorIcEEEEEE
00007ffa0d0b25e4 (__TEXT,__const) non-external (was a private external) __ZTSN15InputTranscoder5BiMapIjjEE
00007ffa0d0b0740 (__TEXT,__const) non-external (was a private external) __ZTSN15InputTranscoder8PathTrieE
00007ffa0d0afe5d (__TEXT,__const) non-external (was a private external) __ZTSN3nlp25ResourceCreationExceptionE
00007ffa0d0afb96 (__TEXT,__const) non-external (was a private external) __ZTSN3nlp6CFTypeE
00007ffa0d0b0b7c (__TEXT,__const) non-external (was a private external) __ZTSNSt3__110__function6__baseIF26ITAutocorrectionOperationsRN15InputTranscoder14KeyboardLayoutEEEE
00007ffa0d0b0d06 (__TEXT,__const) non-external (was a private external) __ZTSNSt3__110__function6__baseIF7CGPointRN15InputTranscoder14KeyboardLayoutEEEE
00007ffa0d0b288f (__TEXT,__const) non-external (was a private external) __ZTSNSt3__110__function6__baseIFK7CGPointRN15InputTranscoder14KeyboardLayoutEEEE
00007ffa0d0b24ff (__TEXT,__const) non-external (was a private external) __ZTSNSt3__110__function6__baseIFNS_12basic_stringIcNS_11char_traitsIcEENS_9allocatorIcEEEERN15InputTranscoder14KeyboardLayoutEEEE
00007ffa0d0afac1 (__TEXT,__const) non-external (was a private external) __ZTSNSt3__110__function6__baseIFNS_4spanIKfLm18446744073709551615EEERN15InputTranscoder13MontrealModelEEEE
00007ffa0d0b22cf (__TEXT,__const) non-external (was a private external) __ZTSNSt3__110__function6__baseIFNS_6vectorIN15InputTranscoder16KeyCandidateImplENS_9allocatorIS4_EEEERNS3_14KeyboardLayoutEEEE
00007ffa0d0b1b1b (__TEXT,__const) non-external (was a private external) __ZTSNSt3__110__function6__baseIFNS_6vectorINS_4pairIPN15InputTranscoder8PathTrieENS4_20CTCSurfaceFormOutputEEENS_9allocatorIS8_EEEERKSB_EEE
00007ffa0d0aff44 (__TEXT,__const) non-external (was a private external) __ZTSNSt3__110__function6__baseIFbNS_10unique_ptrIN15InputTranscoder13CandidateImplENS_14default_deleteIS4_EEEEEEE
00007ffa0d0b01aa (__TEXT,__const) non-external (was a private external) __ZTSNSt3__110__function6__baseIFbNS_10unique_ptrIN15InputTranscoder16KeyCandidateImplENS_14default_deleteIS4_EEEEEEE
00007ffa0d0b1420 (__TEXT,__const) non-external (was a private external) __ZTSNSt3__110__function6__baseIFbRN15InputTranscoder10CTCDecoderEEEE
00007ffa0d0b2f25 (__TEXT,__const) non-external (was a private external) __ZTSNSt3__110__function6__baseIFbRN15InputTranscoder14KeyboardLayoutEEEE
00007ffa0d0b0f37 (__TEXT,__const) non-external (was a private external) __ZTSNSt3__110__function6__baseIFdRN15InputTranscoder14KeyboardLayoutEEEE
00007ffa0d0b33ee (__TEXT,__const) non-external (was a private external) __ZTSNSt3__110__function6__baseIFdjEEE
00007ffa0d0afce6 (__TEXT,__const) non-external (was a private external) __ZTSNSt3__110__function6__baseIFvNS_10unique_ptrIN15InputTranscoder13CandidateImplENS_14default_deleteIS4_EEEERbEEE
00007ffa0d0b1781 (__TEXT,__const) non-external (was a private external) __ZTSNSt3__110__function6__baseIFvPN15InputTranscoder8PathTrieERNS_6vectorINS_4pairIS4_NS2_20CTCSurfaceFormOutputEEENS_9allocatorIS8_EEEERbEEE
00007ffa0d0b1f0f (__TEXT,__const) non-external (was a private external) __ZTSNSt3__110__function6__baseIFvRKNS_4pairIPN15InputTranscoder8PathTrieENS3_20CTCSurfaceFormOutputEEEEEE
00007ffa0d0b0a56 (__TEXT,__const) non-external (was a private external) __ZTSNSt3__110__function6__baseIFvRN15InputTranscoder10CTCDecoderEEEE
00007ffa0d0b09c8 (__TEXT,__const) non-external (was a private external) __ZTSNSt3__110__function6__baseIFvRN15InputTranscoder13MontrealModelEEEE
00007ffa0d0b161a (__TEXT,__const) non-external (was a private external) __ZTSNSt3__110__function6__funcINS_6__bindIMN15InputTranscoder26TouchTranscoderSessionImplEKFvRNS_6vectorINS3_20CTCSurfaceFormOutputENS_9allocatorIS6_EEEERjSB_PK14__CFDictionaryPNS3_8PathTrieERNS5_INS_4pairISG_S6_EENS7_ISI_EEEERbEJPS4_NS_17reference_wrapperIS9_EENSQ_IjEESS_RSE_RKNS_12placeholders4__phILi1EEERKNSV_ILi2EEERKNSV_ILi3EEEEEENS7_IS15_EEFvSG_SL_SM_EEE
00007ffa0d0b1dfe (__TEXT,__const) non-external (was a private external) __ZTSNSt3__110__function6__funcINS_6__bindIMN15InputTranscoder26TouchTranscoderSessionImplEKFvRNS_6vectorINS3_20CTCSurfaceFormOutputENS_9allocatorIS6_EEEESA_RKNS_4pairIPNS3_8PathTrieES6_EEEJPS4_NS_17reference_wrapperIS9_EESL_RKNS_12placeholders4__phILi1EEEEEENS7_ISR_EEFvSG_EEE
00007ffa0d0b1a1c (__TEXT,__const) non-external (was a private external) __ZTSNSt3__110__function6__funcINS_6__bindIPFNS_6vectorINS_4pairIPN15InputTranscoder8PathTrieENS5_20CTCSurfaceFormOutputEEENS_9allocatorIS9_EEEERKNS_12basic_stringIcNS_11char_traitsIcEENSA_IcEEEERKSC_EJSJ_RKNS_12placeholders4__phILi1EEEEEENSA_IST_EEFSC_SL_EEE
00007ffa0d0b0c69 (__TEXT,__const) non-external (was a private external) __ZTSNSt3__110__function6__funcINS_6__bindIRF7CGPointS3_RN15InputTranscoder14KeyboardLayoutEEJRS3_RKNS_12placeholders4__phILi1EEEEEENS_9allocatorISF_EEFS3_S6_EEE
00007ffa0d0b2a39 (__TEXT,__const) non-external (was a private external) __ZTSNSt3__110__function6__funcINS_6__bindIRFNS_12basic_stringIcNS_11char_traitsIcEENS_9allocatorIcEEEERKN15InputTranscoder10PathSampleERNS9_14KeyboardLayoutEbEJSC_RKNS_12placeholders4__phILi1EEERKbEEENS6_ISO_EEFS8_SE_EEE
00007ffa0d0b2fc2 (__TEXT,__const) non-external (was a private external) __ZTSNSt3__110__function6__funcINS_6__bindIRFNS_12basic_stringIcNS_11char_traitsIcEENS_9allocatorIcEEEERKN15InputTranscoder10PathSampleERNS9_14KeyboardLayoutEbEJSC_RKNS_12placeholders4__phILi1EEEbEEENS6_ISM_EEFS8_SE_EEE
00007ffa0d0b2c54 (__TEXT,__const) non-external (was a private external) __ZTSNSt3__110__function6__funcINS_6__bindIRFNS_12basic_stringIcNS_11char_traitsIcEENS_9allocatorIcEEEERKN15InputTranscoder10PathSampleERNS9_14KeyboardLayoutEbRKS8_EJSC_RKNS_12placeholders4__phILi1EEERKbSG_EEENS6_ISQ_EEFS8_SE_EEE
00007ffa0d0b2206 (__TEXT,__const) non-external (was a private external) __ZTSNSt3__110__function6__funcINS_6__bindIRFNS_6vectorIN15InputTranscoder16KeyCandidateImplENS_9allocatorIS5_EEEE7CGPointRNS4_14KeyboardLayoutEEJRKS9_RKNS_12placeholders4__phILi1EEEEEENS6_ISL_EEFS8_SB_EEE
00007ffa0d0afc3f (__TEXT,__const) non-external __ZTSNSt3__110__function6__funcIZ28ITDecoderEnumerateCandidatesE3$_0NS_9allocatorIS2_EEFvNS_10unique_ptrIN15InputTranscoder13CandidateImplENS_14default_deleteIS7_EEEERbEEE
00007ffa0d0afd7b (__TEXT,__const) non-external __ZTSNSt3__110__function6__funcIZ39ITDecoderEnumerateCandidatesWithOptionsE3$_1NS_9allocatorIS2_EEFvNS_10unique_ptrIN15InputTranscoder13CandidateImplENS_14default_deleteIS7_EEEERbEEE
00007ffa0d0afe90 (__TEXT,__const) non-external __ZTSNSt3__110__function6__funcIZ43ITTouchTranscoderSessionEnumerateCandidatesE3$_0NS_9allocatorIS2_EEFbNS_10unique_ptrIN15InputTranscoder13CandidateImplENS_14default_deleteIS7_EEEEEEE
00007ffa0d0affe6 (__TEXT,__const) non-external __ZTSNSt3__110__function6__funcIZ54ITTouchTranscoderSessionEnumerateCandidatesWithOptionsE3$_1NS_9allocatorIS2_EEFbNS_10unique_ptrIN15InputTranscoder13CandidateImplENS_14default_deleteIS7_EEEEEEE
00007ffa0d0b00e4 (__TEXT,__const) non-external __ZTSNSt3__110__function6__funcIZ58ITTouchTranscoderSessionEnumerateKeyCandidatesForLastTouchE3$_2NS_9allocatorIS2_EEFbNS_10unique_ptrIN15InputTranscoder16KeyCandidateImplENS_14default_deleteIS7_EEEEEEE
00007ffa0d0b0782 (__TEXT,__const) non-external (was a private external) __ZTSNSt3__110__function6__funcIZN15InputTranscoder19TouchTranscoderImpl10addLexiconEPK10_LXLexiconE3$_0NS_9allocatorIS7_EEFvRNS2_10CTCDecoderEEEE
00007ffa0d0b0859 (__TEXT,__const) non-external (was a private external) __ZTSNSt3__110__function6__funcIZN15InputTranscoder19TouchTranscoderImpl13removeLexiconEPK10_LXLexiconE3$_1NS_9allocatorIS7_EEFvRNS2_10CTCDecoderEEEE
00007ffa0d0b0936 (__TEXT,__const) non-external (was a private external) __ZTSNSt3__110__function6__funcIZN15InputTranscoder19TouchTranscoderImpl24clearNeuralNetworkBufferEvE3$_2NS_9allocatorIS4_EEFvRNS2_13MontrealModelEEEE
00007ffa0d0b135d (__TEXT,__const) non-external __ZTSNSt3__110__function6__funcIZN15InputTranscoder26TouchTranscoderSessionImpl15shouldRunBigramERKNS_12basic_stringIcNS_11char_traitsIcEENS_9allocatorIcEEEESB_E4$_11NS7_ISC_EEFbRNS2_10CTCDecoderEEEE
00007ffa0d0b0a98 (__TEXT,__const) non-external __ZTSNSt3__110__function6__funcIZN15InputTranscoder26TouchTranscoderSessionImpl21addCandidateErrorTypeERNS_6vectorINS2_20CTCSurfaceFormOutputENS_9allocatorIS5_EEEEE3$_1NS6_ISA_EEF26ITAutocorrectionOperationsRNS2_14KeyboardLayoutEEEE
00007ffa0d0b0e6a (__TEXT,__const) non-external __ZTSNSt3__110__function6__funcIZN15InputTranscoder26TouchTranscoderSessionImpl22getEditDistancePenaltyERKNS_12basic_stringIcNS_11char_traitsIcEENS_9allocatorIcEEEESB_E3$_2NS7_ISC_EEFdRNS2_14KeyboardLayoutEEEE
00007ffa0d0b14ee (__TEXT,__const) non-external __ZTSNSt3__110__function6__funcIZN15InputTranscoder26TouchTranscoderSessionImpl23enumerateCandidatesImplEPK14__CFDictionaryRKNS_8functionIFbNS_10unique_ptrINS2_13CandidateImplENS_14default_deleteIS9_EEEEEEERNS_12basic_stringIcNS_11char_traitsIcEENS_9allocatorIcEEEEE4$_12NSK_ISO_EEFvRNS2_10CTCDecoderEEEE
00007ffa0d0b11c7 (__TEXT,__const) non-external __ZTSNSt3__110__function6__funcIZN15InputTranscoder26TouchTranscoderSessionImpl28uniquifyEquivalentCandidatesERNS_6vectorINS2_20CTCSurfaceFormOutputENS_9allocatorIS5_EEEEE4$_10NS6_ISA_EEFNS_12basic_stringIcNS_11char_traitsIcEENS6_IcEEEERNS2_14KeyboardLayoutEEEE
00007ffa0d0af9f1 (__TEXT,__const) non-external __ZTSNSt3__110__function6__funcIZNK15InputTranscoder13RNNRecognizer9recognizeERKNS2_14InputProcessorERNS2_18TranscoderMediatorEE3$_0NS_9allocatorIS9_EEFNS_4spanIKfLm18446744073709551615EEERNS2_13MontrealModelEEEE
00007ffa0d0b0282 (__TEXT,__const) non-external __ZTSNSt3__110__function6__funcIZNK15InputTranscoder14CRNNRecognizer9recognizeERKNS2_14InputProcessorERNS2_18TranscoderMediatorEE3$_0NS_9allocatorIS9_EEFNS_4spanIKfLm18446744073709551615EEERNS2_13MontrealModelEEEE
00007ffa0d0b03db (__TEXT,__const) non-external __ZTSNSt3__110__function6__funcIZNK15InputTranscoder14LRNNRecognizer9recognizeERKNS2_14InputProcessorERNS2_18TranscoderMediatorEE3$_0NS_9allocatorIS9_EEFNS_4spanIKfLm18446744073709551615EEERNS2_13MontrealModelEEEE
00007ffa0d0b293d (__TEXT,__const) non-external __ZTSNSt3__110__function6__funcIZNK15InputTranscoder22PathKeyLayoutProcessor21input_stream_for_pathERKNS2_4PathEE3$_2NS_9allocatorIS7_EEFK7CGPointRNS2_14KeyboardLayoutEEEE
00007ffa0d0b2e84 (__TEXT,__const) non-external (was a private external) __ZTSNSt3__110__function6__funcIZNK15InputTranscoder22PathKeyLayoutProcessor23key_class_for_touch_keyERK9ITKeyInfoE3$_0NS_9allocatorIS7_EEFbRNS2_14KeyboardLayoutEEEE
00007ffa0d0b27dc (__TEXT,__const) non-external __ZTSNSt3__110__function6__funcIZNK15InputTranscoder22PathKeyLayoutProcessor29input_feature_stream_for_pathERKNS2_4PathEbjbjE3$_1NS_9allocatorIS7_EEFK7CGPointRNS2_14KeyboardLayoutEEEE
00007ffa0d0b100f (__TEXT,__const) non-external __ZTSNSt3__110__function6__funcIZNK15InputTranscoder26TouchTranscoderSessionImpl31updateCondenseFormForCandidatesERNS_6vectorINS2_20CTCSurfaceFormOutputENS_9allocatorIS5_EEEE12ITTypingModeE3$_9NS6_ISB_EEFNS_12basic_stringIcNS_11char_traitsIcEENS6_IcEEEERNS2_14KeyboardLayoutEEEE
00007ffa0d0b3380 (__TEXT,__const) non-external (was a private external) __ZTSNSt3__110__function6__funcIZNK15InputTranscoder4Path22is_curvature_local_maxEjdE3$_0NS_9allocatorIS4_EEFdjEEE
00007ffa0d0b32e2 (__TEXT,__const) non-external (was a private external) __ZTSNSt3__110shared_ptrIN15InputTranscoder18LayoutInfoAssortedEE27__shared_ptr_default_deleteIS2_S2_EE
00007ffa0d0b0695 (__TEXT,__const) non-external (was a private external) __ZTSNSt3__114default_deleteIN15InputTranscoder18TranscoderMediatorEEE
00007ffa0d0b0708 (__TEXT,__const) non-external (was a private external) __ZTSNSt3__117bad_function_callE
00007ffa0d0b1942 (__TEXT,__const) non-external (was a private external) __ZTSNSt3__118__weak_result_typeIMN15InputTranscoder26TouchTranscoderSessionImplEKFvRNS_6vectorINS1_20CTCSurfaceFormOutputENS_9allocatorIS4_EEEERjS9_PK14__CFDictionaryPNS1_8PathTrieERNS3_INS_4pairISE_S4_EENS5_ISG_EEEERbEEE
00007ffa0d0b205d (__TEXT,__const) non-external (was a private external) __ZTSNSt3__118__weak_result_typeIMN15InputTranscoder26TouchTranscoderSessionImplEKFvRNS_6vectorINS1_20CTCSurfaceFormOutputENS_9allocatorIS4_EEEES8_RKNS_4pairIPNS1_8PathTrieES4_EEEEE
00007ffa0d0b0dbb (__TEXT,__const) non-external (was a private external) __ZTSNSt3__118__weak_result_typeIPF7CGPointS1_RN15InputTranscoder14KeyboardLayoutEEEE
00007ffa0d0b2bc0 (__TEXT,__const) non-external (was a private external) __ZTSNSt3__118__weak_result_typeIPFNS_12basic_stringIcNS_11char_traitsIcEENS_9allocatorIcEEEERKN15InputTranscoder10PathSampleERNS7_14KeyboardLayoutEbEEE
00007ffa0d0b2deb (__TEXT,__const) non-external (was a private external) __ZTSNSt3__118__weak_result_typeIPFNS_12basic_stringIcNS_11char_traitsIcEENS_9allocatorIcEEEERKN15InputTranscoder10PathSampleERNS7_14KeyboardLayoutEbRKS6_EEE
00007ffa0d0b23e8 (__TEXT,__const) non-external (was a private external) __ZTSNSt3__118__weak_result_typeIPFNS_6vectorIN15InputTranscoder16KeyCandidateImplENS_9allocatorIS3_EEEE7CGPointRNS2_14KeyboardLayoutEEEE
00007ffa0d0b1c77 (__TEXT,__const) non-external (was a private external) __ZTSNSt3__118__weak_result_typeIPFNS_6vectorINS_4pairIPN15InputTranscoder8PathTrieENS3_20CTCSurfaceFormOutputEEENS_9allocatorIS7_EEEERKNS_12basic_stringIcNS_11char_traitsIcEENS8_IcEEEERKSA_EEE
00007ffa0d0b0510 (__TEXT,__const) non-external (was a private external) __ZTSNSt3__120__shared_ptr_emplaceIKN15InputTranscoder10PlistBiMapINS_12basic_stringIcNS_11char_traitsIcEENS_9allocatorIcEEEEjEENS6_ISA_EEEE
00007ffa0d0b0598 (__TEXT,__const) non-external (was a private external) __ZTSNSt3__120__shared_ptr_emplaceIKN15InputTranscoder10PlistBiMapIjNS_12basic_stringIcNS_11char_traitsIcEENS_9allocatorIcEEEEEENS6_ISA_EEEE
00007ffa0d0afbe7 (__TEXT,__const) non-external (was a private external) __ZTSNSt3__120__shared_ptr_emplaceIKN15InputTranscoder10PlistBiMapIjjEENS_9allocatorIS4_EEEE
00007ffa0d0b324c (__TEXT,__const) non-external (was a private external) __ZTSNSt3__120__shared_ptr_pointerIPN15InputTranscoder18LayoutInfoAssortedENS_10shared_ptrIS2_E27__shared_ptr_default_deleteIS2_S2_EENS_9allocatorIS2_EEEE
00007ffa0d0b0620 (__TEXT,__const) non-external (was a private external) __ZTSNSt3__120__shared_ptr_pointerIPN15InputTranscoder18TranscoderMediatorENS_14default_deleteIS2_EENS_9allocatorIS2_EEEE
00007ffa0d0b246d (__TEXT,__const) non-external (was a private external) __ZTSNSt3__134__binary_function_keep_layout_baseI7CGPointRN15InputTranscoder14KeyboardLayoutENS_6vectorINS2_16KeyCandidateImplENS_9allocatorIS6_EEEEEE
00007ffa0d0b0e0c (__TEXT,__const) non-external (was a private external) __ZTSNSt3__134__binary_function_keep_layout_baseI7CGPointRN15InputTranscoder14KeyboardLayoutES1_EE
00007ffa0d0b1d34 (__TEXT,__const) non-external (was a private external) __ZTSNSt3__134__binary_function_keep_layout_baseIRKNS_12basic_stringIcNS_11char_traitsIcEENS_9allocatorIcEEEERKNS_6vectorINS_4pairIPN15InputTranscoder8PathTrieENSB_20CTCSurfaceFormOutputEEENS4_ISF_EEEESH_EE
00007ffa0d0b180b (__TEXT,__const) non-external (was a private external) __ZTSNSt3__16__bindIMN15InputTranscoder26TouchTranscoderSessionImplEKFvRNS_6vectorINS1_20CTCSurfaceFormOutputENS_9allocatorIS4_EEEERjS9_PK14__CFDictionaryPNS1_8PathTrieERNS3_INS_4pairISE_S4_EENS5_ISG_EEEERbEJPS2_NS_17reference_wrapperIS7_EENSO_IjEESQ_RSC_RKNS_12placeholders4__phILi1EEERKNST_ILi2EEERKNST_ILi3EEEEEE
00007ffa0d0b1f75 (__TEXT,__const) non-external (was a private external) __ZTSNSt3__16__bindIMN15InputTranscoder26TouchTranscoderSessionImplEKFvRNS_6vectorINS1_20CTCSurfaceFormOutputENS_9allocatorIS4_EEEES8_RKNS_4pairIPNS1_8PathTrieES4_EEEJPS2_NS_17reference_wrapperIS7_EESJ_RKNS_12placeholders4__phILi1EEEEEE
00007ffa0d0b1ba3 (__TEXT,__const) non-external (was a private external) __ZTSNSt3__16__bindIPFNS_6vectorINS_4pairIPN15InputTranscoder8PathTrieENS3_20CTCSurfaceFormOutputEEENS_9allocatorIS7_EEEERKNS_12basic_stringIcNS_11char_traitsIcEENS8_IcEEEERKSA_EJSH_RKNS_12placeholders4__phILi1EEEEEE
00007ffa0d0b0d52 (__TEXT,__const) non-external (was a private external) __ZTSNSt3__16__bindIRF7CGPointS1_RN15InputTranscoder14KeyboardLayoutEEJRS1_RKNS_12placeholders4__phILi1EEEEEE
00007ffa0d0b2b12 (__TEXT,__const) non-external (was a private external) __ZTSNSt3__16__bindIRFNS_12basic_stringIcNS_11char_traitsIcEENS_9allocatorIcEEEERKN15InputTranscoder10PathSampleERNS7_14KeyboardLayoutEbEJSA_RKNS_12placeholders4__phILi1EEERKbEEE
00007ffa0d0b3099 (__TEXT,__const) non-external (was a private external) __ZTSNSt3__16__bindIRFNS_12basic_stringIcNS_11char_traitsIcEENS_9allocatorIcEEEERKN15InputTranscoder10PathSampleERNS7_14KeyboardLayoutEbEJSA_RKNS_12placeholders4__phILi1EEEbEEE
00007ffa0d0b2d35 (__TEXT,__const) non-external (was a private external) __ZTSNSt3__16__bindIRFNS_12basic_stringIcNS_11char_traitsIcEENS_9allocatorIcEEEERKN15InputTranscoder10PathSampleERNS7_14KeyboardLayoutEbRKS6_EJSA_RKNS_12placeholders4__phILi1EEERKbSE_EEE
00007ffa0d0b234a (__TEXT,__const) non-external (was a private external) __ZTSNSt3__16__bindIRFNS_6vectorIN15InputTranscoder16KeyCandidateImplENS_9allocatorIS3_EEEE7CGPointRNS2_14KeyboardLayoutEEJRKS7_RKNS_12placeholders4__phILi1EEEEEE
00007ffa0d0afd56 (__TEXT,__const) non-external __ZTSZ28ITDecoderEnumerateCandidatesE3$_0
00007ffa0d0afe2d (__TEXT,__const) non-external __ZTSZ39ITDecoderEnumerateCandidatesWithOptionsE3$_1
00007ffa0d0affb2 (__TEXT,__const) non-external __ZTSZ43ITTouchTranscoderSessionEnumerateCandidatesE3$_0
00007ffa0d0b00a5 (__TEXT,__const) non-external __ZTSZ54ITTouchTranscoderSessionEnumerateCandidatesWithOptionsE3$_1
00007ffa0d0b021b (__TEXT,__const) non-external __ZTSZ58ITTouchTranscoderSessionEnumerateKeyCandidatesForLastTouchE3$_2
00007ffa0d0b0810 (__TEXT,__const) non-external __ZTSZN15InputTranscoder19TouchTranscoderImpl10addLexiconEPK10_LXLexiconE3$_0
00007ffa0d0b08ea (__TEXT,__const) non-external __ZTSZN15InputTranscoder19TouchTranscoderImpl13removeLexiconEPK10_LXLexiconE3$_1
00007ffa0d0b0a0c (__TEXT,__const) non-external __ZTSZN15InputTranscoder19TouchTranscoderImpl24clearNeuralNetworkBufferEvE3$_2
00007ffa0d0b1461 (__TEXT,__const) non-external __ZTSZN15InputTranscoder26TouchTranscoderSessionImpl15shouldRunBigramERKNSt3__112basic_stringIcNS1_11char_traitsIcEENS1_9allocatorIcEEEES9_E4$_11
00007ffa0d0b0bdc (__TEXT,__const) non-external __ZTSZN15InputTranscoder26TouchTranscoderSessionImpl21addCandidateErrorTypeERNSt3__16vectorINS_20CTCSurfaceFormOutputENS1_9allocatorIS3_EEEEE3$_1
00007ffa0d0b0f7c (__TEXT,__const) non-external __ZTSZN15InputTranscoder26TouchTranscoderSessionImpl22getEditDistancePenaltyERKNSt3__112basic_stringIcNS1_11char_traitsIcEENS1_9allocatorIcEEEES9_E3$_2
00007ffa0d0b210e (__TEXT,__const) non-external __ZTSZN15InputTranscoder26TouchTranscoderSessionImpl23enumerateCandidatesImplEPK14__CFDictionaryRKNSt3__18functionIFbNS4_10unique_ptrINS_13CandidateImplENS4_14default_deleteIS7_EEEEEEERNS4_12basic_stringIcNS4_11char_traitsIcEENS4_9allocatorIcEEEEE4$_12
00007ffa0d0b12c8 (__TEXT,__const) non-external __ZTSZN15InputTranscoder26TouchTranscoderSessionImpl28uniquifyEquivalentCandidatesERNSt3__16vectorINS_20CTCSurfaceFormOutputENS1_9allocatorIS3_EEEEE4$_10
00007ffa0d0afb28 (__TEXT,__const) non-external __ZTSZNK15InputTranscoder13RNNRecognizer9recognizeERKNS_14InputProcessorERNS_18TranscoderMediatorEE3$_0
00007ffa0d0b0353 (__TEXT,__const) non-external __ZTSZNK15InputTranscoder14CRNNRecognizer9recognizeERKNS_14InputProcessorERNS_18TranscoderMediatorEE3$_0
00007ffa0d0b04ac (__TEXT,__const) non-external __ZTSZNK15InputTranscoder14LRNNRecognizer9recognizeERKNS_14InputProcessorERNS_18TranscoderMediatorEE3$_0
00007ffa0d0b29e4 (__TEXT,__const) non-external __ZTSZNK15InputTranscoder22PathKeyLayoutProcessor21input_stream_for_pathERKNS_4PathEE3$_2
00007ffa0d0b2f6a (__TEXT,__const) non-external __ZTSZNK15InputTranscoder22PathKeyLayoutProcessor23key_class_for_touch_keyERK9ITKeyInfoE3$_0
00007ffa0d0b28dc (__TEXT,__const) non-external __ZTSZNK15InputTranscoder22PathKeyLayoutProcessor29input_feature_stream_for_pathERKNS_4PathEbjbjE3$_1
00007ffa0d0b1121 (__TEXT,__const) non-external __ZTSZNK15InputTranscoder26TouchTranscoderSessionImpl31updateCondenseFormForCandidatesERNSt3__16vectorINS_20CTCSurfaceFormOutputENS1_9allocatorIS3_EEEE12ITTypingModeE3$_9
00007ffa0d0b3410 (__TEXT,__const) non-external __ZTSZNK15InputTranscoder4Path22is_curvature_local_maxEjdE3$_0
                 (undefined) external __ZTTNSt3__118basic_stringstreamIcNS_11char_traitsIcEENS_9allocatorIcEEEE (from libc++)
                 (undefined) external __ZTTNSt3__119basic_ostringstreamIcNS_11char_traitsIcEENS_9allocatorIcEEEE (from libc++)
00007ffa408eccd8 (__DATA_CONST,__const) non-external (was a private external) __ZTV12KeyCandidate
00007ffa408ecd30 (__DATA_CONST,__const) non-external (was a private external) __ZTV15TouchTranscoder
00007ffa408ecd88 (__DATA_CONST,__const) non-external (was a private external) __ZTV22TouchTranscoderSession
00007ffa408ecde0 (__DATA_CONST,__const) non-external (was a private external) __ZTV7Decoder
00007ffa408ecc70 (__DATA_CONST,__const) non-external (was a private external) __ZTV9Candidate
                 (undefined) external __ZTVN10__cxxabiv117__class_type_infoE (from libc++)
                 (undefined) external __ZTVN10__cxxabiv120__si_class_type_infoE (from libc++)
00007ffa408ee0e8 (__DATA_CONST,__const) non-external (was a private external) __ZTVN15InputTranscoder10PlistBiMapINSt3__112basic_stringIcNS1_11char_traitsIcEENS1_9allocatorIcEEEEjEE
00007ffa408ee0a8 (__DATA_CONST,__const) non-external (was a private external) __ZTVN15InputTranscoder10PlistBiMapIjNSt3__112basic_stringIcNS1_11char_traitsIcEENS1_9allocatorIcEEEEEE
00007ffa408ee068 (__DATA_CONST,__const) non-external (was a private external) __ZTVN15InputTranscoder10PlistBiMapIjjEE
00007ffa408ecb90 (__DATA_CONST,__const) non-external (was a private external) __ZTVN15InputTranscoder13RNNRecognizerE
00007ffa408ed1d0 (__DATA_CONST,__const) non-external (was a private external) __ZTVN15InputTranscoder14CRNNRecognizerE
00007ffa408ed290 (__DATA_CONST,__const) non-external (was a private external) __ZTVN15InputTranscoder14LRNNRecognizerE
00007ffa408ed520 (__DATA_CONST,__const) non-external (was a private external) __ZTVN15InputTranscoder15LexiconPathTrieE
00007ffa408ee5f0 (__DATA_CONST,__const) non-external (was a private external) __ZTVN15InputTranscoder18KeyboardLayoutImplE
00007ffa408ee1a0 (__DATA_CONST,__const) non-external (was a private external) __ZTVN15InputTranscoder22PathKeyLayoutProcessorE
00007ffa408ed4c0 (__DATA_CONST,__const) non-external (was a private external) __ZTVN15InputTranscoder8PathTrieE
00007ffa408ecfd8 (__DATA_CONST,__const) non-external (was a private external) __ZTVN3nlp25ResourceCreationExceptionE
00007ffa408edcc8 (__DATA_CONST,__const) non-external (was a private external) __ZTVNSt3__110__function6__funcINS_6__bindIMN15InputTranscoder26TouchTranscoderSessionImplEKFvRNS_6vectorINS3_20CTCSurfaceFormOutputENS_9allocatorIS6_EEEERjSB_PK14__CFDictionaryPNS3_8PathTrieERNS5_INS_4pairISG_S6_EENS7_ISI_EEEERbEJPS4_NS_17reference_wrapperIS9_EENSQ_IjEESS_RSE_RKNS_12placeholders4__phILi1EEERKNSV_ILi2EEERKNSV_ILi3EEEEEENS7_IS15_EEFvSG_SL_SM_EEE
00007ffa408ede30 (__DATA_CONST,__const) non-external (was a private external) __ZTVNSt3__110__function6__funcINS_6__bindIMN15InputTranscoder26TouchTranscoderSessionImplEKFvRNS_6vectorINS3_20CTCSurfaceFormOutputENS_9allocatorIS6_EEEESA_RKNS_4pairIPNS3_8PathTrieES6_EEEJPS4_NS_17reference_wrapperIS9_EESL_RKNS_12placeholders4__phILi1EEEEEENS7_ISR_EEFvSG_EEE
00007ffa408edd70 (__DATA_CONST,__const) non-external (was a private external) __ZTVNSt3__110__function6__funcINS_6__bindIPFNS_6vectorINS_4pairIPN15InputTranscoder8PathTrieENS5_20CTCSurfaceFormOutputEEENS_9allocatorIS9_EEEERKNS_12basic_stringIcNS_11char_traitsIcEENSA_IcEEEERKSC_EJSJ_RKNS_12placeholders4__phILi1EEEEEENSA_IST_EEFSC_SL_EEE
00007ffa408ed978 (__DATA_CONST,__const) non-external (was a private external) __ZTVNSt3__110__function6__funcINS_6__bindIRF7CGPointS3_RN15InputTranscoder14KeyboardLayoutEEJRS3_RKNS_12placeholders4__phILi1EEEEEENS_9allocatorISF_EEFS3_S6_EEE
00007ffa408ee3a8 (__DATA_CONST,__const) non-external (was a private external) __ZTVNSt3__110__function6__funcINS_6__bindIRFNS_12basic_stringIcNS_11char_traitsIcEENS_9allocatorIcEEEERKN15InputTranscoder10PathSampleERNS9_14KeyboardLayoutEbEJSC_RKNS_12placeholders4__phILi1EEERKbEEENS6_ISO_EEFS8_SE_EEE
00007ffa408ee568 (__DATA_CONST,__const) non-external (was a private external) __ZTVNSt3__110__function6__funcINS_6__bindIRFNS_12basic_stringIcNS_11char_traitsIcEENS_9allocatorIcEEEERKN15InputTranscoder10PathSampleERNS9_14KeyboardLayoutEbEJSC_RKNS_12placeholders4__phILi1EEEbEEENS6_ISM_EEFS8_SE_EEE
00007ffa408ee440 (__DATA_CONST,__const) non-external (was a private external) __ZTVNSt3__110__function6__funcINS_6__bindIRFNS_12basic_stringIcNS_11char_traitsIcEENS_9allocatorIcEEEERKN15InputTranscoder10PathSampleERNS9_14KeyboardLayoutEbRKS8_EJSC_RKNS_12placeholders4__phILi1EEERKbSG_EEENS6_ISQ_EEFS8_SE_EEE
00007ffa408edee8 (__DATA_CONST,__const) non-external (was a private external) __ZTVNSt3__110__function6__funcINS_6__bindIRFNS_6vectorIN15InputTranscoder16KeyCandidateImplENS_9allocatorIS5_EEEE7CGPointRNS4_14KeyboardLayoutEEJRKS9_RKNS_12placeholders4__phILi1EEEEEENS6_ISL_EEFS8_SB_EEE
00007ffa408eceb0 (__DATA_CONST,__const) non-external __ZTVNSt3__110__function6__funcIZ28ITDecoderEnumerateCandidatesE3$_0NS_9allocatorIS2_EEFvNS_10unique_ptrIN15InputTranscoder13CandidateImplENS_14default_deleteIS7_EEEERbEEE
00007ffa408ecf40 (__DATA_CONST,__const) non-external __ZTVNSt3__110__function6__funcIZ39ITDecoderEnumerateCandidatesWithOptionsE3$_1NS_9allocatorIS2_EEFvNS_10unique_ptrIN15InputTranscoder13CandidateImplENS_14default_deleteIS7_EEEERbEEE
00007ffa408ed030 (__DATA_CONST,__const) non-external __ZTVNSt3__110__function6__funcIZ43ITTouchTranscoderSessionEnumerateCandidatesE3$_0NS_9allocatorIS2_EEFbNS_10unique_ptrIN15InputTranscoder13CandidateImplENS_14default_deleteIS7_EEEEEEE
00007ffa408ed0c0 (__DATA_CONST,__const) non-external __ZTVNSt3__110__function6__funcIZ54ITTouchTranscoderSessionEnumerateCandidatesWithOptionsE3$_1NS_9allocatorIS2_EEFbNS_10unique_ptrIN15InputTranscoder13CandidateImplENS_14default_deleteIS7_EEEEEEE
00007ffa408ed140 (__DATA_CONST,__const) non-external __ZTVNSt3__110__function6__funcIZ58ITTouchTranscoderSessionEnumerateKeyCandidatesForLastTouchE3$_2NS_9allocatorIS2_EEFbNS_10unique_ptrIN15InputTranscoder16KeyCandidateImplENS_14default_deleteIS7_EEEEEEE
00007ffa408ed6f0 (__DATA_CONST,__const) non-external (was a private external) __ZTVNSt3__110__function6__funcIZN15InputTranscoder19TouchTranscoderImpl10addLexiconEPK10_LXLexiconE3$_0NS_9allocatorIS7_EEFvRNS2_10CTCDecoderEEEE
00007ffa408ed770 (__DATA_CONST,__const) non-external (was a private external) __ZTVNSt3__110__function6__funcIZN15InputTranscoder19TouchTranscoderImpl13removeLexiconEPK10_LXLexiconE3$_1NS_9allocatorIS7_EEFvRNS2_10CTCDecoderEEEE
00007ffa408ed7f0 (__DATA_CONST,__const) non-external (was a private external) __ZTVNSt3__110__function6__funcIZN15InputTranscoder19TouchTranscoderImpl24clearNeuralNetworkBufferEvE3$_2NS_9allocatorIS4_EEFvRNS2_13MontrealModelEEEE
00007ffa408edbc8 (__DATA_CONST,__const) non-external __ZTVNSt3__110__function6__funcIZN15InputTranscoder26TouchTranscoderSessionImpl15shouldRunBigramERKNS_12basic_stringIcNS_11char_traitsIcEENS_9allocatorIcEEEESB_E4$_11NS7_ISC_EEFbRNS2_10CTCDecoderEEEE
00007ffa408ed8e8 (__DATA_CONST,__const) non-external __ZTVNSt3__110__function6__funcIZN15InputTranscoder26TouchTranscoderSessionImpl21addCandidateErrorTypeERNS_6vectorINS2_20CTCSurfaceFormOutputENS_9allocatorIS5_EEEEE3$_1NS6_ISA_EEF26ITAutocorrectionOperationsRNS2_14KeyboardLayoutEEEE
00007ffa408eda38 (__DATA_CONST,__const) non-external __ZTVNSt3__110__function6__funcIZN15InputTranscoder26TouchTranscoderSessionImpl22getEditDistancePenaltyERKNS_12basic_stringIcNS_11char_traitsIcEENS_9allocatorIcEEEESB_E3$_2NS7_ISC_EEFdRNS2_14KeyboardLayoutEEEE
00007ffa408edc58 (__DATA_CONST,__const) non-external __ZTVNSt3__110__function6__funcIZN15InputTranscoder26TouchTranscoderSessionImpl23enumerateCandidatesImplEPK14__CFDictionaryRKNS_8functionIFbNS_10unique_ptrINS2_13CandidateImplENS_14default_deleteIS9_EEEEEEERNS_12basic_stringIcNS_11char_traitsIcEENS_9allocatorIcEEEEE4$_12NSK_ISO_EEFvRNS2_10CTCDecoderEEEE
00007ffa408edb48 (__DATA_CONST,__const) non-external __ZTVNSt3__110__function6__funcIZN15InputTranscoder26TouchTranscoderSessionImpl28uniquifyEquivalentCandidatesERNS_6vectorINS2_20CTCSurfaceFormOutputENS_9allocatorIS5_EEEEE4$_10NS6_ISA_EEFNS_12basic_stringIcNS_11char_traitsIcEENS6_IcEEEERNS2_14KeyboardLayoutEEEE
00007ffa408ecbe0 (__DATA_CONST,__const) non-external __ZTVNSt3__110__function6__funcIZNK15InputTranscoder13RNNRecognizer9recognizeERKNS2_14InputProcessorERNS2_18TranscoderMediatorEE3$_0NS_9allocatorIS9_EEFNS_4spanIKfLm18446744073709551615EEERNS2_13MontrealModelEEEE
00007ffa408ed210 (__DATA_CONST,__const) non-external __ZTVNSt3__110__function6__funcIZNK15InputTranscoder14CRNNRecognizer9recognizeERKNS2_14InputProcessorERNS2_18TranscoderMediatorEE3$_0NS_9allocatorIS9_EEFNS_4spanIKfLm18446744073709551615EEERNS2_13MontrealModelEEEE
00007ffa408ed2d0 (__DATA_CONST,__const) non-external __ZTVNSt3__110__function6__funcIZNK15InputTranscoder14LRNNRecognizer9recognizeERKNS2_14InputProcessorERNS2_18TranscoderMediatorEE3$_0NS_9allocatorIS9_EEFNS_4spanIKfLm18446744073709551615EEERNS2_13MontrealModelEEEE
00007ffa408ee328 (__DATA_CONST,__const) non-external __ZTVNSt3__110__function6__funcIZNK15InputTranscoder22PathKeyLayoutProcessor21input_stream_for_pathERKNS2_4PathEE3$_2NS_9allocatorIS7_EEFK7CGPointRNS2_14KeyboardLayoutEEEE
00007ffa408ee4d8 (__DATA_CONST,__const) non-external (was a private external) __ZTVNSt3__110__function6__funcIZNK15InputTranscoder22PathKeyLayoutProcessor23key_class_for_touch_keyERK9ITKeyInfoE3$_0NS_9allocatorIS7_EEFbRNS2_14KeyboardLayoutEEEE
00007ffa408ee298 (__DATA_CONST,__const) non-external __ZTVNSt3__110__function6__funcIZNK15InputTranscoder22PathKeyLayoutProcessor29input_feature_stream_for_pathERKNS2_4PathEbjbjE3$_1NS_9allocatorIS7_EEFK7CGPointRNS2_14KeyboardLayoutEEEE
00007ffa408edac8 (__DATA_CONST,__const) non-external __ZTVNSt3__110__function6__funcIZNK15InputTranscoder26TouchTranscoderSessionImpl31updateCondenseFormForCandidatesERNS_6vectorINS2_20CTCSurfaceFormOutputENS_9allocatorIS5_EEEE12ITTypingModeE3$_9NS6_ISB_EEFNS_12basic_stringIcNS_11char_traitsIcEENS6_IcEEEERNS2_14KeyboardLayoutEEEE
00007ffa408ee708 (__DATA_CONST,__const) non-external (was a private external) __ZTVNSt3__110__function6__funcIZNK15InputTranscoder4Path22is_curvature_local_maxEjdE3$_0NS_9allocatorIS4_EEFdjEEE
                 (undefined) external __ZTVNSt3__115basic_stringbufIcNS_11char_traitsIcEENS_9allocatorIcEEEE (from libc++)
00007ffa408ed498 (__DATA_CONST,__const) non-external (was a private external) __ZTVNSt3__117bad_function_callE
                 (undefined) external __ZTVNSt3__118basic_stringstreamIcNS_11char_traitsIcEENS_9allocatorIcEEEE (from libc++)
                 (undefined) external __ZTVNSt3__119basic_ostringstreamIcNS_11char_traitsIcEENS_9allocatorIcEEEE (from libc++)
00007ffa408ed390 (__DATA_CONST,__const) non-external (was a private external) __ZTVNSt3__120__shared_ptr_emplaceIKN15InputTranscoder10PlistBiMapINS_12basic_stringIcNS_11char_traitsIcEENS_9allocatorIcEEEEjEENS6_ISA_EEEE
00007ffa408ed3e0 (__DATA_CONST,__const) non-external (was a private external) __ZTVNSt3__120__shared_ptr_emplaceIKN15InputTranscoder10PlistBiMapIjNS_12basic_stringIcNS_11char_traitsIcEENS_9allocatorIcEEEEEENS6_ISA_EEEE
00007ffa408ece60 (__DATA_CONST,__const) non-external (was a private external) __ZTVNSt3__120__shared_ptr_emplaceIKN15InputTranscoder10PlistBiMapIjjEENS_9allocatorIS4_EEEE
00007ffa408ee6b8 (__DATA_CONST,__const) non-external (was a private external) __ZTVNSt3__120__shared_ptr_pointerIPN15InputTranscoder18LayoutInfoAssortedENS_10shared_ptrIS2_E27__shared_ptr_default_deleteIS2_S2_EENS_9allocatorIS2_EEEE
00007ffa408ed430 (__DATA_CONST,__const) non-external (was a private external) __ZTVNSt3__120__shared_ptr_pointerIPN15InputTranscoder18TranscoderMediatorENS_14default_deleteIS2_EENS_9allocatorIS2_EEEE
                 (undefined) external __ZTVSt12length_error (from libc++)
                 (undefined) external __ZTVSt12out_of_range (from libc++)
00007ffa421cd890 (__DATA,__common) non-external (was a private external) __ZZ14_nlpDefaultLogE3log
00007ffa421cd898 (__DATA,__common) non-external (was a private external) __ZZ14_nlpDefaultLogE5token
00007ffa421cd8a0 (__DATA,__common) non-external (was a private external) __ZZ15_nlpSignpostLogE3log
00007ffa421cd8a8 (__DATA,__common) non-external (was a private external) __ZZ15_nlpSignpostLogE5token
00007ffa421cd880 (__DATA,__common) non-external (was a private external) __ZZ20_CFGetTypeID_DecodervE6typeID
00007ffa421cd840 (__DATA,__common) non-external (was a private external) __ZZ22_CFGetTypeID_CandidatevE6typeID
00007ffa421cd850 (__DATA,__common) non-external (was a private external) __ZZ25_CFGetTypeID_KeyCandidatevE6typeID
00007ffa421cd860 (__DATA,__common) non-external (was a private external) __ZZ28_CFGetTypeID_TouchTranscodervE6typeID
00007ffa421cd870 (__DATA,__common) non-external (was a private external) __ZZ35_CFGetTypeID_TouchTranscoderSessionvE6typeID
00007ffa0d0934e4 (__TEXT,__text) non-external __ZZN15InputTranscoder26TouchTranscoderSessionImpl21addCandidateErrorTypeERNSt3__16vectorINS_20CTCSurfaceFormOutputENS1_9allocatorIS3_EEEEEN3$_1D1Ev
00007ffa0d094422 (__TEXT,__text) non-external __ZZN15InputTranscoder26TouchTranscoderSessionImpl22getEditDistancePenaltyERKNSt3__112basic_stringIcNS1_11char_traitsIcEENS1_9allocatorIcEEEES9_EN3$_2D1Ev
00007ffa0d094656 (__TEXT,__text) non-external __ZZN15InputTranscoder26TouchTranscoderSessionImpl28uniquifyEquivalentCandidatesERNSt3__16vectorINS_20CTCSurfaceFormOutputENS1_9allocatorIS3_EEEEEN4$_10D1Ev
00007ffa421cd8e0 (__DATA,__bss) non-external __ZZN15InputTranscoderL25getBaseLayoutInfoAssortedERKNSt3__112basic_stringIcNS0_11char_traitsIcEENS0_9allocatorIcEEEEE25s_layoutInfoAssortedCache
00007ffa421cd910 (__DATA,__bss) non-external __ZZN15InputTranscoderL25getBaseLayoutInfoAssortedERKNSt3__112basic_stringIcNS0_11char_traitsIcEENS0_9allocatorIcEEEEE7s_mutex
00007ffa421cd8b0 (__DATA,__bss) non-external __ZZN15InputTranscoderL6loggerEvE3log
00007ffa421cd8c0 (__DATA,__bss) non-external __ZZN15InputTranscoderL6loggerEvE3log
00007ffa421cd8d0 (__DATA,__bss) non-external __ZZN15InputTranscoderL6loggerEvE3log
00007ffa421cd8b8 (__DATA,__bss) non-external __ZZN15InputTranscoderL6loggerEvE5token
00007ffa421cd8c8 (__DATA,__bss) non-external __ZZN15InputTranscoderL6loggerEvE5token
00007ffa421cd8d8 (__DATA,__bss) non-external __ZZN15InputTranscoderL6loggerEvE5token
00007ffa0d094560 (__TEXT,__text) non-external __ZZNK15InputTranscoder26TouchTranscoderSessionImpl31updateCondenseFormForCandidatesERNSt3__16vectorINS_20CTCSurfaceFormOutputENS1_9allocatorIS3_EEEE12ITTypingModeEN3$_9D1Ev
                 (undefined) weak external __ZdaPv (from libc++)
                 (undefined) weak external __ZdlPv (from libc++)
                 (undefined) weak external __Znam (from libc++)
                 (undefined) weak external __Znwm (from libc++)
00007ffa0d08d9d5 (__TEXT,__text) non-external ___Block_byref_object_copy_
00007ffa0d0925ab (__TEXT,__text) non-external ___Block_byref_object_copy_
00007ffa0d0a07f3 (__TEXT,__text) non-external ___Block_byref_object_copy_
00007ffa0d0a6891 (__TEXT,__text) non-external ___Block_byref_object_copy_
00007ffa0d0ab622 (__TEXT,__text) non-external ___Block_byref_object_copy_
00007ffa0d0a69a4 (__TEXT,__text) non-external ___Block_byref_object_copy_.3
00007ffa0d08d9eb (__TEXT,__text) non-external ___Block_byref_object_dispose_
00007ffa0d0925c1 (__TEXT,__text) non-external ___Block_byref_object_dispose_
00007ffa0d0a0809 (__TEXT,__text) non-external ___Block_byref_object_dispose_
00007ffa0d0a68b6 (__TEXT,__text) non-external ___Block_byref_object_dispose_
00007ffa0d0ab64d (__TEXT,__text) non-external ___Block_byref_object_dispose_
00007ffa0d0a69ca (__TEXT,__text) non-external ___Block_byref_object_dispose_.4
                 (undefined) external ___CFConstantStringClassReference (from CoreFoundation)
00007ffa0d08d9fb (__TEXT,__text) non-external ____ZL20createResourceBundlePK14__CFDictionary_block_invoke
00007ffa0d089d72 (__TEXT,__text) non-external (was a private external) ____ZN15InputTranscoder16LexiconContainer18isPresentInLexiconERKNSt3__112basic_stringIcNS1_11char_traitsIcEENS1_9allocatorIcEEEE_block_invoke
00007ffa0d0af359 (__TEXT,__text) non-external (was a private external) ____ZN15InputTranscoder17enumerateLDAssetsEPK10__CFLocaleU13block_pointerFvPK7__CFURL17LDAssetBundleTypeS2_PK10__CFStringPbE_block_invoke
00007ffa0d0925d1 (__TEXT,__text) non-external ____ZN15InputTranscoder27createInternalLanguageModelERKNSt3__112basic_stringIcNS0_11char_traitsIcEENS0_9allocatorIcEEEE_block_invoke
00007ffa0d0a0819 (__TEXT,__text) non-external ____ZN15InputTranscoderL12getModelPathEPK14__CFDictionaryP10__CFBundlePK10__CFLocale_block_invoke
00007ffa0d0a68cc (__TEXT,__text) non-external ____ZN15InputTranscoderL13getNearestKeyERKNS_10PathSampleERNS_14KeyboardLayoutEb_block_invoke
00007ffa0d0a69d0 (__TEXT,__text) non-external ____ZN15InputTranscoderL18getNearestKeyOrUnkERKNS_10PathSampleERNS_14KeyboardLayoutEbRKNSt3__112basic_stringIcNS5_11char_traitsIcEENS5_9allocatorIcEEEE_block_invoke
00007ffa0d0a6ba6 (__TEXT,__text) non-external ____ZN15InputTranscoderL23getMostProbableMultiKeyERKNS_10PathSampleERNS_14KeyboardLayoutEb_block_invoke
00007ffa0d0a6e8f (__TEXT,__text) non-external ____ZN15InputTranscoderL30getNearestKeyWithoutValidCheckERKNS_10PathSampleERNS_14KeyboardLayoutEb_block_invoke
00007ffa0d091fb0 (__TEXT,__text) non-external ____ZN15InputTranscoderL6loggerEv_block_invoke
00007ffa0d092616 (__TEXT,__text) non-external ____ZN15InputTranscoderL6loggerEv_block_invoke
00007ffa0d099a09 (__TEXT,__text) non-external ____ZN15InputTranscoderL6loggerEv_block_invoke
00007ffa0d0911c9 (__TEXT,__text) non-external ____ZNK15InputTranscoder15LexiconPathTrie20getPrefixCompletionsERNSt3__16vectorINS_20CTCSurfaceFormOutputENS1_9allocatorIS3_EEEERKNS1_12basic_stringIcNS1_11char_traitsIcEENS4_IcEEEE_block_invoke
00007ffa0d0ab65b (__TEXT,__text) non-external ____ZNK15InputTranscoder18KeyboardLayoutImpl25keyCandidatesForLastTouchE7CGPoint_block_invoke
00007ffa0d09cfba (__TEXT,__text) non-external (was a private external) ____nlpDefaultLog_block_invoke
00007ffa0d09d006 (__TEXT,__text) non-external (was a private external) ____nlpSignpostLog_block_invoke
00007ffa408ed000 (__DATA_CONST,__const) non-external (was a private external) ___block_descriptor_tmp
00007ffa408ed360 (__DATA_CONST,__const) non-external ___block_descriptor_tmp
00007ffa408ed580 (__DATA_CONST,__const) non-external ___block_descriptor_tmp
00007ffa408ed618 (__DATA_CONST,__const) non-external ___block_descriptor_tmp
00007ffa408ed8a8 (__DATA_CONST,__const) non-external ___block_descriptor_tmp
00007ffa408edfb8 (__DATA_CONST,__const) non-external (was a private external) ___block_descriptor_tmp
00007ffa408ee038 (__DATA_CONST,__const) non-external ___block_descriptor_tmp
00007ffa408ee1d8 (__DATA_CONST,__const) non-external ___block_descriptor_tmp
00007ffa408ee660 (__DATA_CONST,__const) non-external ___block_descriptor_tmp
00007ffa408ee798 (__DATA_CONST,__const) non-external (was a private external) ___block_descriptor_tmp
00007ffa408edff8 (__DATA_CONST,__const) non-external (was a private external) ___block_descriptor_tmp.1
00007ffa408ee268 (__DATA_CONST,__const) non-external ___block_descriptor_tmp.26
00007ffa408ed648 (__DATA_CONST,__const) non-external ___block_descriptor_tmp.4
00007ffa408ee208 (__DATA_CONST,__const) non-external ___block_descriptor_tmp.5
00007ffa408ed5d8 (__DATA_CONST,__const) non-external ___block_descriptor_tmp.6
00007ffa408ee238 (__DATA_CONST,__const) non-external ___block_descriptor_tmp.6
00007ffa408ed5f8 (__DATA_CONST,__const) non-external ___block_literal_global
00007ffa408ed668 (__DATA_CONST,__const) non-external ___block_literal_global
00007ffa408ed8c8 (__DATA_CONST,__const) non-external ___block_literal_global
00007ffa408edfd8 (__DATA_CONST,__const) non-external (was a private external) ___block_literal_global
00007ffa408ee018 (__DATA_CONST,__const) non-external (was a private external) ___block_literal_global.2
                 (undefined) external ___bzero (from libSystem)
00007ffa0d086be0 (__TEXT,__text) non-external (was a private external) ___clang_call_terminate
00007ffa0d0af37f (__TEXT,__text) non-external (was a private external) ___copy_helper_block_e8_32b40r
00007ffa0d089df4 (__TEXT,__text) non-external (was a private external) ___copy_helper_block_e8_32r
00007ffa0d0a6b43 (__TEXT,__text) non-external ___copy_helper_block_e8_32r40r
00007ffa0d0ab9fd (__TEXT,__text) non-external ___copy_helper_block_e8_32r40r48r
00007ffa0d0919f3 (__TEXT,__text) non-external ___copy_helper_block_e8_32r40r56c67_ZTSKNSt3__112basic_stringIcNS_11char_traitsIcEENS_9allocatorIcEEEE
                 (undefined) external ___cxa_allocate_exception (from libc++)
                 (undefined) external ___cxa_begin_catch (from libc++)
                 (undefined) external ___cxa_end_catch (from libc++)
                 (undefined) external ___cxa_free_exception (from libc++)
                 (undefined) external ___cxa_guard_abort (from libc++)
                 (undefined) external ___cxa_guard_acquire (from libc++)
                 (undefined) external ___cxa_guard_release (from libc++)
                 (undefined) external ___cxa_throw (from libc++)
00007ffa0d0af3b7 (__TEXT,__text) non-external (was a private external) ___destroy_helper_block_e8_32b40r
00007ffa0d089e0b (__TEXT,__text) non-external (was a private external) ___destroy_helper_block_e8_32r
00007ffa0d0a6b7b (__TEXT,__text) non-external ___destroy_helper_block_e8_32r40r
00007ffa0d0aba47 (__TEXT,__text) non-external ___destroy_helper_block_e8_32r40r48r
00007ffa0d091a8e (__TEXT,__text) non-external ___destroy_helper_block_e8_32r40r56c67_ZTSKNSt3__112basic_stringIcNS_11char_traitsIcEENS_9allocatorIcEEEE
                 (undefined) external ___error (from libSystem)
                 (undefined) external ___gxx_personality_v0 (from libc++)
                 (undefined) external ___maskrune (from libSystem)
                 (undefined) external ___stack_chk_fail (from libSystem)
                 (undefined) external ___stack_chk_guard (from libSystem)
                 (undefined) external ___tolower (from libSystem)
00007ffa0d09cf8e (__TEXT,__text) non-external (was a private external) __nlpDefaultLog
00007ffa0d09cf81 (__TEXT,__text) non-external (was a private external) __nlpLoggingSubsystem
00007ffa0d09cfda (__TEXT,__text) non-external (was a private external) __nlpSignpostLog
                 (undefined) external __os_log_debug_impl (from libSystem)
                 (undefined) external __os_log_error_impl (from libSystem)
                 (undefined) external __os_log_fault_impl (from libSystem)
                 (undefined) external __os_signpost_emit_with_name_impl (from libSystem)
                 (undefined) external _atan2 (from libSystem)
                 (undefined) external _dispatch_once (from libSystem)
                 (undefined) external _exp (from libSystem)
                 (undefined) external _expf (from libSystem)
00007ffa421cd660 (__DATA,__data) non-external (was a private external) _g_CFClass_Candidate
00007ffa421cd7e0 (__DATA,__data) non-external (was a private external) _g_CFClass_Decoder
00007ffa421cd6c0 (__DATA,__data) non-external (was a private external) _g_CFClass_KeyCandidate
00007ffa421cd720 (__DATA,__data) non-external (was a private external) _g_CFClass_TouchTranscoder
00007ffa421cd780 (__DATA,__data) non-external (was a private external) _g_CFClass_TouchTranscoderSession
                 (undefined) external _getenv (from libSystem)
                 (undefined) external _hypot (from libSystem)
                 (undefined) external _hypotf (from libSystem)
                 (undefined) external _kCFAllocatorDefault (from CoreFoundation)
                 (undefined) external _kCFBooleanFalse (from CoreFoundation)
                 (undefined) external _kCFBooleanTrue (from CoreFoundation)
                 (undefined) external _kCFCopyStringDictionaryKeyCallBacks (from CoreFoundation)
                 (undefined) external _kCFErrorLocalizedDescriptionKey (from CoreFoundation)
                 (undefined) external _kCFLocaleLanguageCode (from CoreFoundation)
                 (undefined) external _kCFLocaleScriptCode (from CoreFoundation)
                 (undefined) external _kCFTypeDictionaryKeyCallBacks (from CoreFoundation)
                 (undefined) external _kCFTypeDictionaryValueCallBacks (from CoreFoundation)
00007ffa408ed358 (__DATA_CONST,__const) external _kITCandidateSourceDynamicLexicon
00007ffa408ed350 (__DATA_CONST,__const) external _kITCandidateSourceStaticLexicon
00007ffa408ece38 (__DATA_CONST,__const) external _kITDecoderLocaleKey
00007ffa408ece48 (__DATA_CONST,__const) external _kITDecoderNeuralTypeKey
00007ffa408ece50 (__DATA_CONST,__const) external _kITDecoderNeuralTypeValuePath
00007ffa408ece58 (__DATA_CONST,__const) external _kITDecoderNeuralTypeValueTap
00007ffa408ece40 (__DATA_CONST,__const) external _kITDecoderResourceDirectoryKey
00007ffa408ed698 (__DATA_CONST,__const) external _kITTouchTranscoderBundleURLKey
00007ffa408ed6a0 (__DATA_CONST,__const) external _kITTouchTranscoderInstanceTypeKey
00007ffa408ed6a8 (__DATA_CONST,__const) external _kITTouchTranscoderInstanceTypeValueContinuousPath
00007ffa408ed6b0 (__DATA_CONST,__const) external _kITTouchTranscoderInstanceTypeValueTapTyping
00007ffa408ed690 (__DATA_CONST,__const) external _kITTouchTranscoderKeyboardLayoutNameKey
00007ffa408ed688 (__DATA_CONST,__const) external _kITTouchTranscoderLocaleKey
00007ffa408ed8a0 (__DATA_CONST,__const) external _kITTouchTranscoderSessionAppendTopEnumeratedPrefixesKey
00007ffa408ed890 (__DATA_CONST,__const) external _kITTouchTranscoderSessionExactTypedStringKey
00007ffa408ed898 (__DATA_CONST,__const) external _kITTouchTranscoderSessionNormalizeAutoCorrectionsSeparatelyKey
                 (undefined) external _kLDAssetTypeCharacterLanguageModel (from LinguisticData)
                 (undefined) external _kLDAssetTypeContinuousPathModel (from LinguisticData)
                 (undefined) external _kLDAssetTypeLanguageModel (from LinguisticData)
                 (undefined) external _kLDAssetTypeLexicon (from LinguisticData)
                 (undefined) external _kLMLanguageModelAdaptationEnabledKey (from LanguageModeling)
                 (undefined) external _kLMLanguageModelBundleNameKey (from LanguageModeling)
                 (undefined) external _kLMLanguageModelCustomResourceDirectoryKey (from LanguageModeling)
                 (undefined) external _kLMLanguageModelLanguageLikelihoodModelEnabledKey (from LanguageModeling)
                 (undefined) external _kLMLanguageModelLocaleKey (from LanguageModeling)
                 (undefined) external _kLMLanguageModelUseMontrealKey (from LanguageModeling)
                 (undefined) external _kLXLexiconEnableInternalStemSuffixKey (from Lexicon)
                 (undefined) external _kLXLexiconLocaleKey (from Lexicon)
                 (undefined) external _kMRLNeuralNetworkOptionModelURLKey (from Montreal)
                 (undefined) external _kMRLNeuralNetworkTensorInfoChannelKey (from Montreal)
                 (undefined) external _kMRLNeuralNetworkTensorInfoHeightKey (from Montreal)
                 (undefined) external _kMRLNeuralNetworkTensorInfoInputDimensionKey (from Montreal)
                 (undefined) external _kMRLNeuralNetworkTensorInfoSequenceLengthKey (from Montreal)
                 (undefined) external _kMRLNeuralNetworkTensorInfoShapeDimensionKey (from Montreal)
                 (undefined) external _kMRLNeuralNetworkTensorInfoWidthKey (from Montreal)
                 (undefined) external _log (from libSystem)
                 (undefined) external _log1p (from libSystem)
                 (undefined) external _log1pf (from libSystem)
                 (undefined) external _logf (from libSystem)
                 (undefined) external _mach_continuous_time (from libSystem)
                 (undefined) external _memchr (from libSystem)
                 (undefined) external _memcmp (from libSystem)
                 (undefined) external _memmove (from libSystem)
                 (undefined) external _memset (from libSystem)
                 (undefined) external _mktemp (from libSystem)
                 (undefined) external _objc_release (from libobjc)
                 (undefined) external _objc_retain (from libobjc)
                 (undefined) external _os_log_create (from libSystem)
                 (undefined) external _os_log_type_enabled (from libSystem)
                 (undefined) external _os_signpost_enabled (from libSystem)
                 (undefined) external _os_signpost_id_generate (from libSystem)
                 (undefined) external _os_signpost_id_make_with_pointer (from libSystem)
                 (undefined) external _powf (from libSystem)
                 (undefined) external _rename (from libSystem)
                 (undefined) external _rmdir (from libSystem)
                 (undefined) external _strlen (from libSystem)
                 (undefined) external _utf8_prevCharSafeBody (from libicucore)
