00000001d3b61278 (__TEXT,__gcc_except_tab) non-external GCC_except_table0
00000001d3b612f0 (__TEXT,__gcc_except_tab) non-external GCC_except_table10
00000001d3b61740 (__TEXT,__gcc_except_tab) non-external GCC_except_table10
00000001d3b61308 (__TEXT,__gcc_except_tab) non-external GCC_except_table11
00000001d3b61754 (__TEXT,__gcc_except_tab) non-external GCC_except_table11
00000001d3b614ac (__TEXT,__gcc_except_tab) non-external GCC_except_table116
00000001d3b6153c (__TEXT,__gcc_except_tab) non-external GCC_except_table117
00000001d3b61650 (__TEXT,__gcc_except_tab) non-external GCC_except_table12
00000001d3b6154c (__TEXT,__gcc_except_tab) non-external GCC_except_table122
00000001d3b61318 (__TEXT,__gcc_except_tab) non-external GCC_except_table13
00000001d3b61670 (__TEXT,__gcc_except_tab) non-external GCC_except_table13
00000001d3b6155c (__TEXT,__gcc_except_tab) non-external GCC_except_table131
00000001d3b61580 (__TEXT,__gcc_except_tab) non-external GCC_except_table136
00000001d3b618a0 (__TEXT,__gcc_except_tab) non-external GCC_except_table16
00000001d3b61590 (__TEXT,__gcc_except_tab) non-external GCC_except_table163
00000001d3b61620 (__TEXT,__gcc_except_tab) non-external GCC_except_table165
00000001d3b617e8 (__TEXT,__gcc_except_tab) non-external GCC_except_table18
00000001d3b618e0 (__TEXT,__gcc_except_tab) non-external GCC_except_table18
00000001d3b61258 (__TEXT,__gcc_except_tab) non-external GCC_except_table2
00000001d3b61828 (__TEXT,__gcc_except_tab) non-external GCC_except_table2
00000001d3b618b0 (__TEXT,__gcc_except_tab) non-external GCC_except_table23
00000001d3b618c0 (__TEXT,__gcc_except_tab) non-external GCC_except_table25
00000001d3b61768 (__TEXT,__gcc_except_tab) non-external GCC_except_table28
00000001d3b61330 (__TEXT,__gcc_except_tab) non-external GCC_except_table29
00000001d3b6178c (__TEXT,__gcc_except_tab) non-external GCC_except_table30
00000001d3b617a0 (__TEXT,__gcc_except_tab) non-external GCC_except_table32
00000001d3b61340 (__TEXT,__gcc_except_tab) non-external GCC_except_table34
00000001d3b617c4 (__TEXT,__gcc_except_tab) non-external GCC_except_table34
00000001d3b6135c (__TEXT,__gcc_except_tab) non-external GCC_except_table37
00000001d3b6136c (__TEXT,__gcc_except_tab) non-external GCC_except_table38
00000001d3b61290 (__TEXT,__gcc_except_tab) non-external GCC_except_table4
00000001d3b61690 (__TEXT,__gcc_except_tab) non-external GCC_except_table4
00000001d3b61838 (__TEXT,__gcc_except_tab) non-external GCC_except_table4
00000001d3b61398 (__TEXT,__gcc_except_tab) non-external GCC_except_table42
00000001d3b613b4 (__TEXT,__gcc_except_tab) non-external GCC_except_table43
00000001d3b61268 (__TEXT,__gcc_except_tab) non-external GCC_except_table5
00000001d3b61630 (__TEXT,__gcc_except_tab) non-external GCC_except_table5
00000001d3b617d8 (__TEXT,__gcc_except_tab) non-external GCC_except_table5
00000001d3b618d0 (__TEXT,__gcc_except_tab) non-external GCC_except_table5
00000001d3b613cc (__TEXT,__gcc_except_tab) non-external GCC_except_table50
00000001d3b613dc (__TEXT,__gcc_except_tab) non-external GCC_except_table51
00000001d3b613ec (__TEXT,__gcc_except_tab) non-external GCC_except_table52
00000001d3b613fc (__TEXT,__gcc_except_tab) non-external GCC_except_table53
00000001d3b6140c (__TEXT,__gcc_except_tab) non-external GCC_except_table54
00000001d3b6141c (__TEXT,__gcc_except_tab) non-external GCC_except_table55
00000001d3b6142c (__TEXT,__gcc_except_tab) non-external GCC_except_table56
00000001d3b6143c (__TEXT,__gcc_except_tab) non-external GCC_except_table57
00000001d3b612a4 (__TEXT,__gcc_except_tab) non-external GCC_except_table6
00000001d3b616b0 (__TEXT,__gcc_except_tab) non-external GCC_except_table6
00000001d3b61880 (__TEXT,__gcc_except_tab) non-external GCC_except_table6
00000001d3b616d4 (__TEXT,__gcc_except_tab) non-external GCC_except_table7
00000001d3b6144c (__TEXT,__gcc_except_tab) non-external GCC_except_table77
00000001d3b6145c (__TEXT,__gcc_except_tab) non-external GCC_except_table78
00000001d3b6146c (__TEXT,__gcc_except_tab) non-external GCC_except_table79
00000001d3b612e0 (__TEXT,__gcc_except_tab) non-external GCC_except_table8
00000001d3b616f8 (__TEXT,__gcc_except_tab) non-external GCC_except_table8
00000001d3b61890 (__TEXT,__gcc_except_tab) non-external GCC_except_table8
00000001d3b6171c (__TEXT,__gcc_except_tab) non-external GCC_except_table9
00000001d3b6147c (__TEXT,__gcc_except_tab) non-external GCC_except_table91
00000001d3b6148c (__TEXT,__gcc_except_tab) non-external GCC_except_table92
00000001d3b6149c (__TEXT,__gcc_except_tab) non-external GCC_except_table93
00000001d3b60120 (__TEXT,__text) non-external _OUTLINED_FUNCTION_0
                 (undefined) external __Unwind_Resume (from libSystem)
00000001d3b60bcc (__TEXT,__text) non-external (was a private external) __ZN6marisa10scoped_ptrINS_8grimoire4trie5StateEE5resetEPS3_
00000001d3b60cfc (__TEXT,__text) non-external (was a private external) __ZN6marisa10scoped_ptrINS_8grimoire4trie5StateEED2Ev
00000001d3b53bdc (__TEXT,__text) non-external (was a private external) __ZN6marisa10scoped_ptrINS_8grimoire4trie9LoudsTrieEE5resetEPS3_
00000001d3b56c68 (__TEXT,__text) non-external (was a private external) __ZN6marisa10scoped_ptrINS_8grimoire4trie9LoudsTrieEED2Ev
00000001d3b5c588 (__TEXT,__text) non-external (was a private external) __ZN6marisa12scoped_arrayINS0_INS_3KeyEEEED2Ev
00000001d3b5c528 (__TEXT,__text) non-external (was a private external) __ZN6marisa12scoped_arrayINS0_IcEEED2Ev
00000001d3b5c8a0 (__TEXT,__text) external __ZN6marisa4Trie3mapEPKvm
00000001d3b5ca30 (__TEXT,__text) external __ZN6marisa4Trie4loadEPKc
00000001d3b5c71c (__TEXT,__text) external __ZN6marisa4Trie4mmapEPKc
00000001d3b5cbb4 (__TEXT,__text) external __ZN6marisa4Trie4readEi
00000001d3b5d280 (__TEXT,__text) external __ZN6marisa4Trie4swapERS0_
00000001d3b5c600 (__TEXT,__text) external __ZN6marisa4Trie5buildERNS_6KeysetEi
00000001d3b5d240 (__TEXT,__text) external __ZN6marisa4Trie5clearEv
00000001d3b5c5f0 (__TEXT,__text) external __ZN6marisa4TrieC1Ev
00000001d3b5c5e8 (__TEXT,__text) external __ZN6marisa4TrieC2Ev
00000001d3b5c5fc (__TEXT,__text) external __ZN6marisa4TrieD1Ev
00000001d3b5c5f8 (__TEXT,__text) external __ZN6marisa4TrieD2Ev
00000001d3b5d634 (__TEXT,__text) external __ZN6marisa4readERNSt3__113basic_istreamIcNS0_11char_traitsIcEEEEPNS_4TrieE
00000001d3b60ae0 (__TEXT,__text) external __ZN6marisa5Agent10init_stateEv
00000001d3b60ca8 (__TEXT,__text) external __ZN6marisa5Agent4swapERS0_
00000001d3b60c5c (__TEXT,__text) external __ZN6marisa5Agent5clearEv
00000001d3b609c4 (__TEXT,__text) external __ZN6marisa5Agent9set_queryEPKc
00000001d3b60a50 (__TEXT,__text) external __ZN6marisa5Agent9set_queryEPKcm
00000001d3b60acc (__TEXT,__text) external __ZN6marisa5Agent9set_queryEm
00000001d3b6095c (__TEXT,__text) external __ZN6marisa5AgentC1Ev
00000001d3b6094c (__TEXT,__text) external __ZN6marisa5AgentC2Ev
00000001d3b60998 (__TEXT,__text) external __ZN6marisa5AgentD1Ev
00000001d3b6096c (__TEXT,__text) external __ZN6marisa5AgentD2Ev
00000001d3b5d294 (__TEXT,__text) external __ZN6marisa5freadEP7__sFILEPNS_4TrieE
00000001d3b5d82c (__TEXT,__text) external __ZN6marisa5writeERNSt3__113basic_ostreamIcNS0_11char_traitsIcEEEERKNS_4TrieE
00000001d3b5bc24 (__TEXT,__text) external __ZN6marisa6Keyset16append_key_blockEv
00000001d3b5c304 (__TEXT,__text) external __ZN6marisa6Keyset17append_base_blockEv
00000001d3b5c0fc (__TEXT,__text) external __ZN6marisa6Keyset18append_extra_blockEm
00000001d3b5c068 (__TEXT,__text) external __ZN6marisa6Keyset4swapERS0_
00000001d3b5c004 (__TEXT,__text) external __ZN6marisa6Keyset5clearEv
00000001d3b5bfec (__TEXT,__text) external __ZN6marisa6Keyset5resetEv
00000001d3b5bad4 (__TEXT,__text) external __ZN6marisa6Keyset7reserveEm
00000001d3b5be30 (__TEXT,__text) external __ZN6marisa6Keyset9push_backEPKc
00000001d3b5bec0 (__TEXT,__text) external __ZN6marisa6Keyset9push_backEPKcmf
00000001d3b5ba38 (__TEXT,__text) external __ZN6marisa6Keyset9push_backERKNS_3KeyE
00000001d3b5bb5c (__TEXT,__text) external __ZN6marisa6Keyset9push_backERKNS_3KeyEc
00000001d3b5ba20 (__TEXT,__text) external __ZN6marisa6KeysetC1Ev
00000001d3b5ba08 (__TEXT,__text) external __ZN6marisa6KeysetC2Ev
00000001d3b5d6a4 (__TEXT,__text) non-external (was a private external) __ZN6marisa6TrieIO4readERNSt3__113basic_istreamIcNS1_11char_traitsIcEEEEPNS_4TrieE
00000001d3b5d344 (__TEXT,__text) non-external (was a private external) __ZN6marisa6TrieIO5freadEP7__sFILEPNS_4TrieE
00000001d3b5d830 (__TEXT,__text) non-external (was a private external) __ZN6marisa6TrieIO5writeERNSt3__113basic_ostreamIcNS1_11char_traitsIcEEEERKNS_4TrieE
00000001d3b5d538 (__TEXT,__text) non-external (was a private external) __ZN6marisa6TrieIO6fwriteEP7__sFILERKNS_4TrieE
00000001d3b5d4c8 (__TEXT,__text) external __ZN6marisa6fwriteEP7__sFILERKNS_4TrieE
00000001d3b5b3c4 (__TEXT,__text) non-external (was a private external) __ZN6marisa8grimoire2io6Mapper3mapINS0_4trie5CacheEEEvPPKT_m
00000001d3b55940 (__TEXT,__text) non-external (was a private external) __ZN6marisa8grimoire2io6Mapper3mapINS0_6vector9RankIndexEEEvPPKT_m
00000001d3b55b54 (__TEXT,__text) non-external (was a private external) __ZN6marisa8grimoire2io6Mapper3mapIjEEvPPKT_m
00000001d3b5572c (__TEXT,__text) non-external (was a private external) __ZN6marisa8grimoire2io6Mapper3mapIyEEvPPKT_m
00000001d3b50e64 (__TEXT,__text) external __ZN6marisa8grimoire2io6Mapper4openEPKc
00000001d3b510d4 (__TEXT,__text) external __ZN6marisa8grimoire2io6Mapper4openEPKvm
00000001d3b51184 (__TEXT,__text) external __ZN6marisa8grimoire2io6Mapper4seekEm
00000001d3b51090 (__TEXT,__text) external __ZN6marisa8grimoire2io6Mapper4swapERS2_
00000001d3b5130c (__TEXT,__text) external __ZN6marisa8grimoire2io6Mapper5clearEv
00000001d3b50f48 (__TEXT,__text) external __ZN6marisa8grimoire2io6Mapper5open_EPKc
00000001d3b51178 (__TEXT,__text) external __ZN6marisa8grimoire2io6Mapper5open_EPKvm
00000001d3b51250 (__TEXT,__text) external __ZN6marisa8grimoire2io6Mapper8map_dataEm
00000001d3b50df0 (__TEXT,__text) external __ZN6marisa8grimoire2io6MapperC1Ev
00000001d3b50dd8 (__TEXT,__text) external __ZN6marisa8grimoire2io6MapperC2Ev
00000001d3b50e60 (__TEXT,__text) external __ZN6marisa8grimoire2io6MapperD1Ev
00000001d3b50e08 (__TEXT,__text) external __ZN6marisa8grimoire2io6MapperD2Ev
00000001d3b5db70 (__TEXT,__text) external __ZN6marisa8grimoire2io6Reader4openEP7__sFILE
00000001d3b5d998 (__TEXT,__text) external __ZN6marisa8grimoire2io6Reader4openEPKc
00000001d3b5dcc8 (__TEXT,__text) external __ZN6marisa8grimoire2io6Reader4openERNSt3__113basic_istreamIcNS3_11char_traitsIcEEEE
00000001d3b5dc1c (__TEXT,__text) external __ZN6marisa8grimoire2io6Reader4openEi
00000001d3b5b728 (__TEXT,__text) non-external (was a private external) __ZN6marisa8grimoire2io6Reader4readINS0_4trie5CacheEEEvPT_m
00000001d3b5634c (__TEXT,__text) non-external (was a private external) __ZN6marisa8grimoire2io6Reader4readINS0_6vector9RankIndexEEEvPT_m
00000001d3b5ffd4 (__TEXT,__text) non-external (was a private external) __ZN6marisa8grimoire2io6Reader4readIcEEvPT_m
00000001d3b5b5d0 (__TEXT,__text) non-external (was a private external) __ZN6marisa8grimoire2io6Reader4readIhEEvPT_m
00000001d3b565dc (__TEXT,__text) non-external (was a private external) __ZN6marisa8grimoire2io6Reader4readIjEEvPT_m
00000001d3b56124 (__TEXT,__text) non-external (was a private external) __ZN6marisa8grimoire2io6Reader4readIyEEvPT_m
00000001d3b5dd28 (__TEXT,__text) external __ZN6marisa8grimoire2io6Reader4seekEm
00000001d3b5db2c (__TEXT,__text) external __ZN6marisa8grimoire2io6Reader4swapERS2_
00000001d3b5dcfc (__TEXT,__text) external __ZN6marisa8grimoire2io6Reader5clearEv
00000001d3b5dc14 (__TEXT,__text) external __ZN6marisa8grimoire2io6Reader5open_EP7__sFILE
00000001d3b5da98 (__TEXT,__text) external __ZN6marisa8grimoire2io6Reader5open_EPKc
00000001d3b5dcf4 (__TEXT,__text) external __ZN6marisa8grimoire2io6Reader5open_ERNSt3__113basic_istreamIcNS3_11char_traitsIcEEEE
00000001d3b5dcc0 (__TEXT,__text) external __ZN6marisa8grimoire2io6Reader5open_Ei
00000001d3b5de6c (__TEXT,__text) external __ZN6marisa8grimoire2io6Reader9read_dataEPvm
00000001d3b5d918 (__TEXT,__text) external __ZN6marisa8grimoire2io6ReaderC1Ev
00000001d3b5d900 (__TEXT,__text) external __ZN6marisa8grimoire2io6ReaderC2Ev
00000001d3b5d964 (__TEXT,__text) external __ZN6marisa8grimoire2io6ReaderD1Ev
00000001d3b5d930 (__TEXT,__text) external __ZN6marisa8grimoire2io6ReaderD2Ev
00000001d3b606a8 (__TEXT,__text) external __ZN6marisa8grimoire2io6Writer10write_dataEPKvm
00000001d3b6039c (__TEXT,__text) external __ZN6marisa8grimoire2io6Writer4openEP7__sFILE
00000001d3b601c4 (__TEXT,__text) external __ZN6marisa8grimoire2io6Writer4openEPKc
00000001d3b604f4 (__TEXT,__text) external __ZN6marisa8grimoire2io6Writer4openERNSt3__113basic_ostreamIcNS3_11char_traitsIcEEEE
00000001d3b60448 (__TEXT,__text) external __ZN6marisa8grimoire2io6Writer4openEi
00000001d3b60554 (__TEXT,__text) external __ZN6marisa8grimoire2io6Writer4seekEm
00000001d3b60358 (__TEXT,__text) external __ZN6marisa8grimoire2io6Writer4swapERS2_
00000001d3b60528 (__TEXT,__text) external __ZN6marisa8grimoire2io6Writer5clearEv
00000001d3b60440 (__TEXT,__text) external __ZN6marisa8grimoire2io6Writer5open_EP7__sFILE
00000001d3b602c4 (__TEXT,__text) external __ZN6marisa8grimoire2io6Writer5open_EPKc
00000001d3b60520 (__TEXT,__text) external __ZN6marisa8grimoire2io6Writer5open_ERNSt3__113basic_ostreamIcNS3_11char_traitsIcEEEE
00000001d3b604ec (__TEXT,__text) external __ZN6marisa8grimoire2io6Writer5open_Ei
00000001d3b5b93c (__TEXT,__text) non-external (was a private external) __ZN6marisa8grimoire2io6Writer5writeINS0_4trie5CacheEEEvPKT_m
00000001d3b56a00 (__TEXT,__text) non-external (was a private external) __ZN6marisa8grimoire2io6Writer5writeINS0_6vector9RankIndexEEEvPKT_m
00000001d3b600ac (__TEXT,__text) non-external (was a private external) __ZN6marisa8grimoire2io6Writer5writeIcEEvPKT_m
00000001d3b5b858 (__TEXT,__text) non-external (was a private external) __ZN6marisa8grimoire2io6Writer5writeIhEEvPKT_m
00000001d3b56b34 (__TEXT,__text) non-external (was a private external) __ZN6marisa8grimoire2io6Writer5writeIjEEvPKT_m
00000001d3b568d4 (__TEXT,__text) non-external (was a private external) __ZN6marisa8grimoire2io6Writer5writeIyEEvPKT_m
00000001d3b60144 (__TEXT,__text) external __ZN6marisa8grimoire2io6WriterC1Ev
00000001d3b6012c (__TEXT,__text) external __ZN6marisa8grimoire2io6WriterC2Ev
00000001d3b60190 (__TEXT,__text) external __ZN6marisa8grimoire2io6WriterD1Ev
00000001d3b6015c (__TEXT,__text) external __ZN6marisa8grimoire2io6WriterD2Ev
00000001d3b5f0d4 (__TEXT,__text) external __ZN6marisa8grimoire4trie4Tail3mapERNS0_2io6MapperE
00000001d3b60eec (__TEXT,__text) non-external __ZN6marisa8grimoire4trie4Tail3mapERNS0_2io6MapperE.cold.1
00000001d3b5f1fc (__TEXT,__text) external __ZN6marisa8grimoire4trie4Tail4map_ERNS0_2io6MapperE
00000001d3b5f23c (__TEXT,__text) external __ZN6marisa8grimoire4trie4Tail4readERNS0_2io6ReaderE
00000001d3b60f38 (__TEXT,__text) non-external __ZN6marisa8grimoire4trie4Tail4readERNS0_2io6ReaderE.cold.1
00000001d3b5f094 (__TEXT,__text) external __ZN6marisa8grimoire4trie4Tail4swapERS2_
00000001d3b5eb50 (__TEXT,__text) external __ZN6marisa8grimoire4trie4Tail5buildERNS0_6vector6VectorINS1_5EntryEEEPNS4_IjEE17marisa_tail_mode_
00000001d3b60ea0 (__TEXT,__text) non-external __ZN6marisa8grimoire4trie4Tail5buildERNS0_6vector6VectorINS1_5EntryEEEPNS4_IjEE17marisa_tail_mode_.cold.1
00000001d3b5f690 (__TEXT,__text) external __ZN6marisa8grimoire4trie4Tail5clearEv
00000001d3b60f84 (__TEXT,__text) non-external __ZN6marisa8grimoire4trie4Tail5clearEv.cold.1
00000001d3b5f364 (__TEXT,__text) external __ZN6marisa8grimoire4trie4Tail5read_ERNS0_2io6ReaderE
00000001d3b5ed60 (__TEXT,__text) external __ZN6marisa8grimoire4trie4Tail6build_ERNS0_6vector6VectorINS1_5EntryEEEPNS4_IjEE17marisa_tail_mode_
00000001d3b5eb1c (__TEXT,__text) external __ZN6marisa8grimoire4trie4TailC1Ev
00000001d3b5eae8 (__TEXT,__text) external __ZN6marisa8grimoire4trie4TailC2Ev
00000001d3b52bb4 (__TEXT,__text) non-external (was a private external) __ZN6marisa8grimoire4trie5State22predictive_search_initEv
00000001d3b54e44 (__TEXT,__text) non-external (was a private external) __ZN6marisa8grimoire4trie6Config15parse_tail_modeEi
00000001d3b54ecc (__TEXT,__text) non-external (was a private external) __ZN6marisa8grimoire4trie6Config16parse_node_orderEi
00000001d3b54d9c (__TEXT,__text) non-external (was a private external) __ZN6marisa8grimoire4trie6Config17parse_cache_levelEi
00000001d3b5178c (__TEXT,__text) non-external (was a private external) __ZN6marisa8grimoire4trie6Config5parseEi
00000001d3b54ce4 (__TEXT,__text) non-external (was a private external) __ZN6marisa8grimoire4trie6Config6parse_Ei
00000001d3b51c68 (__TEXT,__text) non-external (was a private external) __ZN6marisa8grimoire4trie6Header3mapERNS0_2io6MapperE
00000001d3b51ef8 (__TEXT,__text) non-external (was a private external) __ZN6marisa8grimoire4trie6Header4readERNS0_2io6ReaderE
00000001d3b53c78 (__TEXT,__text) non-external (was a private external) __ZN6marisa8grimoire4trie9LoudsTrie10build_trieINS1_10ReverseKeyEEEvRNS0_6vector6VectorIT_EEPNS6_IjEERKNS1_6ConfigEm
00000001d3b534b8 (__TEXT,__text) non-external (was a private external) __ZN6marisa8grimoire4trie9LoudsTrie10build_trieINS1_3KeyEEEvRNS0_6vector6VectorIT_EEPNS6_IjEERKNS1_6ConfigEm
00000001d3b54114 (__TEXT,__text) external __ZN6marisa8grimoire4trie9LoudsTrie10fill_cacheEv
00000001d3b53ff0 (__TEXT,__text) external __ZN6marisa8grimoire4trie9LoudsTrie13reserve_cacheERKNS1_6ConfigEmm
00000001d3b53dec (__TEXT,__text) external __ZN6marisa8grimoire4trie9LoudsTrie15build_next_trieINS1_10ReverseKeyEEEvRNS0_6vector6VectorIT_EEPNS6_IjEERKNS1_6ConfigEm
00000001d3b53898 (__TEXT,__text) external __ZN6marisa8grimoire4trie9LoudsTrie15build_next_trieINS1_3KeyEEEvRNS0_6vector6VectorIT_EEPNS6_IjEERKNS1_6ConfigEm
00000001d3b5a284 (__TEXT,__text) non-external (was a private external) __ZN6marisa8grimoire4trie9LoudsTrie18build_current_trieINS1_10ReverseKeyEEEvRNS0_6vector6VectorIT_EEPNS6_IjEERKNS1_6ConfigEm
00000001d3b56d44 (__TEXT,__text) non-external (was a private external) __ZN6marisa8grimoire4trie9LoudsTrie18build_current_trieINS1_3KeyEEEvRNS0_6vector6VectorIT_EEPNS6_IjEERKNS1_6ConfigEm
00000001d3b51bdc (__TEXT,__text) external __ZN6marisa8grimoire4trie9LoudsTrie3mapERNS0_2io6MapperE
00000001d3b51d00 (__TEXT,__text) external __ZN6marisa8grimoire4trie9LoudsTrie4map_ERNS0_2io6MapperE
00000001d3b51e7c (__TEXT,__text) external __ZN6marisa8grimoire4trie9LoudsTrie4readERNS0_2io6ReaderE
00000001d3b51ac4 (__TEXT,__text) external __ZN6marisa8grimoire4trie9LoudsTrie4swapERS2_
00000001d3b516dc (__TEXT,__text) external __ZN6marisa8grimoire4trie9LoudsTrie5buildERNS_6KeysetEi
00000001d3b540e0 (__TEXT,__text) external __ZN6marisa8grimoire4trie9LoudsTrie5cacheINS1_10ReverseKeyEEEvmmfc
00000001d3b53fb0 (__TEXT,__text) external __ZN6marisa8grimoire4trie9LoudsTrie5cacheINS1_3KeyEEEvmmfc
00000001d3b532a8 (__TEXT,__text) external __ZN6marisa8grimoire4trie9LoudsTrie5clearEv
00000001d3b51fd4 (__TEXT,__text) external __ZN6marisa8grimoire4trie9LoudsTrie5read_ERNS0_2io6ReaderE
00000001d3b517fc (__TEXT,__text) external __ZN6marisa8grimoire4trie9LoudsTrie6build_ERNS_6KeysetERKNS1_6ConfigE
00000001d3b515b0 (__TEXT,__text) external __ZN6marisa8grimoire4trie9LoudsTrieC1Ev
00000001d3b51388 (__TEXT,__text) external __ZN6marisa8grimoire4trie9LoudsTrieC2Ev
00000001d3b60d48 (__TEXT,__text) non-external __ZN6marisa8grimoire4trie9LoudsTrieC2Ev.cold.1
00000001d3b516d8 (__TEXT,__text) external __ZN6marisa8grimoire4trie9LoudsTrieD1Ev
00000001d3b515b4 (__TEXT,__text) external __ZN6marisa8grimoire4trie9LoudsTrieD2Ev
00000001d3b54380 (__TEXT,__text) non-external (was a private external) __ZN6marisa8grimoire6vector10FlatVector3mapERNS0_2io6MapperE
00000001d3b59368 (__TEXT,__text) non-external (was a private external) __ZN6marisa8grimoire6vector10FlatVector3setEmj
00000001d3b55c88 (__TEXT,__text) non-external (was a private external) __ZN6marisa8grimoire6vector10FlatVector4map_ERNS0_2io6MapperE
00000001d3b5464c (__TEXT,__text) non-external (was a private external) __ZN6marisa8grimoire6vector10FlatVector4readERNS0_2io6ReaderE
00000001d3b57448 (__TEXT,__text) non-external (was a private external) __ZN6marisa8grimoire6vector10FlatVector5buildERKNS1_6VectorIjEE
00000001d3b56720 (__TEXT,__text) non-external (was a private external) __ZN6marisa8grimoire6vector10FlatVector5read_ERNS0_2io6ReaderE
00000001d3b59270 (__TEXT,__text) non-external (was a private external) __ZN6marisa8grimoire6vector10FlatVector6build_ERKNS1_6VectorIjEE
00000001d3b5e3fc (__TEXT,__text) non-external __ZN6marisa8grimoire6vector12_GLOBAL__N_110select_bitEmmy
00000001d3b61c18 (__TEXT,__const) non-external __ZN6marisa8grimoire6vector12_GLOBAL__N_112SELECT_TABLEE
00000001d3b53b44 (__TEXT,__text) non-external (was a private external) __ZN6marisa8grimoire6vector6VectorINS0_4trie10ReverseKeyEE6resizeEm
00000001d3b5a1dc (__TEXT,__text) non-external (was a private external) __ZN6marisa8grimoire6vector6VectorINS0_4trie10ReverseKeyEE7reallocEm
00000001d3b5a9b0 (__TEXT,__text) non-external (was a private external) __ZN6marisa8grimoire6vector6VectorINS0_4trie10ReverseKeyEE9push_backERKS4_
00000001d3b58600 (__TEXT,__text) non-external (was a private external) __ZN6marisa8grimoire6vector6VectorINS0_4trie13WeightedRangeEE7reallocEm
00000001d3b5758c (__TEXT,__text) non-external (was a private external) __ZN6marisa8grimoire6vector6VectorINS0_4trie13WeightedRangeEE9push_backERKS4_
00000001d3b53424 (__TEXT,__text) non-external (was a private external) __ZN6marisa8grimoire6vector6VectorINS0_4trie3KeyEE6resizeEm
00000001d3b56c9c (__TEXT,__text) non-external (was a private external) __ZN6marisa8grimoire6vector6VectorINS0_4trie3KeyEE7reallocEm
00000001d3b57600 (__TEXT,__text) non-external (was a private external) __ZN6marisa8grimoire6vector6VectorINS0_4trie3KeyEE9push_backERKS4_
00000001d3b5b494 (__TEXT,__text) non-external (was a private external) __ZN6marisa8grimoire6vector6VectorINS0_4trie5CacheEE3fixEv
00000001d3b54458 (__TEXT,__text) non-external (was a private external) __ZN6marisa8grimoire6vector6VectorINS0_4trie5CacheEE3mapERNS0_2io6MapperE
00000001d3b5b2e4 (__TEXT,__text) non-external (was a private external) __ZN6marisa8grimoire6vector6VectorINS0_4trie5CacheEE4map_ERNS0_2io6MapperE
00000001d3b54724 (__TEXT,__text) non-external (was a private external) __ZN6marisa8grimoire6vector6VectorINS0_4trie5CacheEE4readERNS0_2io6ReaderE
00000001d3b533d0 (__TEXT,__text) non-external (was a private external) __ZN6marisa8grimoire6vector6VectorINS0_4trie5CacheEE4swapERS5_
00000001d3b5b644 (__TEXT,__text) non-external (was a private external) __ZN6marisa8grimoire6vector6VectorINS0_4trie5CacheEE5read_ERNS0_2io6ReaderE
00000001d3b54048 (__TEXT,__text) non-external (was a private external) __ZN6marisa8grimoire6vector6VectorINS0_4trie5CacheEE6resizeEm
00000001d3b5b164 (__TEXT,__text) non-external (was a private external) __ZN6marisa8grimoire6vector6VectorINS0_4trie5CacheEE7reallocEm
00000001d3b53abc (__TEXT,__text) non-external (was a private external) __ZN6marisa8grimoire6vector6VectorINS0_4trie5EntryEE6resizeEm
00000001d3b5a148 (__TEXT,__text) non-external (was a private external) __ZN6marisa8grimoire6vector6VectorINS0_4trie5EntryEE7reallocEm
00000001d3b54fd8 (__TEXT,__text) non-external (was a private external) __ZN6marisa8grimoire6vector6VectorINS0_4trie7HistoryEE6resizeEm
00000001d3b55074 (__TEXT,__text) non-external (was a private external) __ZN6marisa8grimoire6vector6VectorINS0_4trie7HistoryEE7reallocEm
00000001d3b52e7c (__TEXT,__text) non-external (was a private external) __ZN6marisa8grimoire6vector6VectorINS0_4trie7HistoryEE9push_backERKS4_
00000001d3b55a10 (__TEXT,__text) non-external (was a private external) __ZN6marisa8grimoire6vector6VectorINS1_9RankIndexEE3fixEv
00000001d3b55524 (__TEXT,__text) non-external (was a private external) __ZN6marisa8grimoire6vector6VectorINS1_9RankIndexEE3mapERNS0_2io6MapperE
00000001d3b55860 (__TEXT,__text) non-external (was a private external) __ZN6marisa8grimoire6vector6VectorINS1_9RankIndexEE4map_ERNS0_2io6MapperE
00000001d3b55ec0 (__TEXT,__text) non-external (was a private external) __ZN6marisa8grimoire6vector6VectorINS1_9RankIndexEE4readERNS0_2io6ReaderE
00000001d3b55160 (__TEXT,__text) non-external (was a private external) __ZN6marisa8grimoire6vector6VectorINS1_9RankIndexEE4swapERS4_
00000001d3b561e0 (__TEXT,__text) non-external (was a private external) __ZN6marisa8grimoire6vector6VectorINS1_9RankIndexEE5read_ERNS0_2io6ReaderE
00000001d3b562c4 (__TEXT,__text) non-external (was a private external) __ZN6marisa8grimoire6vector6VectorINS1_9RankIndexEE6resizeEm
00000001d3b56418 (__TEXT,__text) non-external (was a private external) __ZN6marisa8grimoire6vector6VectorINS1_9RankIndexEE7reallocEm
00000001d3b5362c (__TEXT,__text) non-external (was a private external) __ZN6marisa8grimoire6vector6VectorINSt3__14pairIjjEEE6resizeEm
00000001d3b593cc (__TEXT,__text) non-external (was a private external) __ZN6marisa8grimoire6vector6VectorINSt3__14pairIjjEEE7reallocEm
00000001d3b5fee8 (__TEXT,__text) non-external (was a private external) __ZN6marisa8grimoire6vector6VectorIcE3fixEv
00000001d3b5f8ec (__TEXT,__text) non-external (was a private external) __ZN6marisa8grimoire6vector6VectorIcE3mapERNS0_2io6MapperE
00000001d3b5fe74 (__TEXT,__text) non-external (was a private external) __ZN6marisa8grimoire6vector6VectorIcE4map_ERNS0_2io6MapperE
00000001d3b5f988 (__TEXT,__text) non-external (was a private external) __ZN6marisa8grimoire6vector6VectorIcE4readERNS0_2io6ReaderE
00000001d3b5f77c (__TEXT,__text) non-external (was a private external) __ZN6marisa8grimoire6vector6VectorIcE4swapERS3_
00000001d3b5ff5c (__TEXT,__text) non-external (was a private external) __ZN6marisa8grimoire6vector6VectorIcE5read_ERNS0_2io6ReaderE
00000001d3b52f08 (__TEXT,__text) non-external (was a private external) __ZN6marisa8grimoire6vector6VectorIcE6resizeEm
00000001d3b5f85c (__TEXT,__text) non-external (was a private external) __ZN6marisa8grimoire6vector6VectorIcE6shrinkEv
00000001d3b54f50 (__TEXT,__text) non-external (was a private external) __ZN6marisa8grimoire6vector6VectorIcE7reallocEm
00000001d3b52768 (__TEXT,__text) non-external (was a private external) __ZN6marisa8grimoire6vector6VectorIcE9push_backERKc
00000001d3b5b270 (__TEXT,__text) non-external (was a private external) __ZN6marisa8grimoire6vector6VectorIhE3fixEv
00000001d3b542e4 (__TEXT,__text) non-external (was a private external) __ZN6marisa8grimoire6vector6VectorIhE3mapERNS0_2io6MapperE
00000001d3b5b1fc (__TEXT,__text) non-external (was a private external) __ZN6marisa8grimoire6vector6VectorIhE4map_ERNS0_2io6MapperE
00000001d3b545b0 (__TEXT,__text) non-external (was a private external) __ZN6marisa8grimoire6vector6VectorIhE4readERNS0_2io6ReaderE
00000001d3b5337c (__TEXT,__text) non-external (was a private external) __ZN6marisa8grimoire6vector6VectorIhE4swapERS3_
00000001d3b5b508 (__TEXT,__text) non-external (was a private external) __ZN6marisa8grimoire6vector6VectorIhE5read_ERNS0_2io6ReaderE
00000001d3b5b580 (__TEXT,__text) non-external (was a private external) __ZN6marisa8grimoire6vector6VectorIhE6resizeEm
00000001d3b5769c (__TEXT,__text) non-external (was a private external) __ZN6marisa8grimoire6vector6VectorIhE6shrinkEv
00000001d3b57e24 (__TEXT,__text) non-external (was a private external) __ZN6marisa8grimoire6vector6VectorIhE7reallocEm
00000001d3b57520 (__TEXT,__text) non-external (was a private external) __ZN6marisa8grimoire6vector6VectorIhE9push_backERKh
00000001d3b55c14 (__TEXT,__text) non-external (was a private external) __ZN6marisa8grimoire6vector6VectorIjE3fixEv
00000001d3b555c0 (__TEXT,__text) non-external (was a private external) __ZN6marisa8grimoire6vector6VectorIjE3mapERNS0_2io6MapperE
00000001d3b55a84 (__TEXT,__text) non-external (was a private external) __ZN6marisa8grimoire6vector6VectorIjE4map_ERNS0_2io6MapperE
00000001d3b55f5c (__TEXT,__text) non-external (was a private external) __ZN6marisa8grimoire6vector6VectorIjE4readERNS0_2io6ReaderE
00000001d3b551b4 (__TEXT,__text) non-external (was a private external) __ZN6marisa8grimoire6vector6VectorIjE4swapERS3_
00000001d3b564b0 (__TEXT,__text) non-external (was a private external) __ZN6marisa8grimoire6vector6VectorIjE5read_ERNS0_2io6ReaderE
00000001d3b56584 (__TEXT,__text) non-external (was a private external) __ZN6marisa8grimoire6vector6VectorIjE6resizeEm
00000001d3b5f7d0 (__TEXT,__text) non-external (was a private external) __ZN6marisa8grimoire6vector6VectorIjE6resizeEmRKj
00000001d3b5ea58 (__TEXT,__text) non-external (was a private external) __ZN6marisa8grimoire6vector6VectorIjE6shrinkEv
00000001d3b56698 (__TEXT,__text) non-external (was a private external) __ZN6marisa8grimoire6vector6VectorIjE7reallocEm
00000001d3b5e9e8 (__TEXT,__text) non-external (was a private external) __ZN6marisa8grimoire6vector6VectorIjE9push_backERKj
00000001d3b557ec (__TEXT,__text) non-external (was a private external) __ZN6marisa8grimoire6vector6VectorIyE3fixEv
00000001d3b55488 (__TEXT,__text) non-external (was a private external) __ZN6marisa8grimoire6vector6VectorIyE3mapERNS0_2io6MapperE
00000001d3b5565c (__TEXT,__text) non-external (was a private external) __ZN6marisa8grimoire6vector6VectorIyE4map_ERNS0_2io6MapperE
00000001d3b55e24 (__TEXT,__text) non-external (was a private external) __ZN6marisa8grimoire6vector6VectorIyE4readERNS0_2io6ReaderE
00000001d3b5510c (__TEXT,__text) non-external (was a private external) __ZN6marisa8grimoire6vector6VectorIyE4swapERS3_
00000001d3b55ff8 (__TEXT,__text) non-external (was a private external) __ZN6marisa8grimoire6vector6VectorIyE5read_ERNS0_2io6ReaderE
00000001d3b560cc (__TEXT,__text) non-external (was a private external) __ZN6marisa8grimoire6vector6VectorIyE6resizeEm
00000001d3b55208 (__TEXT,__text) non-external (was a private external) __ZN6marisa8grimoire6vector6VectorIyE6resizeEmRKy
00000001d3b5531c (__TEXT,__text) non-external (was a private external) __ZN6marisa8grimoire6vector6VectorIyE6shrinkEv
00000001d3b55294 (__TEXT,__text) non-external (was a private external) __ZN6marisa8grimoire6vector6VectorIyE7reallocEm
00000001d3b5e5f4 (__TEXT,__text) external __ZN6marisa8grimoire6vector9BitVector11build_indexERKS2_bb
00000001d3b54228 (__TEXT,__text) non-external (was a private external) __ZN6marisa8grimoire6vector9BitVector3mapERNS0_2io6MapperE
00000001d3b60e18 (__TEXT,__text) non-external __ZN6marisa8grimoire6vector9BitVector3mapERNS0_2io6MapperE.cold.1
00000001d3b60fd0 (__TEXT,__text) non-external __ZN6marisa8grimoire6vector9BitVector3mapERNS0_2io6MapperE.cold.1
00000001d3b553ac (__TEXT,__text) non-external (was a private external) __ZN6marisa8grimoire6vector9BitVector4map_ERNS0_2io6MapperE
00000001d3b544f4 (__TEXT,__text) non-external (was a private external) __ZN6marisa8grimoire6vector9BitVector4readERNS0_2io6ReaderE
00000001d3b60e5c (__TEXT,__text) non-external __ZN6marisa8grimoire6vector9BitVector4readERNS0_2io6ReaderE.cold.1
00000001d3b61014 (__TEXT,__text) non-external __ZN6marisa8grimoire6vector9BitVector4readERNS0_2io6ReaderE.cold.1
00000001d3b53304 (__TEXT,__text) non-external (was a private external) __ZN6marisa8grimoire6vector9BitVector4swapERS2_
00000001d3b5378c (__TEXT,__text) non-external (was a private external) __ZN6marisa8grimoire6vector9BitVector5buildEbb
00000001d3b60dd4 (__TEXT,__text) non-external __ZN6marisa8grimoire6vector9BitVector5buildEbb.cold.1
00000001d3b55d44 (__TEXT,__text) non-external (was a private external) __ZN6marisa8grimoire6vector9BitVector5read_ERNS0_2io6ReaderE
00000001d3b536a4 (__TEXT,__text) non-external (was a private external) __ZN6marisa8grimoire6vector9BitVector9push_backEb
00000001d3b5b02c (__TEXT,__text) non-external (was a private external) __ZN6marisa8grimoire9algorithm7details14insertion_sortIPNS0_4trie10ReverseKeyEEEmT_S7_m
00000001d3b57cfc (__TEXT,__text) non-external (was a private external) __ZN6marisa8grimoire9algorithm7details14insertion_sortIPNS0_4trie3KeyEEEmT_S7_m
00000001d3b5fdb8 (__TEXT,__text) non-external (was a private external) __ZN6marisa8grimoire9algorithm7details14insertion_sortIPNS0_4trie5EntryEEEmT_S7_m
00000001d3b5ab2c (__TEXT,__text) non-external (was a private external) __ZN6marisa8grimoire9algorithm7details4sortIPNS0_4trie10ReverseKeyEEEmT_S7_m
00000001d3b5780c (__TEXT,__text) non-external (was a private external) __ZN6marisa8grimoire9algorithm7details4sortIPNS0_4trie3KeyEEEmT_S7_m
00000001d3b5fa24 (__TEXT,__text) non-external (was a private external) __ZN6marisa8grimoire9algorithm7details4sortIPNS0_4trie5EntryEEEmT_S7_m
00000001d3b5afa4 (__TEXT,__text) non-external (was a private external) __ZN6marisa8grimoire9algorithm7details6medianINS0_4trie10ReverseKeyEEEiRKT_S8_S8_m
00000001d3b57c80 (__TEXT,__text) non-external (was a private external) __ZN6marisa8grimoire9algorithm7details6medianINS0_4trie3KeyEEEiRKT_S8_S8_m
00000001d3b5afa4 (__TEXT,__text) non-external (was a private external) __ZN6marisa8grimoire9algorithm7details6medianINS0_4trie5EntryEEEiRKT_S8_S8_m
00000001d3b5b0f8 (__TEXT,__text) non-external (was a private external) __ZN6marisa8grimoire9algorithm7details7compareINS0_4trie10ReverseKeyEEEiRKT_S8_m
00000001d3b57dc8 (__TEXT,__text) non-external (was a private external) __ZN6marisa8grimoire9algorithm7details7compareINS0_4trie3KeyEEEiRKT_S8_m
00000001d3b5b0f8 (__TEXT,__text) non-external (was a private external) __ZN6marisa8grimoire9algorithm7details7compareINS0_4trie5EntryEEEiRKT_S8_m
00000001d3b51358 (__TEXT,__text) non-external (was a private external) __ZN6marisa9ExceptionD0Ev
00000001d3b50f44 (__TEXT,__text) non-external (was a private external) __ZN6marisa9ExceptionD1Ev
00000001d3b5d8fc (__TEXT,__text) external __ZN6marisalsERNSt3__113basic_ostreamIcNS0_11char_traitsIcEEEERKNS_4TrieE
00000001d3b5d8f8 (__TEXT,__text) external __ZN6marisarsERNSt3__113basic_istreamIcNS0_11char_traitsIcEEEERNS_4TrieE
00000001d3b5d178 (__TEXT,__text) external __ZNK6marisa4Trie10node_orderEv
00000001d3b5d220 (__TEXT,__text) external __ZNK6marisa4Trie10total_sizeEv
00000001d3b5cf98 (__TEXT,__text) external __ZNK6marisa4Trie14reverse_lookupERNS_5AgentE
00000001d3b5d058 (__TEXT,__text) external __ZNK6marisa4Trie17predictive_searchERNS_5AgentE
00000001d3b5cff8 (__TEXT,__text) external __ZNK6marisa4Trie20common_prefix_searchERNS_5AgentE
00000001d3b5cd3c (__TEXT,__text) external __ZNK6marisa4Trie4saveEPKc
00000001d3b5d208 (__TEXT,__text) external __ZNK6marisa4Trie4sizeEv
00000001d3b5d1e8 (__TEXT,__text) external __ZNK6marisa4Trie5emptyEv
00000001d3b5ce38 (__TEXT,__text) external __ZNK6marisa4Trie5writeEi
00000001d3b5cf38 (__TEXT,__text) external __ZNK6marisa4Trie6lookupERNS_5AgentE
00000001d3b5d230 (__TEXT,__text) external __ZNK6marisa4Trie7io_sizeEv
00000001d3b5d0d0 (__TEXT,__text) external __ZNK6marisa4Trie8num_keysEv
00000001d3b5d0e8 (__TEXT,__text) external __ZNK6marisa4Trie9num_nodesEv
00000001d3b5d0b8 (__TEXT,__text) external __ZNK6marisa4Trie9num_triesEv
00000001d3b5d108 (__TEXT,__text) external __ZNK6marisa4Trie9tail_modeEv
00000001d3b51240 (__TEXT,__text) external __ZNK6marisa8grimoire2io6Mapper7is_openEv
00000001d3b5de40 (__TEXT,__text) external __ZNK6marisa8grimoire2io6Reader7is_openEv
00000001d3b6067c (__TEXT,__text) external __ZNK6marisa8grimoire2io6Writer7is_openEv
00000001d3b5f550 (__TEXT,__text) external __ZNK6marisa8grimoire4trie4Tail12prefix_matchERNS_5AgentEm
00000001d3b5f4b0 (__TEXT,__text) external __ZNK6marisa8grimoire4trie4Tail5matchERNS_5AgentEm
00000001d3b5f3a4 (__TEXT,__text) external __ZNK6marisa8grimoire4trie4Tail5writeERNS0_2io6WriterE
00000001d3b5f3e4 (__TEXT,__text) external __ZNK6marisa8grimoire4trie4Tail6write_ERNS0_2io6WriterE
00000001d3b5f424 (__TEXT,__text) external __ZNK6marisa8grimoire4trie4Tail7restoreERNS_5AgentEm
00000001d3b5230c (__TEXT,__text) non-external (was a private external) __ZNK6marisa8grimoire4trie9LoudsTrie10find_childERNS_5AgentE
00000001d3b52f58 (__TEXT,__text) external __ZNK6marisa8grimoire4trie9LoudsTrie10total_sizeEv
00000001d3b54afc (__TEXT,__text) external __ZNK6marisa8grimoire4trie9LoudsTrie13prefix_match_ERNS_5AgentEm
00000001d3b52528 (__TEXT,__text) external __ZNK6marisa8grimoire4trie9LoudsTrie14reverse_lookupERNS_5AgentE
00000001d3b5aa4c (__TEXT,__text) non-external (was a private external) __ZNK6marisa8grimoire4trie9LoudsTrie15build_terminalsINS1_10ReverseKeyEEEvRKNS0_6vector6VectorIT_EEPNS6_IjEE
00000001d3b5772c (__TEXT,__text) non-external (was a private external) __ZNK6marisa8grimoire4trie9LoudsTrie15build_terminalsINS1_3KeyEEEvRKNS0_6vector6VectorIT_EEPNS6_IjEE
00000001d3b528bc (__TEXT,__text) external __ZNK6marisa8grimoire4trie9LoudsTrie17predictive_searchERNS_5AgentE
00000001d3b527d4 (__TEXT,__text) external __ZNK6marisa8grimoire4trie9LoudsTrie20common_prefix_searchERNS_5AgentE
00000001d3b52c38 (__TEXT,__text) non-external (was a private external) __ZNK6marisa8grimoire4trie9LoudsTrie21predictive_find_childERNS_5AgentE
00000001d3b52154 (__TEXT,__text) external __ZNK6marisa8grimoire4trie9LoudsTrie5writeERNS0_2io6WriterE
00000001d3b5226c (__TEXT,__text) external __ZNK6marisa8grimoire4trie9LoudsTrie6lookupERNS_5AgentE
00000001d3b54934 (__TEXT,__text) external __ZNK6marisa8grimoire4trie9LoudsTrie6match_ERNS_5AgentEm
00000001d3b521a4 (__TEXT,__text) external __ZNK6marisa8grimoire4trie9LoudsTrie6write_ERNS0_2io6WriterE
00000001d3b53094 (__TEXT,__text) external __ZNK6marisa8grimoire4trie9LoudsTrie7io_sizeEv
00000001d3b547c0 (__TEXT,__text) external __ZNK6marisa8grimoire4trie9LoudsTrie8restore_ERNS_5AgentEm
00000001d3b56bf0 (__TEXT,__text) non-external (was a private external) __ZNK6marisa8grimoire6vector10FlatVector6write_ERNS0_2io6WriterE
00000001d3b541e0 (__TEXT,__text) non-external (was a private external) __ZNK6marisa8grimoire6vector10FlatVectorixEm
00000001d3b5b8cc (__TEXT,__text) non-external (was a private external) __ZNK6marisa8grimoire6vector6VectorINS0_4trie5CacheEE6write_ERNS0_2io6WriterE
00000001d3b56990 (__TEXT,__text) non-external (was a private external) __ZNK6marisa8grimoire6vector6VectorINS1_9RankIndexEE6write_ERNS0_2io6WriterE
00000001d3b60048 (__TEXT,__text) non-external (was a private external) __ZNK6marisa8grimoire6vector6VectorIcE6write_ERNS0_2io6WriterE
00000001d3b5b7f4 (__TEXT,__text) non-external (was a private external) __ZNK6marisa8grimoire6vector6VectorIhE6write_ERNS0_2io6WriterE
00000001d3b56acc (__TEXT,__text) non-external (was a private external) __ZNK6marisa8grimoire6vector6VectorIjE6write_ERNS0_2io6WriterE
00000001d3b56874 (__TEXT,__text) non-external (was a private external) __ZNK6marisa8grimoire6vector6VectorIyE6write_ERNS0_2io6WriterE
00000001d3b5e0d0 (__TEXT,__text) external __ZNK6marisa8grimoire6vector9BitVector5rank1Em
00000001d3b567f0 (__TEXT,__text) non-external (was a private external) __ZNK6marisa8grimoire6vector9BitVector6write_ERNS0_2io6WriterE
00000001d3b5e218 (__TEXT,__text) external __ZNK6marisa8grimoire6vector9BitVector7select0Em
00000001d3b5e484 (__TEXT,__text) external __ZNK6marisa8grimoire6vector9BitVector7select1Em
00000001d3b51380 (__TEXT,__text) non-external (was a private external) __ZNK6marisa9Exception4whatEv
                 (undefined) external __ZNSt11logic_errorC2EPKc (from libc++)
00000001d3b585dc (__TEXT,__text) non-external (was a private external) __ZNSt12length_errorC1EPKc
                 (undefined) external __ZNSt12length_errorD1Ev (from libc++)
00000001d3b5915c (__TEXT,__text) non-external (was a private external) __ZNSt3__112__deque_baseIN6marisa8grimoire4trie5RangeENS_9allocatorIS4_EEE5clearEv
00000001d3b59100 (__TEXT,__text) non-external (was a private external) __ZNSt3__112__deque_baseIN6marisa8grimoire4trie5RangeENS_9allocatorIS4_EEED2Ev
00000001d3b59030 (__TEXT,__text) non-external (was a private external) __ZNSt3__112__rotate_gcdIPN6marisa8grimoire4trie13WeightedRangeEEET_S6_S6_S6_
00000001d3b586ec (__TEXT,__text) non-external (was a private external) __ZNSt3__113__stable_sortIRNS_7greaterIN6marisa8grimoire4trie13WeightedRangeEEEPS5_EEvT0_S9_T_NS_15iterator_traitsIS9_E15difference_typeEPNSC_10value_typeEl
                 (undefined) external __ZNSt3__113basic_istreamIcNS_11char_traitsIcEEE4readEPcl (from libc++)
                 (undefined) external __ZNSt3__113basic_ostreamIcNS_11char_traitsIcEEE5writeEPKcl (from libc++)
00000001d3b58444 (__TEXT,__text) non-external (was a private external) __ZNSt3__114__split_bufferIPN6marisa8grimoire4trie5RangeENS_9allocatorIS5_EEE10push_frontEOS5_
00000001d3b58304 (__TEXT,__text) non-external (was a private external) __ZNSt3__114__split_bufferIPN6marisa8grimoire4trie5RangeENS_9allocatorIS5_EEE9push_backEOS5_
00000001d3b57eac (__TEXT,__text) non-external (was a private external) __ZNSt3__114__split_bufferIPN6marisa8grimoire4trie5RangeENS_9allocatorIS5_EEED2Ev
00000001d3b58444 (__TEXT,__text) non-external (was a private external) __ZNSt3__114__split_bufferIPN6marisa8grimoire4trie5RangeERNS_9allocatorIS5_EEE10push_frontERKS5_
00000001d3b58304 (__TEXT,__text) non-external (was a private external) __ZNSt3__114__split_bufferIPN6marisa8grimoire4trie5RangeERNS_9allocatorIS5_EEE9push_backEOS5_
00000001d3b58b2c (__TEXT,__text) non-external (was a private external) __ZNSt3__115__inplace_mergeIRNS_7greaterIN6marisa8grimoire4trie13WeightedRangeEEEPS5_EEvT0_S9_S9_T_NS_15iterator_traitsIS9_E15difference_typeESD_PNSC_10value_typeEl
00000001d3b588ac (__TEXT,__text) non-external (was a private external) __ZNSt3__116__insertion_sortIRNS_7greaterIN6marisa8grimoire4trie13WeightedRangeEEEPS5_EEvT0_S9_T_
00000001d3b59de8 (__TEXT,__text) non-external (was a private external) __ZNSt3__118__insertion_sort_3IRNS_6__lessINS_4pairIjjEES3_EEPS3_EEvT0_S7_T_
00000001d3b58954 (__TEXT,__text) non-external (was a private external) __ZNSt3__118__stable_sort_moveIRNS_7greaterIN6marisa8grimoire4trie13WeightedRangeEEEPS5_EEvT0_S9_T_NS_15iterator_traitsIS9_E15difference_typeEPNSC_10value_typeE
00000001d3b58ab0 (__TEXT,__text) non-external (was a private external) __ZNSt3__119__merge_move_assignIRNS_7greaterIN6marisa8grimoire4trie13WeightedRangeEEEPS5_S8_S8_EEvT0_S9_T1_SA_T2_T_
00000001d3b58584 (__TEXT,__text) non-external (was a private external) __ZNSt3__120__throw_length_errorEPKc
00000001d3b58688 (__TEXT,__text) non-external (was a private external) __ZNSt3__120get_temporary_bufferIN6marisa8grimoire4trie13WeightedRangeEEENS_4pairIPT_lEEl
00000001d3b58e7c (__TEXT,__text) non-external (was a private external) __ZNSt3__121__insertion_sort_moveIRNS_7greaterIN6marisa8grimoire4trie13WeightedRangeEEEPS5_EEvT0_S9_PNS_15iterator_traitsIS9_E10value_typeET_
00000001d3b58ab0 (__TEXT,__text) non-external (was a private external) __ZNSt3__122__merge_move_constructIRNS_7greaterIN6marisa8grimoire4trie13WeightedRangeEEEPS5_S8_EEvT0_S9_T1_SA_PNS_15iterator_traitsIS9_E10value_typeET_
00000001d3b58f20 (__TEXT,__text) non-external (was a private external) __ZNSt3__124__buffered_inplace_mergeIRNS_7greaterIN6marisa8grimoire4trie13WeightedRangeEEEPS5_EEvT0_S9_S9_T_NS_15iterator_traitsIS9_E15difference_typeESD_PNSC_10value_typeE
00000001d3b59f14 (__TEXT,__text) non-external (was a private external) __ZNSt3__127__insertion_sort_incompleteIRNS_6__lessINS_4pairIjjEES3_EEPS3_EEbT0_S7_T_
00000001d3b57fc0 (__TEXT,__text) non-external (was a private external) __ZNSt3__15dequeIN6marisa8grimoire4trie5RangeENS_9allocatorIS4_EEE19__add_back_capacityEv
00000001d3b57efc (__TEXT,__text) non-external (was a private external) __ZNSt3__15dequeIN6marisa8grimoire4trie5RangeENS_9allocatorIS4_EEE9push_backEOS4_
00000001d3b57efc (__TEXT,__text) non-external (was a private external) __ZNSt3__15dequeIN6marisa8grimoire4trie5RangeENS_9allocatorIS4_EEE9push_backERKS4_
00000001d3b59454 (__TEXT,__text) non-external (was a private external) __ZNSt3__16__sortIRNS_6__lessINS_4pairIjjEES3_EEPS3_EEvT0_S7_T_
00000001d3b599e0 (__TEXT,__text) non-external (was a private external) __ZNSt3__17__sort3IRNS_6__lessINS_4pairIjjEES3_EEPS3_EEjT0_S7_S7_T_
00000001d3b59b50 (__TEXT,__text) non-external (was a private external) __ZNSt3__17__sort4IRNS_6__lessINS_4pairIjjEES3_EEPS3_EEjT0_S7_S7_S7_T_
00000001d3b59c70 (__TEXT,__text) non-external (was a private external) __ZNSt3__17__sort5IRNS_6__lessINS_4pairIjjEES3_EEPS3_EEjT0_S7_S7_S7_S7_T_
                 (undefined) external __ZNSt9exceptionD2Ev (from libc++)
                 (undefined) external __ZSt7nothrow (from libc++)
                 (undefined) external __ZSt9terminatev (from libc++)
00000001f25ea628 (__AUTH_CONST,__const) non-external (was a private external) __ZTIN6marisa9ExceptionE
                 (undefined) external __ZTINSt3__18ios_base7failureE (from libc++)
                 (undefined) weak external __ZTISt12length_error (from libc++)
                 (undefined) external __ZTISt9bad_alloc (from libc++)
                 (undefined) external __ZTISt9exception (from libc++)
00000001d3b61980 (__TEXT,__const) non-external (was a private external) __ZTSN6marisa9ExceptionE
                 (undefined) external __ZTVN10__cxxabiv120__si_class_type_infoE (from libc++)
00000001f25ea640 (__AUTH_CONST,__const) non-external (was a private external) __ZTVN6marisa9ExceptionE
                 (undefined) external __ZTVSt12length_error (from libc++)
00000001d3b61aa0 (__TEXT,__const) non-external (was a private external) __ZZN6marisa8grimoire4trie6Header10get_headerEvE3buf
                 (undefined) weak external __ZdaPv (from libc++)
                 (undefined) weak external __ZdlPv (from libc++)
                 (undefined) weak external __ZdlPvRKSt9nothrow_t (from libc++)
                 (undefined) weak external __ZnamRKSt9nothrow_t (from libc++)
                 (undefined) weak external __Znwm (from libc++)
                 (undefined) weak external __ZnwmRKSt9nothrow_t (from libc++)
00000001d3b50e54 (__TEXT,__text) non-external (was a private external) ___clang_call_terminate
                 (undefined) external ___cxa_allocate_exception (from libc++)
                 (undefined) external ___cxa_begin_catch (from libc++)
                 (undefined) external ___cxa_end_catch (from libc++)
                 (undefined) external ___cxa_free_exception (from libc++)
                 (undefined) external ___cxa_throw (from libc++)
                 (undefined) external ___gxx_personality_v0 (from libc++)
                 (undefined) external ___stack_chk_fail (from libSystem)
                 (undefined) external ___stack_chk_guard (from libSystem)
                 (undefined) external _bzero (from libSystem)
                 (undefined) external _close (from libSystem)
                 (undefined) external _fclose (from libSystem)
                 (undefined) external _fflush (from libSystem)
                 (undefined) external _fopen (from libSystem)
                 (undefined) external _fread (from libSystem)
                 (undefined) external _fwrite (from libSystem)
                 (undefined) external _memmove (from libSystem)
                 (undefined) external _mmap (from libSystem)
                 (undefined) external _munmap (from libSystem)
                 (undefined) external _open (from libSystem)
                 (undefined) external _read (from libSystem)
                 (undefined) external _stat (from libSystem)
                 (undefined) external _write (from libSystem)
