00007ff811522d60 (__TEXT,__text) non-external +[CAReporter sendSingleMessage:category:type:]
00007ff8115295a0 (__TEXT,__text) non-external +[CAReportingClient destroyClient]
00007ff811529553 (__TEXT,__text) non-external +[CAReportingClient getClient]
00007ff811520ae3 (__TEXT,__text) non-external +[CAReportingClient sharedInstance]
00007ff811523e29 (__TEXT,__text) non-external -[CAReporter .cxx_destruct]
00007ff811521e52 (__TEXT,__text) non-external -[CAReporter cacheServiceType:]
00007ff811523420 (__TEXT,__text) non-external -[CAReporter configuration]
00007ff811523df9 (__TEXT,__text) non-external -[CAReporter connected]
00007ff811523a18 (__TEXT,__text) non-external -[CAReporter dealloc]
00007ff811520902 (__TEXT,__text) non-external -[CAReporter initWithNewReporterID]
00007ff811522e3a (__TEXT,__text) non-external -[CAReporter initWithReporterID:serviceType:]
00007ff8115232db (__TEXT,__text) non-external -[CAReporter initWithSessionID:serviceType:]
00007ff811523d8d (__TEXT,__text) non-external -[CAReporter internalConfiguration]
00007ff811521fbc (__TEXT,__text) non-external -[CAReporter perfObject]
00007ff811523de6 (__TEXT,__text) non-external -[CAReporter removedByClient]
00007ff811521509 (__TEXT,__text) non-external -[CAReporter reporterID]
00007ff811523b7b (__TEXT,__text) non-external -[CAReporter requestMessageForCategory:type:callback:]
00007ff811522644 (__TEXT,__text) non-external -[CAReporter sendMessage:category:type:]
00007ff811523d83 (__TEXT,__text) non-external -[CAReporter serviceType]
00007ff811521fe8 (__TEXT,__text) non-external -[CAReporter setConfiguration:]
00007ff811523e03 (__TEXT,__text) non-external -[CAReporter setConnected:]
00007ff811523da1 (__TEXT,__text) non-external -[CAReporter setInternalConfiguration:]
00007ff811523e10 (__TEXT,__text) non-external -[CAReporter setPerfObject:]
00007ff811523df0 (__TEXT,__text) non-external -[CAReporter setRemovedByClient:]
00007ff811521531 (__TEXT,__text) non-external -[CAReporter setServiceType:]
00007ff811523dc4 (__TEXT,__text) non-external -[CAReporter setStartDate:]
00007ff811523ddd (__TEXT,__text) non-external -[CAReporter setStarted:]
00007ff811523e1f (__TEXT,__text) non-external -[CAReporter signpostID]
00007ff811523db0 (__TEXT,__text) non-external -[CAReporter startDate]
00007ff811523545 (__TEXT,__text) non-external -[CAReporter start]
00007ff811521fd3 (__TEXT,__text) non-external -[CAReporter started]
00007ff8115237a7 (__TEXT,__text) non-external -[CAReporter stop]
00007ff8115233ba (__TEXT,__text) non-external -[CAReporter updateWithReporterID:]
00007ff8115297c6 (__TEXT,__text) non-external -[CAReportingClient .cxx_destruct]
00007ff81152126f (__TEXT,__text) non-external -[CAReportingClient addReporter:]
00007ff811521513 (__TEXT,__text) non-external -[CAReportingClient clientReporters]
00007ff811520c50 (__TEXT,__text) non-external -[CAReportingClient connection]
00007ff811520c8d (__TEXT,__text) non-external -[CAReportingClient createReporterID:]
00007ff8115296d6 (__TEXT,__text) non-external -[CAReportingClient dealloc]
00007ff81152614c (__TEXT,__text) non-external -[CAReportingClient destroyReporterWithID:]
00007ff8115295ef (__TEXT,__text) non-external -[CAReportingClient destroyService]
00007ff8115249d2 (__TEXT,__text) non-external -[CAReportingClient disconnectReporters]
00007ff811529491 (__TEXT,__text) non-external -[CAReportingClient getConfigurationForReporterID:]
00007ff811528d7a (__TEXT,__text) non-external -[CAReportingClient getServiceTypeForReporterID:]
00007ff811524c79 (__TEXT,__text) non-external -[CAReportingClient initWithXPC:endpoint:]
00007ff811526e73 (__TEXT,__text) non-external -[CAReportingClient listClientReporterIDs]
00007ff811526f24 (__TEXT,__text) non-external -[CAReportingClient listServerReporterIDs]
00007ff811524040 (__TEXT,__text) non-external -[CAReportingClient reconnectReporter:]
00007ff811524586 (__TEXT,__text) non-external -[CAReportingClient reconnectStartedReporters]
00007ff811525539 (__TEXT,__text) non-external -[CAReportingClient reporterWithID:]
00007ff81152656d (__TEXT,__text) non-external -[CAReportingClient requestMessageWithID:category:type:callback:]
00007ff811522847 (__TEXT,__text) non-external -[CAReportingClient sendMessage:category:type:reporters:]
00007ff811520c17 (__TEXT,__text) non-external -[CAReportingClient setClientReporters:]
00007ff8115293d3 (__TEXT,__text) non-external -[CAReportingClient setConfiguration:reporterID:]
00007ff811520c34 (__TEXT,__text) non-external -[CAReportingClient setConnection:]
00007ff8115216f8 (__TEXT,__text) non-external -[CAReportingClient setServiceType:reporterID:]
00007ff81152765b (__TEXT,__text) non-external -[CAReportingClient startReporters:]
00007ff81152836a (__TEXT,__text) non-external -[CAReportingClient stopReporters:]
00007ff81152dc70 (__TEXT,__text) non-external -[CAReportingPerformanceObject .cxx_construct]
00007ff811521205 (__TEXT,__text) non-external -[CAReportingPerformanceObject .cxx_destruct]
00007ff81152d7d7 (__TEXT,__text) non-external -[CAReportingPerformanceObject abandon]
00007ff81152bfe5 (__TEXT,__text) non-external -[CAReportingPerformanceObject begin]
00007ff81152dbe5 (__TEXT,__text) non-external -[CAReportingPerformanceObject configuration]
00007ff81152cbea (__TEXT,__text) non-external -[CAReportingPerformanceObject endAndReturnPerformanceMetrics]
00007ff81152dc2f (__TEXT,__text) non-external -[CAReportingPerformanceObject hostApplicationDisplayID]
00007ff811520ee0 (__TEXT,__text) non-external -[CAReportingPerformanceObject initWithProcessIdentifiers:]
00007ff81152dbc7 (__TEXT,__text) non-external -[CAReportingPerformanceObject performanceMetrics]
00007ff81152dc14 (__TEXT,__text) non-external -[CAReportingPerformanceObject processIdentifiers]
00007ff81152dbd1 (__TEXT,__text) non-external -[CAReportingPerformanceObject serviceType]
00007ff81152dc4a (__TEXT,__text) non-external -[CAReportingPerformanceObject sessionsLock]
00007ff81152dbef (__TEXT,__text) non-external -[CAReportingPerformanceObject sessions]
00007ff81152bcac (__TEXT,__text) non-external -[CAReportingPerformanceObject setConfiguration:]
00007ff81152dc39 (__TEXT,__text) non-external -[CAReportingPerformanceObject setHostApplicationDisplayID:]
00007ff81152dc1e (__TEXT,__text) non-external -[CAReportingPerformanceObject setProcessIdentifiers:]
00007ff81152dbdb (__TEXT,__text) non-external -[CAReportingPerformanceObject setServiceType:]
00007ff81152dbf9 (__TEXT,__text) non-external -[CAReportingPerformanceObject setSessions:]
00007ff81152dc54 (__TEXT,__text) non-external -[CAReportingPerformanceObject setSessionsLock:]
00007ff811523e67 (__TEXT,__text) non-external -[CATestReporter initWithNewReporterID]
00007ff81152403a (__TEXT,__text) non-external -[CATestReporter setServiceType:]
00007ff81152f2d4 (__TEXT,__gcc_except_tab) non-external GCC_except_table0
00007ff81153051c (__TEXT,__gcc_except_tab) non-external GCC_except_table0
00007ff811530534 (__TEXT,__gcc_except_tab) non-external GCC_except_table0
00007ff81152f2ec (__TEXT,__gcc_except_tab) non-external GCC_except_table1
00007ff8115303f4 (__TEXT,__gcc_except_tab) non-external GCC_except_table1
00007ff811530580 (__TEXT,__gcc_except_tab) non-external GCC_except_table1
00007ff81152f558 (__TEXT,__gcc_except_tab) non-external GCC_except_table10
00007ff8115304cc (__TEXT,__gcc_except_tab) non-external GCC_except_table10
00007ff811530244 (__TEXT,__gcc_except_tab) non-external GCC_except_table100
00007ff81152f588 (__TEXT,__gcc_except_tab) non-external GCC_except_table11
00007ff811530254 (__TEXT,__gcc_except_tab) non-external GCC_except_table112
00007ff811530260 (__TEXT,__gcc_except_tab) non-external GCC_except_table113
00007ff811530278 (__TEXT,__gcc_except_tab) non-external GCC_except_table119
00007ff81152f5d0 (__TEXT,__gcc_except_tab) non-external GCC_except_table12
00007ff8115304ec (__TEXT,__gcc_except_tab) non-external GCC_except_table12
00007ff811530844 (__TEXT,__gcc_except_tab) non-external GCC_except_table12
00007ff811530288 (__TEXT,__gcc_except_tab) non-external GCC_except_table120
00007ff811530298 (__TEXT,__gcc_except_tab) non-external GCC_except_table121
00007ff8115304fc (__TEXT,__gcc_except_tab) non-external GCC_except_table13
00007ff8115302a8 (__TEXT,__gcc_except_tab) non-external GCC_except_table132
00007ff8115302b4 (__TEXT,__gcc_except_tab) non-external GCC_except_table133
00007ff81152f600 (__TEXT,__gcc_except_tab) non-external GCC_except_table14
00007ff8115302c4 (__TEXT,__gcc_except_tab) non-external GCC_except_table140
00007ff811530310 (__TEXT,__gcc_except_tab) non-external GCC_except_table143
00007ff81153031c (__TEXT,__gcc_except_tab) non-external GCC_except_table144
00007ff811530328 (__TEXT,__gcc_except_tab) non-external GCC_except_table145
00007ff811530338 (__TEXT,__gcc_except_tab) non-external GCC_except_table146
00007ff811530348 (__TEXT,__gcc_except_tab) non-external GCC_except_table158
00007ff811530358 (__TEXT,__gcc_except_tab) non-external GCC_except_table159
00007ff811530964 (__TEXT,__gcc_except_tab) non-external GCC_except_table17
00007ff811530368 (__TEXT,__gcc_except_tab) non-external GCC_except_table170
00007ff811530374 (__TEXT,__gcc_except_tab) non-external GCC_except_table171
00007ff81153038c (__TEXT,__gcc_except_tab) non-external GCC_except_table174
00007ff81153039c (__TEXT,__gcc_except_tab) non-external GCC_except_table175
00007ff8115303ac (__TEXT,__gcc_except_tab) non-external GCC_except_table176
00007ff8115303bc (__TEXT,__gcc_except_tab) non-external GCC_except_table189
00007ff8115303d4 (__TEXT,__gcc_except_tab) non-external GCC_except_table192
00007ff8115303e4 (__TEXT,__gcc_except_tab) non-external GCC_except_table193
00007ff81152f378 (__TEXT,__gcc_except_tab) non-external GCC_except_table2
00007ff811530404 (__TEXT,__gcc_except_tab) non-external GCC_except_table2
00007ff811530528 (__TEXT,__gcc_except_tab) non-external GCC_except_table2
00007ff8115305f4 (__TEXT,__gcc_except_tab) non-external GCC_except_table2
00007ff8115309ac (__TEXT,__gcc_except_tab) non-external GCC_except_table24
00007ff81152f3b0 (__TEXT,__gcc_except_tab) non-external GCC_except_table3
00007ff811530414 (__TEXT,__gcc_except_tab) non-external GCC_except_table3
00007ff8115306e0 (__TEXT,__gcc_except_tab) non-external GCC_except_table3
00007ff81152f634 (__TEXT,__gcc_except_tab) non-external GCC_except_table31
00007ff811530890 (__TEXT,__gcc_except_tab) non-external GCC_except_table32
00007ff81152f670 (__TEXT,__gcc_except_tab) non-external GCC_except_table33
00007ff81152f73c (__TEXT,__gcc_except_tab) non-external GCC_except_table34
00007ff81152f7a0 (__TEXT,__gcc_except_tab) non-external GCC_except_table35
00007ff8115308a0 (__TEXT,__gcc_except_tab) non-external GCC_except_table35
00007ff81152f7e0 (__TEXT,__gcc_except_tab) non-external GCC_except_table36
00007ff81152f8c8 (__TEXT,__gcc_except_tab) non-external GCC_except_table37
00007ff81152f8d8 (__TEXT,__gcc_except_tab) non-external GCC_except_table38
00007ff8115308b4 (__TEXT,__gcc_except_tab) non-external GCC_except_table38
00007ff8115308f8 (__TEXT,__gcc_except_tab) non-external GCC_except_table39
00007ff811530440 (__TEXT,__gcc_except_tab) non-external GCC_except_table4
00007ff81152f8f8 (__TEXT,__gcc_except_tab) non-external GCC_except_table42
00007ff81152f914 (__TEXT,__gcc_except_tab) non-external GCC_except_table43
00007ff81152f968 (__TEXT,__gcc_except_tab) non-external GCC_except_table44
00007ff81152fa2c (__TEXT,__gcc_except_tab) non-external GCC_except_table45
00007ff81152fa54 (__TEXT,__gcc_except_tab) non-external GCC_except_table46
00007ff81152fa70 (__TEXT,__gcc_except_tab) non-external GCC_except_table47
00007ff81152fa84 (__TEXT,__gcc_except_tab) non-external GCC_except_table49
00007ff81152f3c8 (__TEXT,__gcc_except_tab) non-external GCC_except_table5
00007ff811530460 (__TEXT,__gcc_except_tab) non-external GCC_except_table5
00007ff8115306f0 (__TEXT,__gcc_except_tab) non-external GCC_except_table5
00007ff81152faa0 (__TEXT,__gcc_except_tab) non-external GCC_except_table50
00007ff81152fab4 (__TEXT,__gcc_except_tab) non-external GCC_except_table52
00007ff81152faf8 (__TEXT,__gcc_except_tab) non-external GCC_except_table53
00007ff81152fb84 (__TEXT,__gcc_except_tab) non-external GCC_except_table54
00007ff81152fc2c (__TEXT,__gcc_except_tab) non-external GCC_except_table55
00007ff81152fc48 (__TEXT,__gcc_except_tab) non-external GCC_except_table56
00007ff81152fc64 (__TEXT,__gcc_except_tab) non-external GCC_except_table57
00007ff81152fc7c (__TEXT,__gcc_except_tab) non-external GCC_except_table58
00007ff81152f3f8 (__TEXT,__gcc_except_tab) non-external GCC_except_table6
00007ff811530480 (__TEXT,__gcc_except_tab) non-external GCC_except_table6
00007ff81153090c (__TEXT,__gcc_except_tab) non-external GCC_except_table6
00007ff81152fcf0 (__TEXT,__gcc_except_tab) non-external GCC_except_table60
00007ff81152fd0c (__TEXT,__gcc_except_tab) non-external GCC_except_table61
00007ff81152fd20 (__TEXT,__gcc_except_tab) non-external GCC_except_table63
00007ff81152fe20 (__TEXT,__gcc_except_tab) non-external GCC_except_table64
00007ff81152fe3c (__TEXT,__gcc_except_tab) non-external GCC_except_table65
00007ff81152fe58 (__TEXT,__gcc_except_tab) non-external GCC_except_table66
00007ff81152fe6c (__TEXT,__gcc_except_tab) non-external GCC_except_table67
00007ff81152ff64 (__TEXT,__gcc_except_tab) non-external GCC_except_table68
00007ff81152f414 (__TEXT,__gcc_except_tab) non-external GCC_except_table7
00007ff811530494 (__TEXT,__gcc_except_tab) non-external GCC_except_table7
00007ff81152fff8 (__TEXT,__gcc_except_tab) non-external GCC_except_table73
00007ff8115300d8 (__TEXT,__gcc_except_tab) non-external GCC_except_table74
00007ff8115301a0 (__TEXT,__gcc_except_tab) non-external GCC_except_table75
00007ff8115301b8 (__TEXT,__gcc_except_tab) non-external GCC_except_table76
00007ff8115301d0 (__TEXT,__gcc_except_tab) non-external GCC_except_table79
00007ff81152f4f0 (__TEXT,__gcc_except_tab) non-external GCC_except_table8
00007ff8115304a4 (__TEXT,__gcc_except_tab) non-external GCC_except_table8
00007ff811530950 (__TEXT,__gcc_except_tab) non-external GCC_except_table8
00007ff8115301ec (__TEXT,__gcc_except_tab) non-external GCC_except_table80
00007ff81152f510 (__TEXT,__gcc_except_tab) non-external GCC_except_table9
00007ff8115304b4 (__TEXT,__gcc_except_tab) non-external GCC_except_table9
00007ff8115307f8 (__TEXT,__gcc_except_tab) non-external GCC_except_table9
00007ff81153020c (__TEXT,__gcc_except_tab) non-external GCC_except_table96
00007ff811530220 (__TEXT,__gcc_except_tab) non-external GCC_except_table97
00007ff811530234 (__TEXT,__gcc_except_tab) non-external GCC_except_table99
                 (undefined) weak external _AnalyticsSendEventLazy (from CoreAnalytics)
00007ff8432118f8 (__DATA_CONST,__const) external _AudioAnalyticsRetainMessage
00007ff843211838 (__DATA_CONST,__const) external _CAReporterProxyKeyReporterID
00007ff843211840 (__DATA_CONST,__const) external _CAReporterProxyKeyServiceType
00007ff843211878 (__DATA_CONST,__const) external _CAReportingApplicationName
00007ff8432118a8 (__DATA_CONST,__const) external _CAReportingAriadneInputFilePath
00007ff8432118b8 (__DATA_CONST,__const) external _CAReportingAriadneOutputFileDirectory
00007ff8432118b0 (__DATA_CONST,__const) external _CAReportingAriadneOutputFileName
00007ff843211898 (__DATA_CONST,__const) external _CAReportingAriadnePlistFilePath
00007ff8432118a0 (__DATA_CONST,__const) external _CAReportingAriadnePlistFilePaths
00007ff843211858 (__DATA_CONST,__const) external _CAReportingAudioDirectory
00007ff81152b75b (__TEXT,__text) external _CAReportingClientCopyConfiguration
00007ff81152b135 (__TEXT,__text) external _CAReportingClientCreateReporterID
00007ff81152b1b6 (__TEXT,__text) external _CAReportingClientCreateReporterIDFromSessionID
00007ff81152b242 (__TEXT,__text) external _CAReportingClientCreateTestReporterID
00007ff81152ba60 (__TEXT,__text) external _CAReportingClientDestroyReporterID
00007ff81152b6d1 (__TEXT,__text) external _CAReportingClientGetAudioServiceType
00007ff843211848 (__DATA_CONST,__const) external _CAReportingClientNameCoreAudio
00007ff843211980 (__DATA_CONST,__const) external _CAReportingClientQueueName
00007ff81152bae4 (__TEXT,__text) external _CAReportingClientRequestMessage
00007ff81152b8d2 (__TEXT,__text) external _CAReportingClientSendMessage
00007ff81152ba18 (__TEXT,__text) external _CAReportingClientSendSingleMessage
00007ff81152b637 (__TEXT,__text) external _CAReportingClientSetAudioServiceType
00007ff81152b7ea (__TEXT,__text) external _CAReportingClientSetConfiguration
00007ff81152b3e7 (__TEXT,__text) external _CAReportingClientStartReporter
00007ff81152b50f (__TEXT,__text) external _CAReportingClientStopReporter
00007ff843211888 (__DATA_CONST,__const) external _CAReportingDelayPerfEndSnapShot
00007ff8432118e8 (__DATA_CONST,__const) external _CAReportingForUITitle
00007ff8432118f0 (__DATA_CONST,__const) external _CAReportingForUIValue
00007ff843211998 (__DATA_CONST,__const) external _CAReportingInternalEventEpochTime
00007ff8432119a8 (__DATA_CONST,__const) external _CAReportingInternalEventProcessUptimeMS
00007ff8432119a0 (__DATA_CONST,__const) external _CAReportingInternalEventSystemUptimeSec
00007ff843211860 (__DATA_CONST,__const) external _CAReportingLogsDirectory
00007ff8432119b8 (__DATA_CONST,__const) non-external (was a private external) _CAReportingMessageKeySessionDuration
00007ff8432119b0 (__DATA_CONST,__const) non-external (was a private external) _CAReportingMessageMXHostApplicationDisplayID
00007ff8432118c0 (__DATA_CONST,__const) external _CAReportingPerfAggregateMetrics
00007ff843211880 (__DATA_CONST,__const) external _CAReportingPerfProcesses
00007ff843211850 (__DATA_CONST,__const) external _CAReportingPerfProjectName
00007ff843211868 (__DATA_CONST,__const) external _CAReportingPerformanceDirectory
00007ff843211978 (__DATA_CONST,__const) external _CAReportingQueueName
00007ff843211928 (__DATA_CONST,__const) external _CAReportingServiceNameAlarms
00007ff843211958 (__DATA_CONST,__const) external _CAReportingServiceNameAlerts
00007ff843211950 (__DATA_CONST,__const) external _CAReportingServiceNameAudioDeviceUsage
00007ff843211908 (__DATA_CONST,__const) external _CAReportingServiceNameGeneric
00007ff843211920 (__DATA_CONST,__const) external _CAReportingServiceNameHaptics
00007ff843211940 (__DATA_CONST,__const) external _CAReportingServiceNameLongFormAudio
00007ff843211948 (__DATA_CONST,__const) external _CAReportingServiceNameNonLongFormAudio
00007ff843211918 (__DATA_CONST,__const) external _CAReportingServiceNameSiri
00007ff843211938 (__DATA_CONST,__const) external _CAReportingServiceNameSoundAutoConfig
00007ff843211930 (__DATA_CONST,__const) external _CAReportingServiceNameStandAlone
00007ff843211910 (__DATA_CONST,__const) external _CAReportingServiceNameTelephony
00007ff843211968 (__DATA_CONST,__const) external _CAReportingServiceNameTest
00007ff843211960 (__DATA_CONST,__const) external _CAReportingServiceNameUnknown
00007ff843211988 (__DATA_CONST,__const) external _CAReportingSessionBlacklistFieldsKey
00007ff843211990 (__DATA_CONST,__const) external _CAReportingSessionThrottleSecondsKey
00007ff843211870 (__DATA_CONST,__const) external _CAReportingTailspinDirectory
00007ff843211890 (__DATA_CONST,__const) external _CAReportingTestName
00007ff8432118c8 (__DATA_CONST,__const) external _CAReportingTraceType
00007ff8432118d8 (__DATA_CONST,__const) external _CAReportingTraceTypeArtrace
00007ff8432118e0 (__DATA_CONST,__const) external _CAReportingTraceTypeArtraceProfile
00007ff8432118d0 (__DATA_CONST,__const) external _CAReportingTraceTypeKtrace
00007ff843211900 (__DATA_CONST,__const) external _CAReportingTracingLogsDirectory
00007ff81152e8f9 (__TEXT,__text) external _CAReportingUtilityAddDates
00007ff81152e8e2 (__TEXT,__text) external _CAReportingUtilityExtractSessionIDFromReporterID
00007ff81152e39d (__TEXT,__text) external _CAReportingUtilityGenerateServiceNameFromServiceType
00007ff81152e3c2 (__TEXT,__text) external _CAReportingUtilityGenerateServiceTypeFromServiceName
00007ff81152eb62 (__TEXT,__text) external _CAReportingUtilityGetReportingServerQueue
00007ff81152e34e (__TEXT,__text) external _CAReportingUtilityIsInternalBuild
00007ff81152e340 (__TEXT,__text) external _CAReportingUtilityShouldSendMessage
00007ff843211970 (__DATA_CONST,__const) external _CAReportingVersionNumber
                 (undefined) external _CFBooleanGetValue (from CoreFoundation)
                 (undefined) external _CFPreferencesAppSynchronize (from CoreFoundation)
                 (undefined) external _CFPreferencesCopyValue (from CoreFoundation)
                 (undefined) external _CFRelease (from CoreFoundation)
00007ff81152b0fd (__TEXT,__text) external _CreateSharedCAReportingClient
                 (undefined) external _MGCopyAnswer (from libMobileGestalt)
00007ff843969e60 (__DATA_DIRTY,__objc_data) external _OBJC_CLASS_$_CAReporter
00007ff843969e38 (__DATA_DIRTY,__objc_data) non-external (was a private external) _OBJC_CLASS_$_CAReportingClient
00007ff843969f28 (__DATA_DIRTY,__objc_data) non-external (was a private external) _OBJC_CLASS_$_CAReportingPerformanceObject
00007ff843969fa0 (__DATA_DIRTY,__objc_data) non-external (was a private external) _OBJC_CLASS_$_CAReportingPerformanceUtility
00007ff843969eb0 (__DATA_DIRTY,__objc_data) external _OBJC_CLASS_$_CATestReporter
                 (undefined) external _OBJC_CLASS_$_NSArray (from CoreFoundation)
                 (undefined) external _OBJC_CLASS_$_NSConstantArray (from CoreFoundation)
                 (undefined) external _OBJC_CLASS_$_NSConstantDictionary (from CoreFoundation)
                 (undefined) external _OBJC_CLASS_$_NSConstantDoubleNumber (from Foundation)
                 (undefined) external _OBJC_CLASS_$_NSConstantIntegerNumber (from Foundation)
                 (undefined) external _OBJC_CLASS_$_NSDate (from CoreFoundation)
                 (undefined) external _OBJC_CLASS_$_NSDictionary (from CoreFoundation)
                 (undefined) external _OBJC_CLASS_$_NSLock (from Foundation)
                 (undefined) external _OBJC_CLASS_$_NSMutableArray (from CoreFoundation)
                 (undefined) external _OBJC_CLASS_$_NSMutableDictionary (from CoreFoundation)
                 (undefined) external _OBJC_CLASS_$_NSMutableString (from Foundation)
                 (undefined) external _OBJC_CLASS_$_NSNumber (from Foundation)
                 (undefined) external _OBJC_CLASS_$_NSNumberFormatter (from Foundation)
                 (undefined) external _OBJC_CLASS_$_NSObject (from libobjc)
                 (undefined) external _OBJC_CLASS_$_NSPredicate (from Foundation)
                 (undefined) external _OBJC_CLASS_$_NSProcessInfo (from Foundation)
                 (undefined) external _OBJC_CLASS_$_NSString (from Foundation)
                 (undefined) external _OBJC_CLASS_$_NSUserDefaults (from CoreFoundation)
                 (undefined) external _OBJC_CLASS_$_NSXPCConnection (from Foundation)
                 (undefined) external _OBJC_CLASS_$_NSXPCInterface (from Foundation)
00007ff8426fec08 (__DATA,__objc_ivar) non-external (was a private external) _OBJC_IVAR_$_CAReporter._configuration
00007ff8426febf8 (__DATA,__objc_ivar) non-external (was a private external) _OBJC_IVAR_$_CAReporter._connected
00007ff8426fec18 (__DATA,__objc_ivar) non-external (was a private external) _OBJC_IVAR_$_CAReporter._internalConfiguration
00007ff8426fec28 (__DATA,__objc_ivar) non-external (was a private external) _OBJC_IVAR_$_CAReporter._perfObject
00007ff8426febf0 (__DATA,__objc_ivar) non-external (was a private external) _OBJC_IVAR_$_CAReporter._removedByClient
00007ff8426fec10 (__DATA,__objc_ivar) non-external (was a private external) _OBJC_IVAR_$_CAReporter._reporterID
00007ff8426fec00 (__DATA,__objc_ivar) non-external (was a private external) _OBJC_IVAR_$_CAReporter._serviceType
00007ff8426fec30 (__DATA,__objc_ivar) non-external (was a private external) _OBJC_IVAR_$_CAReporter._signpostID
00007ff8426fec20 (__DATA,__objc_ivar) non-external (was a private external) _OBJC_IVAR_$_CAReporter._startDate
00007ff8426febe8 (__DATA,__objc_ivar) non-external (was a private external) _OBJC_IVAR_$_CAReporter._started
00007ff8426fec40 (__DATA,__objc_ivar) non-external (was a private external) _OBJC_IVAR_$_CAReportingClient._clientReporters
00007ff8426fec38 (__DATA,__objc_ivar) non-external (was a private external) _OBJC_IVAR_$_CAReportingClient._connection
00007ff8426fec58 (__DATA,__objc_ivar) non-external (was a private external) _OBJC_IVAR_$_CAReportingPerformanceObject._configuration
00007ff8426fec68 (__DATA,__objc_ivar) non-external (was a private external) _OBJC_IVAR_$_CAReportingPerformanceObject._hostApplicationDisplayID
00007ff8426fec50 (__DATA,__objc_ivar) non-external (was a private external) _OBJC_IVAR_$_CAReportingPerformanceObject._performanceMetrics
00007ff8426fec60 (__DATA,__objc_ivar) non-external (was a private external) _OBJC_IVAR_$_CAReportingPerformanceObject._processIdentifiers
00007ff8426fec48 (__DATA,__objc_ivar) non-external (was a private external) _OBJC_IVAR_$_CAReportingPerformanceObject._serviceType
00007ff8426fec78 (__DATA,__objc_ivar) non-external (was a private external) _OBJC_IVAR_$_CAReportingPerformanceObject._sessions
00007ff8426fec70 (__DATA,__objc_ivar) non-external (was a private external) _OBJC_IVAR_$_CAReportingPerformanceObject._sessionsLock
00007ff843969e88 (__DATA_DIRTY,__objc_data) external _OBJC_METACLASS_$_CAReporter
00007ff843969f00 (__DATA_DIRTY,__objc_data) non-external (was a private external) _OBJC_METACLASS_$_CAReportingClient
00007ff843969f50 (__DATA_DIRTY,__objc_data) non-external (was a private external) _OBJC_METACLASS_$_CAReportingPerformanceObject
00007ff843969f78 (__DATA_DIRTY,__objc_data) non-external (was a private external) _OBJC_METACLASS_$_CAReportingPerformanceUtility
00007ff843969ed8 (__DATA_DIRTY,__objc_data) external _OBJC_METACLASS_$_CATestReporter
                 (undefined) external _OBJC_METACLASS_$_NSObject (from libobjc)
                 (undefined) external __Block_object_assign (from libSystem)
                 (undefined) external __Block_object_dispose (from libSystem)
                 (undefined) external __NSConcreteGlobalBlock (from libSystem)
                 (undefined) external __NSConcreteStackBlock (from libSystem)
00007ff81152eee0 (__TEXT,__objc_methlist) non-external __OBJC_$_CLASS_METHODS_CAReporter
00007ff81152eef8 (__TEXT,__objc_methlist) non-external __OBJC_$_CLASS_METHODS_CAReportingClient
00007ff81152ef28 (__TEXT,__objc_methlist) non-external __OBJC_$_INSTANCE_METHODS_CAReporter
00007ff81152f090 (__TEXT,__objc_methlist) non-external __OBJC_$_INSTANCE_METHODS_CAReportingClient
00007ff81152f1e8 (__TEXT,__objc_methlist) non-external __OBJC_$_INSTANCE_METHODS_CAReportingPerformanceObject
00007ff81152f1c8 (__TEXT,__objc_methlist) non-external __OBJC_$_INSTANCE_METHODS_CATestReporter
00007ff843212a38 (__DATA_CONST,__objc_const) non-external __OBJC_$_INSTANCE_VARIABLES_CAReporter
00007ff843213328 (__DATA_CONST,__objc_const) non-external __OBJC_$_INSTANCE_VARIABLES_CAReportingClient
00007ff843213428 (__DATA_CONST,__objc_const) non-external __OBJC_$_INSTANCE_VARIABLES_CAReportingPerformanceObject
00007ff843212b80 (__DATA_CONST,__objc_const) non-external __OBJC_$_PROP_LIST_CAReporter
00007ff843213370 (__DATA_CONST,__objc_const) non-external __OBJC_$_PROP_LIST_CAReportingClient
00007ff843213510 (__DATA_CONST,__objc_const) non-external __OBJC_$_PROP_LIST_CAReportingPerformanceObject
00007ff843213038 (__DATA_CONST,__objc_const) non-external __OBJC_$_PROP_LIST_NSObject
00007ff843213138 (__DATA_CONST,__objc_const) non-external __OBJC_$_PROTOCOL_INSTANCE_METHODS_CAReportingServiceProtocol
00007ff843212e48 (__DATA_CONST,__objc_const) non-external __OBJC_$_PROTOCOL_INSTANCE_METHODS_NSObject
00007ff843213018 (__DATA_CONST,__objc_const) non-external __OBJC_$_PROTOCOL_INSTANCE_METHODS_OPT_NSObject
00007ff843212d00 (__DATA_CONST,__objc_const) non-external __OBJC_$_PROTOCOL_INSTANCE_METHODS__TtP15AudioStatistics14ServerProtocol_
00007ff843213278 (__DATA_CONST,__objc_const) non-external __OBJC_$_PROTOCOL_METHOD_TYPES_CAReportingServiceProtocol
00007ff843213080 (__DATA_CONST,__objc_const) non-external __OBJC_$_PROTOCOL_METHOD_TYPES_NSObject
00007ff843212df8 (__DATA_CONST,__objc_const) non-external __OBJC_$_PROTOCOL_METHOD_TYPES__TtP15AudioStatistics14ServerProtocol_
00007ff843213120 (__DATA_CONST,__objc_const) non-external __OBJC_$_PROTOCOL_REFS_CAReportingServiceProtocol
00007ff843212c28 (__DATA_CONST,__objc_const) non-external __OBJC_CLASS_RO_$_CAReporter
00007ff843213398 (__DATA_CONST,__objc_const) non-external __OBJC_CLASS_RO_$_CAReportingClient
00007ff843213588 (__DATA_CONST,__objc_const) non-external __OBJC_CLASS_RO_$_CAReportingPerformanceObject
00007ff843213618 (__DATA_CONST,__objc_const) non-external __OBJC_CLASS_RO_$_CAReportingPerformanceUtility
00007ff843212cb8 (__DATA_CONST,__objc_const) non-external __OBJC_CLASS_RO_$_CATestReporter
00007ff8432129d8 (__DATA_CONST,__objc_protolist) non-external (was a private external) __OBJC_LABEL_PROTOCOL_$_CAReportingServiceProtocol
00007ff8432129d0 (__DATA_CONST,__objc_protolist) non-external (was a private external) __OBJC_LABEL_PROTOCOL_$_NSObject
00007ff8432129c8 (__DATA_CONST,__objc_protolist) non-external (was a private external) __OBJC_LABEL_PROTOCOL_$__TtP15AudioStatistics14ServerProtocol_
00007ff8432129f0 (__DATA_CONST,__objc_const) non-external __OBJC_METACLASS_RO_$_CAReporter
00007ff8432132e0 (__DATA_CONST,__objc_const) non-external __OBJC_METACLASS_RO_$_CAReportingClient
00007ff8432133e0 (__DATA_CONST,__objc_const) non-external __OBJC_METACLASS_RO_$_CAReportingPerformanceObject
00007ff8432135d0 (__DATA_CONST,__objc_const) non-external __OBJC_METACLASS_RO_$_CAReportingPerformanceUtility
00007ff843212c70 (__DATA_CONST,__objc_const) non-external __OBJC_METACLASS_RO_$_CATestReporter
00007ff8426fee38 (__DATA,__data) non-external (was a private external) __OBJC_PROTOCOL_$_CAReportingServiceProtocol
00007ff8426fedd8 (__DATA,__data) non-external (was a private external) __OBJC_PROTOCOL_$_NSObject
00007ff8426fed78 (__DATA,__data) non-external (was a private external) __OBJC_PROTOCOL_$__TtP15AudioStatistics14ServerProtocol_
00007ff8426feb20 (__DATA,__objc_protorefs) non-external (was a private external) __OBJC_PROTOCOL_REFERENCE_$_CAReportingServiceProtocol
00007ff8426feb18 (__DATA,__objc_protorefs) non-external (was a private external) __OBJC_PROTOCOL_REFERENCE_$__TtP15AudioStatistics14ServerProtocol_
00007ff8426fec80 (__DATA,__objc_data) non-external (was a private external) __PROTOCOL_INSTANCE_METHODS__TtP15AudioStatistics14ServerProtocol_
00007ff8432136c0 (__DATA_CONST,__objc_const) non-external (was a private external) __PROTOCOL_METHOD_TYPES__TtP15AudioStatistics14ServerProtocol_
00007ff843213660 (__DATA_CONST,__objc_const) non-external (was a private external) __PROTOCOL__TtP15AudioStatistics14ServerProtocol_
                 (undefined) external __Unwind_Resume (from libSystem)
00007ff81152bb9c (__TEXT,__text) non-external (was a private external) __Z17AA_ClientCategoryv
00007ff81152e846 (__TEXT,__text) non-external (was a private external) __Z28CAReportingUtilityTypeString14AudioEventType
00007ff81152bc36 (__TEXT,__text) non-external (was a private external) __Z29AA_PerformanceUtilityCategoryv
00007ff81152e694 (__TEXT,__text) non-external (was a private external) __Z32CAReportingUtilityCategoryString18AudioEventCategory
00007ff81152ec24 (__TEXT,__text) non-external (was a private external) __Z33CAReportingUtilityReadBooleanPrefPK8NSStringS1_
00007ff81152e88f (__TEXT,__text) non-external (was a private external) __Z33CAReportingUtilityRetrieveAppNameP12NSDictionary
00007ff8426feeb8 (__DATA,__bss) non-external __ZGVZ17AA_ClientCategoryvE8category
00007ff8426feed0 (__DATA,__bss) non-external __ZGVZ29AA_PerformanceUtilityCategoryvE8category
00007ff843969fd4 (__DATA_DIRTY,__bss) non-external __ZL16gReporterIDCount
00007ff843969fc8 (__DATA_DIRTY,__bss) non-external __ZL16gReportingClient
00007ff811521d5d (__TEXT,__text) non-external __ZL34GetLocalCAReporterObjectFromClientP17CAReportingClientx
00007ff81152bc0a (__TEXT,__text) non-external (was a private external) __ZN5caulk12log_categoryC1EPKcS2_
00007ff811529ab8 (__TEXT,__text) non-external (was a private external) __ZN5caulk3xpc12sync_messageIU8__strongPU25objcproto14ServerProtocol11objc_objectJU8__strongP12NSDictionaryEEC2EP15NSXPCConnection
00007ff811525e28 (__TEXT,__text) non-external (was a private external) __ZN5caulk3xpc12sync_messageIU8__strongPU25objcproto14ServerProtocol11objc_objectJU8__strongP12NSDictionaryEED1Ev
00007ff81152a5b6 (__TEXT,__text) non-external (was a private external) __ZN5caulk3xpc12sync_messageIU8__strongPU25objcproto14ServerProtocol11objc_objectJU8__strongP7NSArrayIP8NSNumberEEEC2EP15NSXPCConnection
00007ff811527344 (__TEXT,__text) non-external (was a private external) __ZN5caulk3xpc12sync_messageIU8__strongPU25objcproto14ServerProtocol11objc_objectJU8__strongP7NSArrayIP8NSNumberEEED1Ev
00007ff81152ab7a (__TEXT,__text) non-external (was a private external) __ZN5caulk3xpc12sync_messageIU8__strongPU25objcproto14ServerProtocol11objc_objectJbEEC2EP15NSXPCConnection
00007ff811529eb6 (__TEXT,__text) non-external (was a private external) __ZN5caulk3xpc12sync_messageIU8__strongPU37objcproto26CAReportingServiceProtocol11objc_objectJU8__strongP12NSDictionaryEEC2EP15NSXPCConnection
00007ff811526114 (__TEXT,__text) non-external (was a private external) __ZN5caulk3xpc12sync_messageIU8__strongPU37objcproto26CAReportingServiceProtocol11objc_objectJU8__strongP12NSDictionaryEED1Ev
00007ff81152a820 (__TEXT,__text) non-external (was a private external) __ZN5caulk3xpc12sync_messageIU8__strongPU37objcproto26CAReportingServiceProtocol11objc_objectJU8__strongP7NSArrayIP8NSNumberEEEC2EP15NSXPCConnection
00007ff811527630 (__TEXT,__text) non-external (was a private external) __ZN5caulk3xpc12sync_messageIU8__strongPU37objcproto26CAReportingServiceProtocol11objc_objectJU8__strongP7NSArrayIP8NSNumberEEED1Ev
00007ff81152aea4 (__TEXT,__text) non-external (was a private external) __ZN5caulk3xpc12sync_messageIU8__strongPU37objcproto26CAReportingServiceProtocol11objc_objectJbEEC2EP15NSXPCConnection
00007ff811525b68 (__TEXT,__text) non-external (was a private external) __ZN5caulk3xpc7messageIU8__strongPU25objcproto14ServerProtocol11objc_objectJU8__strongP12NSDictionaryEE10sync_proxyEv
00007ff811526b74 (__TEXT,__text) non-external (was a private external) __ZN5caulk3xpc7messageIU8__strongPU25objcproto14ServerProtocol11objc_objectJU8__strongP12NSDictionaryEE11async_proxyEv
00007ff811525ce8 (__TEXT,__text) non-external (was a private external) __ZN5caulk3xpc7messageIU8__strongPU25objcproto14ServerProtocol11objc_objectJU8__strongP12NSDictionaryEE5replyEv
00007ff811529b6e (__TEXT,__text) non-external (was a private external) __ZN5caulk3xpc7messageIU8__strongPU25objcproto14ServerProtocol11objc_objectJU8__strongP12NSDictionaryEEC2EP15NSXPCConnectionNSt3__18functionIFvP7NSErrorONSB_5tupleIJS7_EEEEEE
00007ff8115297f0 (__TEXT,__text) non-external (was a private external) __ZN5caulk3xpc7messageIU8__strongPU25objcproto14ServerProtocol11objc_objectJU8__strongP12NSDictionaryEED2Ev
00007ff81152a66c (__TEXT,__text) non-external (was a private external) __ZN5caulk3xpc7messageIU8__strongPU25objcproto14ServerProtocol11objc_objectJU8__strongP7NSArrayIP8NSNumberEEEC2EP15NSXPCConnectionNSt3__18functionIFvP7NSErrorONSE_5tupleIJSA_EEEEEE
00007ff811529870 (__TEXT,__text) non-external (was a private external) __ZN5caulk3xpc7messageIU8__strongPU25objcproto14ServerProtocol11objc_objectJU8__strongP7NSArrayIP8NSNumberEEED2Ev
00007ff811527f2a (__TEXT,__text) non-external (was a private external) __ZN5caulk3xpc7messageIU8__strongPU25objcproto14ServerProtocol11objc_objectJbEE10sync_proxyEv
00007ff81152ac34 (__TEXT,__text) non-external (was a private external) __ZN5caulk3xpc7messageIU8__strongPU25objcproto14ServerProtocol11objc_objectJbEEC2EP15NSXPCConnectionNSt3__18functionIFvP7NSErrorONS8_5tupleIJbEEEEEE
00007ff811525e54 (__TEXT,__text) non-external (was a private external) __ZN5caulk3xpc7messageIU8__strongPU37objcproto26CAReportingServiceProtocol11objc_objectJU8__strongP12NSDictionaryEE10sync_proxyEv
00007ff811526cf4 (__TEXT,__text) non-external (was a private external) __ZN5caulk3xpc7messageIU8__strongPU37objcproto26CAReportingServiceProtocol11objc_objectJU8__strongP12NSDictionaryEE11async_proxyEv
00007ff811525fd4 (__TEXT,__text) non-external (was a private external) __ZN5caulk3xpc7messageIU8__strongPU37objcproto26CAReportingServiceProtocol11objc_objectJU8__strongP12NSDictionaryEE5replyEv
00007ff811529f6c (__TEXT,__text) non-external (was a private external) __ZN5caulk3xpc7messageIU8__strongPU37objcproto26CAReportingServiceProtocol11objc_objectJU8__strongP12NSDictionaryEEC2EP15NSXPCConnectionNSt3__18functionIFvP7NSErrorONSB_5tupleIJS7_EEEEEE
00007ff811529830 (__TEXT,__text) non-external (was a private external) __ZN5caulk3xpc7messageIU8__strongPU37objcproto26CAReportingServiceProtocol11objc_objectJU8__strongP12NSDictionaryEED2Ev
00007ff811527370 (__TEXT,__text) non-external (was a private external) __ZN5caulk3xpc7messageIU8__strongPU37objcproto26CAReportingServiceProtocol11objc_objectJU8__strongP7NSArrayIP8NSNumberEEE10sync_proxyEv
00007ff8115274f0 (__TEXT,__text) non-external (was a private external) __ZN5caulk3xpc7messageIU8__strongPU37objcproto26CAReportingServiceProtocol11objc_objectJU8__strongP7NSArrayIP8NSNumberEEE5replyEv
00007ff81152a8d6 (__TEXT,__text) non-external (was a private external) __ZN5caulk3xpc7messageIU8__strongPU37objcproto26CAReportingServiceProtocol11objc_objectJU8__strongP7NSArrayIP8NSNumberEEEC2EP15NSXPCConnectionNSt3__18functionIFvP7NSErrorONSE_5tupleIJSA_EEEEEE
00007ff8115298b0 (__TEXT,__text) non-external (was a private external) __ZN5caulk3xpc7messageIU8__strongPU37objcproto26CAReportingServiceProtocol11objc_objectJU8__strongP7NSArrayIP8NSNumberEEED2Ev
00007ff8115280aa (__TEXT,__text) non-external (was a private external) __ZN5caulk3xpc7messageIU8__strongPU37objcproto26CAReportingServiceProtocol11objc_objectJbEE10sync_proxyEv
00007ff81152822a (__TEXT,__text) non-external (was a private external) __ZN5caulk3xpc7messageIU8__strongPU37objcproto26CAReportingServiceProtocol11objc_objectJbEE5replyEv
00007ff81152af5e (__TEXT,__text) non-external (was a private external) __ZN5caulk3xpc7messageIU8__strongPU37objcproto26CAReportingServiceProtocol11objc_objectJbEEC2EP15NSXPCConnectionNSt3__18functionIFvP7NSErrorONS8_5tupleIJbEEEEEE
00007ff81152cae4 (__TEXT,__text) non-external (was a private external) __ZN5caulk4slog6detail16string_converterC1IPcEERKT_PNSt3__19enable_ifIXsr14has_extract_opIS5_EE5valueEvE4typeE
00007ff811525314 (__TEXT,__text) non-external (was a private external) __ZN5caulk4slog6detail16string_converterC1IU8__strongP8NSStringEERKT_PNSt3__19enable_ifIXsr14has_extract_opIS7_EE5valueEvE4typeE
00007ff81152a528 (__TEXT,__text) non-external __ZNKSt3__110__function6__funcIZ65-[CAReportingClient requestMessageWithID:category:type:callback:]E3$_0NS_9allocatorIS2_EEFvP7NSErrorONS_5tupleIJU8__strongP12NSDictionaryEEEEE11target_typeEv
00007ff81152a50c (__TEXT,__text) non-external __ZNKSt3__110__function6__funcIZ65-[CAReportingClient requestMessageWithID:category:type:callback:]E3$_0NS_9allocatorIS2_EEFvP7NSErrorONS_5tupleIJU8__strongP12NSDictionaryEEEEE6targetERKSt9type_info
00007ff81152a1e4 (__TEXT,__text) non-external __ZNKSt3__110__function6__funcIZ65-[CAReportingClient requestMessageWithID:category:type:callback:]E3$_0NS_9allocatorIS2_EEFvP7NSErrorONS_5tupleIJU8__strongP12NSDictionaryEEEEE7__cloneEPNS0_6__baseISD_EE
00007ff81152a19e (__TEXT,__text) non-external __ZNKSt3__110__function6__funcIZ65-[CAReportingClient requestMessageWithID:category:type:callback:]E3$_0NS_9allocatorIS2_EEFvP7NSErrorONS_5tupleIJU8__strongP12NSDictionaryEEEEE7__cloneEv
00007ff811529c60 (__TEXT,__text) non-external (was a private external) __ZNKSt3__110__function6__funcIZN5caulk3xpc12sync_messageIU8__strongPU25objcproto14ServerProtocol11objc_objectJU8__strongP12NSDictionaryEEC1EP15NSXPCConnectionEUlP7NSErrorONS_5tupleIJSA_EEEE_NS_9allocatorISJ_EEFvSF_SI_EE11target_typeEv
00007ff811529c44 (__TEXT,__text) non-external (was a private external) __ZNKSt3__110__function6__funcIZN5caulk3xpc12sync_messageIU8__strongPU25objcproto14ServerProtocol11objc_objectJU8__strongP12NSDictionaryEEC1EP15NSXPCConnectionEUlP7NSErrorONS_5tupleIJSA_EEEE_NS_9allocatorISJ_EEFvSF_SI_EE6targetERKSt9type_info
00007ff811529c0e (__TEXT,__text) non-external (was a private external) __ZNKSt3__110__function6__funcIZN5caulk3xpc12sync_messageIU8__strongPU25objcproto14ServerProtocol11objc_objectJU8__strongP12NSDictionaryEEC1EP15NSXPCConnectionEUlP7NSErrorONS_5tupleIJSA_EEEE_NS_9allocatorISJ_EEFvSF_SI_EE7__cloneEPNS0_6__baseISM_EE
00007ff811529be2 (__TEXT,__text) non-external (was a private external) __ZNKSt3__110__function6__funcIZN5caulk3xpc12sync_messageIU8__strongPU25objcproto14ServerProtocol11objc_objectJU8__strongP12NSDictionaryEEC1EP15NSXPCConnectionEUlP7NSErrorONS_5tupleIJSA_EEEE_NS_9allocatorISJ_EEFvSF_SI_EE7__cloneEv
00007ff81152a75e (__TEXT,__text) non-external (was a private external) __ZNKSt3__110__function6__funcIZN5caulk3xpc12sync_messageIU8__strongPU25objcproto14ServerProtocol11objc_objectJU8__strongP7NSArrayIP8NSNumberEEEC1EP15NSXPCConnectionEUlP7NSErrorONS_5tupleIJSD_EEEE_NS_9allocatorISM_EEFvSI_SL_EE11target_typeEv
00007ff81152a742 (__TEXT,__text) non-external (was a private external) __ZNKSt3__110__function6__funcIZN5caulk3xpc12sync_messageIU8__strongPU25objcproto14ServerProtocol11objc_objectJU8__strongP7NSArrayIP8NSNumberEEEC1EP15NSXPCConnectionEUlP7NSErrorONS_5tupleIJSD_EEEE_NS_9allocatorISM_EEFvSI_SL_EE6targetERKSt9type_info
00007ff81152a70c (__TEXT,__text) non-external (was a private external) __ZNKSt3__110__function6__funcIZN5caulk3xpc12sync_messageIU8__strongPU25objcproto14ServerProtocol11objc_objectJU8__strongP7NSArrayIP8NSNumberEEEC1EP15NSXPCConnectionEUlP7NSErrorONS_5tupleIJSD_EEEE_NS_9allocatorISM_EEFvSI_SL_EE7__cloneEPNS0_6__baseISP_EE
00007ff81152a6e0 (__TEXT,__text) non-external (was a private external) __ZNKSt3__110__function6__funcIZN5caulk3xpc12sync_messageIU8__strongPU25objcproto14ServerProtocol11objc_objectJU8__strongP7NSArrayIP8NSNumberEEEC1EP15NSXPCConnectionEUlP7NSErrorONS_5tupleIJSD_EEEE_NS_9allocatorISM_EEFvSI_SL_EE7__cloneEv
00007ff81152ad26 (__TEXT,__text) non-external (was a private external) __ZNKSt3__110__function6__funcIZN5caulk3xpc12sync_messageIU8__strongPU25objcproto14ServerProtocol11objc_objectJbEEC1EP15NSXPCConnectionEUlP7NSErrorONS_5tupleIJbEEEE_NS_9allocatorISG_EEFvSC_SF_EE11target_typeEv
00007ff81152ad0a (__TEXT,__text) non-external (was a private external) __ZNKSt3__110__function6__funcIZN5caulk3xpc12sync_messageIU8__strongPU25objcproto14ServerProtocol11objc_objectJbEEC1EP15NSXPCConnectionEUlP7NSErrorONS_5tupleIJbEEEE_NS_9allocatorISG_EEFvSC_SF_EE6targetERKSt9type_info
00007ff81152acd4 (__TEXT,__text) non-external (was a private external) __ZNKSt3__110__function6__funcIZN5caulk3xpc12sync_messageIU8__strongPU25objcproto14ServerProtocol11objc_objectJbEEC1EP15NSXPCConnectionEUlP7NSErrorONS_5tupleIJbEEEE_NS_9allocatorISG_EEFvSC_SF_EE7__cloneEPNS0_6__baseISJ_EE
00007ff81152aca8 (__TEXT,__text) non-external (was a private external) __ZNKSt3__110__function6__funcIZN5caulk3xpc12sync_messageIU8__strongPU25objcproto14ServerProtocol11objc_objectJbEEC1EP15NSXPCConnectionEUlP7NSErrorONS_5tupleIJbEEEE_NS_9allocatorISG_EEFvSC_SF_EE7__cloneEv
00007ff81152a05e (__TEXT,__text) non-external (was a private external) __ZNKSt3__110__function6__funcIZN5caulk3xpc12sync_messageIU8__strongPU37objcproto26CAReportingServiceProtocol11objc_objectJU8__strongP12NSDictionaryEEC1EP15NSXPCConnectionEUlP7NSErrorONS_5tupleIJSA_EEEE_NS_9allocatorISJ_EEFvSF_SI_EE11target_typeEv
00007ff81152a042 (__TEXT,__text) non-external (was a private external) __ZNKSt3__110__function6__funcIZN5caulk3xpc12sync_messageIU8__strongPU37objcproto26CAReportingServiceProtocol11objc_objectJU8__strongP12NSDictionaryEEC1EP15NSXPCConnectionEUlP7NSErrorONS_5tupleIJSA_EEEE_NS_9allocatorISJ_EEFvSF_SI_EE6targetERKSt9type_info
00007ff81152a00c (__TEXT,__text) non-external (was a private external) __ZNKSt3__110__function6__funcIZN5caulk3xpc12sync_messageIU8__strongPU37objcproto26CAReportingServiceProtocol11objc_objectJU8__strongP12NSDictionaryEEC1EP15NSXPCConnectionEUlP7NSErrorONS_5tupleIJSA_EEEE_NS_9allocatorISJ_EEFvSF_SI_EE7__cloneEPNS0_6__baseISM_EE
00007ff811529fe0 (__TEXT,__text) non-external (was a private external) __ZNKSt3__110__function6__funcIZN5caulk3xpc12sync_messageIU8__strongPU37objcproto26CAReportingServiceProtocol11objc_objectJU8__strongP12NSDictionaryEEC1EP15NSXPCConnectionEUlP7NSErrorONS_5tupleIJSA_EEEE_NS_9allocatorISJ_EEFvSF_SI_EE7__cloneEv
00007ff81152a9c8 (__TEXT,__text) non-external (was a private external) __ZNKSt3__110__function6__funcIZN5caulk3xpc12sync_messageIU8__strongPU37objcproto26CAReportingServiceProtocol11objc_objectJU8__strongP7NSArrayIP8NSNumberEEEC1EP15NSXPCConnectionEUlP7NSErrorONS_5tupleIJSD_EEEE_NS_9allocatorISM_EEFvSI_SL_EE11target_typeEv
00007ff81152a9ac (__TEXT,__text) non-external (was a private external) __ZNKSt3__110__function6__funcIZN5caulk3xpc12sync_messageIU8__strongPU37objcproto26CAReportingServiceProtocol11objc_objectJU8__strongP7NSArrayIP8NSNumberEEEC1EP15NSXPCConnectionEUlP7NSErrorONS_5tupleIJSD_EEEE_NS_9allocatorISM_EEFvSI_SL_EE6targetERKSt9type_info
00007ff81152a976 (__TEXT,__text) non-external (was a private external) __ZNKSt3__110__function6__funcIZN5caulk3xpc12sync_messageIU8__strongPU37objcproto26CAReportingServiceProtocol11objc_objectJU8__strongP7NSArrayIP8NSNumberEEEC1EP15NSXPCConnectionEUlP7NSErrorONS_5tupleIJSD_EEEE_NS_9allocatorISM_EEFvSI_SL_EE7__cloneEPNS0_6__baseISP_EE
00007ff81152a94a (__TEXT,__text) non-external (was a private external) __ZNKSt3__110__function6__funcIZN5caulk3xpc12sync_messageIU8__strongPU37objcproto26CAReportingServiceProtocol11objc_objectJU8__strongP7NSArrayIP8NSNumberEEEC1EP15NSXPCConnectionEUlP7NSErrorONS_5tupleIJSD_EEEE_NS_9allocatorISM_EEFvSI_SL_EE7__cloneEv
00007ff81152b050 (__TEXT,__text) non-external (was a private external) __ZNKSt3__110__function6__funcIZN5caulk3xpc12sync_messageIU8__strongPU37objcproto26CAReportingServiceProtocol11objc_objectJbEEC1EP15NSXPCConnectionEUlP7NSErrorONS_5tupleIJbEEEE_NS_9allocatorISG_EEFvSC_SF_EE11target_typeEv
00007ff81152b034 (__TEXT,__text) non-external (was a private external) __ZNKSt3__110__function6__funcIZN5caulk3xpc12sync_messageIU8__strongPU37objcproto26CAReportingServiceProtocol11objc_objectJbEEC1EP15NSXPCConnectionEUlP7NSErrorONS_5tupleIJbEEEE_NS_9allocatorISG_EEFvSC_SF_EE6targetERKSt9type_info
00007ff81152affe (__TEXT,__text) non-external (was a private external) __ZNKSt3__110__function6__funcIZN5caulk3xpc12sync_messageIU8__strongPU37objcproto26CAReportingServiceProtocol11objc_objectJbEEC1EP15NSXPCConnectionEUlP7NSErrorONS_5tupleIJbEEEE_NS_9allocatorISG_EEFvSC_SF_EE7__cloneEPNS0_6__baseISJ_EE
00007ff81152afd2 (__TEXT,__text) non-external (was a private external) __ZNKSt3__110__function6__funcIZN5caulk3xpc12sync_messageIU8__strongPU37objcproto26CAReportingServiceProtocol11objc_objectJbEEC1EP15NSXPCConnectionEUlP7NSErrorONS_5tupleIJbEEEE_NS_9allocatorISG_EEFvSC_SF_EE7__cloneEv
00007ff81152e32c (__TEXT,__text) non-external (was a private external) __ZNKSt3__112basic_stringIcNS_11char_traitsIcEENS_9allocatorIcEEE20__throw_length_errorB7v160006Ev
                 (undefined) external __ZNKSt3__115basic_stringbufIcNS_11char_traitsIcEENS_9allocatorIcEEE3strEv (from libc++)
                 (undefined) external __ZNKSt3__16locale9use_facetERNS0_2idE (from libc++)
00007ff81152de0e (__TEXT,__text) non-external (was a private external) __ZNKSt3__16vectorIP10pc_sessionNS_9allocatorIS2_EEE20__throw_length_errorB7v160006Ev
00007ff811529d62 (__TEXT,__text) non-external (was a private external) __ZNKSt3__18functionIFvP7NSErrorONS_5tupleIJU8__strongP12NSDictionaryEEEEEclES2_S8_
00007ff81152aa7e (__TEXT,__text) non-external (was a private external) __ZNKSt3__18functionIFvP7NSErrorONS_5tupleIJU8__strongP7NSArrayIP8NSNumberEEEEEEclES2_SB_
00007ff81152ae00 (__TEXT,__text) non-external (was a private external) __ZNKSt3__18functionIFvP7NSErrorONS_5tupleIJbEEEEEclES2_S5_
                 (undefined) external __ZNKSt3__18ios_base6getlocEv (from libc++)
                 (undefined) external __ZNKSt9exception4whatEv (from libc++)
                 (undefined) external __ZNSt11logic_errorC2EPKc (from libc++)
00007ff81152de98 (__TEXT,__text) non-external (was a private external) __ZNSt12length_errorC1B7v160006EPKc
                 (undefined) external __ZNSt12length_errorD1Ev (from libc++)
                 (undefined) external __ZNSt20bad_array_new_lengthC1Ev (from libc++)
                 (undefined) external __ZNSt20bad_array_new_lengthD1Ev (from libc++)
00007ff811529cd6 (__TEXT,__text) non-external (was a private external) __ZNSt3__110__function12__value_funcIFvP7NSErrorONS_5tupleIJU8__strongP12NSDictionaryEEEEEC2B7v160006ERKSB_
00007ff81152a7d4 (__TEXT,__text) non-external (was a private external) __ZNSt3__110__function12__value_funcIFvP7NSErrorONS_5tupleIJU8__strongP7NSArrayIP8NSNumberEEEEEEC2B7v160006ERKSE_
00007ff81152ad96 (__TEXT,__text) non-external (was a private external) __ZNSt3__110__function12__value_funcIFvP7NSErrorONS_5tupleIJbEEEEEC2B7v160006ERKS8_
00007ff81152a22e (__TEXT,__text) non-external __ZNSt3__110__function6__funcIZ65-[CAReportingClient requestMessageWithID:category:type:callback:]E3$_0NS_9allocatorIS2_EEFvP7NSErrorONS_5tupleIJU8__strongP12NSDictionaryEEEEE18destroy_deallocateEv
00007ff81152a21e (__TEXT,__text) non-external __ZNSt3__110__function6__funcIZ65-[CAReportingClient requestMessageWithID:category:type:callback:]E3$_0NS_9allocatorIS2_EEFvP7NSErrorONS_5tupleIJU8__strongP12NSDictionaryEEEEE7destroyEv
00007ff81152a17c (__TEXT,__text) non-external __ZNSt3__110__function6__funcIZ65-[CAReportingClient requestMessageWithID:category:type:callback:]E3$_0NS_9allocatorIS2_EEFvP7NSErrorONS_5tupleIJU8__strongP12NSDictionaryEEEEED0Ev
00007ff81152a16c (__TEXT,__text) non-external __ZNSt3__110__function6__funcIZ65-[CAReportingClient requestMessageWithID:category:type:callback:]E3$_0NS_9allocatorIS2_EEFvP7NSErrorONS_5tupleIJU8__strongP12NSDictionaryEEEEED1Ev
00007ff81152a250 (__TEXT,__text) non-external __ZNSt3__110__function6__funcIZ65-[CAReportingClient requestMessageWithID:category:type:callback:]E3$_0NS_9allocatorIS2_EEFvP7NSErrorONS_5tupleIJU8__strongP12NSDictionaryEEEEEclEOU8__strongS6_SC_
00007ff811529c2c (__TEXT,__text) non-external (was a private external) __ZNSt3__110__function6__funcIZN5caulk3xpc12sync_messageIU8__strongPU25objcproto14ServerProtocol11objc_objectJU8__strongP12NSDictionaryEEC1EP15NSXPCConnectionEUlP7NSErrorONS_5tupleIJSA_EEEE_NS_9allocatorISJ_EEFvSF_SI_EE18destroy_deallocateEv
00007ff811529c26 (__TEXT,__text) non-external (was a private external) __ZNSt3__110__function6__funcIZN5caulk3xpc12sync_messageIU8__strongPU25objcproto14ServerProtocol11objc_objectJU8__strongP12NSDictionaryEEC1EP15NSXPCConnectionEUlP7NSErrorONS_5tupleIJSA_EEEE_NS_9allocatorISJ_EEFvSF_SI_EE7destroyEv
00007ff811529bd8 (__TEXT,__text) non-external (was a private external) __ZNSt3__110__function6__funcIZN5caulk3xpc12sync_messageIU8__strongPU25objcproto14ServerProtocol11objc_objectJU8__strongP12NSDictionaryEEC1EP15NSXPCConnectionEUlP7NSErrorONS_5tupleIJSA_EEEE_NS_9allocatorISJ_EEFvSF_SI_EED0Ev
00007ff811529bd2 (__TEXT,__text) non-external (was a private external) __ZNSt3__110__function6__funcIZN5caulk3xpc12sync_messageIU8__strongPU25objcproto14ServerProtocol11objc_objectJU8__strongP12NSDictionaryEEC1EP15NSXPCConnectionEUlP7NSErrorONS_5tupleIJSA_EEEE_NS_9allocatorISJ_EEFvSF_SI_EED1Ev
00007ff811529c36 (__TEXT,__text) non-external (was a private external) __ZNSt3__110__function6__funcIZN5caulk3xpc12sync_messageIU8__strongPU25objcproto14ServerProtocol11objc_objectJU8__strongP12NSDictionaryEEC1EP15NSXPCConnectionEUlP7NSErrorONS_5tupleIJSA_EEEE_NS_9allocatorISJ_EEFvSF_SI_EEclEOU8__strongSF_SI_
00007ff81152a72a (__TEXT,__text) non-external (was a private external) __ZNSt3__110__function6__funcIZN5caulk3xpc12sync_messageIU8__strongPU25objcproto14ServerProtocol11objc_objectJU8__strongP7NSArrayIP8NSNumberEEEC1EP15NSXPCConnectionEUlP7NSErrorONS_5tupleIJSD_EEEE_NS_9allocatorISM_EEFvSI_SL_EE18destroy_deallocateEv
00007ff81152a724 (__TEXT,__text) non-external (was a private external) __ZNSt3__110__function6__funcIZN5caulk3xpc12sync_messageIU8__strongPU25objcproto14ServerProtocol11objc_objectJU8__strongP7NSArrayIP8NSNumberEEEC1EP15NSXPCConnectionEUlP7NSErrorONS_5tupleIJSD_EEEE_NS_9allocatorISM_EEFvSI_SL_EE7destroyEv
00007ff81152a6d6 (__TEXT,__text) non-external (was a private external) __ZNSt3__110__function6__funcIZN5caulk3xpc12sync_messageIU8__strongPU25objcproto14ServerProtocol11objc_objectJU8__strongP7NSArrayIP8NSNumberEEEC1EP15NSXPCConnectionEUlP7NSErrorONS_5tupleIJSD_EEEE_NS_9allocatorISM_EEFvSI_SL_EED0Ev
00007ff81152a6d0 (__TEXT,__text) non-external (was a private external) __ZNSt3__110__function6__funcIZN5caulk3xpc12sync_messageIU8__strongPU25objcproto14ServerProtocol11objc_objectJU8__strongP7NSArrayIP8NSNumberEEEC1EP15NSXPCConnectionEUlP7NSErrorONS_5tupleIJSD_EEEE_NS_9allocatorISM_EEFvSI_SL_EED1Ev
00007ff81152a734 (__TEXT,__text) non-external (was a private external) __ZNSt3__110__function6__funcIZN5caulk3xpc12sync_messageIU8__strongPU25objcproto14ServerProtocol11objc_objectJU8__strongP7NSArrayIP8NSNumberEEEC1EP15NSXPCConnectionEUlP7NSErrorONS_5tupleIJSD_EEEE_NS_9allocatorISM_EEFvSI_SL_EEclEOU8__strongSI_SL_
00007ff81152acf2 (__TEXT,__text) non-external (was a private external) __ZNSt3__110__function6__funcIZN5caulk3xpc12sync_messageIU8__strongPU25objcproto14ServerProtocol11objc_objectJbEEC1EP15NSXPCConnectionEUlP7NSErrorONS_5tupleIJbEEEE_NS_9allocatorISG_EEFvSC_SF_EE18destroy_deallocateEv
00007ff81152acec (__TEXT,__text) non-external (was a private external) __ZNSt3__110__function6__funcIZN5caulk3xpc12sync_messageIU8__strongPU25objcproto14ServerProtocol11objc_objectJbEEC1EP15NSXPCConnectionEUlP7NSErrorONS_5tupleIJbEEEE_NS_9allocatorISG_EEFvSC_SF_EE7destroyEv
00007ff81152ac9e (__TEXT,__text) non-external (was a private external) __ZNSt3__110__function6__funcIZN5caulk3xpc12sync_messageIU8__strongPU25objcproto14ServerProtocol11objc_objectJbEEC1EP15NSXPCConnectionEUlP7NSErrorONS_5tupleIJbEEEE_NS_9allocatorISG_EEFvSC_SF_EED0Ev
00007ff81152ac98 (__TEXT,__text) non-external (was a private external) __ZNSt3__110__function6__funcIZN5caulk3xpc12sync_messageIU8__strongPU25objcproto14ServerProtocol11objc_objectJbEEC1EP15NSXPCConnectionEUlP7NSErrorONS_5tupleIJbEEEE_NS_9allocatorISG_EEFvSC_SF_EED1Ev
00007ff81152acfc (__TEXT,__text) non-external (was a private external) __ZNSt3__110__function6__funcIZN5caulk3xpc12sync_messageIU8__strongPU25objcproto14ServerProtocol11objc_objectJbEEC1EP15NSXPCConnectionEUlP7NSErrorONS_5tupleIJbEEEE_NS_9allocatorISG_EEFvSC_SF_EEclEOU8__strongSC_SF_
00007ff81152a02a (__TEXT,__text) non-external (was a private external) __ZNSt3__110__function6__funcIZN5caulk3xpc12sync_messageIU8__strongPU37objcproto26CAReportingServiceProtocol11objc_objectJU8__strongP12NSDictionaryEEC1EP15NSXPCConnectionEUlP7NSErrorONS_5tupleIJSA_EEEE_NS_9allocatorISJ_EEFvSF_SI_EE18destroy_deallocateEv
00007ff81152a024 (__TEXT,__text) non-external (was a private external) __ZNSt3__110__function6__funcIZN5caulk3xpc12sync_messageIU8__strongPU37objcproto26CAReportingServiceProtocol11objc_objectJU8__strongP12NSDictionaryEEC1EP15NSXPCConnectionEUlP7NSErrorONS_5tupleIJSA_EEEE_NS_9allocatorISJ_EEFvSF_SI_EE7destroyEv
00007ff811529fd6 (__TEXT,__text) non-external (was a private external) __ZNSt3__110__function6__funcIZN5caulk3xpc12sync_messageIU8__strongPU37objcproto26CAReportingServiceProtocol11objc_objectJU8__strongP12NSDictionaryEEC1EP15NSXPCConnectionEUlP7NSErrorONS_5tupleIJSA_EEEE_NS_9allocatorISJ_EEFvSF_SI_EED0Ev
00007ff811529fd0 (__TEXT,__text) non-external (was a private external) __ZNSt3__110__function6__funcIZN5caulk3xpc12sync_messageIU8__strongPU37objcproto26CAReportingServiceProtocol11objc_objectJU8__strongP12NSDictionaryEEC1EP15NSXPCConnectionEUlP7NSErrorONS_5tupleIJSA_EEEE_NS_9allocatorISJ_EEFvSF_SI_EED1Ev
00007ff81152a034 (__TEXT,__text) non-external (was a private external) __ZNSt3__110__function6__funcIZN5caulk3xpc12sync_messageIU8__strongPU37objcproto26CAReportingServiceProtocol11objc_objectJU8__strongP12NSDictionaryEEC1EP15NSXPCConnectionEUlP7NSErrorONS_5tupleIJSA_EEEE_NS_9allocatorISJ_EEFvSF_SI_EEclEOU8__strongSF_SI_
00007ff81152a994 (__TEXT,__text) non-external (was a private external) __ZNSt3__110__function6__funcIZN5caulk3xpc12sync_messageIU8__strongPU37objcproto26CAReportingServiceProtocol11objc_objectJU8__strongP7NSArrayIP8NSNumberEEEC1EP15NSXPCConnectionEUlP7NSErrorONS_5tupleIJSD_EEEE_NS_9allocatorISM_EEFvSI_SL_EE18destroy_deallocateEv
00007ff81152a98e (__TEXT,__text) non-external (was a private external) __ZNSt3__110__function6__funcIZN5caulk3xpc12sync_messageIU8__strongPU37objcproto26CAReportingServiceProtocol11objc_objectJU8__strongP7NSArrayIP8NSNumberEEEC1EP15NSXPCConnectionEUlP7NSErrorONS_5tupleIJSD_EEEE_NS_9allocatorISM_EEFvSI_SL_EE7destroyEv
00007ff81152a940 (__TEXT,__text) non-external (was a private external) __ZNSt3__110__function6__funcIZN5caulk3xpc12sync_messageIU8__strongPU37objcproto26CAReportingServiceProtocol11objc_objectJU8__strongP7NSArrayIP8NSNumberEEEC1EP15NSXPCConnectionEUlP7NSErrorONS_5tupleIJSD_EEEE_NS_9allocatorISM_EEFvSI_SL_EED0Ev
00007ff81152a93a (__TEXT,__text) non-external (was a private external) __ZNSt3__110__function6__funcIZN5caulk3xpc12sync_messageIU8__strongPU37objcproto26CAReportingServiceProtocol11objc_objectJU8__strongP7NSArrayIP8NSNumberEEEC1EP15NSXPCConnectionEUlP7NSErrorONS_5tupleIJSD_EEEE_NS_9allocatorISM_EEFvSI_SL_EED1Ev
00007ff81152a99e (__TEXT,__text) non-external (was a private external) __ZNSt3__110__function6__funcIZN5caulk3xpc12sync_messageIU8__strongPU37objcproto26CAReportingServiceProtocol11objc_objectJU8__strongP7NSArrayIP8NSNumberEEEC1EP15NSXPCConnectionEUlP7NSErrorONS_5tupleIJSD_EEEE_NS_9allocatorISM_EEFvSI_SL_EEclEOU8__strongSI_SL_
00007ff81152b01c (__TEXT,__text) non-external (was a private external) __ZNSt3__110__function6__funcIZN5caulk3xpc12sync_messageIU8__strongPU37objcproto26CAReportingServiceProtocol11objc_objectJbEEC1EP15NSXPCConnectionEUlP7NSErrorONS_5tupleIJbEEEE_NS_9allocatorISG_EEFvSC_SF_EE18destroy_deallocateEv
00007ff81152b016 (__TEXT,__text) non-external (was a private external) __ZNSt3__110__function6__funcIZN5caulk3xpc12sync_messageIU8__strongPU37objcproto26CAReportingServiceProtocol11objc_objectJbEEC1EP15NSXPCConnectionEUlP7NSErrorONS_5tupleIJbEEEE_NS_9allocatorISG_EEFvSC_SF_EE7destroyEv
00007ff81152afc8 (__TEXT,__text) non-external (was a private external) __ZNSt3__110__function6__funcIZN5caulk3xpc12sync_messageIU8__strongPU37objcproto26CAReportingServiceProtocol11objc_objectJbEEC1EP15NSXPCConnectionEUlP7NSErrorONS_5tupleIJbEEEE_NS_9allocatorISG_EEFvSC_SF_EED0Ev
00007ff81152afc2 (__TEXT,__text) non-external (was a private external) __ZNSt3__110__function6__funcIZN5caulk3xpc12sync_messageIU8__strongPU37objcproto26CAReportingServiceProtocol11objc_objectJbEEC1EP15NSXPCConnectionEUlP7NSErrorONS_5tupleIJbEEEE_NS_9allocatorISG_EEFvSC_SF_EED1Ev
00007ff81152b026 (__TEXT,__text) non-external (was a private external) __ZNSt3__110__function6__funcIZN5caulk3xpc12sync_messageIU8__strongPU37objcproto26CAReportingServiceProtocol11objc_objectJbEEC1EP15NSXPCConnectionEUlP7NSErrorONS_5tupleIJbEEEE_NS_9allocatorISG_EEFvSC_SF_EEclEOU8__strongSC_SF_
                 (undefined) external __ZNSt3__112basic_stringIcNS_11char_traitsIcEENS_9allocatorIcEEEC1ERKS5_ (from libc++)
00007ff81152e2b4 (__TEXT,__text) non-external (was a private external) __ZNSt3__112basic_stringIcNS_11char_traitsIcEENS_9allocatorIcEEEC2B7v160006Emc
                 (undefined) external __ZNSt3__113basic_ostreamIcNS_11char_traitsIcEEE6sentryC1ERS3_ (from libc++)
                 (undefined) external __ZNSt3__113basic_ostreamIcNS_11char_traitsIcEEE6sentryD1Ev (from libc++)
                 (undefined) external __ZNSt3__113basic_ostreamIcNS_11char_traitsIcEEED2Ev (from libc++)
                 (undefined) external __ZNSt3__113basic_ostreamIcNS_11char_traitsIcEEElsEb (from libc++)
                 (undefined) external __ZNSt3__115basic_streambufIcNS_11char_traitsIcEEEC2Ev (from libc++)
                 (undefined) external __ZNSt3__115basic_streambufIcNS_11char_traitsIcEEED2Ev (from libc++)
00007ff81152e1a9 (__TEXT,__text) non-external (was a private external) __ZNSt3__116__pad_and_outputB7v160006IcNS_11char_traitsIcEEEENS_19ostreambuf_iteratorIT_T0_EES6_PKS4_S8_S8_RNS_8ios_baseES4_
00007ff811529e42 (__TEXT,__text) non-external (was a private external) __ZNSt3__117bad_function_callD0Ev
00007ff811529e38 (__TEXT,__text) non-external (was a private external) __ZNSt3__117bad_function_callD1Ev
00007ff81152de1e (__TEXT,__text) non-external (was a private external) __ZNSt3__119__allocate_at_leastB7v160006INS_9allocatorIP10pc_sessionEEEENS_19__allocation_resultINS_16allocator_traitsIT_E7pointerEEERS7_m
00007ff8115299d4 (__TEXT,__text) non-external (was a private external) __ZNSt3__119basic_ostringstreamIcNS_11char_traitsIcEENS_9allocatorIcEEEC1B7v160006Ev
00007ff81152dfe4 (__TEXT,__text) non-external (was a private external) __ZNSt3__119basic_ostringstreamIcNS_11char_traitsIcEENS_9allocatorIcEEED1Ev
00007ff81152de4c (__TEXT,__text) non-external (was a private external) __ZNSt3__120__throw_length_errorB7v160006EPKc
00007ff81152e059 (__TEXT,__text) non-external (was a private external) __ZNSt3__124__put_character_sequenceB7v160006IcNS_11char_traitsIcEEEERNS_13basic_ostreamIT_T0_EES7_PKS4_m
00007ff811529e06 (__TEXT,__text) non-external (was a private external) __ZNSt3__125__throw_bad_function_callB7v160006Ev
00007ff811529c6e (__TEXT,__text) non-external (was a private external) __ZNSt3__128__invoke_void_return_wrapperIvLb1EE6__callIJRZN5caulk3xpc12sync_messageIU8__strongPU25objcproto14ServerProtocol11objc_objectJU8__strongP12NSDictionaryEEC1EP15NSXPCConnectionEUlP7NSErrorONS_5tupleIJSB_EEEE_U8__strongSG_SI_EEEvDpOT_
00007ff81152a76c (__TEXT,__text) non-external (was a private external) __ZNSt3__128__invoke_void_return_wrapperIvLb1EE6__callIJRZN5caulk3xpc12sync_messageIU8__strongPU25objcproto14ServerProtocol11objc_objectJU8__strongP7NSArrayIP8NSNumberEEEC1EP15NSXPCConnectionEUlP7NSErrorONS_5tupleIJSE_EEEE_U8__strongSJ_SL_EEEvDpOT_
00007ff81152ad34 (__TEXT,__text) non-external (was a private external) __ZNSt3__128__invoke_void_return_wrapperIvLb1EE6__callIJRZN5caulk3xpc12sync_messageIU8__strongPU25objcproto14ServerProtocol11objc_objectJbEEC1EP15NSXPCConnectionEUlP7NSErrorONS_5tupleIJbEEEE_U8__strongSD_SF_EEEvDpOT_
00007ff81152a06c (__TEXT,__text) non-external (was a private external) __ZNSt3__128__invoke_void_return_wrapperIvLb1EE6__callIJRZN5caulk3xpc12sync_messageIU8__strongPU37objcproto26CAReportingServiceProtocol11objc_objectJU8__strongP12NSDictionaryEEC1EP15NSXPCConnectionEUlP7NSErrorONS_5tupleIJSB_EEEE_U8__strongSG_SI_EEEvDpOT_
00007ff81152a9d6 (__TEXT,__text) non-external (was a private external) __ZNSt3__128__invoke_void_return_wrapperIvLb1EE6__callIJRZN5caulk3xpc12sync_messageIU8__strongPU37objcproto26CAReportingServiceProtocol11objc_objectJU8__strongP7NSArrayIP8NSNumberEEEC1EP15NSXPCConnectionEUlP7NSErrorONS_5tupleIJSE_EEEE_U8__strongSJ_SL_EEEvDpOT_
00007ff81152b05e (__TEXT,__text) non-external (was a private external) __ZNSt3__128__invoke_void_return_wrapperIvLb1EE6__callIJRZN5caulk3xpc12sync_messageIU8__strongPU37objcproto26CAReportingServiceProtocol11objc_objectJbEEC1EP15NSXPCConnectionEUlP7NSErrorONS_5tupleIJbEEEE_U8__strongSD_SF_EEEvDpOT_
                 (undefined) external __ZNSt3__15ctypeIcE2idE (from libc++)
                 (undefined) external __ZNSt3__16localeD1Ev (from libc++)
00007ff81152ddd4 (__TEXT,__text) non-external (was a private external) __ZNSt3__16vectorIP10pc_sessionNS_9allocatorIS2_EEE11__vallocateB7v160006Em
00007ff81152dc9c (__TEXT,__text) non-external (was a private external) __ZNSt3__16vectorIP10pc_sessionNS_9allocatorIS2_EEE6assignIPS2_Li0EEEvT_S8_
00007ff81152cb5c (__TEXT,__text) non-external (was a private external) __ZNSt3__16vectorIP10pc_sessionNS_9allocatorIS2_EEE7reserveEm
                 (undefined) external __ZNSt3__18ios_base33__set_badbit_and_consider_rethrowEv (from libc++)
                 (undefined) external __ZNSt3__18ios_base4initEPv (from libc++)
                 (undefined) external __ZNSt3__18ios_base5clearEj (from libc++)
                 (undefined) external __ZNSt3__19basic_iosIcNS_11char_traitsIcEEED2Ev (from libc++)
                 (undefined) external __ZNSt9exceptionD2Ev (from libc++)
00007ff81152debb (__TEXT,__text) non-external (was a private external) __ZSt28__throw_bad_array_new_lengthB7v160006v
                 (undefined) external __ZSt9terminatev (from libc++)
00007ff843211330 (__DATA_CONST,__const) non-external (was a private external) __ZTINSt3__110__function6__baseIFvP7NSErrorONS_5tupleIJU8__strongP12NSDictionaryEEEEEE
00007ff843211560 (__DATA_CONST,__const) non-external (was a private external) __ZTINSt3__110__function6__baseIFvP7NSErrorONS_5tupleIJU8__strongP7NSArrayIP8NSNumberEEEEEEE
00007ff8432116d0 (__DATA_CONST,__const) non-external (was a private external) __ZTINSt3__110__function6__baseIFvP7NSErrorONS_5tupleIJbEEEEEE
00007ff8432114e0 (__DATA_CONST,__const) non-external __ZTINSt3__110__function6__funcIZ65-[CAReportingClient requestMessageWithID:category:type:callback:]E3$_0NS_9allocatorIS2_EEFvP7NSErrorONS_5tupleIJU8__strongP12NSDictionaryEEEEEE
00007ff843211340 (__DATA_CONST,__const) non-external (was a private external) __ZTINSt3__110__function6__funcIZN5caulk3xpc12sync_messageIU8__strongPU25objcproto14ServerProtocol11objc_objectJU8__strongP12NSDictionaryEEC1EP15NSXPCConnectionEUlP7NSErrorONS_5tupleIJSA_EEEE_NS_9allocatorISJ_EEFvSF_SI_EEE
00007ff843211570 (__DATA_CONST,__const) non-external (was a private external) __ZTINSt3__110__function6__funcIZN5caulk3xpc12sync_messageIU8__strongPU25objcproto14ServerProtocol11objc_objectJU8__strongP7NSArrayIP8NSNumberEEEC1EP15NSXPCConnectionEUlP7NSErrorONS_5tupleIJSD_EEEE_NS_9allocatorISM_EEFvSI_SL_EEE
00007ff8432116e0 (__DATA_CONST,__const) non-external (was a private external) __ZTINSt3__110__function6__funcIZN5caulk3xpc12sync_messageIU8__strongPU25objcproto14ServerProtocol11objc_objectJbEEC1EP15NSXPCConnectionEUlP7NSErrorONS_5tupleIJbEEEE_NS_9allocatorISG_EEFvSC_SF_EEE
00007ff843211460 (__DATA_CONST,__const) non-external (was a private external) __ZTINSt3__110__function6__funcIZN5caulk3xpc12sync_messageIU8__strongPU37objcproto26CAReportingServiceProtocol11objc_objectJU8__strongP12NSDictionaryEEC1EP15NSXPCConnectionEUlP7NSErrorONS_5tupleIJSA_EEEE_NS_9allocatorISJ_EEFvSF_SI_EEE
00007ff8432115f0 (__DATA_CONST,__const) non-external (was a private external) __ZTINSt3__110__function6__funcIZN5caulk3xpc12sync_messageIU8__strongPU37objcproto26CAReportingServiceProtocol11objc_objectJU8__strongP7NSArrayIP8NSNumberEEEC1EP15NSXPCConnectionEUlP7NSErrorONS_5tupleIJSD_EEEE_NS_9allocatorISM_EEFvSI_SL_EEE
00007ff843211790 (__DATA_CONST,__const) non-external (was a private external) __ZTINSt3__110__function6__funcIZN5caulk3xpc12sync_messageIU8__strongPU37objcproto26CAReportingServiceProtocol11objc_objectJbEEC1EP15NSXPCConnectionEUlP7NSErrorONS_5tupleIJbEEEE_NS_9allocatorISG_EEFvSC_SF_EEE
00007ff843211398 (__DATA_CONST,__const) non-external (was a private external) __ZTINSt3__117bad_function_callE
                 (undefined) weak external __ZTISt12length_error (from libc++)
                 (undefined) external __ZTISt20bad_array_new_length (from libc++)
                 (undefined) external __ZTISt9exception (from libc++)
00007ff8432114f8 (__DATA_CONST,__const) non-external __ZTIZ65-[CAReportingClient requestMessageWithID:category:type:callback:]E3$_0
00007ff843211358 (__DATA_CONST,__const) non-external (was a private external) __ZTIZN5caulk3xpc12sync_messageIU8__strongPU25objcproto14ServerProtocol11objc_objectJU8__strongP12NSDictionaryEEC1EP15NSXPCConnectionEUlP7NSErrorONSt3__15tupleIJS7_EEEE_
00007ff843211588 (__DATA_CONST,__const) non-external (was a private external) __ZTIZN5caulk3xpc12sync_messageIU8__strongPU25objcproto14ServerProtocol11objc_objectJU8__strongP7NSArrayIP8NSNumberEEEC1EP15NSXPCConnectionEUlP7NSErrorONSt3__15tupleIJSA_EEEE_
00007ff8432116f8 (__DATA_CONST,__const) non-external (was a private external) __ZTIZN5caulk3xpc12sync_messageIU8__strongPU25objcproto14ServerProtocol11objc_objectJbEEC1EP15NSXPCConnectionEUlP7NSErrorONSt3__15tupleIJbEEEE_
00007ff843211478 (__DATA_CONST,__const) non-external (was a private external) __ZTIZN5caulk3xpc12sync_messageIU8__strongPU37objcproto26CAReportingServiceProtocol11objc_objectJU8__strongP12NSDictionaryEEC1EP15NSXPCConnectionEUlP7NSErrorONSt3__15tupleIJS7_EEEE_
00007ff843211608 (__DATA_CONST,__const) non-external (was a private external) __ZTIZN5caulk3xpc12sync_messageIU8__strongPU37objcproto26CAReportingServiceProtocol11objc_objectJU8__strongP7NSArrayIP8NSNumberEEEC1EP15NSXPCConnectionEUlP7NSErrorONSt3__15tupleIJSA_EEEE_
00007ff8432117a8 (__DATA_CONST,__const) non-external (was a private external) __ZTIZN5caulk3xpc12sync_messageIU8__strongPU37objcproto26CAReportingServiceProtocol11objc_objectJbEEC1EP15NSXPCConnectionEUlP7NSErrorONSt3__15tupleIJbEEEE_
00007ff811530aba (__TEXT,__const) non-external (was a private external) __ZTSNSt3__110__function6__baseIFvP7NSErrorONS_5tupleIJU8__strongP12NSDictionaryEEEEEE
00007ff811530f3c (__TEXT,__const) non-external (was a private external) __ZTSNSt3__110__function6__baseIFvP7NSErrorONS_5tupleIJU8__strongP7NSArrayIP8NSNumberEEEEEEE
00007ff8115312a2 (__TEXT,__const) non-external (was a private external) __ZTSNSt3__110__function6__baseIFvP7NSErrorONS_5tupleIJbEEEEEE
00007ff811530d64 (__TEXT,__const) non-external __ZTSNSt3__110__function6__funcIZ65-[CAReportingClient requestMessageWithID:category:type:callback:]E3$_0NS_9allocatorIS2_EEFvP7NSErrorONS_5tupleIJU8__strongP12NSDictionaryEEEEEE
00007ff8115309e0 (__TEXT,__const) non-external (was a private external) __ZTSNSt3__110__function6__funcIZN5caulk3xpc12sync_messageIU8__strongPU25objcproto14ServerProtocol11objc_objectJU8__strongP12NSDictionaryEEC1EP15NSXPCConnectionEUlP7NSErrorONS_5tupleIJSA_EEEE_NS_9allocatorISJ_EEFvSF_SI_EEE
00007ff811530e5c (__TEXT,__const) non-external (was a private external) __ZTSNSt3__110__function6__funcIZN5caulk3xpc12sync_messageIU8__strongPU25objcproto14ServerProtocol11objc_objectJU8__strongP7NSArrayIP8NSNumberEEEC1EP15NSXPCConnectionEUlP7NSErrorONS_5tupleIJSD_EEEE_NS_9allocatorISM_EEFvSI_SL_EEE
00007ff8115311e2 (__TEXT,__const) non-external (was a private external) __ZTSNSt3__110__function6__funcIZN5caulk3xpc12sync_messageIU8__strongPU25objcproto14ServerProtocol11objc_objectJbEEC1EP15NSXPCConnectionEUlP7NSErrorONS_5tupleIJbEEEE_NS_9allocatorISG_EEFvSC_SF_EEE
00007ff811530bcd (__TEXT,__const) non-external (was a private external) __ZTSNSt3__110__function6__funcIZN5caulk3xpc12sync_messageIU8__strongPU37objcproto26CAReportingServiceProtocol11objc_objectJU8__strongP12NSDictionaryEEC1EP15NSXPCConnectionEUlP7NSErrorONS_5tupleIJSA_EEEE_NS_9allocatorISJ_EEFvSF_SI_EEE
00007ff81153103f (__TEXT,__const) non-external (was a private external) __ZTSNSt3__110__function6__funcIZN5caulk3xpc12sync_messageIU8__strongPU37objcproto26CAReportingServiceProtocol11objc_objectJU8__strongP7NSArrayIP8NSNumberEEEC1EP15NSXPCConnectionEUlP7NSErrorONS_5tupleIJSD_EEEE_NS_9allocatorISM_EEFvSI_SL_EEE
00007ff811531367 (__TEXT,__const) non-external (was a private external) __ZTSNSt3__110__function6__funcIZN5caulk3xpc12sync_messageIU8__strongPU37objcproto26CAReportingServiceProtocol11objc_objectJbEEC1EP15NSXPCConnectionEUlP7NSErrorONS_5tupleIJbEEEE_NS_9allocatorISG_EEFvSC_SF_EEE
00007ff811530bb1 (__TEXT,__const) non-external (was a private external) __ZTSNSt3__117bad_function_callE
00007ff811530e12 (__TEXT,__const) non-external __ZTSZ65-[CAReportingClient requestMessageWithID:category:type:callback:]E3$_0
00007ff811530b0c (__TEXT,__const) non-external (was a private external) __ZTSZN5caulk3xpc12sync_messageIU8__strongPU25objcproto14ServerProtocol11objc_objectJU8__strongP12NSDictionaryEEC1EP15NSXPCConnectionEUlP7NSErrorONSt3__15tupleIJS7_EEEE_
00007ff811530f94 (__TEXT,__const) non-external (was a private external) __ZTSZN5caulk3xpc12sync_messageIU8__strongPU25objcproto14ServerProtocol11objc_objectJU8__strongP7NSArrayIP8NSNumberEEEC1EP15NSXPCConnectionEUlP7NSErrorONSt3__15tupleIJSA_EEEE_
00007ff8115312dc (__TEXT,__const) non-external (was a private external) __ZTSZN5caulk3xpc12sync_messageIU8__strongPU25objcproto14ServerProtocol11objc_objectJbEEC1EP15NSXPCConnectionEUlP7NSErrorONSt3__15tupleIJbEEEE_
00007ff811530cb3 (__TEXT,__const) non-external (was a private external) __ZTSZN5caulk3xpc12sync_messageIU8__strongPU37objcproto26CAReportingServiceProtocol11objc_objectJU8__strongP12NSDictionaryEEC1EP15NSXPCConnectionEUlP7NSErrorONSt3__15tupleIJS7_EEEE_
00007ff81153112b (__TEXT,__const) non-external (was a private external) __ZTSZN5caulk3xpc12sync_messageIU8__strongPU37objcproto26CAReportingServiceProtocol11objc_objectJU8__strongP7NSArrayIP8NSNumberEEEC1EP15NSXPCConnectionEUlP7NSErrorONSt3__15tupleIJSA_EEEE_
00007ff811531433 (__TEXT,__const) non-external (was a private external) __ZTSZN5caulk3xpc12sync_messageIU8__strongPU37objcproto26CAReportingServiceProtocol11objc_objectJbEEC1EP15NSXPCConnectionEUlP7NSErrorONSt3__15tupleIJbEEEE_
                 (undefined) external __ZTTNSt3__119basic_ostringstreamIcNS_11char_traitsIcEENS_9allocatorIcEEEE (from libc++)
                 (undefined) external __ZTVN10__cxxabiv117__class_type_infoE (from libc++)
                 (undefined) external __ZTVN10__cxxabiv120__si_class_type_infoE (from libc++)
00007ff843211488 (__DATA_CONST,__const) non-external __ZTVNSt3__110__function6__funcIZ65-[CAReportingClient requestMessageWithID:category:type:callback:]E3$_0NS_9allocatorIS2_EEFvP7NSErrorONS_5tupleIJU8__strongP12NSDictionaryEEEEEE
00007ff8432112d8 (__DATA_CONST,__const) non-external (was a private external) __ZTVNSt3__110__function6__funcIZN5caulk3xpc12sync_messageIU8__strongPU25objcproto14ServerProtocol11objc_objectJU8__strongP12NSDictionaryEEC1EP15NSXPCConnectionEUlP7NSErrorONS_5tupleIJSA_EEEE_NS_9allocatorISJ_EEFvSF_SI_EEE
00007ff843211508 (__DATA_CONST,__const) non-external (was a private external) __ZTVNSt3__110__function6__funcIZN5caulk3xpc12sync_messageIU8__strongPU25objcproto14ServerProtocol11objc_objectJU8__strongP7NSArrayIP8NSNumberEEEC1EP15NSXPCConnectionEUlP7NSErrorONS_5tupleIJSD_EEEE_NS_9allocatorISM_EEFvSI_SL_EEE
00007ff843211678 (__DATA_CONST,__const) non-external (was a private external) __ZTVNSt3__110__function6__funcIZN5caulk3xpc12sync_messageIU8__strongPU25objcproto14ServerProtocol11objc_objectJbEEC1EP15NSXPCConnectionEUlP7NSErrorONS_5tupleIJbEEEE_NS_9allocatorISG_EEFvSC_SF_EEE
00007ff843211408 (__DATA_CONST,__const) non-external (was a private external) __ZTVNSt3__110__function6__funcIZN5caulk3xpc12sync_messageIU8__strongPU37objcproto26CAReportingServiceProtocol11objc_objectJU8__strongP12NSDictionaryEEC1EP15NSXPCConnectionEUlP7NSErrorONS_5tupleIJSA_EEEE_NS_9allocatorISJ_EEFvSF_SI_EEE
00007ff843211598 (__DATA_CONST,__const) non-external (was a private external) __ZTVNSt3__110__function6__funcIZN5caulk3xpc12sync_messageIU8__strongPU37objcproto26CAReportingServiceProtocol11objc_objectJU8__strongP7NSArrayIP8NSNumberEEEC1EP15NSXPCConnectionEUlP7NSErrorONS_5tupleIJSD_EEEE_NS_9allocatorISM_EEFvSI_SL_EEE
00007ff843211738 (__DATA_CONST,__const) non-external (was a private external) __ZTVNSt3__110__function6__funcIZN5caulk3xpc12sync_messageIU8__strongPU37objcproto26CAReportingServiceProtocol11objc_objectJbEEC1EP15NSXPCConnectionEUlP7NSErrorONS_5tupleIJbEEEE_NS_9allocatorISG_EEFvSC_SF_EEE
                 (undefined) external __ZTVNSt3__115basic_stringbufIcNS_11char_traitsIcEENS_9allocatorIcEEEE (from libc++)
00007ff8432113b0 (__DATA_CONST,__const) non-external (was a private external) __ZTVNSt3__117bad_function_callE
                 (undefined) external __ZTVNSt3__119basic_ostringstreamIcNS_11char_traitsIcEENS_9allocatorIcEEEE (from libc++)
                 (undefined) external __ZTVSt12length_error (from libc++)
00007ff8426feea8 (__DATA,__bss) non-external __ZZ17AA_ClientCategoryvE8category
00007ff8426feec0 (__DATA,__bss) non-external __ZZ29AA_PerformanceUtilityCategoryvE8category
00007ff843969fe0 (__DATA_DIRTY,__bss) non-external __ZZ33CAReportingUtilityIsInternalBuildE29gCAReportingUtilityIsInternal
00007ff843969fd8 (__DATA_DIRTY,__bss) non-external __ZZ33CAReportingUtilityIsInternalBuildE4once
00007ff8426feee8 (__DATA,__bss) non-external __ZZ41CAReportingUtilityGetReportingServerQueueE21gReportingServerQueue
00007ff8426feef0 (__DATA,__bss) non-external __ZZ41CAReportingUtilityGetReportingServerQueueE9onceToken
00007ff8426feea0 (__DATA,__bss) non-external __ZZ57-[CAReportingClient sendMessage:category:type:reporters:]E20gCAReportingIsDarwin
00007ff8426fee98 (__DATA,__bss) non-external __ZZ57-[CAReportingClient sendMessage:category:type:reporters:]E4once
00007ff8426feee0 (__DATA,__bss) non-external __ZZ62-[CAReportingPerformanceObject endAndReturnPerformanceMetrics]E17perfWriterEnabled
00007ff8426feed8 (__DATA,__bss) non-external __ZZ62-[CAReportingPerformanceObject endAndReturnPerformanceMetrics]E4once
00007ff81152deec (__TEXT,__text) non-external (was a private external) __ZZN5caulk4slog6detail16string_converterC1IPcEERKT_PNSt3__19enable_ifIXsr14has_extract_opIS5_EE5valueEvE4typeEENKUlvE_clEv
00007ff8115298f0 (__TEXT,__text) non-external (was a private external) __ZZN5caulk4slog6detail16string_converterC1IU8__strongP8NSStringEERKT_PNSt3__19enable_ifIXsr14has_extract_opIS7_EE5valueEvE4typeEENKUlvE_clEv
                 (undefined) weak external __ZdlPv (from libc++)
                 (undefined) weak external __Znwm (from libc++)
00007ff81152538c (__TEXT,__text) non-external ___42-[CAReportingClient initWithXPC:endpoint:]_block_invoke
00007ff81152549f (__TEXT,__text) non-external ___42-[CAReportingClient initWithXPC:endpoint:]_block_invoke.278
00007ff811522d44 (__TEXT,__text) non-external ___57-[CAReportingClient sendMessage:category:type:reporters:]_block_invoke
00007ff811528d4c (__TEXT,__text) non-external ___57-[CAReportingClient sendMessage:category:type:reporters:]_block_invoke_2
00007ff81152d4e0 (__TEXT,__text) non-external ___62-[CAReportingPerformanceObject endAndReturnPerformanceMetrics]_block_invoke
00007ff81152d4ff (__TEXT,__text) non-external ___62-[CAReportingPerformanceObject endAndReturnPerformanceMetrics]_block_invoke.42
00007ff81152d4bb (__TEXT,__text) non-external ___Block_byref_object_copy_
00007ff81152d4d1 (__TEXT,__text) non-external ___Block_byref_object_dispose_
00007ff81152eb92 (__TEXT,__text) non-external ___CAReportingUtilityGetReportingServerQueue_block_invoke
00007ff8115211a4 (__TEXT,__text) non-external ___CAReportingUtilityIsInternalBuild_block_invoke
                 (undefined) external ___CFConstantStringClassReference (from CoreFoundation)
                 (undefined) external ___NSArray0__struct (from CoreFoundation)
00007ff811529d22 (__TEXT,__text) non-external ____ZN5caulk3xpc7messageIU8__strongPU25objcproto14ServerProtocol11objc_objectJU8__strongP12NSDictionaryEE10sync_proxyEv_block_invoke
00007ff81152a535 (__TEXT,__text) non-external ____ZN5caulk3xpc7messageIU8__strongPU25objcproto14ServerProtocol11objc_objectJU8__strongP12NSDictionaryEE11async_proxyEv_block_invoke
00007ff811529e5e (__TEXT,__text) non-external ____ZN5caulk3xpc7messageIU8__strongPU25objcproto14ServerProtocol11objc_objectJU8__strongP12NSDictionaryEE5replyEv_block_invoke
00007ff81152ade2 (__TEXT,__text) non-external ____ZN5caulk3xpc7messageIU8__strongPU25objcproto14ServerProtocol11objc_objectJbEE10sync_proxyEv_block_invoke
00007ff81152a0d3 (__TEXT,__text) non-external ____ZN5caulk3xpc7messageIU8__strongPU37objcproto26CAReportingServiceProtocol11objc_objectJU8__strongP12NSDictionaryEE10sync_proxyEv_block_invoke
00007ff81152a575 (__TEXT,__text) non-external ____ZN5caulk3xpc7messageIU8__strongPU37objcproto26CAReportingServiceProtocol11objc_objectJU8__strongP12NSDictionaryEE11async_proxyEv_block_invoke
00007ff81152a113 (__TEXT,__text) non-external ____ZN5caulk3xpc7messageIU8__strongPU37objcproto26CAReportingServiceProtocol11objc_objectJU8__strongP12NSDictionaryEE5replyEv_block_invoke
00007ff81152aa3d (__TEXT,__text) non-external ____ZN5caulk3xpc7messageIU8__strongPU37objcproto26CAReportingServiceProtocol11objc_objectJU8__strongP7NSArrayIP8NSNumberEEE10sync_proxyEv_block_invoke
00007ff81152ab22 (__TEXT,__text) non-external ____ZN5caulk3xpc7messageIU8__strongPU37objcproto26CAReportingServiceProtocol11objc_objectJU8__strongP7NSArrayIP8NSNumberEEE5replyEv_block_invoke
00007ff81152b0bf (__TEXT,__text) non-external ____ZN5caulk3xpc7messageIU8__strongPU37objcproto26CAReportingServiceProtocol11objc_objectJbEE10sync_proxyEv_block_invoke
00007ff81152b0dd (__TEXT,__text) non-external ____ZN5caulk3xpc7messageIU8__strongPU37objcproto26CAReportingServiceProtocol11objc_objectJbEE5replyEv_block_invoke
00007ff843211248 (__DATA_CONST,__const) non-external (was a private external) ___block_descriptor_32_e5_v8?0l
00007ff8432112a8 (__DATA_CONST,__const) non-external (was a private external) ___block_descriptor_40_ea8_32s_e19_"NSDictionary"8?0l
00007ff843211218 (__DATA_CONST,__const) non-external (was a private external) ___block_descriptor_40_ea8_32w_e5_v8?0l
00007ff843211808 (__DATA_CONST,__const) non-external (was a private external) ___block_descriptor_48_ea8_32s40r_e32_v64?0i8r*12i20Q24r*32d40Q48^v56l
00007ff843211708 (__DATA_CONST,__const) non-external (was a private external) ___block_descriptor_80_ea16_32c51_ZTSNSt3__18functionIFvP7NSErrorONS_5tupleIJbEEEEEE_e17_v16?0"NSError"8l
00007ff8432117b8 (__DATA_CONST,__const) non-external (was a private external) ___block_descriptor_80_ea16_32c51_ZTSNSt3__18functionIFvP7NSErrorONS_5tupleIJbEEEEEE_e20_v20?0"NSError"8B16l
00007ff843211368 (__DATA_CONST,__const) non-external (was a private external) ___block_descriptor_80_ea16_32c75_ZTSNSt3__18functionIFvP7NSErrorONS_5tupleIJU8__strongP12NSDictionaryEEEEEE_e17_v16?0"NSError"8l
00007ff8432113d8 (__DATA_CONST,__const) non-external (was a private external) ___block_descriptor_80_ea16_32c75_ZTSNSt3__18functionIFvP7NSErrorONS_5tupleIJU8__strongP12NSDictionaryEEEEEE_e34_v24?0"NSError"8"NSDictionary"16l
00007ff843211618 (__DATA_CONST,__const) non-external (was a private external) ___block_descriptor_80_ea16_32c81_ZTSNSt3__18functionIFvP7NSErrorONS_5tupleIJU8__strongP7NSArrayIP8NSNumberEEEEEEE_e17_v16?0"NSError"8l
00007ff843211648 (__DATA_CONST,__const) non-external (was a private external) ___block_descriptor_80_ea16_32c81_ZTSNSt3__18functionIFvP7NSErrorONS_5tupleIJU8__strongP7NSArrayIP8NSNumberEEEEEEE_e29_v24?0"NSError"8"NSArray"16l
00007ff843211268 (__DATA_CONST,__const) non-external ___block_literal_global
00007ff8432117e8 (__DATA_CONST,__const) non-external ___block_literal_global
00007ff8432119c0 (__DATA_CONST,__const) non-external ___block_literal_global
00007ff843211288 (__DATA_CONST,__const) non-external ___block_literal_global.330
00007ff8432119e0 (__DATA_CONST,__const) non-external ___block_literal_global.443
00007ff811523b70 (__TEXT,__text) non-external (was a private external) ___clang_call_terminate
00007ff81152ae63 (__TEXT,__text) non-external (was a private external) ___copy_helper_block_ea16_32c51_ZTSNSt3__18functionIFvP7NSErrorONS_5tupleIJbEEEEEE
00007ff811529dc5 (__TEXT,__text) non-external (was a private external) ___copy_helper_block_ea16_32c75_ZTSNSt3__18functionIFvP7NSErrorONS_5tupleIJU8__strongP12NSDictionaryEEEEEE
00007ff81152aae1 (__TEXT,__text) non-external (was a private external) ___copy_helper_block_ea16_32c81_ZTSNSt3__18functionIFvP7NSErrorONS_5tupleIJU8__strongP7NSArrayIP8NSNumberEEEEEEE
00007ff811528d5a (__TEXT,__text) non-external (was a private external) ___copy_helper_block_ea8_32s
00007ff81152d780 (__TEXT,__text) non-external (was a private external) ___copy_helper_block_ea8_32s40r
00007ff811520c6f (__TEXT,__text) non-external (was a private external) ___copy_helper_block_ea8_32w
                 (undefined) external ___cxa_allocate_exception (from libc++)
                 (undefined) external ___cxa_begin_catch (from libc++)
                 (undefined) external ___cxa_end_catch (from libc++)
                 (undefined) external ___cxa_free_exception (from libc++)
                 (undefined) external ___cxa_guard_abort (from libc++)
                 (undefined) external ___cxa_guard_acquire (from libc++)
                 (undefined) external ___cxa_guard_release (from libc++)
                 (undefined) external ___cxa_throw (from libc++)
00007ff81152ae75 (__TEXT,__text) non-external (was a private external) ___destroy_helper_block_ea16_32c51_ZTSNSt3__18functionIFvP7NSErrorONS_5tupleIJbEEEEEE
00007ff811529dd7 (__TEXT,__text) non-external (was a private external) ___destroy_helper_block_ea16_32c75_ZTSNSt3__18functionIFvP7NSErrorONS_5tupleIJU8__strongP12NSDictionaryEEEEEE
00007ff81152aaf3 (__TEXT,__text) non-external (was a private external) ___destroy_helper_block_ea16_32c81_ZTSNSt3__18functionIFvP7NSErrorONS_5tupleIJU8__strongP7NSArrayIP8NSNumberEEEEEEE
00007ff811528d69 (__TEXT,__text) non-external (was a private external) ___destroy_helper_block_ea8_32s
00007ff81152d7b0 (__TEXT,__text) non-external (was a private external) ___destroy_helper_block_ea8_32s40r
00007ff811525491 (__TEXT,__text) non-external (was a private external) ___destroy_helper_block_ea8_32w
                 (undefined) external ___error (from libSystem)
                 (undefined) external ___gxx_personality_v0 (from libc++)
                 (undefined) external ___stack_chk_fail (from libSystem)
                 (undefined) external ___stack_chk_guard (from libSystem)
                 (undefined) external ___stderrp (from libSystem)
00007ff811531518 (__TEXT,__const) non-external (was a private external) ___swift_reflection_version
                 (undefined) external __objc_empty_cache (from libobjc)
                 (undefined) external __os_feature_enabled_impl (from libSystem)
                 (undefined) external __os_log_impl (from libSystem)
                 (undefined) external __os_signpost_emit_with_name_impl (from libSystem)
                 (undefined) weak external __swift_FORCE_LOAD_$_swiftCoreFoundation (from libswiftCoreFoundation)
00007ff843211be0 (__DATA_CONST,__const) non-external (was a private external) __swift_FORCE_LOAD_$_swiftCoreFoundation_$_AudioStatistics
                 (undefined) weak external __swift_FORCE_LOAD_$_swiftDarwin (from libswiftDarwin)
00007ff843211bd8 (__DATA_CONST,__const) non-external (was a private external) __swift_FORCE_LOAD_$_swiftDarwin_$_AudioStatistics
                 (undefined) weak external __swift_FORCE_LOAD_$_swiftDispatch (from libswiftDispatch)
00007ff843211be8 (__DATA_CONST,__const) non-external (was a private external) __swift_FORCE_LOAD_$_swiftDispatch_$_AudioStatistics
                 (undefined) weak external automatically hidden __swift_FORCE_LOAD_$_swiftFoundation (from Foundation)
00007ff843211bc8 (__DATA_CONST,__const) non-external (was a private external) __swift_FORCE_LOAD_$_swiftFoundation_$_AudioStatistics
                 (undefined) weak external __swift_FORCE_LOAD_$_swiftIOKit (from libswiftIOKit)
00007ff843211bf8 (__DATA_CONST,__const) non-external (was a private external) __swift_FORCE_LOAD_$_swiftIOKit_$_AudioStatistics
                 (undefined) weak external __swift_FORCE_LOAD_$_swiftObjectiveC (from libswiftObjectiveC)
00007ff843211bd0 (__DATA_CONST,__const) non-external (was a private external) __swift_FORCE_LOAD_$_swiftObjectiveC_$_AudioStatistics
                 (undefined) weak external __swift_FORCE_LOAD_$_swiftXPC (from libswiftXPC)
00007ff843211bf0 (__DATA_CONST,__const) non-external (was a private external) __swift_FORCE_LOAD_$_swiftXPC_$_AudioStatistics
00007ff8432140f0 (__DATA_CONST,__objc_arraydata) non-external __unnamed_array_storage
00007ff843214100 (__DATA_CONST,__objc_arraydata) non-external __unnamed_array_storage
00007ff8432140f8 (__DATA_CONST,__objc_arraydata) non-external __unnamed_array_storage.176
00007ff843214188 (__DATA_CONST,__objc_arraydata) non-external __unnamed_array_storage.224
00007ff8432141e0 (__DATA_CONST,__objc_arraydata) non-external __unnamed_array_storage.346
00007ff843214280 (__DATA_CONST,__objc_arraydata) non-external __unnamed_array_storage.347
00007ff843214320 (__DATA_CONST,__objc_arraydata) non-external __unnamed_array_storage.396
00007ff8432143c0 (__DATA_CONST,__objc_arraydata) non-external __unnamed_array_storage.397
                 (undefined) external _clock (from libSystem)
                 (undefined) external _dispatch_once (from libSystem)
                 (undefined) external _dispatch_queue_attr_make_with_autorelease_frequency (from libSystem)
                 (undefined) external _dispatch_queue_attr_make_with_qos_class (from libSystem)
                 (undefined) external _dispatch_queue_create (from libSystem)
                 (undefined) external _kCFPreferencesAnyHost (from CoreFoundation)
                 (undefined) external _kdebug_trace (from libSystem)
                 (undefined) external _memmove (from libSystem)
                 (undefined) external _memset (from libSystem)
                 (undefined) external _objc_alloc (from libobjc)
                 (undefined) external _objc_alloc_init (from libobjc)
                 (undefined) external _objc_autoreleasePoolPop (from libobjc)
                 (undefined) external _objc_autoreleasePoolPush (from libobjc)
                 (undefined) external _objc_autoreleaseReturnValue (from libobjc)
                 (undefined) external _objc_copyWeak (from libobjc)
                 (undefined) external _objc_destroyWeak (from libobjc)
                 (undefined) external _objc_enumerationMutation (from libobjc)
                 (undefined) external _objc_getProperty (from libobjc)
                 (undefined) external _objc_initWeak (from libobjc)
                 (undefined) external _objc_loadWeakRetained (from libobjc)
                 (undefined) external _objc_msgSend (from libobjc)
                 (undefined) external _objc_msgSendSuper2 (from libobjc)
                 (undefined) external _objc_opt_new (from libobjc)
                 (undefined) external _objc_release (from libobjc)
                 (undefined) external _objc_retain (from libobjc)
                 (undefined) external _objc_retainAutorelease (from libobjc)
                 (undefined) external _objc_retainAutoreleaseReturnValue (from libobjc)
                 (undefined) external _objc_retainAutoreleasedReturnValue (from libobjc)
                 (undefined) external _objc_retainBlock (from libobjc)
                 (undefined) external _objc_setProperty_atomic (from libobjc)
                 (undefined) external _objc_storeStrong (from libobjc)
                 (undefined) external _objc_sync_enter (from libobjc)
                 (undefined) external _objc_sync_exit (from libobjc)
                 (undefined) external _objc_unsafeClaimAutoreleasedReturnValue (from libobjc)
                 (undefined) external _os_log_create (from libSystem)
                 (undefined) external _os_log_type_enabled (from libSystem)
                 (undefined) external _os_signpost_enabled (from libSystem)
                 (undefined) external _os_signpost_id_make_with_pointer (from libSystem)
                 (undefined) external _os_variant_is_darwinos (from libSystem)
                 (undefined) external _pc_session_add_metric (from libperfcheck)
                 (undefined) external _pc_session_begin (from libperfcheck)
                 (undefined) external _pc_session_create (from libperfcheck)
                 (undefined) external _pc_session_destroy (from libperfcheck)
                 (undefined) external _pc_session_end (from libperfcheck)
                 (undefined) external _pc_session_get_procname (from libperfcheck)
                 (undefined) external _pc_session_get_values (from libperfcheck)
                 (undefined) external _pc_session_set_procpid (from libperfcheck)
                 (undefined) external _strerror (from libSystem)
                 (undefined) external _strlen (from libSystem)
00007ff811533334 (__TEXT,__swift5_typeref) non-external (was a private external) _symbolic $s15AudioStatistics14ServerProtocolP
