
/System/Library/PrivateFrameworks/WirelessDiagnostics.framework/Versions/A/Libraries/libAWDProtobufLocation.dylib (for architecture x86_64):
000000000008f438 (__TEXT,__gcc_except_tab) non-external GCC_except_table1003
000000000008f444 (__TEXT,__gcc_except_tab) non-external GCC_except_table1004
000000000008f45c (__TEXT,__gcc_except_tab) non-external GCC_except_table1024
000000000008f468 (__TEXT,__gcc_except_tab) non-external GCC_except_table1025
0000000000090464 (__TEXT,__gcc_except_tab) non-external GCC_except_table104
000000000008f480 (__TEXT,__gcc_except_tab) non-external GCC_except_table1045
000000000008f498 (__TEXT,__gcc_except_tab) non-external GCC_except_table1046
000000000008f4b0 (__TEXT,__gcc_except_tab) non-external GCC_except_table1048
000000000009047c (__TEXT,__gcc_except_tab) non-external GCC_except_table105
00000000000902a4 (__TEXT,__gcc_except_tab) non-external GCC_except_table106
000000000008f4c0 (__TEXT,__gcc_except_tab) non-external GCC_except_table1066
000000000008f4cc (__TEXT,__gcc_except_tab) non-external GCC_except_table1067
00000000000902b0 (__TEXT,__gcc_except_tab) non-external GCC_except_table107
0000000000090494 (__TEXT,__gcc_except_tab) non-external GCC_except_table107
000000000008f4e4 (__TEXT,__gcc_except_tab) non-external GCC_except_table1087
000000000008f4f0 (__TEXT,__gcc_except_tab) non-external GCC_except_table1088
00000000000908b4 (__TEXT,__gcc_except_tab) non-external GCC_except_table109
00000000000908c0 (__TEXT,__gcc_except_tab) non-external GCC_except_table110
000000000008f508 (__TEXT,__gcc_except_tab) non-external GCC_except_table1108
000000000008f514 (__TEXT,__gcc_except_tab) non-external GCC_except_table1109
000000000008f52c (__TEXT,__gcc_except_tab) non-external GCC_except_table1119
000000000008f548 (__TEXT,__gcc_except_tab) non-external GCC_except_table1142
000000000008f554 (__TEXT,__gcc_except_tab) non-external GCC_except_table1143
000000000008f56c (__TEXT,__gcc_except_tab) non-external GCC_except_table1163
000000000008f578 (__TEXT,__gcc_except_tab) non-external GCC_except_table1164
00000000000902c8 (__TEXT,__gcc_except_tab) non-external GCC_except_table117
000000000008f590 (__TEXT,__gcc_except_tab) non-external GCC_except_table1184
000000000008f59c (__TEXT,__gcc_except_tab) non-external GCC_except_table1185
000000000008f5b4 (__TEXT,__gcc_except_tab) non-external GCC_except_table1205
000000000008f5c0 (__TEXT,__gcc_except_tab) non-external GCC_except_table1206
000000000008f5d8 (__TEXT,__gcc_except_tab) non-external GCC_except_table1226
000000000008f5e4 (__TEXT,__gcc_except_tab) non-external GCC_except_table1227
000000000008f5fc (__TEXT,__gcc_except_tab) non-external GCC_except_table1247
000000000008f608 (__TEXT,__gcc_except_tab) non-external GCC_except_table1248
00000000000904a4 (__TEXT,__gcc_except_tab) non-external GCC_except_table125
00000000000904bc (__TEXT,__gcc_except_tab) non-external GCC_except_table126
000000000008f620 (__TEXT,__gcc_except_tab) non-external GCC_except_table1268
000000000008f62c (__TEXT,__gcc_except_tab) non-external GCC_except_table1269
00000000000902f8 (__TEXT,__gcc_except_tab) non-external GCC_except_table128
00000000000904d4 (__TEXT,__gcc_except_tab) non-external GCC_except_table128
000000000008f644 (__TEXT,__gcc_except_tab) non-external GCC_except_table1289
0000000000090310 (__TEXT,__gcc_except_tab) non-external GCC_except_table129
000000000008f650 (__TEXT,__gcc_except_tab) non-external GCC_except_table1290
00000000000908d8 (__TEXT,__gcc_except_tab) non-external GCC_except_table130
0000000000090328 (__TEXT,__gcc_except_tab) non-external GCC_except_table131
00000000000908e4 (__TEXT,__gcc_except_tab) non-external GCC_except_table131
000000000008f668 (__TEXT,__gcc_except_tab) non-external GCC_except_table1310
000000000008f674 (__TEXT,__gcc_except_tab) non-external GCC_except_table1311
000000000008f68c (__TEXT,__gcc_except_tab) non-external GCC_except_table1331
000000000008f698 (__TEXT,__gcc_except_tab) non-external GCC_except_table1332
000000000008f6b0 (__TEXT,__gcc_except_tab) non-external GCC_except_table1352
000000000008f6bc (__TEXT,__gcc_except_tab) non-external GCC_except_table1353
000000000008f6d4 (__TEXT,__gcc_except_tab) non-external GCC_except_table1373
000000000008f6e0 (__TEXT,__gcc_except_tab) non-external GCC_except_table1374
000000000008f6f8 (__TEXT,__gcc_except_tab) non-external GCC_except_table1394
000000000008f704 (__TEXT,__gcc_except_tab) non-external GCC_except_table1395
000000000008f71c (__TEXT,__gcc_except_tab) non-external GCC_except_table1417
000000000008f728 (__TEXT,__gcc_except_tab) non-external GCC_except_table1418
0000000000090338 (__TEXT,__gcc_except_tab) non-external GCC_except_table143
000000000008f740 (__TEXT,__gcc_except_tab) non-external GCC_except_table1438
000000000008f74c (__TEXT,__gcc_except_tab) non-external GCC_except_table1439
000000000008f764 (__TEXT,__gcc_except_tab) non-external GCC_except_table1459
00000000000904e4 (__TEXT,__gcc_except_tab) non-external GCC_except_table146
000000000008f770 (__TEXT,__gcc_except_tab) non-external GCC_except_table1460
00000000000904f0 (__TEXT,__gcc_except_tab) non-external GCC_except_table147
000000000008f788 (__TEXT,__gcc_except_tab) non-external GCC_except_table1480
000000000008f794 (__TEXT,__gcc_except_tab) non-external GCC_except_table1481
0000000000090350 (__TEXT,__gcc_except_tab) non-external GCC_except_table150
000000000008f7ac (__TEXT,__gcc_except_tab) non-external GCC_except_table1501
000000000008f7b8 (__TEXT,__gcc_except_tab) non-external GCC_except_table1502
000000000009036c (__TEXT,__gcc_except_tab) non-external GCC_except_table151
00000000000908fc (__TEXT,__gcc_except_tab) non-external GCC_except_table151
0000000000090914 (__TEXT,__gcc_except_tab) non-external GCC_except_table152
000000000008f7d0 (__TEXT,__gcc_except_tab) non-external GCC_except_table1522
000000000008f7e8 (__TEXT,__gcc_except_tab) non-external GCC_except_table1523
000000000008f800 (__TEXT,__gcc_except_tab) non-external GCC_except_table1525
0000000000090384 (__TEXT,__gcc_except_tab) non-external GCC_except_table153
000000000008f810 (__TEXT,__gcc_except_tab) non-external GCC_except_table1537
000000000009092c (__TEXT,__gcc_except_tab) non-external GCC_except_table154
000000000008f828 (__TEXT,__gcc_except_tab) non-external GCC_except_table1544
000000000008f90c (__TEXT,__gcc_except_tab) non-external GCC_except_table1545
000000000008f924 (__TEXT,__gcc_except_tab) non-external GCC_except_table1547
000000000008f9f4 (__TEXT,__gcc_except_tab) non-external GCC_except_table1559
000000000008fa0c (__TEXT,__gcc_except_tab) non-external GCC_except_table1560
000000000008fa24 (__TEXT,__gcc_except_tab) non-external GCC_except_table1561
000000000008fa3c (__TEXT,__gcc_except_tab) non-external GCC_except_table1562
000000000008fa54 (__TEXT,__gcc_except_tab) non-external GCC_except_table1563
000000000008fa6c (__TEXT,__gcc_except_tab) non-external GCC_except_table1564
000000000008fa84 (__TEXT,__gcc_except_tab) non-external GCC_except_table1565
000000000008fa9c (__TEXT,__gcc_except_tab) non-external GCC_except_table1566
000000000008fab4 (__TEXT,__gcc_except_tab) non-external GCC_except_table1567
000000000008facc (__TEXT,__gcc_except_tab) non-external GCC_except_table1568
000000000008fae4 (__TEXT,__gcc_except_tab) non-external GCC_except_table1569
000000000008fafc (__TEXT,__gcc_except_tab) non-external GCC_except_table1570
000000000008fb14 (__TEXT,__gcc_except_tab) non-external GCC_except_table1571
000000000008fb2c (__TEXT,__gcc_except_tab) non-external GCC_except_table1572
000000000008fb44 (__TEXT,__gcc_except_tab) non-external GCC_except_table1579
000000000008fb50 (__TEXT,__gcc_except_tab) non-external GCC_except_table1580
000000000008fb68 (__TEXT,__gcc_except_tab) non-external GCC_except_table1600
000000000008fb74 (__TEXT,__gcc_except_tab) non-external GCC_except_table1601
000000000008fb8c (__TEXT,__gcc_except_tab) non-external GCC_except_table1621
000000000008fb98 (__TEXT,__gcc_except_tab) non-external GCC_except_table1622
000000000008fbb0 (__TEXT,__gcc_except_tab) non-external GCC_except_table1642
000000000008fbc8 (__TEXT,__gcc_except_tab) non-external GCC_except_table1643
000000000008fbe0 (__TEXT,__gcc_except_tab) non-external GCC_except_table1645
0000000000090398 (__TEXT,__gcc_except_tab) non-external GCC_except_table165
000000000009093c (__TEXT,__gcc_except_tab) non-external GCC_except_table166
000000000008fbf4 (__TEXT,__gcc_except_tab) non-external GCC_except_table1663
000000000008fc00 (__TEXT,__gcc_except_tab) non-external GCC_except_table1664
0000000000090508 (__TEXT,__gcc_except_tab) non-external GCC_except_table167
0000000000090514 (__TEXT,__gcc_except_tab) non-external GCC_except_table168
000000000008fc18 (__TEXT,__gcc_except_tab) non-external GCC_except_table1685
000000000008fc24 (__TEXT,__gcc_except_tab) non-external GCC_except_table1686
000000000008fc3c (__TEXT,__gcc_except_tab) non-external GCC_except_table1707
000000000008fc48 (__TEXT,__gcc_except_tab) non-external GCC_except_table1708
00000000000903b0 (__TEXT,__gcc_except_tab) non-external GCC_except_table172
00000000000903bc (__TEXT,__gcc_except_tab) non-external GCC_except_table173
0000000000090954 (__TEXT,__gcc_except_tab) non-external GCC_except_table173
000000000008fc60 (__TEXT,__gcc_except_tab) non-external GCC_except_table1731
000000000008fc6c (__TEXT,__gcc_except_tab) non-external GCC_except_table1732
0000000000090990 (__TEXT,__gcc_except_tab) non-external GCC_except_table174
000000000008fc84 (__TEXT,__gcc_except_tab) non-external GCC_except_table1752
000000000008fc90 (__TEXT,__gcc_except_tab) non-external GCC_except_table1753
00000000000909a8 (__TEXT,__gcc_except_tab) non-external GCC_except_table176
000000000008fca8 (__TEXT,__gcc_except_tab) non-external GCC_except_table1778
000000000008fcb4 (__TEXT,__gcc_except_tab) non-external GCC_except_table1779
000000000008fccc (__TEXT,__gcc_except_tab) non-external GCC_except_table1806
000000000008fcd8 (__TEXT,__gcc_except_tab) non-external GCC_except_table1807
000000000008fcf0 (__TEXT,__gcc_except_tab) non-external GCC_except_table1827
000000000008fd08 (__TEXT,__gcc_except_tab) non-external GCC_except_table1828
000000000008fd20 (__TEXT,__gcc_except_tab) non-external GCC_except_table1830
000000000008fd30 (__TEXT,__gcc_except_tab) non-external GCC_except_table1842
000000000008fd48 (__TEXT,__gcc_except_tab) non-external GCC_except_table1849
000000000008fd54 (__TEXT,__gcc_except_tab) non-external GCC_except_table1850
000000000008fd6c (__TEXT,__gcc_except_tab) non-external GCC_except_table1870
000000000008fd78 (__TEXT,__gcc_except_tab) non-external GCC_except_table1871
000000000009052c (__TEXT,__gcc_except_tab) non-external GCC_except_table188
00000000000909cc (__TEXT,__gcc_except_tab) non-external GCC_except_table188
0000000000090538 (__TEXT,__gcc_except_tab) non-external GCC_except_table189
00000000000909e4 (__TEXT,__gcc_except_tab) non-external GCC_except_table189
000000000008fd90 (__TEXT,__gcc_except_tab) non-external GCC_except_table1891
000000000008fdb4 (__TEXT,__gcc_except_tab) non-external GCC_except_table1892
000000000008fdcc (__TEXT,__gcc_except_tab) non-external GCC_except_table1894
000000000008fde8 (__TEXT,__gcc_except_tab) non-external GCC_except_table1906
000000000008fe00 (__TEXT,__gcc_except_tab) non-external GCC_except_table1913
000000000008fe0c (__TEXT,__gcc_except_tab) non-external GCC_except_table1914
000000000008e9f0 (__TEXT,__gcc_except_tab) non-external GCC_except_table192
000000000008e9fc (__TEXT,__gcc_except_tab) non-external GCC_except_table193
000000000008fe24 (__TEXT,__gcc_except_tab) non-external GCC_except_table1934
000000000008fe40 (__TEXT,__gcc_except_tab) non-external GCC_except_table1935
000000000008fe58 (__TEXT,__gcc_except_tab) non-external GCC_except_table1937
000000000008fe70 (__TEXT,__gcc_except_tab) non-external GCC_except_table1949
000000000008fe88 (__TEXT,__gcc_except_tab) non-external GCC_except_table1956
000000000008fe94 (__TEXT,__gcc_except_tab) non-external GCC_except_table1957
000000000008feac (__TEXT,__gcc_except_tab) non-external GCC_except_table1977
000000000008feb8 (__TEXT,__gcc_except_tab) non-external GCC_except_table1978
00000000000903d4 (__TEXT,__gcc_except_tab) non-external GCC_except_table199
000000000008fed0 (__TEXT,__gcc_except_tab) non-external GCC_except_table1998
000000000008fee8 (__TEXT,__gcc_except_tab) non-external GCC_except_table1999
0000000000090218 (__TEXT,__gcc_except_tab) non-external GCC_except_table20
000000000008ff00 (__TEXT,__gcc_except_tab) non-external GCC_except_table2001
00000000000903e8 (__TEXT,__gcc_except_tab) non-external GCC_except_table201
000000000008ff10 (__TEXT,__gcc_except_tab) non-external GCC_except_table2013
00000000000909fc (__TEXT,__gcc_except_tab) non-external GCC_except_table202
000000000008ff28 (__TEXT,__gcc_except_tab) non-external GCC_except_table2020
000000000008ff34 (__TEXT,__gcc_except_tab) non-external GCC_except_table2021
0000000000090a10 (__TEXT,__gcc_except_tab) non-external GCC_except_table203
0000000000090a24 (__TEXT,__gcc_except_tab) non-external GCC_except_table204
000000000008ff4c (__TEXT,__gcc_except_tab) non-external GCC_except_table2041
000000000008ff58 (__TEXT,__gcc_except_tab) non-external GCC_except_table2042
0000000000090a38 (__TEXT,__gcc_except_tab) non-external GCC_except_table205
000000000008ff70 (__TEXT,__gcc_except_tab) non-external GCC_except_table2062
000000000008ff7c (__TEXT,__gcc_except_tab) non-external GCC_except_table2063
0000000000090a4c (__TEXT,__gcc_except_tab) non-external GCC_except_table207
000000000008ff94 (__TEXT,__gcc_except_tab) non-external GCC_except_table2083
000000000008ffb0 (__TEXT,__gcc_except_tab) non-external GCC_except_table2084
000000000008ffc8 (__TEXT,__gcc_except_tab) non-external GCC_except_table2086
0000000000090550 (__TEXT,__gcc_except_tab) non-external GCC_except_table209
0000000000090224 (__TEXT,__gcc_except_tab) non-external GCC_except_table21
0000000000090568 (__TEXT,__gcc_except_tab) non-external GCC_except_table210
000000000008ffdc (__TEXT,__gcc_except_tab) non-external GCC_except_table2104
000000000008ffe8 (__TEXT,__gcc_except_tab) non-external GCC_except_table2105
0000000000090580 (__TEXT,__gcc_except_tab) non-external GCC_except_table212
0000000000090000 (__TEXT,__gcc_except_tab) non-external GCC_except_table2125
000000000009000c (__TEXT,__gcc_except_tab) non-external GCC_except_table2126
0000000000090024 (__TEXT,__gcc_except_tab) non-external GCC_except_table2146
0000000000090040 (__TEXT,__gcc_except_tab) non-external GCC_except_table2147
0000000000090058 (__TEXT,__gcc_except_tab) non-external GCC_except_table2149
000000000008ea14 (__TEXT,__gcc_except_tab) non-external GCC_except_table215
000000000008ea20 (__TEXT,__gcc_except_tab) non-external GCC_except_table216
0000000000090070 (__TEXT,__gcc_except_tab) non-external GCC_except_table2161
0000000000090088 (__TEXT,__gcc_except_tab) non-external GCC_except_table2162
00000000000900a0 (__TEXT,__gcc_except_tab) non-external GCC_except_table2169
00000000000900ac (__TEXT,__gcc_except_tab) non-external GCC_except_table2170
00000000000900c4 (__TEXT,__gcc_except_tab) non-external GCC_except_table2190
00000000000900f4 (__TEXT,__gcc_except_tab) non-external GCC_except_table2191
000000000009010c (__TEXT,__gcc_except_tab) non-external GCC_except_table2193
00000000000907e8 (__TEXT,__gcc_except_tab) non-external GCC_except_table22
0000000000090128 (__TEXT,__gcc_except_tab) non-external GCC_except_table2205
0000000000090140 (__TEXT,__gcc_except_tab) non-external GCC_except_table2206
0000000000090158 (__TEXT,__gcc_except_tab) non-external GCC_except_table2213
0000000000090164 (__TEXT,__gcc_except_tab) non-external GCC_except_table2214
0000000000090590 (__TEXT,__gcc_except_tab) non-external GCC_except_table224
00000000000907f4 (__TEXT,__gcc_except_tab) non-external GCC_except_table23
00000000000905a8 (__TEXT,__gcc_except_tab) non-external GCC_except_table231
00000000000905b4 (__TEXT,__gcc_except_tab) non-external GCC_except_table232
000000000009017c (__TEXT,__gcc_except_tab) non-external GCC_except_table2327
0000000000090190 (__TEXT,__gcc_except_tab) non-external GCC_except_table2328
00000000000901a4 (__TEXT,__gcc_except_tab) non-external GCC_except_table2329
00000000000901b8 (__TEXT,__gcc_except_tab) non-external GCC_except_table2330
00000000000901cc (__TEXT,__gcc_except_tab) non-external GCC_except_table2331
00000000000901e0 (__TEXT,__gcc_except_tab) non-external GCC_except_table2332
00000000000901f4 (__TEXT,__gcc_except_tab) non-external GCC_except_table2333
0000000000090208 (__TEXT,__gcc_except_tab) non-external GCC_except_table2336
000000000008ea38 (__TEXT,__gcc_except_tab) non-external GCC_except_table236
000000000008ea44 (__TEXT,__gcc_except_tab) non-external GCC_except_table237
000000000008ea5c (__TEXT,__gcc_except_tab) non-external GCC_except_table247
00000000000905cc (__TEXT,__gcc_except_tab) non-external GCC_except_table252
00000000000905d8 (__TEXT,__gcc_except_tab) non-external GCC_except_table253
000000000008ea78 (__TEXT,__gcc_except_tab) non-external GCC_except_table258
000000000008ea84 (__TEXT,__gcc_except_tab) non-external GCC_except_table259
00000000000905f0 (__TEXT,__gcc_except_tab) non-external GCC_except_table273
00000000000905fc (__TEXT,__gcc_except_tab) non-external GCC_except_table274
000000000008ea9c (__TEXT,__gcc_except_tab) non-external GCC_except_table279
000000000008eaa8 (__TEXT,__gcc_except_tab) non-external GCC_except_table280
0000000000090614 (__TEXT,__gcc_except_tab) non-external GCC_except_table294
0000000000090620 (__TEXT,__gcc_except_tab) non-external GCC_except_table295
000000000008eac0 (__TEXT,__gcc_except_tab) non-external GCC_except_table300
000000000008eacc (__TEXT,__gcc_except_tab) non-external GCC_except_table301
0000000000090638 (__TEXT,__gcc_except_tab) non-external GCC_except_table315
0000000000090644 (__TEXT,__gcc_except_tab) non-external GCC_except_table316
000000000008eae4 (__TEXT,__gcc_except_tab) non-external GCC_except_table321
000000000008eaf0 (__TEXT,__gcc_except_tab) non-external GCC_except_table322
000000000009065c (__TEXT,__gcc_except_tab) non-external GCC_except_table336
00000000000906a8 (__TEXT,__gcc_except_tab) non-external GCC_except_table337
00000000000906e4 (__TEXT,__gcc_except_tab) non-external GCC_except_table339
000000000008eb08 (__TEXT,__gcc_except_tab) non-external GCC_except_table342
000000000008eb14 (__TEXT,__gcc_except_tab) non-external GCC_except_table343
0000000000090724 (__TEXT,__gcc_except_tab) non-external GCC_except_table370
0000000000090738 (__TEXT,__gcc_except_tab) non-external GCC_except_table371
000000000009074c (__TEXT,__gcc_except_tab) non-external GCC_except_table373
0000000000090760 (__TEXT,__gcc_except_tab) non-external GCC_except_table374
0000000000090774 (__TEXT,__gcc_except_tab) non-external GCC_except_table375
0000000000090788 (__TEXT,__gcc_except_tab) non-external GCC_except_table376
000000000009079c (__TEXT,__gcc_except_tab) non-external GCC_except_table377
00000000000907b0 (__TEXT,__gcc_except_tab) non-external GCC_except_table378
000000000008eb2c (__TEXT,__gcc_except_tab) non-external GCC_except_table379
00000000000907c4 (__TEXT,__gcc_except_tab) non-external GCC_except_table379
000000000008eb3c (__TEXT,__gcc_except_tab) non-external GCC_except_table380
00000000000907d8 (__TEXT,__gcc_except_tab) non-external GCC_except_table381
00000000000903f8 (__TEXT,__gcc_except_tab) non-external GCC_except_table39
0000000000090404 (__TEXT,__gcc_except_tab) non-external GCC_except_table40
000000000008eb54 (__TEXT,__gcc_except_tab) non-external GCC_except_table401
000000000008eb60 (__TEXT,__gcc_except_tab) non-external GCC_except_table402
000000000008eb78 (__TEXT,__gcc_except_tab) non-external GCC_except_table422
000000000008eb84 (__TEXT,__gcc_except_tab) non-external GCC_except_table423
0000000000090238 (__TEXT,__gcc_except_tab) non-external GCC_except_table43
0000000000090244 (__TEXT,__gcc_except_tab) non-external GCC_except_table44
000000000008eb9c (__TEXT,__gcc_except_tab) non-external GCC_except_table443
000000000008eba8 (__TEXT,__gcc_except_tab) non-external GCC_except_table444
0000000000090808 (__TEXT,__gcc_except_tab) non-external GCC_except_table45
0000000000090814 (__TEXT,__gcc_except_tab) non-external GCC_except_table46
000000000008ebc0 (__TEXT,__gcc_except_tab) non-external GCC_except_table466
000000000008ebcc (__TEXT,__gcc_except_tab) non-external GCC_except_table467
000000000008ebe4 (__TEXT,__gcc_except_tab) non-external GCC_except_table487
000000000008ebf4 (__TEXT,__gcc_except_tab) non-external GCC_except_table488
000000000008ec0c (__TEXT,__gcc_except_tab) non-external GCC_except_table508
000000000008ec18 (__TEXT,__gcc_except_tab) non-external GCC_except_table509
000000000008ec30 (__TEXT,__gcc_except_tab) non-external GCC_except_table529
000000000008ec3c (__TEXT,__gcc_except_tab) non-external GCC_except_table530
000000000008ec54 (__TEXT,__gcc_except_tab) non-external GCC_except_table550
000000000008ec6c (__TEXT,__gcc_except_tab) non-external GCC_except_table551
000000000008ec84 (__TEXT,__gcc_except_tab) non-external GCC_except_table553
000000000008ec94 (__TEXT,__gcc_except_tab) non-external GCC_except_table565
000000000008ecac (__TEXT,__gcc_except_tab) non-external GCC_except_table572
000000000008ecb8 (__TEXT,__gcc_except_tab) non-external GCC_except_table573
000000000008ecd0 (__TEXT,__gcc_except_tab) non-external GCC_except_table593
000000000008ecdc (__TEXT,__gcc_except_tab) non-external GCC_except_table594
000000000008ecf4 (__TEXT,__gcc_except_tab) non-external GCC_except_table614
000000000008ed00 (__TEXT,__gcc_except_tab) non-external GCC_except_table615
000000000009041c (__TEXT,__gcc_except_tab) non-external GCC_except_table63
000000000008ed18 (__TEXT,__gcc_except_tab) non-external GCC_except_table635
000000000008ed24 (__TEXT,__gcc_except_tab) non-external GCC_except_table636
000000000009025c (__TEXT,__gcc_except_tab) non-external GCC_except_table64
0000000000090428 (__TEXT,__gcc_except_tab) non-external GCC_except_table64
0000000000090268 (__TEXT,__gcc_except_tab) non-external GCC_except_table65
000000000008ed3c (__TEXT,__gcc_except_tab) non-external GCC_except_table656
000000000008ed48 (__TEXT,__gcc_except_tab) non-external GCC_except_table657
000000000009082c (__TEXT,__gcc_except_tab) non-external GCC_except_table66
000000000008ed60 (__TEXT,__gcc_except_tab) non-external GCC_except_table668
0000000000090838 (__TEXT,__gcc_except_tab) non-external GCC_except_table67
000000000008ed7c (__TEXT,__gcc_except_tab) non-external GCC_except_table682
000000000008ed8c (__TEXT,__gcc_except_tab) non-external GCC_except_table683
000000000008eda4 (__TEXT,__gcc_except_tab) non-external GCC_except_table693
000000000008edc0 (__TEXT,__gcc_except_tab) non-external GCC_except_table704
000000000008edd0 (__TEXT,__gcc_except_tab) non-external GCC_except_table705
000000000008ede8 (__TEXT,__gcc_except_tab) non-external GCC_except_table715
000000000008f0b0 (__TEXT,__gcc_except_tab) non-external GCC_except_table727
000000000008f0bc (__TEXT,__gcc_except_tab) non-external GCC_except_table728
000000000008f0d4 (__TEXT,__gcc_except_tab) non-external GCC_except_table738
000000000008f138 (__TEXT,__gcc_except_tab) non-external GCC_except_table749
000000000008f148 (__TEXT,__gcc_except_tab) non-external GCC_except_table750
000000000008f160 (__TEXT,__gcc_except_tab) non-external GCC_except_table760
0000000000090850 (__TEXT,__gcc_except_tab) non-external GCC_except_table77
000000000008f1e8 (__TEXT,__gcc_except_tab) non-external GCC_except_table770
000000000008f204 (__TEXT,__gcc_except_tab) non-external GCC_except_table771
000000000008f21c (__TEXT,__gcc_except_tab) non-external GCC_except_table773
000000000008f22c (__TEXT,__gcc_except_tab) non-external GCC_except_table781
0000000000090440 (__TEXT,__gcc_except_tab) non-external GCC_except_table79
000000000008f2b4 (__TEXT,__gcc_except_tab) non-external GCC_except_table791
000000000008f2c0 (__TEXT,__gcc_except_tab) non-external GCC_except_table792
000000000008f2d8 (__TEXT,__gcc_except_tab) non-external GCC_except_table813
000000000008f2e4 (__TEXT,__gcc_except_tab) non-external GCC_except_table814
000000000008f2fc (__TEXT,__gcc_except_tab) non-external GCC_except_table834
000000000008f308 (__TEXT,__gcc_except_tab) non-external GCC_except_table835
0000000000090280 (__TEXT,__gcc_except_tab) non-external GCC_except_table85
000000000008f320 (__TEXT,__gcc_except_tab) non-external GCC_except_table855
000000000008f32c (__TEXT,__gcc_except_tab) non-external GCC_except_table856
000000000009028c (__TEXT,__gcc_except_tab) non-external GCC_except_table86
0000000000090458 (__TEXT,__gcc_except_tab) non-external GCC_except_table86
000000000008f344 (__TEXT,__gcc_except_tab) non-external GCC_except_table876
000000000008f350 (__TEXT,__gcc_except_tab) non-external GCC_except_table877
0000000000090890 (__TEXT,__gcc_except_tab) non-external GCC_except_table88
000000000009089c (__TEXT,__gcc_except_tab) non-external GCC_except_table89
000000000008f368 (__TEXT,__gcc_except_tab) non-external GCC_except_table897
000000000008f374 (__TEXT,__gcc_except_tab) non-external GCC_except_table898
000000000008f38c (__TEXT,__gcc_except_tab) non-external GCC_except_table918
000000000008f398 (__TEXT,__gcc_except_tab) non-external GCC_except_table919
000000000008f3b0 (__TEXT,__gcc_except_tab) non-external GCC_except_table940
000000000008f3bc (__TEXT,__gcc_except_tab) non-external GCC_except_table941
000000000008f3d4 (__TEXT,__gcc_except_tab) non-external GCC_except_table961
000000000008f3e0 (__TEXT,__gcc_except_tab) non-external GCC_except_table962
000000000008f3f8 (__TEXT,__gcc_except_tab) non-external GCC_except_table982
000000000008f410 (__TEXT,__gcc_except_tab) non-external GCC_except_table983
000000000008f428 (__TEXT,__gcc_except_tab) non-external GCC_except_table985
0000000000070def (__TEXT,__text) non-external __GLOBAL__sub_I_Location.pb.cc
0000000000078570 (__TEXT,__text) non-external __GLOBAL__sub_I_LocationAlsCacheTiles.pb.cc
00000000000893a6 (__TEXT,__text) non-external __GLOBAL__sub_I_LocationPeerRanging.pb.cc
0000000000084145 (__TEXT,__text) non-external __GLOBAL__sub_I_MicroLocation.pb.cc
                 (undefined) external __Unwind_Resume (from libSystem)
                 (undefined) external __ZN20wireless_diagnostics6google8protobuf11MessageLiteD2Ev (from libprotobuf-lite)
000000000006f75a (__TEXT,__text) non-external (was a private external) __ZN20wireless_diagnostics6google8protobuf13RepeatedFieldIfE7ReserveEi
000000000006fc38 (__TEXT,__text) non-external (was a private external) __ZN20wireless_diagnostics6google8protobuf13RepeatedFieldIiE7ReserveEi
000000000006fd02 (__TEXT,__text) non-external (was a private external) __ZN20wireless_diagnostics6google8protobuf13RepeatedFieldIjE7ReserveEi
000000000006fd80 (__TEXT,__text) non-external (was a private external) __ZN20wireless_diagnostics6google8protobuf13RepeatedFieldIyE7ReserveEi
00000000000777a8 (__TEXT,__text) non-external (was a private external) __ZN20wireless_diagnostics6google8protobuf16RepeatedPtrFieldIN3awd7metrics18LocationSessionDayEE9MergeFromERKS6_
0000000000076cd0 (__TEXT,__text) non-external (was a private external) __ZN20wireless_diagnostics6google8protobuf16RepeatedPtrFieldIN3awd7metrics21LocationTileFileUsageEE9MergeFromERKS6_
00000000000874ce (__TEXT,__text) non-external (was a private external) __ZN20wireless_diagnostics6google8protobuf16RepeatedPtrFieldIN3awd7metrics27LocationPeerRangingDecisionEE9MergeFromERKS6_
0000000000088802 (__TEXT,__text) non-external (was a private external) __ZN20wireless_diagnostics6google8protobuf16RepeatedPtrFieldIN3awd7metrics27LocationPeerRangingMetaDataEE9MergeFromERKS6_
000000000008892e (__TEXT,__text) non-external (was a private external) __ZN20wireless_diagnostics6google8protobuf16RepeatedPtrFieldIN3awd7metrics31LocationPeerRangingBurstMetricsEE9MergeFromERKS6_
00000000000631f2 (__TEXT,__text) non-external (was a private external) __ZN20wireless_diagnostics6google8protobuf16RepeatedPtrFieldIN3awd7metrics36LocationAccessory_PerfRangeHistogramEE9MergeFromERKS6_
000000000006e018 (__TEXT,__text) non-external (was a private external) __ZN20wireless_diagnostics6google8protobuf16RepeatedPtrFieldIN3awd7metrics38LocationAccessory_NavDynamicsHistogramEE9MergeFromERKS6_
00000000000617b8 (__TEXT,__text) non-external (was a private external) __ZN20wireless_diagnostics6google8protobuf16RepeatedPtrFieldIN3awd7metrics39LocationAccessory_ChargingTypeHistogramEE9MergeFromERKS6_
0000000000065a68 (__TEXT,__text) non-external (was a private external) __ZN20wireless_diagnostics6google8protobuf16RepeatedPtrFieldIN3awd7metrics39LocationAccessory_LatencyRangeHistogramEE9MergeFromERKS6_
00000000000642cc (__TEXT,__text) non-external (was a private external) __ZN20wireless_diagnostics6google8protobuf16RepeatedPtrFieldIN3awd7metrics41LocationAccessory_SpeedPerfRangeHistogramEE9MergeFromERKS6_
00000000000582a8 (__TEXT,__text) non-external (was a private external) __ZN20wireless_diagnostics6google8protobuf16RepeatedPtrFieldIN3awd7metrics41LocationGPSSessionStatistics_NSOnOffStateEE9MergeFromERKS6_
0000000000068cf0 (__TEXT,__text) non-external (was a private external) __ZN20wireless_diagnostics6google8protobuf16RepeatedPtrFieldIN3awd7metrics42LocationAccessory_PASCDSampleSizeHistogramEE9MergeFromERKS6_
0000000000057b7c (__TEXT,__text) non-external (was a private external) __ZN20wireless_diagnostics6google8protobuf16RepeatedPtrFieldIN3awd7metrics43LocationGPSSessionStatistics_PowerStateDataEE9MergeFromERKS6_
0000000000068bc4 (__TEXT,__text) non-external (was a private external) __ZN20wireless_diagnostics6google8protobuf16RepeatedPtrFieldIN3awd7metrics44LocationAccessory_PASCDTransmissionHistogramEE9MergeFromERKS6_
0000000000057f12 (__TEXT,__text) non-external (was a private external) __ZN20wireless_diagnostics6google8protobuf16RepeatedPtrFieldIN3awd7metrics44LocationGPSSessionStatistics_ChargerTypeDataEE9MergeFromERKS6_
0000000000057918 (__TEXT,__text) non-external (was a private external) __ZN20wireless_diagnostics6google8protobuf16RepeatedPtrFieldIN3awd7metrics44LocationGPSSessionStatistics_MovingStateDataEE9MergeFromERKS6_
000000000007db4c (__TEXT,__text) non-external (was a private external) __ZN20wireless_diagnostics6google8protobuf16RepeatedPtrFieldIN3awd7metrics44LocationMicroLocationEventSignificanceMetricEE9MergeFromERKS6_
0000000000057a4a (__TEXT,__text) non-external (was a private external) __ZN20wireless_diagnostics6google8protobuf16RepeatedPtrFieldIN3awd7metrics45LocationGPSSessionStatistics_MountedStateDataEE9MergeFromERKS6_
0000000000058176 (__TEXT,__text) non-external (was a private external) __ZN20wireless_diagnostics6google8protobuf16RepeatedPtrFieldIN3awd7metrics45LocationGPSSessionStatistics_NSForceOffReasonEE9MergeFromERKS6_
0000000000058044 (__TEXT,__text) non-external (was a private external) __ZN20wireless_diagnostics6google8protobuf16RepeatedPtrFieldIN3awd7metrics45LocationGPSSessionStatistics_ThermalLevelDataEE9MergeFromERKS6_
000000000006e144 (__TEXT,__text) non-external (was a private external) __ZN20wireless_diagnostics6google8protobuf16RepeatedPtrFieldIN3awd7metrics47LocationAccessory_NMEAScreeningLocTypeHistogramEE9MergeFromERKS6_
00000000000577e6 (__TEXT,__text) non-external (was a private external) __ZN20wireless_diagnostics6google8protobuf16RepeatedPtrFieldIN3awd7metrics47LocationGPSSessionStatistics_MotionActivityDataEE9MergeFromERKS6_
000000000004b654 (__TEXT,__text) non-external (was a private external) __ZN20wireless_diagnostics6google8protobuf16RepeatedPtrFieldIN3awd7metrics48LocationGPSSessionStatistics_JammingMetricBucketEE9MergeFromERKS6_
0000000000057de0 (__TEXT,__text) non-external (was a private external) __ZN20wireless_diagnostics6google8protobuf16RepeatedPtrFieldIN3awd7metrics49LocationGPSSessionStatistics_PowerMeasurementDataEE9MergeFromERKS6_
000000000005731e (__TEXT,__text) non-external (was a private external) __ZN20wireless_diagnostics6google8protobuf16RepeatedPtrFieldIN3awd7metrics49LocationGPSSessionStatistics_UncertaintyRangeDataEE9MergeFromERKS6_
0000000000057cae (__TEXT,__text) non-external (was a private external) __ZN20wireless_diagnostics6google8protobuf16RepeatedPtrFieldIN3awd7metrics50LocationGPSSessionStatistics_DeviceOrientationDataEE9MergeFromERKS6_
0000000000057582 (__TEXT,__text) non-external (was a private external) __ZN20wireless_diagnostics6google8protobuf16RepeatedPtrFieldIN3awd7metrics50LocationGPSSessionStatistics_SatelliteCNORangeDataEE9MergeFromERKS6_
0000000000057450 (__TEXT,__text) non-external (was a private external) __ZN20wireless_diagnostics6google8protobuf16RepeatedPtrFieldIN3awd7metrics50LocationGPSSessionStatistics_SignalEnvironmentDataEE9MergeFromERKS6_
00000000000576b4 (__TEXT,__text) non-external (was a private external) __ZN20wireless_diagnostics6google8protobuf16RepeatedPtrFieldIN3awd7metrics52LocationGPSSessionStatistics_SatelliteCountRangeDataEE9MergeFromERKS6_
000000000001b02e (__TEXT,__text) non-external (was a private external) __ZN20wireless_diagnostics6google8protobuf16RepeatedPtrFieldINSt3__112basic_stringIcNS3_11char_traitsIcEENS3_9allocatorIcEEEEE9MergeFromERKSA_
000000000006f72e (__TEXT,__text) non-external (was a private external) __ZN20wireless_diagnostics6google8protobuf2io16CodedInputStream12ReadVarint64EPy
                 (undefined) external __ZN20wireless_diagnostics6google8protobuf2io16CodedInputStream15ReadTagFallbackEv (from libprotobuf-lite)
                 (undefined) external __ZN20wireless_diagnostics6google8protobuf2io16CodedInputStream20ReadVarint32FallbackEPj (from libprotobuf-lite)
                 (undefined) external __ZN20wireless_diagnostics6google8protobuf2io16CodedInputStream20ReadVarint64FallbackEPy (from libprotobuf-lite)
                 (undefined) external __ZN20wireless_diagnostics6google8protobuf2io16CodedInputStream26ReadLittleEndian32FallbackEPj (from libprotobuf-lite)
                 (undefined) external __ZN20wireless_diagnostics6google8protobuf2io16CodedInputStream26ReadLittleEndian64FallbackEPy (from libprotobuf-lite)
                 (undefined) external __ZN20wireless_diagnostics6google8protobuf2io16CodedInputStream4SkipEi (from libprotobuf-lite)
                 (undefined) external __ZN20wireless_diagnostics6google8protobuf2io16CodedInputStream8PopLimitEi (from libprotobuf-lite)
                 (undefined) external __ZN20wireless_diagnostics6google8protobuf2io16CodedInputStream9PushLimitEi (from libprotobuf-lite)
                 (undefined) external __ZN20wireless_diagnostics6google8protobuf2io17CodedOutputStream12VarintSize64Ey (from libprotobuf-lite)
                 (undefined) external __ZN20wireless_diagnostics6google8protobuf2io17CodedOutputStream13WriteVarint32Ej (from libprotobuf-lite)
                 (undefined) external __ZN20wireless_diagnostics6google8protobuf2io17CodedOutputStream20VarintSize32FallbackEj (from libprotobuf-lite)
                 (undefined) external __ZN20wireless_diagnostics6google8protobuf8internal10LogMessageC1ENS1_8LogLevelEPKci (from libprotobuf-lite)
                 (undefined) external __ZN20wireless_diagnostics6google8protobuf8internal10LogMessageD1Ev (from libprotobuf-lite)
                 (undefined) external __ZN20wireless_diagnostics6google8protobuf8internal10LogMessagelsEPKc (from libprotobuf-lite)
                 (undefined) external __ZN20wireless_diagnostics6google8protobuf8internal10OnShutdownEPFvvE (from libprotobuf-lite)
                 (undefined) external __ZN20wireless_diagnostics6google8protobuf8internal11LogFinisheraSERNS2_10LogMessageE (from libprotobuf-lite)
                 (undefined) external __ZN20wireless_diagnostics6google8protobuf8internal12kEmptyStringE (from libprotobuf-lite)
                 (undefined) external __ZN20wireless_diagnostics6google8protobuf8internal13VerifyVersionEiiPKc (from libprotobuf-lite)
                 (undefined) external __ZN20wireless_diagnostics6google8protobuf8internal14WireFormatLite10ReadStringEPNS1_2io16CodedInputStreamEPNSt3__112basic_stringIcNS7_11char_traitsIcEENS7_9allocatorIcEEEE (from libprotobuf-lite)
                 (undefined) external __ZN20wireless_diagnostics6google8protobuf8internal14WireFormatLite10WriteBytesEiRKNSt3__112basic_stringIcNS4_11char_traitsIcEENS4_9allocatorIcEEEEPNS1_2io17CodedOutputStreamE (from libprotobuf-lite)
                 (undefined) external __ZN20wireless_diagnostics6google8protobuf8internal14WireFormatLite10WriteFloatEifPNS1_2io17CodedOutputStreamE (from libprotobuf-lite)
                 (undefined) external __ZN20wireless_diagnostics6google8protobuf8internal14WireFormatLite10WriteInt32EiiPNS1_2io17CodedOutputStreamE (from libprotobuf-lite)
                 (undefined) external __ZN20wireless_diagnostics6google8protobuf8internal14WireFormatLite10WriteInt64EixPNS1_2io17CodedOutputStreamE (from libprotobuf-lite)
                 (undefined) external __ZN20wireless_diagnostics6google8protobuf8internal14WireFormatLite11WriteDoubleEidPNS1_2io17CodedOutputStreamE (from libprotobuf-lite)
                 (undefined) external __ZN20wireless_diagnostics6google8protobuf8internal14WireFormatLite11WriteSInt32EiiPNS1_2io17CodedOutputStreamE (from libprotobuf-lite)
                 (undefined) external __ZN20wireless_diagnostics6google8protobuf8internal14WireFormatLite11WriteStringEiRKNSt3__112basic_stringIcNS4_11char_traitsIcEENS4_9allocatorIcEEEEPNS1_2io17CodedOutputStreamE (from libprotobuf-lite)
                 (undefined) external __ZN20wireless_diagnostics6google8protobuf8internal14WireFormatLite11WriteUInt32EijPNS1_2io17CodedOutputStreamE (from libprotobuf-lite)
                 (undefined) external __ZN20wireless_diagnostics6google8protobuf8internal14WireFormatLite11WriteUInt64EiyPNS1_2io17CodedOutputStreamE (from libprotobuf-lite)
                 (undefined) external __ZN20wireless_diagnostics6google8protobuf8internal14WireFormatLite12WriteMessageEiRKNS1_11MessageLiteEPNS1_2io17CodedOutputStreamE (from libprotobuf-lite)
                 (undefined) external __ZN20wireless_diagnostics6google8protobuf8internal14WireFormatLite22ReadPackedEnumNoInlineEPNS1_2io16CodedInputStreamEPFbiEPNS1_13RepeatedFieldIiEE (from libprotobuf-lite)
000000000002f3b4 (__TEXT,__text) non-external (was a private external) __ZN20wireless_diagnostics6google8protobuf8internal14WireFormatLite27ReadPackedPrimitiveNoInlineIfLNS3_9FieldTypeE2EEEbPNS1_2io16CodedInputStreamEPNS1_13RepeatedFieldIT_EE
00000000000447e0 (__TEXT,__text) non-external (was a private external) __ZN20wireless_diagnostics6google8protobuf8internal14WireFormatLite27ReadPackedPrimitiveNoInlineIiLNS3_9FieldTypeE17EEEbPNS1_2io16CodedInputStreamEPNS1_13RepeatedFieldIT_EE
0000000000006d9c (__TEXT,__text) non-external (was a private external) __ZN20wireless_diagnostics6google8protobuf8internal14WireFormatLite27ReadPackedPrimitiveNoInlineIiLNS3_9FieldTypeE5EEEbPNS1_2io16CodedInputStreamEPNS1_13RepeatedFieldIT_EE
00000000000232e0 (__TEXT,__text) non-external (was a private external) __ZN20wireless_diagnostics6google8protobuf8internal14WireFormatLite27ReadPackedPrimitiveNoInlineIjLNS3_9FieldTypeE13EEEbPNS1_2io16CodedInputStreamEPNS1_13RepeatedFieldIT_EE
0000000000085994 (__TEXT,__text) non-external (was a private external) __ZN20wireless_diagnostics6google8protobuf8internal14WireFormatLite27ReadPackedPrimitiveNoInlineIyLNS3_9FieldTypeE4EEEbPNS1_2io16CodedInputStreamEPNS1_13RepeatedFieldIT_EE
000000000001d984 (__TEXT,__text) non-external (was a private external) __ZN20wireless_diagnostics6google8protobuf8internal14WireFormatLite29ReadRepeatedPrimitiveNoInlineIjLNS3_9FieldTypeE13EEEbijPNS1_2io16CodedInputStreamEPNS1_13RepeatedFieldIT_EE
                 (undefined) external __ZN20wireless_diagnostics6google8protobuf8internal14WireFormatLite9ReadBytesEPNS1_2io16CodedInputStreamEPNSt3__112basic_stringIcNS7_11char_traitsIcEENS7_9allocatorIcEEEE (from libprotobuf-lite)
                 (undefined) external __ZN20wireless_diagnostics6google8protobuf8internal14WireFormatLite9SkipFieldEPNS1_2io16CodedInputStreamEj (from libprotobuf-lite)
                 (undefined) external __ZN20wireless_diagnostics6google8protobuf8internal14WireFormatLite9WriteBoolEibPNS1_2io17CodedOutputStreamE (from libprotobuf-lite)
                 (undefined) external __ZN20wireless_diagnostics6google8protobuf8internal14WireFormatLite9WriteEnumEiiPNS1_2io17CodedOutputStreamE (from libprotobuf-lite)
                 (undefined) external __ZN20wireless_diagnostics6google8protobuf8internal20RepeatedPtrFieldBase4SwapEPS3_ (from libprotobuf-lite)
000000000006fb74 (__TEXT,__text) non-external (was a private external) __ZN20wireless_diagnostics6google8protobuf8internal20RepeatedPtrFieldBase5ClearINS1_16RepeatedPtrFieldINSt3__112basic_stringIcNS6_11char_traitsIcEENS6_9allocatorIcEEEEE11TypeHandlerEEEvv
0000000000078438 (__TEXT,__text) non-external (was a private external) __ZN20wireless_diagnostics6google8protobuf8internal20RepeatedPtrFieldBase7DestroyINS1_16RepeatedPtrFieldIN3awd7metrics16LocationTileFileEE11TypeHandlerEEEvv
00000000000783e4 (__TEXT,__text) non-external (was a private external) __ZN20wireless_diagnostics6google8protobuf8internal20RepeatedPtrFieldBase7DestroyINS1_16RepeatedPtrFieldIN3awd7metrics18LocationSessionDayEE11TypeHandlerEEEvv
000000000006fdfe (__TEXT,__text) non-external (was a private external) __ZN20wireless_diagnostics6google8protobuf8internal20RepeatedPtrFieldBase7DestroyINS1_16RepeatedPtrFieldIN3awd7metrics20LocationBatteryStateEE11TypeHandlerEEEvv
0000000000078390 (__TEXT,__text) non-external (was a private external) __ZN20wireless_diagnostics6google8protobuf8internal20RepeatedPtrFieldBase7DestroyINS1_16RepeatedPtrFieldIN3awd7metrics21LocationTileFileUsageEE11TypeHandlerEEEvv
0000000000088dcc (__TEXT,__text) non-external (was a private external) __ZN20wireless_diagnostics6google8protobuf8internal20RepeatedPtrFieldBase7DestroyINS1_16RepeatedPtrFieldIN3awd7metrics27LocationPeerRangingDecisionEE11TypeHandlerEEEvv
0000000000088e20 (__TEXT,__text) non-external (was a private external) __ZN20wireless_diagnostics6google8protobuf8internal20RepeatedPtrFieldBase7DestroyINS1_16RepeatedPtrFieldIN3awd7metrics27LocationPeerRangingMetaDataEE11TypeHandlerEEEvv
00000000000838f4 (__TEXT,__text) non-external (was a private external) __ZN20wireless_diagnostics6google8protobuf8internal20RepeatedPtrFieldBase7DestroyINS1_16RepeatedPtrFieldIN3awd7metrics31LocationMicroLocationModelStateEE11TypeHandlerEEEvv
0000000000088f1c (__TEXT,__text) non-external (was a private external) __ZN20wireless_diagnostics6google8protobuf8internal20RepeatedPtrFieldBase7DestroyINS1_16RepeatedPtrFieldIN3awd7metrics31LocationPeerRangingBurstMetricsEE11TypeHandlerEEEvv
000000000006ff30 (__TEXT,__text) non-external (was a private external) __ZN20wireless_diagnostics6google8protobuf8internal20RepeatedPtrFieldBase7DestroyINS1_16RepeatedPtrFieldIN3awd7metrics33LocationSubHarvesterUploadAttemptEE11TypeHandlerEEEvv
0000000000070bd8 (__TEXT,__text) non-external (was a private external) __ZN20wireless_diagnostics6google8protobuf8internal20RepeatedPtrFieldBase7DestroyINS1_16RepeatedPtrFieldIN3awd7metrics34LocationAccessory_MessageHistogramEE11TypeHandlerEEEvv
0000000000083948 (__TEXT,__text) non-external (was a private external) __ZN20wireless_diagnostics6google8protobuf8internal20RepeatedPtrFieldBase7DestroyINS1_16RepeatedPtrFieldIN3awd7metrics34LocationMicroLocationLearningStateEE11TypeHandlerEEEvv
000000000008399c (__TEXT,__text) non-external (was a private external) __ZN20wireless_diagnostics6google8protobuf8internal20RepeatedPtrFieldBase7DestroyINS1_16RepeatedPtrFieldIN3awd7metrics35LocationMicroLocationAnalyticsStateEE11TypeHandlerEEEvv
000000000008366c (__TEXT,__text) non-external (was a private external) __ZN20wireless_diagnostics6google8protobuf8internal20RepeatedPtrFieldBase7DestroyINS1_16RepeatedPtrFieldIN3awd7metrics35LocationMicroLocationEventHistogramEE11TypeHandlerEEEvv
0000000000070938 (__TEXT,__text) non-external (was a private external) __ZN20wireless_diagnostics6google8protobuf8internal20RepeatedPtrFieldBase7DestroyINS1_16RepeatedPtrFieldIN3awd7metrics36LocationAccessory_PerfRangeHistogramEE11TypeHandlerEEEvv
0000000000088ec8 (__TEXT,__text) non-external (was a private external) __ZN20wireless_diagnostics6google8protobuf8internal20RepeatedPtrFieldBase7DestroyINS1_16RepeatedPtrFieldIN3awd7metrics37LocationPeerRangingMeasurementMetricsEE11TypeHandlerEEEvv
0000000000070b30 (__TEXT,__text) non-external (was a private external) __ZN20wireless_diagnostics6google8protobuf8internal20RepeatedPtrFieldBase7DestroyINS1_16RepeatedPtrFieldIN3awd7metrics38LocationAccessory_NavDynamicsHistogramEE11TypeHandlerEEEvv
0000000000083a44 (__TEXT,__text) non-external (was a private external) __ZN20wireless_diagnostics6google8protobuf8internal20RepeatedPtrFieldBase7DestroyINS1_16RepeatedPtrFieldIN3awd7metrics38LocationMicroLocationClusteringByModelEE11TypeHandlerEEEvv
000000000008352e (__TEXT,__text) non-external (was a private external) __ZN20wireless_diagnostics6google8protobuf8internal20RepeatedPtrFieldBase7DestroyINS1_16RepeatedPtrFieldIN3awd7metrics38LocationMicroLocationEventTypeAndCountEE11TypeHandlerEEEvv
00000000000708e4 (__TEXT,__text) non-external (was a private external) __ZN20wireless_diagnostics6google8protobuf8internal20RepeatedPtrFieldBase7DestroyINS1_16RepeatedPtrFieldIN3awd7metrics39LocationAccessory_ChargingTypeHistogramEE11TypeHandlerEEEvv
00000000000709e0 (__TEXT,__text) non-external (was a private external) __ZN20wireless_diagnostics6google8protobuf8internal20RepeatedPtrFieldBase7DestroyINS1_16RepeatedPtrFieldIN3awd7metrics39LocationAccessory_LatencyRangeHistogramEE11TypeHandlerEEEvv
0000000000070adc (__TEXT,__text) non-external (was a private external) __ZN20wireless_diagnostics6google8protobuf8internal20RepeatedPtrFieldBase7DestroyINS1_16RepeatedPtrFieldIN3awd7metrics40LocationAccessory_LocationAppRunningTimeEE11TypeHandlerEEEvv
000000000008384c (__TEXT,__text) non-external (was a private external) __ZN20wireless_diagnostics6google8protobuf8internal20RepeatedPtrFieldBase7DestroyINS1_16RepeatedPtrFieldIN3awd7metrics40LocationMicroLocationUserEventStatisticsEE11TypeHandlerEEEvv
0000000000088f70 (__TEXT,__text) non-external (was a private external) __ZN20wireless_diagnostics6google8protobuf8internal20RepeatedPtrFieldBase7DestroyINS1_16RepeatedPtrFieldIN3awd7metrics40LocationPeerRangingEarlyTerminateMetricsEE11TypeHandlerEEEvv
0000000000088fc4 (__TEXT,__text) non-external (was a private external) __ZN20wireless_diagnostics6google8protobuf8internal20RepeatedPtrFieldBase7DestroyINS1_16RepeatedPtrFieldIN3awd7metrics40LocationPeerRangingUnlockDecisionMetricsEE11TypeHandlerEEEvv
000000000007098c (__TEXT,__text) non-external (was a private external) __ZN20wireless_diagnostics6google8protobuf8internal20RepeatedPtrFieldBase7DestroyINS1_16RepeatedPtrFieldIN3awd7metrics41LocationAccessory_SpeedPerfRangeHistogramEE11TypeHandlerEEEvv
00000000000702fa (__TEXT,__text) non-external (was a private external) __ZN20wireless_diagnostics6google8protobuf8internal20RepeatedPtrFieldBase7DestroyINS1_16RepeatedPtrFieldIN3awd7metrics41LocationGPSSessionStatistics_ChecksumDataEE11TypeHandlerEEEvv
0000000000070546 (__TEXT,__text) non-external (was a private external) __ZN20wireless_diagnostics6google8protobuf8internal20RepeatedPtrFieldBase7DestroyINS1_16RepeatedPtrFieldIN3awd7metrics41LocationGPSSessionStatistics_NSOnOffStateEE11TypeHandlerEEEvv
00000000000839f0 (__TEXT,__text) non-external (was a private external) __ZN20wireless_diagnostics6google8protobuf8internal20RepeatedPtrFieldBase7DestroyINS1_16RepeatedPtrFieldIN3awd7metrics41LocationMicroLocationClusteringStatisticsEE11TypeHandlerEEEvv
0000000000088e74 (__TEXT,__text) non-external (was a private external) __ZN20wireless_diagnostics6google8protobuf8internal20RepeatedPtrFieldBase7DestroyINS1_16RepeatedPtrFieldIN3awd7metrics41LocationPeerRangingEstimatorConfigurationEE11TypeHandlerEEEvv
0000000000070a88 (__TEXT,__text) non-external (was a private external) __ZN20wireless_diagnostics6google8protobuf8internal20RepeatedPtrFieldBase7DestroyINS1_16RepeatedPtrFieldIN3awd7metrics42LocationAccessory_PASCDSampleSizeHistogramEE11TypeHandlerEEEvv
00000000000837f8 (__TEXT,__text) non-external (was a private external) __ZN20wireless_diagnostics6google8protobuf8internal20RepeatedPtrFieldBase7DestroyINS1_16RepeatedPtrFieldIN3awd7metrics42LocationMicroLocationMeasurementStatisticsEE11TypeHandlerEEEvv
000000000007034e (__TEXT,__text) non-external (was a private external) __ZN20wireless_diagnostics6google8protobuf8internal20RepeatedPtrFieldBase7DestroyINS1_16RepeatedPtrFieldIN3awd7metrics43LocationGPSSessionStatistics_PowerStateDataEE11TypeHandlerEEEvv
00000000000838a0 (__TEXT,__text) non-external (was a private external) __ZN20wireless_diagnostics6google8protobuf8internal20RepeatedPtrFieldBase7DestroyINS1_16RepeatedPtrFieldIN3awd7metrics43LocationMicroLocationLocalizationStatisticsEE11TypeHandlerEEEvv
0000000000070a34 (__TEXT,__text) non-external (was a private external) __ZN20wireless_diagnostics6google8protobuf8internal20RepeatedPtrFieldBase7DestroyINS1_16RepeatedPtrFieldIN3awd7metrics44LocationAccessory_PASCDTransmissionHistogramEE11TypeHandlerEEEvv
000000000007044a (__TEXT,__text) non-external (was a private external) __ZN20wireless_diagnostics6google8protobuf8internal20RepeatedPtrFieldBase7DestroyINS1_16RepeatedPtrFieldIN3awd7metrics44LocationGPSSessionStatistics_ChargerTypeDataEE11TypeHandlerEEEvv
0000000000070252 (__TEXT,__text) non-external (was a private external) __ZN20wireless_diagnostics6google8protobuf8internal20RepeatedPtrFieldBase7DestroyINS1_16RepeatedPtrFieldIN3awd7metrics44LocationGPSSessionStatistics_MovingStateDataEE11TypeHandlerEEEvv
00000000000837a4 (__TEXT,__text) non-external (was a private external) __ZN20wireless_diagnostics6google8protobuf8internal20RepeatedPtrFieldBase7DestroyINS1_16RepeatedPtrFieldIN3awd7metrics44LocationMicroLocationEventSignificanceMetricEE11TypeHandlerEEEvv
00000000000702a6 (__TEXT,__text) non-external (was a private external) __ZN20wireless_diagnostics6google8protobuf8internal20RepeatedPtrFieldBase7DestroyINS1_16RepeatedPtrFieldIN3awd7metrics45LocationGPSSessionStatistics_MountedStateDataEE11TypeHandlerEEEvv
00000000000704f2 (__TEXT,__text) non-external (was a private external) __ZN20wireless_diagnostics6google8protobuf8internal20RepeatedPtrFieldBase7DestroyINS1_16RepeatedPtrFieldIN3awd7metrics45LocationGPSSessionStatistics_NSForceOffReasonEE11TypeHandlerEEEvv
000000000007049e (__TEXT,__text) non-external (was a private external) __ZN20wireless_diagnostics6google8protobuf8internal20RepeatedPtrFieldBase7DestroyINS1_16RepeatedPtrFieldIN3awd7metrics45LocationGPSSessionStatistics_ThermalLevelDataEE11TypeHandlerEEEvv
0000000000083a98 (__TEXT,__text) non-external (was a private external) __ZN20wireless_diagnostics6google8protobuf8internal20RepeatedPtrFieldBase7DestroyINS1_16RepeatedPtrFieldIN3awd7metrics46LocationMicroLocationEventClusteringStatisticsEE11TypeHandlerEEEvv
0000000000070b84 (__TEXT,__text) non-external (was a private external) __ZN20wireless_diagnostics6google8protobuf8internal20RepeatedPtrFieldBase7DestroyINS1_16RepeatedPtrFieldIN3awd7metrics47LocationAccessory_NMEAScreeningLocTypeHistogramEE11TypeHandlerEEEvv
00000000000701fe (__TEXT,__text) non-external (was a private external) __ZN20wireless_diagnostics6google8protobuf8internal20RepeatedPtrFieldBase7DestroyINS1_16RepeatedPtrFieldIN3awd7metrics47LocationGPSSessionStatistics_MotionActivityDataEE11TypeHandlerEEEvv
000000000007005a (__TEXT,__text) non-external (was a private external) __ZN20wireless_diagnostics6google8protobuf8internal20RepeatedPtrFieldBase7DestroyINS1_16RepeatedPtrFieldIN3awd7metrics48LocationGPSSessionStatistics_JammingMetricBucketEE11TypeHandlerEEEvv
00000000000703f6 (__TEXT,__text) non-external (was a private external) __ZN20wireless_diagnostics6google8protobuf8internal20RepeatedPtrFieldBase7DestroyINS1_16RepeatedPtrFieldIN3awd7metrics49LocationGPSSessionStatistics_PowerMeasurementDataEE11TypeHandlerEEEvv
00000000000700ae (__TEXT,__text) non-external (was a private external) __ZN20wireless_diagnostics6google8protobuf8internal20RepeatedPtrFieldBase7DestroyINS1_16RepeatedPtrFieldIN3awd7metrics49LocationGPSSessionStatistics_UncertaintyRangeDataEE11TypeHandlerEEEvv
00000000000703a2 (__TEXT,__text) non-external (was a private external) __ZN20wireless_diagnostics6google8protobuf8internal20RepeatedPtrFieldBase7DestroyINS1_16RepeatedPtrFieldIN3awd7metrics50LocationGPSSessionStatistics_DeviceOrientationDataEE11TypeHandlerEEEvv
0000000000070156 (__TEXT,__text) non-external (was a private external) __ZN20wireless_diagnostics6google8protobuf8internal20RepeatedPtrFieldBase7DestroyINS1_16RepeatedPtrFieldIN3awd7metrics50LocationGPSSessionStatistics_SatelliteCNORangeDataEE11TypeHandlerEEEvv
0000000000070102 (__TEXT,__text) non-external (was a private external) __ZN20wireless_diagnostics6google8protobuf8internal20RepeatedPtrFieldBase7DestroyINS1_16RepeatedPtrFieldIN3awd7metrics50LocationGPSSessionStatistics_SignalEnvironmentDataEE11TypeHandlerEEEvv
00000000000701aa (__TEXT,__text) non-external (was a private external) __ZN20wireless_diagnostics6google8protobuf8internal20RepeatedPtrFieldBase7DestroyINS1_16RepeatedPtrFieldIN3awd7metrics52LocationGPSSessionStatistics_SatelliteCountRangeDataEE11TypeHandlerEEEvv
00000000000707aa (__TEXT,__text) non-external (was a private external) __ZN20wireless_diagnostics6google8protobuf8internal20RepeatedPtrFieldBase7DestroyINS1_16RepeatedPtrFieldIN3awd7metrics54LocationGnssSWRecoveryStatistics_LocationRecoveryPointEE11TypeHandlerEEEvv
000000000007059a (__TEXT,__text) non-external (was a private external) __ZN20wireless_diagnostics6google8protobuf8internal20RepeatedPtrFieldBase7DestroyINS1_16RepeatedPtrFieldIN3awd7metrics55LocationGPSSessionStatistics_JammingMetricDataPerSignalEE11TypeHandlerEEEvv
000000000006fcb6 (__TEXT,__text) non-external (was a private external) __ZN20wireless_diagnostics6google8protobuf8internal20RepeatedPtrFieldBase7DestroyINS1_16RepeatedPtrFieldINSt3__112basic_stringIcNS6_11char_traitsIcEENS6_9allocatorIcEEEEE11TypeHandlerEEEvv
                 (undefined) external __ZN20wireless_diagnostics6google8protobuf8internal20RepeatedPtrFieldBase7ReserveEi (from libprotobuf-lite)
000000000007848c (__TEXT,__text) non-external (was a private external) __ZN20wireless_diagnostics6google8protobuf8internal20RepeatedPtrFieldBase9MergeFromINS1_16RepeatedPtrFieldIN3awd7metrics16LocationTileFileEE11TypeHandlerEEEvRKS3_
000000000006fe52 (__TEXT,__text) non-external (was a private external) __ZN20wireless_diagnostics6google8protobuf8internal20RepeatedPtrFieldBase9MergeFromINS1_16RepeatedPtrFieldIN3awd7metrics20LocationBatteryStateEE11TypeHandlerEEEvRKS3_
0000000000083cc6 (__TEXT,__text) non-external (was a private external) __ZN20wireless_diagnostics6google8protobuf8internal20RepeatedPtrFieldBase9MergeFromINS1_16RepeatedPtrFieldIN3awd7metrics31LocationMicroLocationModelStateEE11TypeHandlerEEEvRKS3_
000000000006ff84 (__TEXT,__text) non-external (was a private external) __ZN20wireless_diagnostics6google8protobuf8internal20RepeatedPtrFieldBase9MergeFromINS1_16RepeatedPtrFieldIN3awd7metrics33LocationSubHarvesterUploadAttemptEE11TypeHandlerEEEvRKS3_
0000000000070d0e (__TEXT,__text) non-external (was a private external) __ZN20wireless_diagnostics6google8protobuf8internal20RepeatedPtrFieldBase9MergeFromINS1_16RepeatedPtrFieldIN3awd7metrics34LocationAccessory_MessageHistogramEE11TypeHandlerEEEvRKS3_
0000000000083daa (__TEXT,__text) non-external (was a private external) __ZN20wireless_diagnostics6google8protobuf8internal20RepeatedPtrFieldBase9MergeFromINS1_16RepeatedPtrFieldIN3awd7metrics34LocationMicroLocationLearningStateEE11TypeHandlerEEEvRKS3_
0000000000083e92 (__TEXT,__text) non-external (was a private external) __ZN20wireless_diagnostics6google8protobuf8internal20RepeatedPtrFieldBase9MergeFromINS1_16RepeatedPtrFieldIN3awd7metrics35LocationMicroLocationAnalyticsStateEE11TypeHandlerEEEvRKS3_
00000000000836c0 (__TEXT,__text) non-external (was a private external) __ZN20wireless_diagnostics6google8protobuf8internal20RepeatedPtrFieldBase9MergeFromINS1_16RepeatedPtrFieldIN3awd7metrics35LocationMicroLocationEventHistogramEE11TypeHandlerEEEvRKS3_
00000000000890fe (__TEXT,__text) non-external (was a private external) __ZN20wireless_diagnostics6google8protobuf8internal20RepeatedPtrFieldBase9MergeFromINS1_16RepeatedPtrFieldIN3awd7metrics37LocationPeerRangingMeasurementMetricsEE11TypeHandlerEEEvRKS3_
0000000000083f7a (__TEXT,__text) non-external (was a private external) __ZN20wireless_diagnostics6google8protobuf8internal20RepeatedPtrFieldBase9MergeFromINS1_16RepeatedPtrFieldIN3awd7metrics38LocationMicroLocationClusteringByModelEE11TypeHandlerEEEvRKS3_
0000000000083582 (__TEXT,__text) non-external (was a private external) __ZN20wireless_diagnostics6google8protobuf8internal20RepeatedPtrFieldBase9MergeFromINS1_16RepeatedPtrFieldIN3awd7metrics38LocationMicroLocationEventTypeAndCountEE11TypeHandlerEEEvRKS3_
0000000000070c2c (__TEXT,__text) non-external (was a private external) __ZN20wireless_diagnostics6google8protobuf8internal20RepeatedPtrFieldBase9MergeFromINS1_16RepeatedPtrFieldIN3awd7metrics40LocationAccessory_LocationAppRunningTimeEE11TypeHandlerEEEvRKS3_
00000000000891e4 (__TEXT,__text) non-external (was a private external) __ZN20wireless_diagnostics6google8protobuf8internal20RepeatedPtrFieldBase9MergeFromINS1_16RepeatedPtrFieldIN3awd7metrics40LocationPeerRangingEarlyTerminateMetricsEE11TypeHandlerEEEvRKS3_
00000000000892c2 (__TEXT,__text) non-external (was a private external) __ZN20wireless_diagnostics6google8protobuf8internal20RepeatedPtrFieldBase9MergeFromINS1_16RepeatedPtrFieldIN3awd7metrics40LocationPeerRangingUnlockDecisionMetricsEE11TypeHandlerEEEvRKS3_
00000000000705ee (__TEXT,__text) non-external (was a private external) __ZN20wireless_diagnostics6google8protobuf8internal20RepeatedPtrFieldBase9MergeFromINS1_16RepeatedPtrFieldIN3awd7metrics41LocationGPSSessionStatistics_ChecksumDataEE11TypeHandlerEEEvRKS3_
0000000000089018 (__TEXT,__text) non-external (was a private external) __ZN20wireless_diagnostics6google8protobuf8internal20RepeatedPtrFieldBase9MergeFromINS1_16RepeatedPtrFieldIN3awd7metrics41LocationPeerRangingEstimatorConfigurationEE11TypeHandlerEEEvRKS3_
0000000000083aec (__TEXT,__text) non-external (was a private external) __ZN20wireless_diagnostics6google8protobuf8internal20RepeatedPtrFieldBase9MergeFromINS1_16RepeatedPtrFieldIN3awd7metrics42LocationMicroLocationMeasurementStatisticsEE11TypeHandlerEEEvRKS3_
0000000000083bdc (__TEXT,__text) non-external (was a private external) __ZN20wireless_diagnostics6google8protobuf8internal20RepeatedPtrFieldBase9MergeFromINS1_16RepeatedPtrFieldIN3awd7metrics43LocationMicroLocationLocalizationStatisticsEE11TypeHandlerEEEvRKS3_
000000000008405e (__TEXT,__text) non-external (was a private external) __ZN20wireless_diagnostics6google8protobuf8internal20RepeatedPtrFieldBase9MergeFromINS1_16RepeatedPtrFieldIN3awd7metrics46LocationMicroLocationEventClusteringStatisticsEE11TypeHandlerEEEvRKS3_
00000000000707fe (__TEXT,__text) non-external (was a private external) __ZN20wireless_diagnostics6google8protobuf8internal20RepeatedPtrFieldBase9MergeFromINS1_16RepeatedPtrFieldIN3awd7metrics54LocationGnssSWRecoveryStatistics_LocationRecoveryPointEE11TypeHandlerEEEvRKS3_
00000000000706c8 (__TEXT,__text) non-external (was a private external) __ZN20wireless_diagnostics6google8protobuf8internal20RepeatedPtrFieldBase9MergeFromINS1_16RepeatedPtrFieldIN3awd7metrics55LocationGPSSessionStatistics_JammingMetricDataPerSignalEE11TypeHandlerEEEvRKS3_
                 (undefined) external __ZN20wireless_diagnostics6google8protobuf8internal21StringTypeHandlerBase3NewEv (from libprotobuf-lite)
                 (undefined) external __ZN20wireless_diagnostics6google8protobuf8internal21StringTypeHandlerBase6DeleteEPNSt3__112basic_stringIcNS4_11char_traitsIcEENS4_9allocatorIcEEEE (from libprotobuf-lite)
0000000000019ed4 (__TEXT,__text) external __ZN3awd7metrics11MotionState10SharedCtorEv
000000000001a088 (__TEXT,__text) external __ZN3awd7metrics11MotionState10SharedDtorEv
000000000001a13c (__TEXT,__text) external __ZN3awd7metrics11MotionState16default_instanceEv
000000000009d078 (__DATA_DIRTY,__common) external __ZN3awd7metrics11MotionState17default_instance_E
000000000008bb98 (__TEXT,__const) external __ZN3awd7metrics11MotionState19kEnabledFieldNumberE
000000000008bb90 (__TEXT,__const) external __ZN3awd7metrics11MotionState20kBundleidFieldNumberE
000000000001a5a8 (__TEXT,__text) external __ZN3awd7metrics11MotionState21CheckTypeAndMergeFromERKN20wireless_diagnostics6google8protobuf11MessageLiteE
00000000000899fd (__TEXT,__text) non-external __ZN3awd7metrics11MotionState21CheckTypeAndMergeFromERKN20wireless_diagnostics6google8protobuf11MessageLiteE.cold.1
0000000000003a9e (__TEXT,__text) external __ZN3awd7metrics11MotionState21InitAsDefaultInstanceEv
000000000008bb8c (__TEXT,__const) external __ZN3awd7metrics11MotionState21kTimestampFieldNumberE
000000000008bb94 (__TEXT,__const) external __ZN3awd7metrics11MotionState22kMotionTypeFieldNumberE
000000000001a1f4 (__TEXT,__text) external __ZN3awd7metrics11MotionState27MergePartialFromCodedStreamEPN20wireless_diagnostics6google8protobuf2io16CodedInputStreamE
000000000001a616 (__TEXT,__text) external __ZN3awd7metrics11MotionState4SwapEPS1_
000000000001a1a0 (__TEXT,__text) external __ZN3awd7metrics11MotionState5ClearEv
000000000001a5e6 (__TEXT,__text) external __ZN3awd7metrics11MotionState8CopyFromERKS1_
0000000000019f4c (__TEXT,__text) external __ZN3awd7metrics11MotionState9MergeFromERKS1_
000000000001a058 (__TEXT,__text) external __ZN3awd7metrics11MotionStateC1ERKS1_
0000000000002c7a (__TEXT,__text) external __ZN3awd7metrics11MotionStateC1Ev
0000000000019efa (__TEXT,__text) external __ZN3awd7metrics11MotionStateC2ERKS1_
0000000000019ea4 (__TEXT,__text) external __ZN3awd7metrics11MotionStateC2Ev
000000000001a0fa (__TEXT,__text) external __ZN3awd7metrics11MotionStateD0Ev
000000000001a0d4 (__TEXT,__text) external __ZN3awd7metrics11MotionStateD1Ev
000000000001a062 (__TEXT,__text) external __ZN3awd7metrics11MotionStateD2Ev
000000000001a6ca (__TEXT,__text) external __ZN3awd7metrics13MotionTrigger10SharedCtorEv
000000000001a8d0 (__TEXT,__text) external __ZN3awd7metrics13MotionTrigger10SharedDtorEv
000000000001a956 (__TEXT,__text) external __ZN3awd7metrics13MotionTrigger16default_instanceEv
000000000009d080 (__DATA_DIRTY,__common) external __ZN3awd7metrics13MotionTrigger17default_instance_E
000000000008bba0 (__TEXT,__const) external __ZN3awd7metrics13MotionTrigger20kBundleidFieldNumberE
000000000001aff0 (__TEXT,__text) external __ZN3awd7metrics13MotionTrigger21CheckTypeAndMergeFromERKN20wireless_diagnostics6google8protobuf11MessageLiteE
0000000000089a20 (__TEXT,__text) non-external __ZN3awd7metrics13MotionTrigger21CheckTypeAndMergeFromERKN20wireless_diagnostics6google8protobuf11MessageLiteE.cold.1
0000000000003aa4 (__TEXT,__text) external __ZN3awd7metrics13MotionTrigger21InitAsDefaultInstanceEv
000000000008bb9c (__TEXT,__const) external __ZN3awd7metrics13MotionTrigger21kTimestampFieldNumberE
000000000008bba8 (__TEXT,__const) external __ZN3awd7metrics13MotionTrigger22kMotionTypeFieldNumberE
000000000008bbb0 (__TEXT,__const) external __ZN3awd7metrics13MotionTrigger22kPrototypesFieldNumberE
000000000008bbac (__TEXT,__const) external __ZN3awd7metrics13MotionTrigger23kNumTriggersFieldNumberE
000000000008bba4 (__TEXT,__const) external __ZN3awd7metrics13MotionTrigger24kTimestampEndFieldNumberE
000000000001aa26 (__TEXT,__text) external __ZN3awd7metrics13MotionTrigger27MergePartialFromCodedStreamEPN20wireless_diagnostics6google8protobuf2io16CodedInputStreamE
000000000001b16a (__TEXT,__text) external __ZN3awd7metrics13MotionTrigger4SwapEPS1_
000000000001a9c2 (__TEXT,__text) external __ZN3awd7metrics13MotionTrigger5ClearEv
000000000001b13a (__TEXT,__text) external __ZN3awd7metrics13MotionTrigger8CopyFromERKS1_
000000000001a762 (__TEXT,__text) external __ZN3awd7metrics13MotionTrigger9MergeFromERKS1_
000000000001a88e (__TEXT,__text) external __ZN3awd7metrics13MotionTriggerC1ERKS1_
0000000000002caa (__TEXT,__text) external __ZN3awd7metrics13MotionTriggerC1Ev
000000000001a6ec (__TEXT,__text) external __ZN3awd7metrics13MotionTriggerC2ERKS1_
000000000001a692 (__TEXT,__text) external __ZN3awd7metrics13MotionTriggerC2Ev
000000000001a926 (__TEXT,__text) external __ZN3awd7metrics13MotionTriggerD0Ev
000000000001a91c (__TEXT,__text) external __ZN3awd7metrics13MotionTriggerD1Ev
000000000001a898 (__TEXT,__text) external __ZN3awd7metrics13MotionTriggerD2Ev
000000000008ba90 (__TEXT,__const) external __ZN3awd7metrics14CompassSession10Level3DMedE
0000000000015fea (__TEXT,__text) external __ZN3awd7metrics14CompassSession10SharedCtorEv
00000000000168a8 (__TEXT,__text) external __ZN3awd7metrics14CompassSession10SharedDtorEv
000000000008ba80 (__TEXT,__const) external __ZN3awd7metrics14CompassSession10UnreliableE
000000000008ba84 (__TEXT,__const) external __ZN3awd7metrics14CompassSession11Level2DWeakE
000000000008ba8c (__TEXT,__const) external __ZN3awd7metrics14CompassSession11Level3DWeakE
000000000008baa8 (__TEXT,__const) external __ZN3awd7metrics14CompassSession12NotAvailableE
000000000008ba7c (__TEXT,__const) external __ZN3awd7metrics14CompassSession12UncalibratedE
000000000008bab8 (__TEXT,__const) external __ZN3awd7metrics14CompassSession14CoverState_MAXE
000000000008bab4 (__TEXT,__const) external __ZN3awd7metrics14CompassSession14CoverState_MINE
00000000000169c2 (__TEXT,__text) external __ZN3awd7metrics14CompassSession16default_instanceEv
000000000009d060 (__DATA_DIRTY,__common) external __ZN3awd7metrics14CompassSession17default_instance_E
000000000008baec (__TEXT,__const) external __ZN3awd7metrics14CompassSession19kGyroAgeFieldNumberE
000000000008baa0 (__TEXT,__const) external __ZN3awd7metrics14CompassSession20CalibrationLevel_MAXE
000000000008ba9c (__TEXT,__const) external __ZN3awd7metrics14CompassSession20CalibrationLevel_MINE
000000000008babc (__TEXT,__const) external __ZN3awd7metrics14CompassSession20CoverState_ARRAYSIZEE
000000000008bad0 (__TEXT,__const) external __ZN3awd7metrics14CompassSession20kBundleidFieldNumberE
000000000008bab0 (__TEXT,__const) external __ZN3awd7metrics14CompassSession21AvailableAndConnectedE
0000000000018fca (__TEXT,__text) external __ZN3awd7metrics14CompassSession21CheckTypeAndMergeFromERKN20wireless_diagnostics6google8protobuf11MessageLiteE
00000000000899b7 (__TEXT,__text) non-external __ZN3awd7metrics14CompassSession21CheckTypeAndMergeFromERKN20wireless_diagnostics6google8protobuf11MessageLiteE.cold.1
00000000000039e4 (__TEXT,__text) external __ZN3awd7metrics14CompassSession21InitAsDefaultInstanceEv
000000000008bb2c (__TEXT,__const) external __ZN3awd7metrics14CompassSession21kInitStateFieldNumberE
000000000008bacc (__TEXT,__const) external __ZN3awd7metrics14CompassSession21kTimestampFieldNumberE
000000000008baac (__TEXT,__const) external __ZN3awd7metrics14CompassSession24AvailableAndDisconnectedE
000000000008bb4c (__TEXT,__const) external __ZN3awd7metrics14CompassSession24kInitAccuracyFieldNumberE
000000000008bae8 (__TEXT,__const) external __ZN3awd7metrics14CompassSession24kMagnitudeMaxFieldNumberE
000000000008bae4 (__TEXT,__const) external __ZN3awd7metrics14CompassSession24kMagnitudeMinFieldNumberE
000000000008bb10 (__TEXT,__const) external __ZN3awd7metrics14CompassSession24kQuality2DMaxFieldNumberE
000000000008bb0c (__TEXT,__const) external __ZN3awd7metrics14CompassSession24kQuality2DMinFieldNumberE
000000000008bb1c (__TEXT,__const) external __ZN3awd7metrics14CompassSession24kQuality3DMaxFieldNumberE
000000000008bb18 (__TEXT,__const) external __ZN3awd7metrics14CompassSession24kQuality3DMinFieldNumberE
000000000008bad4 (__TEXT,__const) external __ZN3awd7metrics14CompassSession24kTimestampEndFieldNumberE
000000000008bb64 (__TEXT,__const) external __ZN3awd7metrics14CompassSession25kFinalAccuracyFieldNumberE
000000000008bafc (__TEXT,__const) external __ZN3awd7metrics14CompassSession25kGyroDeltaBiasFieldNumberE
000000000008bb14 (__TEXT,__const) external __ZN3awd7metrics14CompassSession25kQuality2DMeanFieldNumberE
000000000008bb20 (__TEXT,__const) external __ZN3awd7metrics14CompassSession25kQuality3DMeanFieldNumberE
000000000008baa4 (__TEXT,__const) external __ZN3awd7metrics14CompassSession26CalibrationLevel_ARRAYSIZEE
000000000008bb00 (__TEXT,__const) external __ZN3awd7metrics14CompassSession26kGyroDeltaSlopeFieldNumberE
000000000008bad8 (__TEXT,__const) external __ZN3awd7metrics14CompassSession26kUncalibrationsFieldNumberE
0000000000016c78 (__TEXT,__text) external __ZN3awd7metrics14CompassSession27MergePartialFromCodedStreamEPN20wireless_diagnostics6google8protobuf2io16CodedInputStreamE
000000000008baf0 (__TEXT,__const) external __ZN3awd7metrics14CompassSession27kGyroFactoryBiasFieldNumberE
000000000008bae0 (__TEXT,__const) external __ZN3awd7metrics14CompassSession28kAchievedAccuracyFieldNumberE
000000000008baf4 (__TEXT,__const) external __ZN3awd7metrics14CompassSession28kGyroFactorySlopeFieldNumberE
000000000008bb54 (__TEXT,__const) external __ZN3awd7metrics14CompassSession28kGyroMagnitudeMaxFieldNumberE
000000000008bb58 (__TEXT,__const) external __ZN3awd7metrics14CompassSession28kPercentSession2DFieldNumberE
000000000008bb50 (__TEXT,__const) external __ZN3awd7metrics14CompassSession30kCoverKeyboardStateFieldNumberE
000000000008bb04 (__TEXT,__const) external __ZN3awd7metrics14CompassSession30kGyroDynamicL2ErrorFieldNumberE
000000000008bb08 (__TEXT,__const) external __ZN3awd7metrics14CompassSession30kGyroDynamicMaxTempFieldNumberE
000000000008baf8 (__TEXT,__const) external __ZN3awd7metrics14CompassSession30kGyroFactoryL2ErrorFieldNumberE
000000000008badc (__TEXT,__const) external __ZN3awd7metrics14CompassSession31kAchievedCalibrationFieldNumberE
000000000008bb30 (__TEXT,__const) external __ZN3awd7metrics14CompassSession31kPercentSessionOtherFieldNumberE
000000000008bb34 (__TEXT,__const) external __ZN3awd7metrics14CompassSession31kPercentSessionStillFieldNumberE
000000000008bb24 (__TEXT,__const) external __ZN3awd7metrics14CompassSession32kNum2DTo3DTransitionsFieldNumberE
000000000008bb28 (__TEXT,__const) external __ZN3awd7metrics14CompassSession32kNum3DTo2DTransitionsFieldNumberE
000000000008bb44 (__TEXT,__const) external __ZN3awd7metrics14CompassSession32kPercentSessionIndoorFieldNumberE
000000000008bb60 (__TEXT,__const) external __ZN3awd7metrics14CompassSession33kLocationDataAvailableFieldNumberE
000000000008bb40 (__TEXT,__const) external __ZN3awd7metrics14CompassSession33kPercentSessionCyclingFieldNumberE
000000000008bb3c (__TEXT,__const) external __ZN3awd7metrics14CompassSession33kPercentSessionDrivingFieldNumberE
000000000008bb48 (__TEXT,__const) external __ZN3awd7metrics14CompassSession35kPercentSessionDrivingHCFieldNumberE
000000000008bb38 (__TEXT,__const) external __ZN3awd7metrics14CompassSession36kPercentSessionPedestrianFieldNumberE
000000000008bb5c (__TEXT,__const) external __ZN3awd7metrics14CompassSession38kPercentSessionUncalibratedFieldNumberE
0000000000019038 (__TEXT,__text) external __ZN3awd7metrics14CompassSession4SwapEPS1_
0000000000016a72 (__TEXT,__text) external __ZN3awd7metrics14CompassSession5ClearEv
000000000008ba88 (__TEXT,__const) external __ZN3awd7metrics14CompassSession7Level2DE
000000000008ba94 (__TEXT,__const) external __ZN3awd7metrics14CompassSession7Level3DE
0000000000019008 (__TEXT,__text) external __ZN3awd7metrics14CompassSession8CopyFromERKS1_
000000000008ba98 (__TEXT,__const) external __ZN3awd7metrics14CompassSession8LevelMaxE
00000000000160f8 (__TEXT,__text) external __ZN3awd7metrics14CompassSession9MergeFromERKS1_
0000000000089971 (__TEXT,__text) non-external __ZN3awd7metrics14CompassSession9MergeFromERKS1_.cold.1
0000000000089994 (__TEXT,__text) non-external __ZN3awd7metrics14CompassSession9MergeFromERKS1_.cold.2
0000000000016878 (__TEXT,__text) external __ZN3awd7metrics14CompassSessionC1ERKS1_
0000000000002bb8 (__TEXT,__text) external __ZN3awd7metrics14CompassSessionC1Ev
000000000001605c (__TEXT,__text) external __ZN3awd7metrics14CompassSessionC2ERKS1_
0000000000015f6e (__TEXT,__text) external __ZN3awd7metrics14CompassSessionC2Ev
000000000001697e (__TEXT,__text) external __ZN3awd7metrics14CompassSessionD0Ev
0000000000016958 (__TEXT,__text) external __ZN3awd7metrics14CompassSessionD1Ev
0000000000016882 (__TEXT,__text) external __ZN3awd7metrics14CompassSessionD2Ev
000000000003e0bc (__TEXT,__text) external __ZN3awd7metrics14MotionSOSEvent10SharedCtorEv
000000000003e2bc (__TEXT,__text) external __ZN3awd7metrics14MotionSOSEvent10SharedDtorEv
000000000008c288 (__TEXT,__const) external __ZN3awd7metrics14MotionSOSEvent13WORKOUT_OTHERE
000000000008c2a8 (__TEXT,__const) external __ZN3awd7metrics14MotionSOSEvent13WORKOUT_ROWERE
000000000008c284 (__TEXT,__const) external __ZN3awd7metrics14MotionSOSEvent15WORKOUT_UNKNOWNE
000000000008c2bc (__TEXT,__const) external __ZN3awd7metrics14MotionSOSEvent15WorkoutType_MAXE
000000000008c2b8 (__TEXT,__const) external __ZN3awd7metrics14MotionSOSEvent15WorkoutType_MINE
000000000008c2f0 (__TEXT,__const) external __ZN3awd7metrics14MotionSOSEvent15kAgeFieldNumberE
000000000008c2b0 (__TEXT,__const) external __ZN3awd7metrics14MotionSOSEvent16WORKOUT_SWIMMINGE
000000000003e310 (__TEXT,__text) external __ZN3awd7metrics14MotionSOSEvent16default_instanceEv
000000000009d110 (__DATA_DIRTY,__common) external __ZN3awd7metrics14MotionSOSEvent17default_instance_E
000000000008c2a4 (__TEXT,__const) external __ZN3awd7metrics14MotionSOSEvent18WORKOUT_ELLIPTICALE
000000000008c294 (__TEXT,__const) external __ZN3awd7metrics14MotionSOSEvent18WORKOUT_INDOOR_RUNE
000000000008c2b4 (__TEXT,__const) external __ZN3awd7metrics14MotionSOSEvent18WORKOUT_WHEELCHAIRE
000000000008c28c (__TEXT,__const) external __ZN3awd7metrics14MotionSOSEvent19WORKOUT_INDOOR_WALKE
000000000008c298 (__TEXT,__const) external __ZN3awd7metrics14MotionSOSEvent19WORKOUT_OUTDOOR_RUNE
000000000008c2dc (__TEXT,__const) external __ZN3awd7metrics14MotionSOSEvent19kDeltaHRFieldNumberE
000000000008c29c (__TEXT,__const) external __ZN3awd7metrics14MotionSOSEvent20WORKOUT_INDOOR_CYCLEE
000000000008c290 (__TEXT,__const) external __ZN3awd7metrics14MotionSOSEvent20WORKOUT_OUTDOOR_WALKE
000000000003ec86 (__TEXT,__text) external __ZN3awd7metrics14MotionSOSEvent21CheckTypeAndMergeFromERKN20wireless_diagnostics6google8protobuf11MessageLiteE
0000000000089e87 (__TEXT,__text) non-external __ZN3awd7metrics14MotionSOSEvent21CheckTypeAndMergeFromERKN20wireless_diagnostics6google8protobuf11MessageLiteE.cold.1
0000000000003b52 (__TEXT,__text) external __ZN3awd7metrics14MotionSOSEvent21InitAsDefaultInstanceEv
000000000008c2a0 (__TEXT,__const) external __ZN3awd7metrics14MotionSOSEvent21WORKOUT_OUTDOOR_CYCLEE
000000000008c2ac (__TEXT,__const) external __ZN3awd7metrics14MotionSOSEvent21WORKOUT_STAIR_STEPPERE
000000000008c2c0 (__TEXT,__const) external __ZN3awd7metrics14MotionSOSEvent21WorkoutType_ARRAYSIZEE
000000000008c2e8 (__TEXT,__const) external __ZN3awd7metrics14MotionSOSEvent21kIsCarModeFieldNumberE
000000000008c2c4 (__TEXT,__const) external __ZN3awd7metrics14MotionSOSEvent21kTimestampFieldNumberE
000000000008c2c8 (__TEXT,__const) external __ZN3awd7metrics14MotionSOSEvent22kIsSOSEventFieldNumberE
000000000008c2ec (__TEXT,__const) external __ZN3awd7metrics14MotionSOSEvent23kWorkoutTypeFieldNumberE
000000000008c2cc (__TEXT,__const) external __ZN3awd7metrics14MotionSOSEvent24kIsHighImpactFieldNumberE
000000000003e3a8 (__TEXT,__text) external __ZN3awd7metrics14MotionSOSEvent27MergePartialFromCodedStreamEPN20wireless_diagnostics6google8protobuf2io16CodedInputStreamE
000000000008c2d8 (__TEXT,__const) external __ZN3awd7metrics14MotionSOSEvent27kMeanPoseNext30SFieldNumberE
000000000008c2e0 (__TEXT,__const) external __ZN3awd7metrics14MotionSOSEvent27kStepsInLast120SFieldNumberE
000000000008c2d0 (__TEXT,__const) external __ZN3awd7metrics14MotionSOSEvent32kPeakAccelMagLast120SFieldNumberE
000000000008c2d4 (__TEXT,__const) external __ZN3awd7metrics14MotionSOSEvent33kIsAccelMagLowLast120SFieldNumberE
000000000008c2e4 (__TEXT,__const) external __ZN3awd7metrics14MotionSOSEvent43kSignedElevationChangeInLast120SFieldNumberE
000000000003ecf4 (__TEXT,__text) external __ZN3awd7metrics14MotionSOSEvent4SwapEPS1_
000000000003e364 (__TEXT,__text) external __ZN3awd7metrics14MotionSOSEvent5ClearEv
000000000003ecc4 (__TEXT,__text) external __ZN3awd7metrics14MotionSOSEvent8CopyFromERKS1_
000000000003e112 (__TEXT,__text) external __ZN3awd7metrics14MotionSOSEvent9MergeFromERKS1_
0000000000089e64 (__TEXT,__text) non-external __ZN3awd7metrics14MotionSOSEvent9MergeFromERKS1_.cold.1
000000000003e29e (__TEXT,__text) external __ZN3awd7metrics14MotionSOSEventC1ERKS1_
000000000000312e (__TEXT,__text) external __ZN3awd7metrics14MotionSOSEventC1Ev
000000000003e0d2 (__TEXT,__text) external __ZN3awd7metrics14MotionSOSEventC2ERKS1_
000000000003e09c (__TEXT,__text) external __ZN3awd7metrics14MotionSOSEventC2Ev
000000000003e2d6 (__TEXT,__text) external __ZN3awd7metrics14MotionSOSEventD0Ev
000000000003e2c2 (__TEXT,__text) external __ZN3awd7metrics14MotionSOSEventD1Ev
000000000003e2a8 (__TEXT,__text) external __ZN3awd7metrics14MotionSOSEventD2Ev
0000000000078f78 (__TEXT,__text) external __ZN3awd7metrics15LOIType_IsValidEi
000000000003da22 (__TEXT,__text) external __ZN3awd7metrics15MotionGyroDaily10SharedCtorEv
000000000003db5a (__TEXT,__text) external __ZN3awd7metrics15MotionGyroDaily10SharedDtorEv
000000000003dbae (__TEXT,__text) external __ZN3awd7metrics15MotionGyroDaily16default_instanceEv
000000000009d108 (__DATA_DIRTY,__common) external __ZN3awd7metrics15MotionGyroDaily17default_instance_E
000000000003dfaa (__TEXT,__text) external __ZN3awd7metrics15MotionGyroDaily21CheckTypeAndMergeFromERKN20wireless_diagnostics6google8protobuf11MessageLiteE
0000000000089e41 (__TEXT,__text) non-external __ZN3awd7metrics15MotionGyroDaily21CheckTypeAndMergeFromERKN20wireless_diagnostics6google8protobuf11MessageLiteE.cold.1
0000000000003b4c (__TEXT,__text) external __ZN3awd7metrics15MotionGyroDaily21InitAsDefaultInstanceEv
000000000008c274 (__TEXT,__const) external __ZN3awd7metrics15MotionGyroDaily21kTimestampFieldNumberE
000000000008c27c (__TEXT,__const) external __ZN3awd7metrics15MotionGyroDaily22kGyroMagMaxFieldNumberE
000000000008c278 (__TEXT,__const) external __ZN3awd7metrics15MotionGyroDaily22kGyroMagMinFieldNumberE
000000000008c280 (__TEXT,__const) external __ZN3awd7metrics15MotionGyroDaily26kMinsGyroActiveFieldNumberE
000000000003dc20 (__TEXT,__text) external __ZN3awd7metrics15MotionGyroDaily27MergePartialFromCodedStreamEPN20wireless_diagnostics6google8protobuf2io16CodedInputStreamE
000000000003e018 (__TEXT,__text) external __ZN3awd7metrics15MotionGyroDaily4SwapEPS1_
000000000003dbfe (__TEXT,__text) external __ZN3awd7metrics15MotionGyroDaily5ClearEv
000000000003dfe8 (__TEXT,__text) external __ZN3awd7metrics15MotionGyroDaily8CopyFromERKS1_
000000000003da70 (__TEXT,__text) external __ZN3awd7metrics15MotionGyroDaily9MergeFromERKS1_
000000000003db3c (__TEXT,__text) external __ZN3awd7metrics15MotionGyroDailyC1ERKS1_
0000000000003112 (__TEXT,__text) external __ZN3awd7metrics15MotionGyroDailyC1Ev
000000000003da34 (__TEXT,__text) external __ZN3awd7metrics15MotionGyroDailyC2ERKS1_
000000000003da06 (__TEXT,__text) external __ZN3awd7metrics15MotionGyroDailyC2Ev
000000000003db74 (__TEXT,__text) external __ZN3awd7metrics15MotionGyroDailyD0Ev
000000000003db60 (__TEXT,__text) external __ZN3awd7metrics15MotionGyroDailyD1Ev
000000000003db46 (__TEXT,__text) external __ZN3awd7metrics15MotionGyroDailyD2Ev
0000000000076550 (__TEXT,__text) external __ZN3awd7metrics16LocationTileFile10SharedCtorEv
00000000000766c6 (__TEXT,__text) external __ZN3awd7metrics16LocationTileFile10SharedDtorEv
000000000008e1d0 (__TEXT,__const) external __ZN3awd7metrics16LocationTileFile13kXFieldNumberE
000000000008e1d4 (__TEXT,__const) external __ZN3awd7metrics16LocationTileFile13kYFieldNumberE
0000000000076706 (__TEXT,__text) external __ZN3awd7metrics16LocationTileFile16default_instanceEv
000000000009d310 (__DATA_DIRTY,__common) external __ZN3awd7metrics16LocationTileFile17default_instance_E
000000000008e1dc (__TEXT,__const) external __ZN3awd7metrics16LocationTileFile17kUsageFieldNumberE
0000000000076c92 (__TEXT,__text) external __ZN3awd7metrics16LocationTileFile21CheckTypeAndMergeFromERKN20wireless_diagnostics6google8protobuf11MessageLiteE
000000000008abe9 (__TEXT,__text) non-external __ZN3awd7metrics16LocationTileFile21CheckTypeAndMergeFromERKN20wireless_diagnostics6google8protobuf11MessageLiteE.cold.1
00000000000712b8 (__TEXT,__text) external __ZN3awd7metrics16LocationTileFile21InitAsDefaultInstanceEv
00000000000767b4 (__TEXT,__text) external __ZN3awd7metrics16LocationTileFile27MergePartialFromCodedStreamEPN20wireless_diagnostics6google8protobuf2io16CodedInputStreamE
000000000008e1d8 (__TEXT,__const) external __ZN3awd7metrics16LocationTileFile30kInitialDownloadDayFieldNumberE
0000000000076e52 (__TEXT,__text) external __ZN3awd7metrics16LocationTileFile4SwapEPS1_
0000000000076764 (__TEXT,__text) external __ZN3awd7metrics16LocationTileFile5ClearEv
0000000000076e22 (__TEXT,__text) external __ZN3awd7metrics16LocationTileFile8CopyFromERKS1_
00000000000765c4 (__TEXT,__text) external __ZN3awd7metrics16LocationTileFile9MergeFromERKS1_
000000000007668a (__TEXT,__text) external __ZN3awd7metrics16LocationTileFileC1ERKS1_
00000000000711be (__TEXT,__text) external __ZN3awd7metrics16LocationTileFileC1Ev
0000000000076568 (__TEXT,__text) external __ZN3awd7metrics16LocationTileFileC2ERKS1_
0000000000076526 (__TEXT,__text) external __ZN3awd7metrics16LocationTileFileC2Ev
00000000000766d6 (__TEXT,__text) external __ZN3awd7metrics16LocationTileFileD0Ev
00000000000766cc (__TEXT,__text) external __ZN3awd7metrics16LocationTileFileD1Ev
0000000000076694 (__TEXT,__text) external __ZN3awd7metrics16LocationTileFileD2Ev
000000000006941a (__TEXT,__text) external __ZN3awd7metrics17LocationAccessory10SharedCtorEv
000000000006a26e (__TEXT,__text) external __ZN3awd7metrics17LocationAccessory10SharedDtorEv
000000000008ccfc (__TEXT,__const) external __ZN3awd7metrics17LocationAccessory10kRideShareE
000000000008ccf0 (__TEXT,__const) external __ZN3awd7metrics17LocationAccessory11kPedestrianE
000000000006a522 (__TEXT,__text) external __ZN3awd7metrics17LocationAccessory16default_instanceEv
000000000008ce10 (__TEXT,__const) external __ZN3awd7metrics17LocationAccessory16kNameFieldNumberE
000000000008ceac (__TEXT,__const) external __ZN3awd7metrics17LocationAccessory16kPpidFieldNumberE
000000000008cc50 (__TEXT,__const) external __ZN3awd7metrics17LocationAccessory17PerfRangeType_MAXE
000000000008cc4c (__TEXT,__const) external __ZN3awd7metrics17LocationAccessory17PerfRangeType_MINE
000000000009d248 (__DATA_DIRTY,__common) external __ZN3awd7metrics17LocationAccessory17default_instance_E
000000000008cca8 (__TEXT,__const) external __ZN3awd7metrics17LocationAccessory17kLatencyRange_1_2E
000000000008ccac (__TEXT,__const) external __ZN3awd7metrics17LocationAccessory17kLatencyRange_2_3E
000000000008ccb0 (__TEXT,__const) external __ZN3awd7metrics17LocationAccessory17kLatencyRange_3_5E
000000000008ce14 (__TEXT,__const) external __ZN3awd7metrics17LocationAccessory17kModelFieldNumberE
000000000008cc18 (__TEXT,__const) external __ZN3awd7metrics17LocationAccessory17kPerfRangeInvalidE
000000000008cc1c (__TEXT,__const) external __ZN3awd7metrics17LocationAccessory17kPerfRangeType0_5E
000000000008ce4c (__TEXT,__const) external __ZN3awd7metrics17LocationAccessory17kSpeedFieldNumberE
000000000008ce48 (__TEXT,__const) external __ZN3awd7metrics17LocationAccessory18kCourseFieldNumberE
000000000008cc20 (__TEXT,__const) external __ZN3awd7metrics17LocationAccessory18kPerfRangeType5_10E
000000000008cd04 (__TEXT,__const) external __ZN3awd7metrics17LocationAccessory19NavDynamicsType_MAXE
000000000008cd00 (__TEXT,__const) external __ZN3awd7metrics17LocationAccessory19NavDynamicsType_MINE
000000000008cc00 (__TEXT,__const) external __ZN3awd7metrics17LocationAccessory19kBatteryChargingUSBE
000000000008ccb4 (__TEXT,__const) external __ZN3awd7metrics17LocationAccessory19kLatencyRangeOver_5E
000000000008cc24 (__TEXT,__const) external __ZN3awd7metrics17LocationAccessory19kPerfRangeType10_15E
000000000008cc28 (__TEXT,__const) external __ZN3awd7metrics17LocationAccessory19kPerfRangeType15_20E
000000000008cc2c (__TEXT,__const) external __ZN3awd7metrics17LocationAccessory19kPerfRangeType20_30E
000000000008cc30 (__TEXT,__const) external __ZN3awd7metrics17LocationAccessory19kPerfRangeType30_40E
000000000008cc34 (__TEXT,__const) external __ZN3awd7metrics17LocationAccessory19kPerfRangeType40_50E
000000000008cc38 (__TEXT,__const) external __ZN3awd7metrics17LocationAccessory19kPerfRangeType50_70E
000000000008ccbc (__TEXT,__const) external __ZN3awd7metrics17LocationAccessory20LatencyRangeType_MAXE
000000000008ccb8 (__TEXT,__const) external __ZN3awd7metrics17LocationAccessory20LatencyRangeType_MINE
000000000008ce44 (__TEXT,__const) external __ZN3awd7metrics17LocationAccessory20kAltitudeFieldNumberE
000000000008cbfc (__TEXT,__const) external __ZN3awd7metrics17LocationAccessory20kBatteryChargingNoneE
000000000008ceb0 (__TEXT,__const) external __ZN3awd7metrics17LocationAccessory20kBundleidFieldNumberE
000000000008cca0 (__TEXT,__const) external __ZN3awd7metrics17LocationAccessory20kLatencyRangeInvalidE
000000000008cc3c (__TEXT,__const) external __ZN3awd7metrics17LocationAccessory20kPerfRangeType70_100E
000000000006dfda (__TEXT,__text) external __ZN3awd7metrics17LocationAccessory21CheckTypeAndMergeFromERKN20wireless_diagnostics6google8protobuf11MessageLiteE
000000000008aad5 (__TEXT,__text) non-external __ZN3awd7metrics17LocationAccessory21CheckTypeAndMergeFromERKN20wireless_diagnostics6google8protobuf11MessageLiteE.cold.1
0000000000003d46 (__TEXT,__text) external __ZN3awd7metrics17LocationAccessory21InitAsDefaultInstanceEv
000000000008cc08 (__TEXT,__const) external __ZN3awd7metrics17LocationAccessory21kBatteryChargingArcasE
000000000008cc40 (__TEXT,__const) external __ZN3awd7metrics17LocationAccessory21kPerfRangeType100_200E
000000000008cc44 (__TEXT,__const) external __ZN3awd7metrics17LocationAccessory21kPerfRangeType200_300E
000000000008cc48 (__TEXT,__const) external __ZN3awd7metrics17LocationAccessory21kPerfRangeTypeOver300E
000000000008cc90 (__TEXT,__const) external __ZN3awd7metrics17LocationAccessory21kSpeedPerfRangeOver10E
000000000008ce08 (__TEXT,__const) external __ZN3awd7metrics17LocationAccessory21kTimestampFieldNumberE
000000000008cc98 (__TEXT,__const) external __ZN3awd7metrics17LocationAccessory22SpeedPerfRangeType_MAXE
000000000008cc94 (__TEXT,__const) external __ZN3awd7metrics17LocationAccessory22SpeedPerfRangeType_MINE
000000000008ce54 (__TEXT,__const) external __ZN3awd7metrics17LocationAccessory22kGpggaStatsFieldNumberE
000000000008ce50 (__TEXT,__const) external __ZN3awd7metrics17LocationAccessory22kGprmcStatsFieldNumberE
000000000008ce58 (__TEXT,__const) external __ZN3awd7metrics17LocationAccessory22kPascdStatsFieldNumberE
000000000008cc58 (__TEXT,__const) external __ZN3awd7metrics17LocationAccessory22kSpeedPerfRangeInvalidE
000000000008cc7c (__TEXT,__const) external __ZN3awd7metrics17LocationAccessory22kSpeedPerfRangeType2_3E
000000000008cc80 (__TEXT,__const) external __ZN3awd7metrics17LocationAccessory22kSpeedPerfRangeType3_4E
000000000008cc84 (__TEXT,__const) external __ZN3awd7metrics17LocationAccessory22kSpeedPerfRangeType4_5E
000000000008cc88 (__TEXT,__const) external __ZN3awd7metrics17LocationAccessory22kSpeedPerfRangeType5_7E
000000000008cc10 (__TEXT,__const) external __ZN3awd7metrics17LocationAccessory23BatteryChargingType_MAXE
000000000008cc0c (__TEXT,__const) external __ZN3awd7metrics17LocationAccessory23BatteryChargingType_MINE
000000000008cc54 (__TEXT,__const) external __ZN3awd7metrics17LocationAccessory23PerfRangeType_ARRAYSIZEE
000000000008cbf8 (__TEXT,__const) external __ZN3awd7metrics17LocationAccessory23kBatteryChargingUnknownE
000000000008cca4 (__TEXT,__const) external __ZN3awd7metrics17LocationAccessory23kLatencyRangeLessThan_1E
000000000008cc8c (__TEXT,__const) external __ZN3awd7metrics17LocationAccessory23kSpeedPerfRangeType7_10E
000000000008ccdc (__TEXT,__const) external __ZN3awd7metrics17LocationAccessory24NMEAscreeningLocType_MAXE
000000000008ccd8 (__TEXT,__const) external __ZN3awd7metrics17LocationAccessory24NMEAscreeningLocType_MINE
000000000008cc04 (__TEXT,__const) external __ZN3awd7metrics17LocationAccessory24kBatteryChargingExternalE
000000000008ce0c (__TEXT,__const) external __ZN3awd7metrics17LocationAccessory24kManufacturerFieldNumberE
000000000008cd08 (__TEXT,__const) external __ZN3awd7metrics17LocationAccessory25NavDynamicsType_ARRAYSIZEE
000000000008ce24 (__TEXT,__const) external __ZN3awd7metrics17LocationAccessory25kIsBlackListedFieldNumberE
000000000008ccc0 (__TEXT,__const) external __ZN3awd7metrics17LocationAccessory26LatencyRangeType_ARRAYSIZEE
000000000006a9f0 (__TEXT,__text) external __ZN3awd7metrics17LocationAccessory27MergePartialFromCodedStreamEPN20wireless_diagnostics6google8protobuf2io16CodedInputStreamE
000000000008ce18 (__TEXT,__const) external __ZN3awd7metrics17LocationAccessory27kFirmwareVersionFieldNumberE
000000000008ce1c (__TEXT,__const) external __ZN3awd7metrics17LocationAccessory27kHardwareVersionFieldNumberE
000000000008cd18 (__TEXT,__const) external __ZN3awd7metrics17LocationAccessory27kPASCDTransmissionStateParkE
000000000008cc5c (__TEXT,__const) external __ZN3awd7metrics17LocationAccessory27kSpeedPerfRangeType0_Point1E
000000000008ce98 (__TEXT,__const) external __ZN3awd7metrics17LocationAccessory27kTtffAllLocationFieldNumberE
000000000008cc9c (__TEXT,__const) external __ZN3awd7metrics17LocationAccessory28SpeedPerfRangeType_ARRAYSIZEE
000000000008ce20 (__TEXT,__const) external __ZN3awd7metrics17LocationAccessory28kAccessoryTypeBitFieldNumberE
000000000008ce60 (__TEXT,__const) external __ZN3awd7metrics17LocationAccessory28kCoarseCoordinateFieldNumberE
000000000008cd10 (__TEXT,__const) external __ZN3awd7metrics17LocationAccessory28kPASCDTransmissionStateDriveE
000000000008cc78 (__TEXT,__const) external __ZN3awd7metrics17LocationAccessory28kSpeedPerfRangeType1Point5_2E
000000000008cc74 (__TEXT,__const) external __ZN3awd7metrics17LocationAccessory28kSpeedPerfRangeType1_1Point5E
000000000008cc70 (__TEXT,__const) external __ZN3awd7metrics17LocationAccessory28kSpeedPerfRangeTypePoint75_1E
000000000008cc14 (__TEXT,__const) external __ZN3awd7metrics17LocationAccessory29BatteryChargingType_ARRAYSIZEE
000000000008ce64 (__TEXT,__const) external __ZN3awd7metrics17LocationAccessory29kDeadReckonedCountFieldNumberE
000000000008ccc8 (__TEXT,__const) external __ZN3awd7metrics17LocationAccessory29kNMEAscreeningLocationTypeGPSE
000000000008ccd4 (__TEXT,__const) external __ZN3awd7metrics17LocationAccessory29kNMEAscreeningLocationTypeLACE
000000000008ce9c (__TEXT,__const) external __ZN3awd7metrics17LocationAccessory29kTtffNonDrLocationFieldNumberE
000000000008cce0 (__TEXT,__const) external __ZN3awd7metrics17LocationAccessory30NMEAscreeningLocType_ARRAYSIZEE
000000000008cd24 (__TEXT,__const) external __ZN3awd7metrics17LocationAccessory30PASCDTransmissionStateType_MAXE
000000000008cd20 (__TEXT,__const) external __ZN3awd7metrics17LocationAccessory30PASCDTransmissionStateType_MINE
000000000008ce3c (__TEXT,__const) external __ZN3awd7metrics17LocationAccessory30kHorizontalPositionFieldNumberE
000000000008ccd0 (__TEXT,__const) external __ZN3awd7metrics17LocationAccessory30kNMEAscreeningLocationTypeCellE
000000000008cccc (__TEXT,__const) external __ZN3awd7metrics17LocationAccessory30kNMEAscreeningLocationTypeWiFiE
000000000008cd1c (__TEXT,__const) external __ZN3awd7metrics17LocationAccessory30kPASCDTransmissionStateNeutralE
000000000008cd14 (__TEXT,__const) external __ZN3awd7metrics17LocationAccessory30kPASCDTransmissionStateReverseE
000000000008cd0c (__TEXT,__const) external __ZN3awd7metrics17LocationAccessory30kPASCDTransmissionStateUnknownE
000000000008ce94 (__TEXT,__const) external __ZN3awd7metrics17LocationAccessory31kDeviceChargingStatsFieldNumberE
000000000008ce40 (__TEXT,__const) external __ZN3awd7metrics17LocationAccessory32kHorizontalDrPositionFieldNumberE
000000000008ce30 (__TEXT,__const) external __ZN3awd7metrics17LocationAccessory32kNoOfLocationSessionsFieldNumberE
000000000008ce5c (__TEXT,__const) external __ZN3awd7metrics17LocationAccessory32kPascdAdditionalStatsFieldNumberE
000000000008cc60 (__TEXT,__const) external __ZN3awd7metrics17LocationAccessory32kSpeedPerfRangeTypePoint1_Point2E
000000000008ce74 (__TEXT,__const) external __ZN3awd7metrics17LocationAccessory33kAppleMapsRerouteCountFieldNumberE
000000000008ccc4 (__TEXT,__const) external __ZN3awd7metrics17LocationAccessory33kNMEAscreeningLocationTypeUnknownE
000000000008ce90 (__TEXT,__const) external __ZN3awd7metrics17LocationAccessory33kShiftedDataEpochCountFieldNumberE
000000000008cc64 (__TEXT,__const) external __ZN3awd7metrics17LocationAccessory33kSpeedPerfRangeTypePoint2_Point35E
000000000008cc68 (__TEXT,__const) external __ZN3awd7metrics17LocationAccessory33kSpeedPerfRangeTypePoint35_Point5E
000000000008cc6c (__TEXT,__const) external __ZN3awd7metrics17LocationAccessory33kSpeedPerfRangeTypePoint5_Point75E
000000000008ce2c (__TEXT,__const) external __ZN3awd7metrics17LocationAccessory34kCarplaySessionDurationFieldNumberE
000000000008ce6c (__TEXT,__const) external __ZN3awd7metrics17LocationAccessory34kLocationAppRunningTimeFieldNumberE
000000000008ce88 (__TEXT,__const) external __ZN3awd7metrics17LocationAccessory34kNmeaRejectedEpochCountFieldNumberE
000000000008ce84 (__TEXT,__const) external __ZN3awd7metrics17LocationAccessory34kNmeaScreenedEpochCountFieldNumberE
000000000008cea4 (__TEXT,__const) external __ZN3awd7metrics17LocationAccessory35kWirelessCarplayDurationFieldNumberE
000000000008cd28 (__TEXT,__const) external __ZN3awd7metrics17LocationAccessory36PASCDTransmissionStateType_ARRAYSIZEE
000000000008ce7c (__TEXT,__const) external __ZN3awd7metrics17LocationAccessory37kHistogramAppleMapsNavTypeFieldNumberE
000000000008ce28 (__TEXT,__const) external __ZN3awd7metrics17LocationAccessory38kAccessoryConnectedDurationFieldNumberE
000000000008ce70 (__TEXT,__const) external __ZN3awd7metrics17LocationAccessory38kAppleMapsRoutingEpochCountFieldNumberE
000000000008cea0 (__TEXT,__const) external __ZN3awd7metrics17LocationAccessory38kNumberOfPublishedLocationsFieldNumberE
000000000008ce78 (__TEXT,__const) external __ZN3awd7metrics17LocationAccessory40kAppleMapsProceedToRouteCountFieldNumberE
000000000008cea8 (__TEXT,__const) external __ZN3awd7metrics17LocationAccessory40kHistogramUnsupportedMessagesFieldNumberE
000000000008ce80 (__TEXT,__const) external __ZN3awd7metrics17LocationAccessory40kNmeaScreeningEnabledDurationFieldNumberE
000000000008ce34 (__TEXT,__const) external __ZN3awd7metrics17LocationAccessory40kTotalLocationSessionDurationFieldNumberE
000000000008ce68 (__TEXT,__const) external __ZN3awd7metrics17LocationAccessory41kFailedGprmcDecodingEpochCountFieldNumberE
000000000008ce8c (__TEXT,__const) external __ZN3awd7metrics17LocationAccessory41kHistogramNmeaScreeningLocTypeFieldNumberE
000000000008ce38 (__TEXT,__const) external __ZN3awd7metrics17LocationAccessory47kDeviceLocationUnavailableEpochCountFieldNumberE
000000000006e2a0 (__TEXT,__text) external __ZN3awd7metrics17LocationAccessory4SwapEPS1_
000000000006a572 (__TEXT,__text) external __ZN3awd7metrics17LocationAccessory5ClearEv
000000000008ccf8 (__TEXT,__const) external __ZN3awd7metrics17LocationAccessory6kFerryE
000000000006e270 (__TEXT,__text) external __ZN3awd7metrics17LocationAccessory8CopyFromERKS1_
000000000008ccec (__TEXT,__const) external __ZN3awd7metrics17LocationAccessory8kBicycleE
000000000008ccf4 (__TEXT,__const) external __ZN3awd7metrics17LocationAccessory8kTransitE
000000000008cce4 (__TEXT,__const) external __ZN3awd7metrics17LocationAccessory8kUnknownE
000000000008cce8 (__TEXT,__const) external __ZN3awd7metrics17LocationAccessory8kVehicleE
00000000000695fe (__TEXT,__text) external __ZN3awd7metrics17LocationAccessory9MergeFromERKS1_
000000000006a200 (__TEXT,__text) external __ZN3awd7metrics17LocationAccessoryC1ERKS1_
0000000000003712 (__TEXT,__text) external __ZN3awd7metrics17LocationAccessoryC1Ev
00000000000694ae (__TEXT,__text) external __ZN3awd7metrics17LocationAccessoryC2ERKS1_
0000000000069348 (__TEXT,__text) external __ZN3awd7metrics17LocationAccessoryC2Ev
000000000006a4f0 (__TEXT,__text) external __ZN3awd7metrics17LocationAccessoryD0Ev
000000000006a4e6 (__TEXT,__text) external __ZN3awd7metrics17LocationAccessoryD1Ev
000000000006a20a (__TEXT,__text) external __ZN3awd7metrics17LocationAccessoryD2Ev
000000000000a83e (__TEXT,__text) external __ZN3awd7metrics17LocationWifiUsage10SharedCtorEv
000000000000aa30 (__TEXT,__text) external __ZN3awd7metrics17LocationWifiUsage10SharedDtorEv
000000000000aae4 (__TEXT,__text) external __ZN3awd7metrics17LocationWifiUsage16default_instanceEv
000000000009d030 (__DATA_DIRTY,__common) external __ZN3awd7metrics17LocationWifiUsage17default_instance_E
000000000008b544 (__TEXT,__const) external __ZN3awd7metrics17LocationWifiUsage20kBundleidFieldNumberE
000000000000b1ae (__TEXT,__text) external __ZN3awd7metrics17LocationWifiUsage21CheckTypeAndMergeFromERKN20wireless_diagnostics6google8protobuf11MessageLiteE
0000000000089485 (__TEXT,__text) non-external __ZN3awd7metrics17LocationWifiUsage21CheckTypeAndMergeFromERKN20wireless_diagnostics6google8protobuf11MessageLiteE.cold.1
00000000000039c0 (__TEXT,__text) external __ZN3awd7metrics17LocationWifiUsage21InitAsDefaultInstanceEv
000000000008b540 (__TEXT,__const) external __ZN3awd7metrics17LocationWifiUsage21kTimestampFieldNumberE
000000000008b558 (__TEXT,__const) external __ZN3awd7metrics17LocationWifiUsage22kScanBusiesFieldNumberE
000000000008b548 (__TEXT,__const) external __ZN3awd7metrics17LocationWifiUsage22kTotalScansFieldNumberE
000000000008b554 (__TEXT,__const) external __ZN3awd7metrics17LocationWifiUsage24kScanFailuresFieldNumberE
000000000008b54c (__TEXT,__const) external __ZN3awd7metrics17LocationWifiUsage26kTriggeredScansFieldNumberE
000000000000aba4 (__TEXT,__text) external __ZN3awd7metrics17LocationWifiUsage27MergePartialFromCodedStreamEPN20wireless_diagnostics6google8protobuf2io16CodedInputStreamE
000000000008b550 (__TEXT,__const) external __ZN3awd7metrics17LocationWifiUsage28kTriggeredScansS2FieldNumberE
000000000000b21c (__TEXT,__text) external __ZN3awd7metrics17LocationWifiUsage4SwapEPS1_
000000000000ab4c (__TEXT,__text) external __ZN3awd7metrics17LocationWifiUsage5ClearEv
000000000000b1ec (__TEXT,__text) external __ZN3awd7metrics17LocationWifiUsage8CopyFromERKS1_
000000000000a8bc (__TEXT,__text) external __ZN3awd7metrics17LocationWifiUsage9MergeFromERKS1_
000000000000aa00 (__TEXT,__text) external __ZN3awd7metrics17LocationWifiUsageC1ERKS1_
00000000000029ec (__TEXT,__text) external __ZN3awd7metrics17LocationWifiUsageC1Ev
000000000000a868 (__TEXT,__text) external __ZN3awd7metrics17LocationWifiUsageC2ERKS1_
000000000000a80a (__TEXT,__text) external __ZN3awd7metrics17LocationWifiUsageC2Ev
000000000000aaa2 (__TEXT,__text) external __ZN3awd7metrics17LocationWifiUsageD0Ev
000000000000aa7c (__TEXT,__text) external __ZN3awd7metrics17LocationWifiUsageD1Ev
000000000000aa0a (__TEXT,__text) external __ZN3awd7metrics17LocationWifiUsageD2Ev
000000000001b236 (__TEXT,__text) external __ZN3awd7metrics17MotionGyroMiniCal10SharedCtorEv
000000000001b352 (__TEXT,__text) external __ZN3awd7metrics17MotionGyroMiniCal10SharedDtorEv
000000000001b3a6 (__TEXT,__text) external __ZN3awd7metrics17MotionGyroMiniCal16default_instanceEv
000000000009d088 (__DATA_DIRTY,__common) external __ZN3awd7metrics17MotionGyroMiniCal17default_instance_E
000000000001b60a (__TEXT,__text) external __ZN3awd7metrics17MotionGyroMiniCal21CheckTypeAndMergeFromERKN20wireless_diagnostics6google8protobuf11MessageLiteE
0000000000089a43 (__TEXT,__text) non-external __ZN3awd7metrics17MotionGyroMiniCal21CheckTypeAndMergeFromERKN20wireless_diagnostics6google8protobuf11MessageLiteE.cold.1
0000000000003aaa (__TEXT,__text) external __ZN3awd7metrics17MotionGyroMiniCal21InitAsDefaultInstanceEv
000000000008bbb4 (__TEXT,__const) external __ZN3awd7metrics17MotionGyroMiniCal21kTimestampFieldNumberE
000000000008bbb8 (__TEXT,__const) external __ZN3awd7metrics17MotionGyroMiniCal23kTimeElapsedFieldNumberE
000000000001b414 (__TEXT,__text) external __ZN3awd7metrics17MotionGyroMiniCal27MergePartialFromCodedStreamEPN20wireless_diagnostics6google8protobuf2io16CodedInputStreamE
000000000001b678 (__TEXT,__text) external __ZN3awd7metrics17MotionGyroMiniCal4SwapEPS1_
000000000001b3fa (__TEXT,__text) external __ZN3awd7metrics17MotionGyroMiniCal5ClearEv
000000000001b648 (__TEXT,__text) external __ZN3awd7metrics17MotionGyroMiniCal8CopyFromERKS1_
000000000001b28c (__TEXT,__text) external __ZN3awd7metrics17MotionGyroMiniCal9MergeFromERKS1_
000000000001b334 (__TEXT,__text) external __ZN3awd7metrics17MotionGyroMiniCalC1ERKS1_
0000000000002ce2 (__TEXT,__text) external __ZN3awd7metrics17MotionGyroMiniCalC1Ev
000000000001b24c (__TEXT,__text) external __ZN3awd7metrics17MotionGyroMiniCalC2ERKS1_
000000000001b216 (__TEXT,__text) external __ZN3awd7metrics17MotionGyroMiniCalC2Ev
000000000001b36c (__TEXT,__text) external __ZN3awd7metrics17MotionGyroMiniCalD0Ev
000000000001b358 (__TEXT,__text) external __ZN3awd7metrics17MotionGyroMiniCalD1Ev
000000000001b33e (__TEXT,__text) external __ZN3awd7metrics17MotionGyroMiniCalD2Ev
0000000000072ff6 (__TEXT,__text) external __ZN3awd7metrics18LocationSessionDay10SharedCtorEv
000000000007333e (__TEXT,__text) external __ZN3awd7metrics18LocationSessionDay10SharedDtorEv
00000000000733f2 (__TEXT,__text) external __ZN3awd7metrics18LocationSessionDay16default_instanceEv
000000000009d300 (__DATA_DIRTY,__common) external __ZN3awd7metrics18LocationSessionDay17default_instance_E
0000000000074290 (__TEXT,__text) external __ZN3awd7metrics18LocationSessionDay21CheckTypeAndMergeFromERKN20wireless_diagnostics6google8protobuf11MessageLiteE
000000000008ab85 (__TEXT,__text) non-external __ZN3awd7metrics18LocationSessionDay21CheckTypeAndMergeFromERKN20wireless_diagnostics6google8protobuf11MessageLiteE.cold.1
000000000007124e (__TEXT,__text) external __ZN3awd7metrics18LocationSessionDay21InitAsDefaultInstanceEv
000000000008e154 (__TEXT,__const) external __ZN3awd7metrics18LocationSessionDay22kAlsAPCountFieldNumberE
000000000008e130 (__TEXT,__const) external __ZN3awd7metrics18LocationSessionDay22kSessionDayFieldNumberE
000000000008e15c (__TEXT,__const) external __ZN3awd7metrics18LocationSessionDay22kTilesUsageFieldNumberE
000000000008e144 (__TEXT,__const) external __ZN3awd7metrics18LocationSessionDay23kTileAPCountFieldNumberE
000000000008e158 (__TEXT,__const) external __ZN3awd7metrics18LocationSessionDay24kAlsScanCountFieldNumberE
000000000008e14c (__TEXT,__const) external __ZN3awd7metrics18LocationSessionDay24kCacheAPCountFieldNumberE
000000000008e140 (__TEXT,__const) external __ZN3awd7metrics18LocationSessionDay24kScanHitCountFieldNumberE
000000000008e160 (__TEXT,__const) external __ZN3awd7metrics18LocationSessionDay25kAlsCacheUsageFieldNumberE
000000000008e134 (__TEXT,__const) external __ZN3awd7metrics18LocationSessionDay25kApSearchCountFieldNumberE
000000000008e148 (__TEXT,__const) external __ZN3awd7metrics18LocationSessionDay25kTileScanCountFieldNumberE
000000000008e150 (__TEXT,__const) external __ZN3awd7metrics18LocationSessionDay26kCacheScanCountFieldNumberE
000000000008e13c (__TEXT,__const) external __ZN3awd7metrics18LocationSessionDay26kEmptyScanCountFieldNumberE
0000000000073516 (__TEXT,__text) external __ZN3awd7metrics18LocationSessionDay27MergePartialFromCodedStreamEPN20wireless_diagnostics6google8protobuf2io16CodedInputStreamE
000000000008e164 (__TEXT,__const) external __ZN3awd7metrics18LocationSessionDay27kAlsNetworkUsageFieldNumberE
000000000008e138 (__TEXT,__const) external __ZN3awd7metrics18LocationSessionDay27kScanSearchCountFieldNumberE
00000000000742fe (__TEXT,__text) external __ZN3awd7metrics18LocationSessionDay4SwapEPS1_
000000000007344e (__TEXT,__text) external __ZN3awd7metrics18LocationSessionDay5ClearEv
00000000000742ce (__TEXT,__text) external __ZN3awd7metrics18LocationSessionDay8CopyFromERKS1_
000000000007305c (__TEXT,__text) external __ZN3awd7metrics18LocationSessionDay9MergeFromERKS1_
000000000007330e (__TEXT,__text) external __ZN3awd7metrics18LocationSessionDayC1ERKS1_
0000000000071158 (__TEXT,__text) external __ZN3awd7metrics18LocationSessionDayC1Ev
0000000000073014 (__TEXT,__text) external __ZN3awd7metrics18LocationSessionDayC2ERKS1_
0000000000072fce (__TEXT,__text) external __ZN3awd7metrics18LocationSessionDayC2Ev
00000000000733b0 (__TEXT,__text) external __ZN3awd7metrics18LocationSessionDayD0Ev
000000000007338a (__TEXT,__text) external __ZN3awd7metrics18LocationSessionDayD1Ev
0000000000073318 (__TEXT,__text) external __ZN3awd7metrics18LocationSessionDayD2Ev
00000000000712ea (__TEXT,__text) external __ZN3awd7metrics18LocationTilesUsage10SharedCtorEv
00000000000713ea (__TEXT,__text) external __ZN3awd7metrics18LocationTilesUsage10SharedDtorEv
000000000007144c (__TEXT,__text) external __ZN3awd7metrics18LocationTilesUsage16default_instanceEv
000000000009d2e8 (__DATA_DIRTY,__common) external __ZN3awd7metrics18LocationTilesUsage17default_instance_E
00000000000715e0 (__TEXT,__text) external __ZN3awd7metrics18LocationTilesUsage21CheckTypeAndMergeFromERKN20wireless_diagnostics6google8protobuf11MessageLiteE
000000000008ab1c (__TEXT,__text) non-external __ZN3awd7metrics18LocationTilesUsage21CheckTypeAndMergeFromERKN20wireless_diagnostics6google8protobuf11MessageLiteE.cold.1
000000000007123c (__TEXT,__text) external __ZN3awd7metrics18LocationTilesUsage21InitAsDefaultInstanceEv
000000000008e0d4 (__TEXT,__const) external __ZN3awd7metrics18LocationTilesUsage24kScanHitCountFieldNumberE
00000000000714ba (__TEXT,__text) external __ZN3awd7metrics18LocationTilesUsage27MergePartialFromCodedStreamEPN20wireless_diagnostics6google8protobuf2io16CodedInputStreamE
000000000007164e (__TEXT,__text) external __ZN3awd7metrics18LocationTilesUsage4SwapEPS1_
00000000000714a0 (__TEXT,__text) external __ZN3awd7metrics18LocationTilesUsage5ClearEv
000000000007161e (__TEXT,__text) external __ZN3awd7metrics18LocationTilesUsage8CopyFromERKS1_
0000000000071340 (__TEXT,__text) external __ZN3awd7metrics18LocationTilesUsage9MergeFromERKS1_
00000000000713cc (__TEXT,__text) external __ZN3awd7metrics18LocationTilesUsageC1ERKS1_
00000000000710f0 (__TEXT,__text) external __ZN3awd7metrics18LocationTilesUsageC1Ev
0000000000071300 (__TEXT,__text) external __ZN3awd7metrics18LocationTilesUsageC2ERKS1_
00000000000712ca (__TEXT,__text) external __ZN3awd7metrics18LocationTilesUsageC2Ev
0000000000071412 (__TEXT,__text) external __ZN3awd7metrics18LocationTilesUsageD0Ev
00000000000713fe (__TEXT,__text) external __ZN3awd7metrics18LocationTilesUsageD1Ev
00000000000713d6 (__TEXT,__text) external __ZN3awd7metrics18LocationTilesUsageD2Ev
0000000000039ac2 (__TEXT,__text) external __ZN3awd7metrics18MotionFitnessDaily10SharedCtorEv
0000000000039e3a (__TEXT,__text) external __ZN3awd7metrics18MotionFitnessDaily10SharedDtorEv
000000000008c198 (__TEXT,__const) external __ZN3awd7metrics18MotionFitnessDaily16WearableType_MAXE
000000000008c194 (__TEXT,__const) external __ZN3awd7metrics18MotionFitnessDaily16WearableType_MINE
0000000000039f32 (__TEXT,__text) external __ZN3awd7metrics18MotionFitnessDaily16default_instanceEv
000000000009d0e0 (__DATA_DIRTY,__common) external __ZN3awd7metrics18MotionFitnessDaily17default_instance_E
000000000003ae52 (__TEXT,__text) external __ZN3awd7metrics18MotionFitnessDaily21CheckTypeAndMergeFromERKN20wireless_diagnostics6google8protobuf11MessageLiteE
0000000000089d92 (__TEXT,__text) non-external __ZN3awd7metrics18MotionFitnessDaily21CheckTypeAndMergeFromERKN20wireless_diagnostics6google8protobuf11MessageLiteE.cold.1
0000000000003b2e (__TEXT,__text) external __ZN3awd7metrics18MotionFitnessDaily21InitAsDefaultInstanceEv
000000000008c1a0 (__TEXT,__const) external __ZN3awd7metrics18MotionFitnessDaily21kTimestampFieldNumberE
000000000008c1a4 (__TEXT,__const) external __ZN3awd7metrics18MotionFitnessDaily21kUserTokenFieldNumberE
000000000008c19c (__TEXT,__const) external __ZN3awd7metrics18MotionFitnessDaily22WearableType_ARRAYSIZEE
000000000008c1b8 (__TEXT,__const) external __ZN3awd7metrics18MotionFitnessDaily23kHoursActiveFieldNumberE
000000000008c1a8 (__TEXT,__const) external __ZN3awd7metrics18MotionFitnessDaily24kWearableTypeFieldNumberE
000000000008c1bc (__TEXT,__const) external __ZN3awd7metrics18MotionFitnessDaily25kMinutesActiveFieldNumberE
000000000008c1ac (__TEXT,__const) external __ZN3awd7metrics18MotionFitnessDaily26kAccessoryModelFieldNumberE
000000000008c1e4 (__TEXT,__const) external __ZN3awd7metrics18MotionFitnessDaily26kFitnessAppUserFieldNumberE
000000000008c1e0 (__TEXT,__const) external __ZN3awd7metrics18MotionFitnessDaily26kFlightsClimbedFieldNumberE
000000000008c1b0 (__TEXT,__const) external __ZN3awd7metrics18MotionFitnessDaily26kWearableActiveFieldNumberE
000000000003a070 (__TEXT,__text) external __ZN3awd7metrics18MotionFitnessDaily27MergePartialFromCodedStreamEPN20wireless_diagnostics6google8protobuf2io16CodedInputStreamE
000000000008c1d0 (__TEXT,__const) external __ZN3awd7metrics18MotionFitnessDaily28kIphoneStaticnessFieldNumberE
000000000008c1c0 (__TEXT,__const) external __ZN3awd7metrics18MotionFitnessDaily28kWatchStepsPerDayFieldNumberE
000000000008c1d4 (__TEXT,__const) external __ZN3awd7metrics18MotionFitnessDaily29kCoarseLocationLatFieldNumberE
000000000008c1cc (__TEXT,__const) external __ZN3awd7metrics18MotionFitnessDaily29kWatchConnectivityFieldNumberE
000000000008c1d8 (__TEXT,__const) external __ZN3awd7metrics18MotionFitnessDaily30kCoarseLocationLongFieldNumberE
000000000008c1dc (__TEXT,__const) external __ZN3awd7metrics18MotionFitnessDaily30kWatchConnectedTimeFieldNumberE
000000000008c1c4 (__TEXT,__const) external __ZN3awd7metrics18MotionFitnessDaily31kWatchNonPedWorkoutsFieldNumberE
000000000008c1b4 (__TEXT,__const) external __ZN3awd7metrics18MotionFitnessDaily32kCompanionStepsPerDayFieldNumberE
000000000008c1c8 (__TEXT,__const) external __ZN3awd7metrics18MotionFitnessDaily37kWatchNonPedWorkoutMinutesFieldNumberE
000000000008c184 (__TEXT,__const) external __ZN3awd7metrics18MotionFitnessDaily4NONEE
000000000003aec0 (__TEXT,__text) external __ZN3awd7metrics18MotionFitnessDaily4SwapEPS1_
0000000000039faa (__TEXT,__text) external __ZN3awd7metrics18MotionFitnessDaily5ClearEv
000000000008c190 (__TEXT,__const) external __ZN3awd7metrics18MotionFitnessDaily5MIXEDE
000000000008c18c (__TEXT,__const) external __ZN3awd7metrics18MotionFitnessDaily5OTHERE
000000000008c188 (__TEXT,__const) external __ZN3awd7metrics18MotionFitnessDaily5WATCHE
000000000003ae90 (__TEXT,__text) external __ZN3awd7metrics18MotionFitnessDaily8CopyFromERKS1_
0000000000039b60 (__TEXT,__text) external __ZN3awd7metrics18MotionFitnessDaily9MergeFromERKS1_
0000000000089d6f (__TEXT,__text) non-external __ZN3awd7metrics18MotionFitnessDaily9MergeFromERKS1_.cold.1
0000000000039e0a (__TEXT,__text) external __ZN3awd7metrics18MotionFitnessDailyC1ERKS1_
0000000000003042 (__TEXT,__text) external __ZN3awd7metrics18MotionFitnessDailyC1Ev
0000000000039afc (__TEXT,__text) external __ZN3awd7metrics18MotionFitnessDailyC2ERKS1_
0000000000039a7e (__TEXT,__text) external __ZN3awd7metrics18MotionFitnessDailyC2Ev
0000000000039ef0 (__TEXT,__text) external __ZN3awd7metrics18MotionFitnessDailyD0Ev
0000000000039eca (__TEXT,__text) external __ZN3awd7metrics18MotionFitnessDailyD1Ev
0000000000039e14 (__TEXT,__text) external __ZN3awd7metrics18MotionFitnessDailyD2Ev
0000000000013f6c (__TEXT,__text) external __ZN3awd7metrics19LocationMapMatching10SharedCtorEv
0000000000014134 (__TEXT,__text) external __ZN3awd7metrics19LocationMapMatching10SharedDtorEv
00000000000141e8 (__TEXT,__text) external __ZN3awd7metrics19LocationMapMatching16default_instanceEv
000000000009d048 (__DATA_DIRTY,__common) external __ZN3awd7metrics19LocationMapMatching17default_instance_E
000000000008ba40 (__TEXT,__const) external __ZN3awd7metrics19LocationMapMatching18kNoDataFieldNumberE
000000000008ba3c (__TEXT,__const) external __ZN3awd7metrics19LocationMapMatching19kNoMatchFieldNumberE
000000000008ba38 (__TEXT,__const) external __ZN3awd7metrics19LocationMapMatching20kAttemptsFieldNumberE
000000000008ba34 (__TEXT,__const) external __ZN3awd7metrics19LocationMapMatching20kBundleidFieldNumberE
0000000000014732 (__TEXT,__text) external __ZN3awd7metrics19LocationMapMatching21CheckTypeAndMergeFromERKN20wireless_diagnostics6google8protobuf11MessageLiteE
00000000000898e5 (__TEXT,__text) non-external __ZN3awd7metrics19LocationMapMatching21CheckTypeAndMergeFromERKN20wireless_diagnostics6google8protobuf11MessageLiteE.cold.1
00000000000039d2 (__TEXT,__text) external __ZN3awd7metrics19LocationMapMatching21InitAsDefaultInstanceEv
000000000008ba30 (__TEXT,__const) external __ZN3awd7metrics19LocationMapMatching21kTimestampFieldNumberE
00000000000142a6 (__TEXT,__text) external __ZN3awd7metrics19LocationMapMatching27MergePartialFromCodedStreamEPN20wireless_diagnostics6google8protobuf2io16CodedInputStreamE
00000000000147a0 (__TEXT,__text) external __ZN3awd7metrics19LocationMapMatching4SwapEPS1_
000000000001424e (__TEXT,__text) external __ZN3awd7metrics19LocationMapMatching5ClearEv
0000000000014770 (__TEXT,__text) external __ZN3awd7metrics19LocationMapMatching8CopyFromERKS1_
0000000000013fe6 (__TEXT,__text) external __ZN3awd7metrics19LocationMapMatching9MergeFromERKS1_
0000000000014104 (__TEXT,__text) external __ZN3awd7metrics19LocationMapMatchingC1ERKS1_
0000000000002b46 (__TEXT,__text) external __ZN3awd7metrics19LocationMapMatchingC1Ev
0000000000013f94 (__TEXT,__text) external __ZN3awd7metrics19LocationMapMatchingC2ERKS1_
0000000000013f3a (__TEXT,__text) external __ZN3awd7metrics19LocationMapMatchingC2Ev
00000000000141a6 (__TEXT,__text) external __ZN3awd7metrics19LocationMapMatchingD0Ev
0000000000014180 (__TEXT,__text) external __ZN3awd7metrics19LocationMapMatchingD1Ev
000000000001410e (__TEXT,__text) external __ZN3awd7metrics19LocationMapMatchingD2Ev
000000000001b6fe (__TEXT,__text) external __ZN3awd7metrics19MotionDropDetection10SharedCtorEv
000000000001b864 (__TEXT,__text) external __ZN3awd7metrics19MotionDropDetection10SharedDtorEv
000000000008bbcc (__TEXT,__const) external __ZN3awd7metrics19MotionDropDetection15kYawFieldNumberE
000000000001b8b8 (__TEXT,__text) external __ZN3awd7metrics19MotionDropDetection16default_instanceEv
000000000008bbc4 (__TEXT,__const) external __ZN3awd7metrics19MotionDropDetection16kRollFieldNumberE
000000000009d090 (__DATA_DIRTY,__common) external __ZN3awd7metrics19MotionDropDetection17default_instance_E
000000000008bbc8 (__TEXT,__const) external __ZN3awd7metrics19MotionDropDetection17kPitchFieldNumberE
000000000001bca8 (__TEXT,__text) external __ZN3awd7metrics19MotionDropDetection21CheckTypeAndMergeFromERKN20wireless_diagnostics6google8protobuf11MessageLiteE
0000000000089a66 (__TEXT,__text) non-external __ZN3awd7metrics19MotionDropDetection21CheckTypeAndMergeFromERKN20wireless_diagnostics6google8protobuf11MessageLiteE.cold.1
0000000000003ab0 (__TEXT,__text) external __ZN3awd7metrics19MotionDropDetection21InitAsDefaultInstanceEv
000000000008bbbc (__TEXT,__const) external __ZN3awd7metrics19MotionDropDetection21kTimestampFieldNumberE
000000000008bbc0 (__TEXT,__const) external __ZN3awd7metrics19MotionDropDetection24kDropDurationFieldNumberE
000000000001b92c (__TEXT,__text) external __ZN3awd7metrics19MotionDropDetection27MergePartialFromCodedStreamEPN20wireless_diagnostics6google8protobuf2io16CodedInputStreamE
000000000001bd16 (__TEXT,__text) external __ZN3awd7metrics19MotionDropDetection4SwapEPS1_
000000000001b90e (__TEXT,__text) external __ZN3awd7metrics19MotionDropDetection5ClearEv
000000000001bce6 (__TEXT,__text) external __ZN3awd7metrics19MotionDropDetection8CopyFromERKS1_
000000000001b75a (__TEXT,__text) external __ZN3awd7metrics19MotionDropDetection9MergeFromERKS1_
000000000001b846 (__TEXT,__text) external __ZN3awd7metrics19MotionDropDetectionC1ERKS1_
0000000000002d02 (__TEXT,__text) external __ZN3awd7metrics19MotionDropDetectionC1Ev
000000000001b716 (__TEXT,__text) external __ZN3awd7metrics19MotionDropDetectionC2ERKS1_
000000000001b6dc (__TEXT,__text) external __ZN3awd7metrics19MotionDropDetectionC2Ev
000000000001b87e (__TEXT,__text) external __ZN3awd7metrics19MotionDropDetectionD0Ev
000000000001b86a (__TEXT,__text) external __ZN3awd7metrics19MotionDropDetectionD1Ev
000000000001b850 (__TEXT,__text) external __ZN3awd7metrics19MotionDropDetectionD2Ev
0000000000025dd8 (__TEXT,__text) external __ZN3awd7metrics19MotionFitnessAllDay10SharedCtorEv
0000000000027da2 (__TEXT,__text) external __ZN3awd7metrics19MotionFitnessAllDay10SharedDtorEv
0000000000027f14 (__TEXT,__text) external __ZN3awd7metrics19MotionFitnessAllDay16default_instanceEv
000000000009d0b8 (__DATA_DIRTY,__common) external __ZN3awd7metrics19MotionFitnessAllDay17default_instance_E
000000000008befc (__TEXT,__const) external __ZN3awd7metrics19MotionFitnessAllDay17kJerkXFieldNumberE
000000000008bf00 (__TEXT,__const) external __ZN3awd7metrics19MotionFitnessAllDay17kJerkYFieldNumberE
000000000008bf04 (__TEXT,__const) external __ZN3awd7metrics19MotionFitnessAllDay17kJerkZFieldNumberE
000000000008bef0 (__TEXT,__const) external __ZN3awd7metrics19MotionFitnessAllDay19kMinMaxXFieldNumberE
000000000008bef4 (__TEXT,__const) external __ZN3awd7metrics19MotionFitnessAllDay19kMinMaxYFieldNumberE
000000000008bef8 (__TEXT,__const) external __ZN3awd7metrics19MotionFitnessAllDay19kMinMaxZFieldNumberE
00000000000328d4 (__TEXT,__text) external __ZN3awd7metrics19MotionFitnessAllDay21CheckTypeAndMergeFromERKN20wireless_diagnostics6google8protobuf11MessageLiteE
0000000000089c2d (__TEXT,__text) non-external __ZN3awd7metrics19MotionFitnessAllDay21CheckTypeAndMergeFromERKN20wireless_diagnostics6google8protobuf11MessageLiteE.cold.1
0000000000003b10 (__TEXT,__text) external __ZN3awd7metrics19MotionFitnessAllDay21InitAsDefaultInstanceEv
000000000008bf10 (__TEXT,__const) external __ZN3awd7metrics19MotionFitnessAllDay21kAlertTypeFieldNumberE
000000000008beec (__TEXT,__const) external __ZN3awd7metrics19MotionFitnessAllDay21kNumEventsFieldNumberE
000000000008be9c (__TEXT,__const) external __ZN3awd7metrics19MotionFitnessAllDay21kTimestampFieldNumberE
000000000008bea8 (__TEXT,__const) external __ZN3awd7metrics19MotionFitnessAllDay22kPctEMBurstFieldNumberE
000000000008bf54 (__TEXT,__const) external __ZN3awd7metrics19MotionFitnessAllDay22kUserAgeBinFieldNumberE
000000000008bf58 (__TEXT,__const) external __ZN3awd7metrics19MotionFitnessAllDay23kUserMaxMetsFieldNumberE
000000000008bff4 (__TEXT,__const) external __ZN3awd7metrics19MotionFitnessAllDay23kWorkoutTypeFieldNumberE
000000000008bf44 (__TEXT,__const) external __ZN3awd7metrics19MotionFitnessAllDay25kEventDurationFieldNumberE
000000000008bf20 (__TEXT,__const) external __ZN3awd7metrics19MotionFitnessAllDay25kNumFallAlertsFieldNumberE
000000000008beac (__TEXT,__const) external __ZN3awd7metrics19MotionFitnessAllDay25kPctEMCoverageFieldNumberE
000000000008bf0c (__TEXT,__const) external __ZN3awd7metrics19MotionFitnessAllDay26kEscalationTypeFieldNumberE
000000000008beb0 (__TEXT,__const) external __ZN3awd7metrics19MotionFitnessAllDay26kPctEMThresholdFieldNumberE
000000000008bf48 (__TEXT,__const) external __ZN3awd7metrics19MotionFitnessAllDay26kTimeSinceOptInFieldNumberE
0000000000028396 (__TEXT,__text) external __ZN3awd7metrics19MotionFitnessAllDay27MergePartialFromCodedStreamEPN20wireless_diagnostics6google8protobuf2io16CodedInputStreamE
000000000008bee0 (__TEXT,__const) external __ZN3awd7metrics19MotionFitnessAllDay27kNumPushFailuresFieldNumberE
000000000008becc (__TEXT,__const) external __ZN3awd7metrics19MotionFitnessAllDay27kPctCaloriesPushFieldNumberE
000000000008bf14 (__TEXT,__const) external __ZN3awd7metrics19MotionFitnessAllDay27kUserStartedTypeFieldNumberE
000000000008bff8 (__TEXT,__const) external __ZN3awd7metrics19MotionFitnessAllDay27kWorkoutDurationFieldNumberE
000000000008bf24 (__TEXT,__const) external __ZN3awd7metrics19MotionFitnessAllDay29kNumRecoveryEventsFieldNumberE
000000000008bfe4 (__TEXT,__const) external __ZN3awd7metrics19MotionFitnessAllDay29kNumSOSCallsPlacedFieldNumberE
000000000008bedc (__TEXT,__const) external __ZN3awd7metrics19MotionFitnessAllDay29kPctCaloriesFrozenFieldNumberE
000000000008bed4 (__TEXT,__const) external __ZN3awd7metrics19MotionFitnessAllDay29kPctCaloriesSSPushFieldNumberE
000000000008bee4 (__TEXT,__const) external __ZN3awd7metrics19MotionFitnessAllDay30kPctAllDayEMOnGradeFieldNumberE
000000000008bf4c (__TEXT,__const) external __ZN3awd7metrics19MotionFitnessAllDay30kTimeSinceLastAlertFieldNumberE
000000000008bf18 (__TEXT,__const) external __ZN3awd7metrics19MotionFitnessAllDay31kBelongsToOlderGroupFieldNumberE
000000000008c050 (__TEXT,__const) external __ZN3awd7metrics19MotionFitnessAllDay31kNumHikingFallAlertsFieldNumberE
000000000008c0d0 (__TEXT,__const) external __ZN3awd7metrics19MotionFitnessAllDay31kNumSOSCallScheduledFieldNumberE
000000000008c0cc (__TEXT,__const) external __ZN3awd7metrics19MotionFitnessAllDay32kNumSOSCallConsideredFieldNumberE
000000000008bed8 (__TEXT,__const) external __ZN3awd7metrics19MotionFitnessAllDay32kPctCaloriesSSPostureFieldNumberE
000000000008bf50 (__TEXT,__const) external __ZN3awd7metrics19MotionFitnessAllDay33kMaxAccelNormThresholdFieldNumberE
000000000008bf6c (__TEXT,__const) external __ZN3awd7metrics19MotionFitnessAllDay34kMaxAbsXYZForAllImpactsFieldNumberE
000000000008bed0 (__TEXT,__const) external __ZN3awd7metrics19MotionFitnessAllDay34kPctCaloriesSSIntensityFieldNumberE
000000000008c054 (__TEXT,__const) external __ZN3awd7metrics19MotionFitnessAllDay35kNumHikingRecoveryEventsFieldNumberE
000000000008bfd0 (__TEXT,__const) external __ZN3awd7metrics19MotionFitnessAllDay35kNumSOSCanceledAggregateFieldNumberE
000000000008bf3c (__TEXT,__const) external __ZN3awd7metrics19MotionFitnessAllDay35kNumUserResponseRejectedFieldNumberE
000000000008bea4 (__TEXT,__const) external __ZN3awd7metrics19MotionFitnessAllDay35kRunCalibrationAvailableFieldNumberE
000000000008bf38 (__TEXT,__const) external __ZN3awd7metrics19MotionFitnessAllDay36kNumUserResponseDismissedFieldNumberE
000000000008bea0 (__TEXT,__const) external __ZN3awd7metrics19MotionFitnessAllDay36kWalkCalibrationAvailableFieldNumberE
000000000008bf08 (__TEXT,__const) external __ZN3awd7metrics19MotionFitnessAllDay37kDidEnableAnomalyDetectionFieldNumberE
000000000008bfb4 (__TEXT,__const) external __ZN3awd7metrics19MotionFitnessAllDay37kNumAlertCanceledAggregateFieldNumberE
000000000008bf5c (__TEXT,__const) external __ZN3awd7metrics19MotionFitnessAllDay38kMaxAccelNormForFallImpactsFieldNumberE
000000000008bf28 (__TEXT,__const) external __ZN3awd7metrics19MotionFitnessAllDay38kNumGatedFallAlertsOffWristFieldNumberE
000000000008bf88 (__TEXT,__const) external __ZN3awd7metrics19MotionFitnessAllDay38kNumImpactCanceledAggregateFieldNumberE
000000000008bfc0 (__TEXT,__const) external __ZN3awd7metrics19MotionFitnessAllDay38kNumSOSCanceledBecauseStandFieldNumberE
000000000008bfc8 (__TEXT,__const) external __ZN3awd7metrics19MotionFitnessAllDay38kNumSOSCanceledBecauseStepsFieldNumberE
000000000008bee8 (__TEXT,__const) external __ZN3awd7metrics19MotionFitnessAllDay38kPctAllDayCaloriesFromGradeFieldNumberE
000000000008bf60 (__TEXT,__const) external __ZN3awd7metrics19MotionFitnessAllDay39kMaxAccelNormForOtherImpactsFieldNumberE
000000000008bf2c (__TEXT,__const) external __ZN3awd7metrics19MotionFitnessAllDay39kNumGatedFallAlertsOnChargerFieldNumberE
000000000008bffc (__TEXT,__const) external __ZN3awd7metrics19MotionFitnessAllDay39kNumOutdoorCyclingFallAlertsFieldNumberE
000000000008c034 (__TEXT,__const) external __ZN3awd7metrics19MotionFitnessAllDay39kNumOutdoorRunningFallAlertsFieldNumberE
000000000008c018 (__TEXT,__const) external __ZN3awd7metrics19MotionFitnessAllDay39kNumOutdoorWalkingFallAlertsFieldNumberE
000000000008bfc4 (__TEXT,__const) external __ZN3awd7metrics19MotionFitnessAllDay39kNumSOSCanceledBecauseActiveFieldNumberE
000000000008bf98 (__TEXT,__const) external __ZN3awd7metrics19MotionFitnessAllDay40kNumAlertCanceledBecauseOfFFTFieldNumberE
000000000008c0ac (__TEXT,__const) external __ZN3awd7metrics19MotionFitnessAllDay40kNumAlertCanceledBecauseStandFieldNumberE
000000000008c0b4 (__TEXT,__const) external __ZN3awd7metrics19MotionFitnessAllDay40kNumAlertCanceledBecauseStepsFieldNumberE
000000000008c0c4 (__TEXT,__const) external __ZN3awd7metrics19MotionFitnessAllDay40kNumRecoveryCanceledAggregateFieldNumberE
000000000008bf70 (__TEXT,__const) external __ZN3awd7metrics19MotionFitnessAllDay41kAlgorithmEffectivenessBitmaskFieldNumberE
000000000008c0b0 (__TEXT,__const) external __ZN3awd7metrics19MotionFitnessAllDay41kNumAlertCanceledBecauseActiveFieldNumberE
000000000008c064 (__TEXT,__const) external __ZN3awd7metrics19MotionFitnessAllDay41kNumHikingUserResponseRejectedFieldNumberE
000000000008bfbc (__TEXT,__const) external __ZN3awd7metrics19MotionFitnessAllDay41kNumSOSCanceledBecauseOffWristFieldNumberE
000000000008bec0 (__TEXT,__const) external __ZN3awd7metrics19MotionFitnessAllDay41kPctCaloriesSessionPedWorkoutsFieldNumberE
000000000008bfe0 (__TEXT,__const) external __ZN3awd7metrics19MotionFitnessAllDay42kNumAlertCanceledOtherAggregateFieldNumberE
000000000008c060 (__TEXT,__const) external __ZN3awd7metrics19MotionFitnessAllDay42kNumHikingUserResponseDismissedFieldNumberE
000000000008c0c8 (__TEXT,__const) external __ZN3awd7metrics19MotionFitnessAllDay42kNumSOSCanceledBecauseOfRefereeFieldNumberE
000000000008bec4 (__TEXT,__const) external __ZN3awd7metrics19MotionFitnessAllDay42kPctCaloriesSessionSwimWorkoutsFieldNumberE
000000000008c07c (__TEXT,__const) external __ZN3awd7metrics19MotionFitnessAllDay43kAlgorithmEffectivenessBitmaskV2FieldNumberE
000000000008c000 (__TEXT,__const) external __ZN3awd7metrics19MotionFitnessAllDay43kNumOutdoorCyclingRecoveryEventsFieldNumberE
000000000008c038 (__TEXT,__const) external __ZN3awd7metrics19MotionFitnessAllDay43kNumOutdoorRunningRecoveryEventsFieldNumberE
000000000008c01c (__TEXT,__const) external __ZN3awd7metrics19MotionFitnessAllDay43kNumOutdoorWalkingRecoveryEventsFieldNumberE
000000000008bebc (__TEXT,__const) external __ZN3awd7metrics19MotionFitnessAllDay43kPctCaloriesSessionOtherWorkoutsFieldNumberE
000000000008beb4 (__TEXT,__const) external __ZN3awd7metrics19MotionFitnessAllDay43kPctCaloriesSessionWheelchairRunFieldNumberE
000000000008bfe8 (__TEXT,__const) external __ZN3awd7metrics19MotionFitnessAllDay44kDidEnableWorkoutAnomalyDetectionFieldNumberE
000000000008bfa0 (__TEXT,__const) external __ZN3awd7metrics19MotionFitnessAllDay44kNumAlertCanceledBecauseOfOffBodyFieldNumberE
000000000008c0a8 (__TEXT,__const) external __ZN3awd7metrics19MotionFitnessAllDay44kNumAlertCanceledBecauseOfRefereeFieldNumberE
000000000008beb8 (__TEXT,__const) external __ZN3awd7metrics19MotionFitnessAllDay44kPctCaloriesSessionWheelchairWalkFieldNumberE
000000000008bf64 (__TEXT,__const) external __ZN3awd7metrics19MotionFitnessAllDay45kJerkVectorMagnitudeForFallImpactsFieldNumberE
000000000008bf9c (__TEXT,__const) external __ZN3awd7metrics19MotionFitnessAllDay45kNumAlertCanceledBecauseOfPeaksIQRFieldNumberE
000000000008bfb8 (__TEXT,__const) external __ZN3awd7metrics19MotionFitnessAllDay45kNumSOSCanceledBecauseUserResponseFieldNumberE
000000000008bec8 (__TEXT,__const) external __ZN3awd7metrics19MotionFitnessAllDay45kPctCaloriesSessionCyclingWorkoutsFieldNumberE
000000000008bf68 (__TEXT,__const) external __ZN3awd7metrics19MotionFitnessAllDay46kJerkVectorMagnitudeForOtherImpactsFieldNumberE
000000000008bfdc (__TEXT,__const) external __ZN3awd7metrics19MotionFitnessAllDay46kNumAlertCanceledBecauseOfOnChargerFieldNumberE
000000000008bf84 (__TEXT,__const) external __ZN3awd7metrics19MotionFitnessAllDay47kNumImpactReplacedBecauseOfNewImpactFieldNumberE
000000000008c0c0 (__TEXT,__const) external __ZN3awd7metrics19MotionFitnessAllDay47kNumRecoveryCanceledBecauseOfRefereeFieldNumberE
000000000008bfac (__TEXT,__const) external __ZN3awd7metrics19MotionFitnessAllDay48kNumAlertCanceledBecauseOfOffWristPreFieldNumberE
000000000008bf7c (__TEXT,__const) external __ZN3awd7metrics19MotionFitnessAllDay48kNumImpactCanceledBecauseOfMultiPeaksFieldNumberE
000000000008bf80 (__TEXT,__const) external __ZN3awd7metrics19MotionFitnessAllDay48kNumImpactCanceledBecauseOfNaiveBayesFieldNumberE
000000000008bfb0 (__TEXT,__const) external __ZN3awd7metrics19MotionFitnessAllDay49kNumAlertCanceledBecauseOfOffWristPostFieldNumberE
000000000008c0a0 (__TEXT,__const) external __ZN3awd7metrics19MotionFitnessAllDay49kNumAlertCanceledBecauseOfSimilarPeaksFieldNumberE
000000000008c010 (__TEXT,__const) external __ZN3awd7metrics19MotionFitnessAllDay49kNumOutdoorCyclingUserResponseRejectedFieldNumberE
000000000008c048 (__TEXT,__const) external __ZN3awd7metrics19MotionFitnessAllDay49kNumOutdoorRunningUserResponseRejectedFieldNumberE
000000000008c02c (__TEXT,__const) external __ZN3awd7metrics19MotionFitnessAllDay49kNumOutdoorWalkingUserResponseRejectedFieldNumberE
000000000008bfcc (__TEXT,__const) external __ZN3awd7metrics19MotionFitnessAllDay49kNumSOSCanceledBecauseAbsenceOfLongLieFieldNumberE
0000000000032942 (__TEXT,__text) external __ZN3awd7metrics19MotionFitnessAllDay4SwapEPS1_
000000000008bf1c (__TEXT,__const) external __ZN3awd7metrics19MotionFitnessAllDay50kIsImproveHealthAndActivityOptInEnabledFieldNumberE
000000000008bf74 (__TEXT,__const) external __ZN3awd7metrics19MotionFitnessAllDay50kNumImpactCanceledBecauseOfMaxAccelNormFieldNumberE
000000000008c00c (__TEXT,__const) external __ZN3awd7metrics19MotionFitnessAllDay50kNumOutdoorCyclingUserResponseDismissedFieldNumberE
000000000008c044 (__TEXT,__const) external __ZN3awd7metrics19MotionFitnessAllDay50kNumOutdoorRunningUserResponseDismissedFieldNumberE
000000000008c028 (__TEXT,__const) external __ZN3awd7metrics19MotionFitnessAllDay50kNumOutdoorWalkingUserResponseDismissedFieldNumberE
000000000008c090 (__TEXT,__const) external __ZN3awd7metrics19MotionFitnessAllDay51kNumImpactCanceledBecauseOfExistingAlertFieldNumberE
000000000008bf40 (__TEXT,__const) external __ZN3awd7metrics19MotionFitnessAllDay51kNumUserResponseAutomaticActionRequestedFieldNumberE
000000000008bf30 (__TEXT,__const) external __ZN3awd7metrics19MotionFitnessAllDay51kNumUserResponseConfirmedActionRequestedFieldNumberE
000000000008bfd4 (__TEXT,__const) external __ZN3awd7metrics19MotionFitnessAllDay52kNumAlertCanceledBecauseOfFeatureDisabledFieldNumberE
000000000008bf90 (__TEXT,__const) external __ZN3awd7metrics19MotionFitnessAllDay52kNumAlertCanceledBecauseOfLowFrequencyFFTFieldNumberE
000000000008bfec (__TEXT,__const) external __ZN3awd7metrics19MotionFitnessAllDay53kDidEnableBackgroundAllDayAnomalyDetectionFieldNumberE
000000000008bf8c (__TEXT,__const) external __ZN3awd7metrics19MotionFitnessAllDay53kNumAlertCanceledBecauseOfHighFrequencyFFTFieldNumberE
000000000008bfa4 (__TEXT,__const) external __ZN3awd7metrics19MotionFitnessAllDay53kNumAlertCanceledBecauseOfRepetitiveMotionFieldNumberE
000000000008bf34 (__TEXT,__const) external __ZN3awd7metrics19MotionFitnessAllDay53kNumUserResponseConfirmedNoActionRequestedFieldNumberE
000000000008bff0 (__TEXT,__const) external __ZN3awd7metrics19MotionFitnessAllDay54kDidEnableBackgroundWorkoutAnomalyDetectionFieldNumberE
000000000008c078 (__TEXT,__const) external __ZN3awd7metrics19MotionFitnessAllDay54kHikingWorkoutAlgorithmEffectivenessBitmaskFieldNumberE
000000000008bfd8 (__TEXT,__const) external __ZN3awd7metrics19MotionFitnessAllDay55kNumAlertCanceledBecauseOfAlreadyGatedBeforeFieldNumberE
000000000008c098 (__TEXT,__const) external __ZN3awd7metrics19MotionFitnessAllDay55kOtherWorkoutAlgorithmEffectivenessBitmaskV2FieldNumberE
000000000008c08c (__TEXT,__const) external __ZN3awd7metrics19MotionFitnessAllDay56kHikingWorkoutAlgorithmEffectivenessBitmaskV2FieldNumberE
000000000008bfa8 (__TEXT,__const) external __ZN3awd7metrics19MotionFitnessAllDay56kNumAlertCanceledBecauseOfAbsenceOfQuiessenceFieldNumberE
000000000008c068 (__TEXT,__const) external __ZN3awd7metrics19MotionFitnessAllDay57kNumHikingUserResponseAutomaticActionRequestedFieldNumberE
000000000008c058 (__TEXT,__const) external __ZN3awd7metrics19MotionFitnessAllDay57kNumHikingUserResponseConfirmedActionRequestedFieldNumberE
000000000008bf78 (__TEXT,__const) external __ZN3awd7metrics19MotionFitnessAllDay57kNumImpactCanceledBecauseOfOtherHardThresholdsFieldNumberE
000000000008c09c (__TEXT,__const) external __ZN3awd7metrics19MotionFitnessAllDay58kNumImpactCanceledBecauseOfDisabledStateMachineFieldNumberE
000000000008c05c (__TEXT,__const) external __ZN3awd7metrics19MotionFitnessAllDay59kNumHikingUserResponseConfirmedNoActionRequestedFieldNumberE
0000000000028010 (__TEXT,__text) external __ZN3awd7metrics19MotionFitnessAllDay5ClearEv
000000000008bf94 (__TEXT,__const) external __ZN3awd7metrics19MotionFitnessAllDay61kNumAlertCanceledBecauseOfDecimatedLowFrequencyFFTFieldNumberE
000000000008c094 (__TEXT,__const) external __ZN3awd7metrics19MotionFitnessAllDay61kNumImpactCanceledBecauseOfCyclingImpactThresholdsFieldNumberE
000000000008c0bc (__TEXT,__const) external __ZN3awd7metrics19MotionFitnessAllDay62kNumAlertCanceledBecauseOfDistanceCyclingPostImpactFieldNumberE
000000000008c06c (__TEXT,__const) external __ZN3awd7metrics19MotionFitnessAllDay62kOutdoorCyclingWorkoutAlgorithmEffectivenessBitmaskFieldNumberE
000000000008c074 (__TEXT,__const) external __ZN3awd7metrics19MotionFitnessAllDay62kOutdoorRunningWorkoutAlgorithmEffectivenessBitmaskFieldNumberE
000000000008c070 (__TEXT,__const) external __ZN3awd7metrics19MotionFitnessAllDay62kOutdoorWalkingWorkoutAlgorithmEffectivenessBitmaskFieldNumberE
000000000008c0b8 (__TEXT,__const) external __ZN3awd7metrics19MotionFitnessAllDay63kNumAlertCanceledBecauseOfDistanceTraveledPostImpactFieldNumberE
000000000008c0a4 (__TEXT,__const) external __ZN3awd7metrics19MotionFitnessAllDay63kNumAlertCanceledBecauseOfLockedNoMotionBeforeImpactFieldNumberE
000000000008c080 (__TEXT,__const) external __ZN3awd7metrics19MotionFitnessAllDay64kOutdoorCyclingWorkoutAlgorithmEffectivenessBitmaskV2FieldNumberE
000000000008c088 (__TEXT,__const) external __ZN3awd7metrics19MotionFitnessAllDay64kOutdoorRunningWorkoutAlgorithmEffectivenessBitmaskV2FieldNumberE
000000000008c084 (__TEXT,__const) external __ZN3awd7metrics19MotionFitnessAllDay64kOutdoorWalkingWorkoutAlgorithmEffectivenessBitmaskV2FieldNumberE
000000000008c014 (__TEXT,__const) external __ZN3awd7metrics19MotionFitnessAllDay65kNumOutdoorCyclingUserResponseAutomaticActionRequestedFieldNumberE
000000000008c004 (__TEXT,__const) external __ZN3awd7metrics19MotionFitnessAllDay65kNumOutdoorCyclingUserResponseConfirmedActionRequestedFieldNumberE
000000000008c04c (__TEXT,__const) external __ZN3awd7metrics19MotionFitnessAllDay65kNumOutdoorRunningUserResponseAutomaticActionRequestedFieldNumberE
000000000008c03c (__TEXT,__const) external __ZN3awd7metrics19MotionFitnessAllDay65kNumOutdoorRunningUserResponseConfirmedActionRequestedFieldNumberE
000000000008c030 (__TEXT,__const) external __ZN3awd7metrics19MotionFitnessAllDay65kNumOutdoorWalkingUserResponseAutomaticActionRequestedFieldNumberE
000000000008c020 (__TEXT,__const) external __ZN3awd7metrics19MotionFitnessAllDay65kNumOutdoorWalkingUserResponseConfirmedActionRequestedFieldNumberE
000000000008c008 (__TEXT,__const) external __ZN3awd7metrics19MotionFitnessAllDay67kNumOutdoorCyclingUserResponseConfirmedNoActionRequestedFieldNumberE
000000000008c040 (__TEXT,__const) external __ZN3awd7metrics19MotionFitnessAllDay67kNumOutdoorRunningUserResponseConfirmedNoActionRequestedFieldNumberE
000000000008c024 (__TEXT,__const) external __ZN3awd7metrics19MotionFitnessAllDay67kNumOutdoorWalkingUserResponseConfirmedNoActionRequestedFieldNumberE
0000000000032912 (__TEXT,__text) external __ZN3awd7metrics19MotionFitnessAllDay8CopyFromERKS1_
0000000000026230 (__TEXT,__text) external __ZN3awd7metrics19MotionFitnessAllDay9MergeFromERKS1_
0000000000027b7a (__TEXT,__text) external __ZN3awd7metrics19MotionFitnessAllDayC1ERKS1_
0000000000002e68 (__TEXT,__text) external __ZN3awd7metrics19MotionFitnessAllDayC1Ev
0000000000025ef0 (__TEXT,__text) external __ZN3awd7metrics19MotionFitnessAllDayC2ERKS1_
0000000000025d22 (__TEXT,__text) external __ZN3awd7metrics19MotionFitnessAllDayC2Ev
0000000000027ee2 (__TEXT,__text) external __ZN3awd7metrics19MotionFitnessAllDayD0Ev
0000000000027ed8 (__TEXT,__text) external __ZN3awd7metrics19MotionFitnessAllDayD1Ev
0000000000027b84 (__TEXT,__text) external __ZN3awd7metrics19MotionFitnessAllDayD2Ev
0000000000037e74 (__TEXT,__text) external __ZN3awd7metrics19MotionPressureStats10SharedCtorEv
0000000000038278 (__TEXT,__text) external __ZN3awd7metrics19MotionPressureStats10SharedDtorEv
000000000008c16c (__TEXT,__const) external __ZN3awd7metrics19MotionPressureStats15kTCOFieldNumberE
00000000000382ba (__TEXT,__text) external __ZN3awd7metrics19MotionPressureStats16default_instanceEv
000000000009d0d0 (__DATA_DIRTY,__common) external __ZN3awd7metrics19MotionPressureStats17default_instance_E
00000000000393d8 (__TEXT,__text) external __ZN3awd7metrics19MotionPressureStats21CheckTypeAndMergeFromERKN20wireless_diagnostics6google8protobuf11MessageLiteE
0000000000089d29 (__TEXT,__text) non-external __ZN3awd7metrics19MotionPressureStats21CheckTypeAndMergeFromERKN20wireless_diagnostics6google8protobuf11MessageLiteE.cold.1
0000000000003b22 (__TEXT,__text) external __ZN3awd7metrics19MotionPressureStats21InitAsDefaultInstanceEv
000000000008c158 (__TEXT,__const) external __ZN3awd7metrics19MotionPressureStats21kTimestampFieldNumberE
000000000008c178 (__TEXT,__const) external __ZN3awd7metrics19MotionPressureStats23kFactoryTimeFieldNumberE
000000000008c164 (__TEXT,__const) external __ZN3awd7metrics19MotionPressureStats25kDeltaPressureFieldNumberE
000000000008c174 (__TEXT,__const) external __ZN3awd7metrics19MotionPressureStats26kFlightOfStairsFieldNumberE
0000000000038386 (__TEXT,__text) external __ZN3awd7metrics19MotionPressureStats27MergePartialFromCodedStreamEPN20wireless_diagnostics6google8protobuf2io16CodedInputStreamE
000000000008c168 (__TEXT,__const) external __ZN3awd7metrics19MotionPressureStats28kDeltaTemperatureFieldNumberE
000000000008c170 (__TEXT,__const) external __ZN3awd7metrics19MotionPressureStats29kMedianAbsDevOfTCOFieldNumberE
000000000008c15c (__TEXT,__const) external __ZN3awd7metrics19MotionPressureStats34kMeanAbsOfPressureErrorFieldNumberE
000000000008c160 (__TEXT,__const) external __ZN3awd7metrics19MotionPressureStats35kVarianceOfPressureErrorFieldNumberE
0000000000039446 (__TEXT,__text) external __ZN3awd7metrics19MotionPressureStats4SwapEPS1_
0000000000038334 (__TEXT,__text) external __ZN3awd7metrics19MotionPressureStats5ClearEv
0000000000039416 (__TEXT,__text) external __ZN3awd7metrics19MotionPressureStats8CopyFromERKS1_
0000000000037f8c (__TEXT,__text) external __ZN3awd7metrics19MotionPressureStats9MergeFromERKS1_
00000000000381b8 (__TEXT,__text) external __ZN3awd7metrics19MotionPressureStatsC1ERKS1_
0000000000002fde (__TEXT,__text) external __ZN3awd7metrics19MotionPressureStatsC1Ev
0000000000037e88 (__TEXT,__text) external __ZN3awd7metrics19MotionPressureStatsC2ERKS1_
0000000000037e2e (__TEXT,__text) external __ZN3awd7metrics19MotionPressureStatsC2Ev
0000000000038288 (__TEXT,__text) external __ZN3awd7metrics19MotionPressureStatsD0Ev
000000000003827e (__TEXT,__text) external __ZN3awd7metrics19MotionPressureStatsD1Ev
00000000000381c2 (__TEXT,__text) external __ZN3awd7metrics19MotionPressureStatsD2Ev
000000000003edf4 (__TEXT,__text) external __ZN3awd7metrics20LocationBatteryState10SharedCtorEv
000000000003ef2a (__TEXT,__text) external __ZN3awd7metrics20LocationBatteryState10SharedDtorEv
000000000003ef7e (__TEXT,__text) external __ZN3awd7metrics20LocationBatteryState16default_instanceEv
000000000009d118 (__DATA_DIRTY,__common) external __ZN3awd7metrics20LocationBatteryState17default_instance_E
000000000008c2fc (__TEXT,__const) external __ZN3awd7metrics20LocationBatteryState20kChargingFieldNumberE
000000000003f284 (__TEXT,__text) external __ZN3awd7metrics20LocationBatteryState21CheckTypeAndMergeFromERKN20wireless_diagnostics6google8protobuf11MessageLiteE
0000000000089eaa (__TEXT,__text) non-external __ZN3awd7metrics20LocationBatteryState21CheckTypeAndMergeFromERKN20wireless_diagnostics6google8protobuf11MessageLiteE.cold.1
0000000000003b58 (__TEXT,__text) external __ZN3awd7metrics20LocationBatteryState21InitAsDefaultInstanceEv
000000000008c2f4 (__TEXT,__const) external __ZN3awd7metrics20LocationBatteryState21kTimestampFieldNumberE
000000000003eff4 (__TEXT,__text) external __ZN3awd7metrics20LocationBatteryState27MergePartialFromCodedStreamEPN20wireless_diagnostics6google8protobuf2io16CodedInputStreamE
000000000008c2f8 (__TEXT,__const) external __ZN3awd7metrics20LocationBatteryState32kBatteryLevelPer10000FieldNumberE
000000000003f2f2 (__TEXT,__text) external __ZN3awd7metrics20LocationBatteryState4SwapEPS1_
000000000003efd6 (__TEXT,__text) external __ZN3awd7metrics20LocationBatteryState5ClearEv
000000000003f2c2 (__TEXT,__text) external __ZN3awd7metrics20LocationBatteryState8CopyFromERKS1_
000000000003ee52 (__TEXT,__text) external __ZN3awd7metrics20LocationBatteryState9MergeFromERKS1_
000000000003ef0c (__TEXT,__text) external __ZN3awd7metrics20LocationBatteryStateC1ERKS1_
000000000000314e (__TEXT,__text) external __ZN3awd7metrics20LocationBatteryStateC1Ev
000000000003ee0e (__TEXT,__text) external __ZN3awd7metrics20LocationBatteryStateC2ERKS1_
000000000003edd0 (__TEXT,__text) external __ZN3awd7metrics20LocationBatteryStateC2Ev
000000000003ef44 (__TEXT,__text) external __ZN3awd7metrics20LocationBatteryStateD0Ev
000000000003ef30 (__TEXT,__text) external __ZN3awd7metrics20LocationBatteryStateD1Ev
000000000003ef16 (__TEXT,__text) external __ZN3awd7metrics20LocationBatteryStateD2Ev
00000000000779c2 (__TEXT,__text) external __ZN3awd7metrics20LocationWifiTileSync10SharedCtorEv
0000000000077b48 (__TEXT,__text) external __ZN3awd7metrics20LocationWifiTileSync10SharedDtorEv
0000000000077b9c (__TEXT,__text) external __ZN3awd7metrics20LocationWifiTileSync16default_instanceEv
000000000009d320 (__DATA_DIRTY,__common) external __ZN3awd7metrics20LocationWifiTileSync17default_instance_E
00000000000781ae (__TEXT,__text) external __ZN3awd7metrics20LocationWifiTileSync21CheckTypeAndMergeFromERKN20wireless_diagnostics6google8protobuf11MessageLiteE
000000000008ac2f (__TEXT,__text) non-external __ZN3awd7metrics20LocationWifiTileSync21CheckTypeAndMergeFromERKN20wireless_diagnostics6google8protobuf11MessageLiteE.cold.1
00000000000712c4 (__TEXT,__text) external __ZN3awd7metrics20LocationWifiTileSync21InitAsDefaultInstanceEv
000000000008e1f0 (__TEXT,__const) external __ZN3awd7metrics20LocationWifiTileSync21kTimestampFieldNumberE
000000000008e1f4 (__TEXT,__const) external __ZN3awd7metrics20LocationWifiTileSync24kSyncSessionsFieldNumberE
000000000008e1f8 (__TEXT,__const) external __ZN3awd7metrics20LocationWifiTileSync25kEmptySessionsFieldNumberE
000000000008e204 (__TEXT,__const) external __ZN3awd7metrics20LocationWifiTileSync26kNumTilesSyncedFieldNumberE
0000000000077c12 (__TEXT,__text) external __ZN3awd7metrics20LocationWifiTileSync27MergePartialFromCodedStreamEPN20wireless_diagnostics6google8protobuf2io16CodedInputStreamE
000000000008e200 (__TEXT,__const) external __ZN3awd7metrics20LocationWifiTileSync27kErroredSessionsFieldNumberE
000000000008e208 (__TEXT,__const) external __ZN3awd7metrics20LocationWifiTileSync27kSizeTilesSyncedFieldNumberE
000000000008e1fc (__TEXT,__const) external __ZN3awd7metrics20LocationWifiTileSync29kCompletedSessionsFieldNumberE
000000000007821c (__TEXT,__text) external __ZN3awd7metrics20LocationWifiTileSync4SwapEPS1_
0000000000077bf4 (__TEXT,__text) external __ZN3awd7metrics20LocationWifiTileSync5ClearEv
00000000000781ec (__TEXT,__text) external __ZN3awd7metrics20LocationWifiTileSync8CopyFromERKS1_
0000000000077a20 (__TEXT,__text) external __ZN3awd7metrics20LocationWifiTileSync9MergeFromERKS1_
0000000000077b2a (__TEXT,__text) external __ZN3awd7metrics20LocationWifiTileSyncC1ERKS1_
0000000000071218 (__TEXT,__text) external __ZN3awd7metrics20LocationWifiTileSyncC1Ev
00000000000779dc (__TEXT,__text) external __ZN3awd7metrics20LocationWifiTileSyncC2ERKS1_
000000000007799e (__TEXT,__text) external __ZN3awd7metrics20LocationWifiTileSyncC2Ev
0000000000077b62 (__TEXT,__text) external __ZN3awd7metrics20LocationWifiTileSyncD0Ev
0000000000077b4e (__TEXT,__text) external __ZN3awd7metrics20LocationWifiTileSyncD1Ev
0000000000077b34 (__TEXT,__text) external __ZN3awd7metrics20LocationWifiTileSyncD2Ev
000000000008bcd8 (__TEXT,__const) external __ZN3awd7metrics20MotionFitnessSession10MOCAL_HELDE
000000000001e0e0 (__TEXT,__text) external __ZN3awd7metrics20MotionFitnessSession10SharedCtorEv
000000000001f2b2 (__TEXT,__text) external __ZN3awd7metrics20MotionFitnessSession10SharedDtorEv
000000000008bca8 (__TEXT,__const) external __ZN3awd7metrics20MotionFitnessSession12HRSource_MAXE
000000000008bca4 (__TEXT,__const) external __ZN3awd7metrics20MotionFitnessSession12HRSource_MINE
000000000008bc68 (__TEXT,__const) external __ZN3awd7metrics20MotionFitnessSession12WORKOUT_HIITE
000000000008bc64 (__TEXT,__const) external __ZN3awd7metrics20MotionFitnessSession12WORKOUT_YOGAE
000000000008bc30 (__TEXT,__const) external __ZN3awd7metrics20MotionFitnessSession13WORKOUT_OTHERE
000000000008bc50 (__TEXT,__const) external __ZN3awd7metrics20MotionFitnessSession13WORKOUT_ROWERE
000000000008bc6c (__TEXT,__const) external __ZN3awd7metrics20MotionFitnessSession14WORKOUT_HIKINGE
000000000008bc9c (__TEXT,__const) external __ZN3awd7metrics20MotionFitnessSession15HR_SOURCE_WATCHE
000000000008bcd4 (__TEXT,__const) external __ZN3awd7metrics20MotionFitnessSession15MOCAL_SUCCEEDEDE
000000000008bc78 (__TEXT,__const) external __ZN3awd7metrics20MotionFitnessSession15WORKOUT_DANCINGE
000000000008bc70 (__TEXT,__const) external __ZN3awd7metrics20MotionFitnessSession15WORKOUT_GOLFINGE
000000000008bc8c (__TEXT,__const) external __ZN3awd7metrics20MotionFitnessSession15WORKOUT_PILATESE
000000000008bc88 (__TEXT,__const) external __ZN3awd7metrics20MotionFitnessSession15WORKOUT_TAI_CHIE
000000000008bc2c (__TEXT,__const) external __ZN3awd7metrics20MotionFitnessSession15WORKOUT_UNKNOWNE
000000000008bc94 (__TEXT,__const) external __ZN3awd7metrics20MotionFitnessSession15WorkoutType_MAXE
000000000008bc90 (__TEXT,__const) external __ZN3awd7metrics20MotionFitnessSession15WorkoutType_MINE
000000000008bcd0 (__TEXT,__const) external __ZN3awd7metrics20MotionFitnessSession16MOCAL_NO_ATTEMPTE
000000000008bc58 (__TEXT,__const) external __ZN3awd7metrics20MotionFitnessSession16WORKOUT_SWIMMINGE
000000000001f33a (__TEXT,__text) external __ZN3awd7metrics20MotionFitnessSession16default_instanceEv
000000000008bc80 (__TEXT,__const) external __ZN3awd7metrics20MotionFitnessSession17WORKOUT_COOL_DOWNE
000000000009d0b0 (__DATA_DIRTY,__common) external __ZN3awd7metrics20MotionFitnessSession17default_instance_E
000000000008bcac (__TEXT,__const) external __ZN3awd7metrics20MotionFitnessSession18HRSource_ARRAYSIZEE
000000000008bca0 (__TEXT,__const) external __ZN3awd7metrics20MotionFitnessSession18HR_SOURCE_EXTERNALE
000000000008bce0 (__TEXT,__const) external __ZN3awd7metrics20MotionFitnessSession18MOCAL_FAILED_OTHERE
000000000008bc4c (__TEXT,__const) external __ZN3awd7metrics20MotionFitnessSession18WORKOUT_ELLIPTICALE
000000000008bc3c (__TEXT,__const) external __ZN3awd7metrics20MotionFitnessSession18WORKOUT_INDOOR_RUNE
000000000008bc5c (__TEXT,__const) external __ZN3awd7metrics20MotionFitnessSession18WORKOUT_WHEELCHAIRE
000000000008bc34 (__TEXT,__const) external __ZN3awd7metrics20MotionFitnessSession19WORKOUT_INDOOR_WALKE
000000000008bc40 (__TEXT,__const) external __ZN3awd7metrics20MotionFitnessSession19WORKOUT_OUTDOOR_RUNE
000000000008bcb0 (__TEXT,__const) external __ZN3awd7metrics20MotionFitnessSession20STRIDECAL_NO_ATTEMPTE
000000000008bc44 (__TEXT,__const) external __ZN3awd7metrics20MotionFitnessSession20WORKOUT_INDOOR_CYCLEE
000000000008bc38 (__TEXT,__const) external __ZN3awd7metrics20MotionFitnessSession20WORKOUT_OUTDOOR_WALKE
000000000008bd14 (__TEXT,__const) external __ZN3awd7metrics20MotionFitnessSession20kHrSourceFieldNumberE
000000000002531c (__TEXT,__text) external __ZN3awd7metrics20MotionFitnessSession21CheckTypeAndMergeFromERKN20wireless_diagnostics6google8protobuf11MessageLiteE
0000000000089c0a (__TEXT,__text) non-external __ZN3awd7metrics20MotionFitnessSession21CheckTypeAndMergeFromERKN20wireless_diagnostics6google8protobuf11MessageLiteE.cold.1
0000000000003b0a (__TEXT,__text) external __ZN3awd7metrics20MotionFitnessSession21InitAsDefaultInstanceEv
000000000008bc84 (__TEXT,__const) external __ZN3awd7metrics20MotionFitnessSession21WORKOUT_CORE_TRAININGE
000000000008bc60 (__TEXT,__const) external __ZN3awd7metrics20MotionFitnessSession21WORKOUT_OPEN_SWIMMINGE
000000000008bc48 (__TEXT,__const) external __ZN3awd7metrics20MotionFitnessSession21WORKOUT_OUTDOOR_CYCLEE
000000000008bc54 (__TEXT,__const) external __ZN3awd7metrics20MotionFitnessSession21WORKOUT_STAIR_STEPPERE
000000000008bc98 (__TEXT,__const) external __ZN3awd7metrics20MotionFitnessSession21WorkoutType_ARRAYSIZEE
000000000008bd44 (__TEXT,__const) external __ZN3awd7metrics20MotionFitnessSession21kRatioWRHRFieldNumberE
000000000008bcf0 (__TEXT,__const) external __ZN3awd7metrics20MotionFitnessSession21kTimestampFieldNumberE
000000000008bcb4 (__TEXT,__const) external __ZN3awd7metrics20MotionFitnessSession22STRIDECAL_FAILED_NOGPSE
000000000008bcc0 (__TEXT,__const) external __ZN3awd7metrics20MotionFitnessSession22STRIDECAL_FAILED_OTHERE
000000000008bda0 (__TEXT,__const) external __ZN3awd7metrics20MotionFitnessSession22kPoolLengthFieldNumberE
000000000008bc74 (__TEXT,__const) external __ZN3awd7metrics20MotionFitnessSession23WORKOUT_DOWNHILL_SKIINGE
000000000008bcf4 (__TEXT,__const) external __ZN3awd7metrics20MotionFitnessSession23kWorkoutTypeFieldNumberE
000000000008bdf0 (__TEXT,__const) external __ZN3awd7metrics20MotionFitnessSession24kNumPauseFastFieldNumberE
000000000008bdf8 (__TEXT,__const) external __ZN3awd7metrics20MotionFitnessSession24kNumPauseSlowFieldNumberE
000000000008bcb8 (__TEXT,__const) external __ZN3awd7metrics20MotionFitnessSession25STRIDECAL_FAILED_NOTRACKSE
000000000008bd0c (__TEXT,__const) external __ZN3awd7metrics20MotionFitnessSession25kHrUtilizationFieldNumberE
000000000008bdfc (__TEXT,__const) external __ZN3awd7metrics20MotionFitnessSession25kNumResumeFastFieldNumberE
000000000008bcbc (__TEXT,__const) external __ZN3awd7metrics20MotionFitnessSession26STRIDECAL_FAILED_ELEVATIONE
000000000008bcfc (__TEXT,__const) external __ZN3awd7metrics20MotionFitnessSession26kCompanionModelFieldNumberE
000000000008bd04 (__TEXT,__const) external __ZN3awd7metrics20MotionFitnessSession26kHrAvailabilityFieldNumberE
000000000008bdf4 (__TEXT,__const) external __ZN3awd7metrics20MotionFitnessSession26kNumPauseNormalFieldNumberE
000000000008be04 (__TEXT,__const) external __ZN3awd7metrics20MotionFitnessSession26kNumResumeFalseFieldNumberE
000000000008bd6c (__TEXT,__const) external __ZN3awd7metrics20MotionFitnessSession26kPctPaceFailureFieldNumberE
000000000008bdbc (__TEXT,__const) external __ZN3awd7metrics20MotionFitnessSession26kPctSessionBackFieldNumberE
000000000008bdb0 (__TEXT,__const) external __ZN3awd7metrics20MotionFitnessSession26kPctSessionFreeFieldNumberE
000000000008bd18 (__TEXT,__const) external __ZN3awd7metrics20MotionFitnessSession26kVo2ConsistencyFieldNumberE
000000000001f650 (__TEXT,__text) external __ZN3awd7metrics20MotionFitnessSession27MergePartialFromCodedStreamEPN20wireless_diagnostics6google8protobuf2io16CodedInputStreamE
000000000008bce8 (__TEXT,__const) external __ZN3awd7metrics20MotionFitnessSession27MotionCalibrationStatus_MAXE
000000000008bce4 (__TEXT,__const) external __ZN3awd7metrics20MotionFitnessSession27MotionCalibrationStatus_MINE
000000000008bcc8 (__TEXT,__const) external __ZN3awd7metrics20MotionFitnessSession27StrideCalibrationStatus_MAXE
000000000008bcc4 (__TEXT,__const) external __ZN3awd7metrics20MotionFitnessSession27StrideCalibrationStatus_MINE
000000000008bc7c (__TEXT,__const) external __ZN3awd7metrics20MotionFitnessSession27WORKOUT_FUNCTIONAL_STRENGTHE
000000000008be94 (__TEXT,__const) external __ZN3awd7metrics20MotionFitnessSession27kBeelineDistanceFieldNumberE
000000000008bd00 (__TEXT,__const) external __ZN3awd7metrics20MotionFitnessSession27kGpsAvailabilityFieldNumberE
000000000008bd40 (__TEXT,__const) external __ZN3awd7metrics20MotionFitnessSession27kIdsAvailabilityFieldNumberE
000000000008be98 (__TEXT,__const) external __ZN3awd7metrics20MotionFitnessSession27kMeanABSPressureFieldNumberE
000000000008bddc (__TEXT,__const) external __ZN3awd7metrics20MotionFitnessSession27kNumAutoDidPauseFieldNumberE
000000000008bdd8 (__TEXT,__const) external __ZN3awd7metrics20MotionFitnessSession27kNumAutoDidStartFieldNumberE
000000000008be00 (__TEXT,__const) external __ZN3awd7metrics20MotionFitnessSession27kNumResumeNormalFieldNumberE
000000000008bdc0 (__TEXT,__const) external __ZN3awd7metrics20MotionFitnessSession27kPctSessionOtherFieldNumberE
000000000008bd10 (__TEXT,__const) external __ZN3awd7metrics20MotionFitnessSession27kVo2MaxAvailableFieldNumberE
000000000008bdd4 (__TEXT,__const) external __ZN3awd7metrics20MotionFitnessSession28kAutoPauseEnabledFieldNumberE
000000000008bda4 (__TEXT,__const) external __ZN3awd7metrics20MotionFitnessSession28kAvgLapCorrectionFieldNumberE
000000000008bde4 (__TEXT,__const) external __ZN3awd7metrics20MotionFitnessSession28kNumAutoWillPauseFieldNumberE
000000000008bde0 (__TEXT,__const) external __ZN3awd7metrics20MotionFitnessSession28kNumAutoWillStartFieldNumberE
000000000008bda8 (__TEXT,__const) external __ZN3awd7metrics20MotionFitnessSession28kNumLapInsertionsFieldNumberE
000000000008bdb4 (__TEXT,__const) external __ZN3awd7metrics20MotionFitnessSession28kPctSessionBreastFieldNumberE
000000000008bdb8 (__TEXT,__const) external __ZN3awd7metrics20MotionFitnessSession28kPctSessionButterFieldNumberE
000000000008bd88 (__TEXT,__const) external __ZN3awd7metrics20MotionFitnessSession28kPctSessionUphillFieldNumberE
000000000008bd9c (__TEXT,__const) external __ZN3awd7metrics20MotionFitnessSession28kPctTurnsRejectedFieldNumberE
000000000008be8c (__TEXT,__const) external __ZN3awd7metrics20MotionFitnessSession29kDemAltitudeChangeFieldNumberE
000000000008bd78 (__TEXT,__const) external __ZN3awd7metrics20MotionFitnessSession29kOtherWorkoutLabelFieldNumberE
000000000008bcdc (__TEXT,__const) external __ZN3awd7metrics20MotionFitnessSession30MOCAL_FAILED_INSUFFICIENT_DATAE
000000000008be88 (__TEXT,__const) external __ZN3awd7metrics20MotionFitnessSession30kBaroAltitudeChangeFieldNumberE
000000000008bcf8 (__TEXT,__const) external __ZN3awd7metrics20MotionFitnessSession30kCompanionAvailableFieldNumberE
000000000008bd48 (__TEXT,__const) external __ZN3awd7metrics20MotionFitnessSession30kDefaultUtilizationFieldNumberE
000000000008bde8 (__TEXT,__const) external __ZN3awd7metrics20MotionFitnessSession30kHistEventDeltaTimeFieldNumberE
000000000008be84 (__TEXT,__const) external __ZN3awd7metrics20MotionFitnessSession30kIndoorOutdoorStateFieldNumberE
000000000008be60 (__TEXT,__const) external __ZN3awd7metrics20MotionFitnessSession30kIsStopAlertEnabledFieldNumberE
000000000008be1c (__TEXT,__const) external __ZN3awd7metrics20MotionFitnessSession30kNumValidHRMetPairsFieldNumberE
000000000008bd8c (__TEXT,__const) external __ZN3awd7metrics20MotionFitnessSession30kPctSessionDownhillFieldNumberE
000000000008bdc4 (__TEXT,__const) external __ZN3awd7metrics20MotionFitnessSession30kPctSessionSwimmingFieldNumberE
000000000008bd84 (__TEXT,__const) external __ZN3awd7metrics20MotionFitnessSession31kBoolDidHrBoundsFailFieldNumberE
000000000008bd64 (__TEXT,__const) external __ZN3awd7metrics20MotionFitnessSession31kHistSessionDurationFieldNumberE
000000000008bd08 (__TEXT,__const) external __ZN3awd7metrics20MotionFitnessSession31kHrOnsetAvailabilityFieldNumberE
000000000008be64 (__TEXT,__const) external __ZN3awd7metrics20MotionFitnessSession31kIsStartAlertEnabledFieldNumberE
000000000008be2c (__TEXT,__const) external __ZN3awd7metrics20MotionFitnessSession31kNumBaroGoodBaroUsedFieldNumberE
000000000008bd1c (__TEXT,__const) external __ZN3awd7metrics20MotionFitnessSession31kPALEstimationStatusFieldNumberE
000000000008be70 (__TEXT,__const) external __ZN3awd7metrics20MotionFitnessSession32kCoarseLocationLatMFSFieldNumberE
000000000008bd50 (__TEXT,__const) external __ZN3awd7metrics20MotionFitnessSession32kPctDistanceTrackUsedFieldNumberE
000000000008be0c (__TEXT,__const) external __ZN3awd7metrics20MotionFitnessSession32kPctHRSamplesValidMaxFieldNumberE
000000000008be08 (__TEXT,__const) external __ZN3awd7metrics20MotionFitnessSession32kPctHRSamplesValidMinFieldNumberE
000000000008bd38 (__TEXT,__const) external __ZN3awd7metrics20MotionFitnessSession32kRunCalibrationStatusFieldNumberE
000000000008bcec (__TEXT,__const) external __ZN3awd7metrics20MotionFitnessSession33MotionCalibrationStatus_ARRAYSIZEE
000000000008bccc (__TEXT,__const) external __ZN3awd7metrics20MotionFitnessSession33StrideCalibrationStatus_ARRAYSIZEE
000000000008be74 (__TEXT,__const) external __ZN3awd7metrics20MotionFitnessSession33kCoarseLocationLongMFSFieldNumberE
000000000008be24 (__TEXT,__const) external __ZN3awd7metrics20MotionFitnessSession33kMonthsSinceLastVo2MaxFieldNumberE
000000000008bdac (__TEXT,__const) external __ZN3awd7metrics20MotionFitnessSession33kNumLapsForConvergenceFieldNumberE
000000000008be28 (__TEXT,__const) external __ZN3awd7metrics20MotionFitnessSession33kSteadyStateDivergenceFieldNumberE
000000000008be18 (__TEXT,__const) external __ZN3awd7metrics20MotionFitnessSession33kVo2MaxDeltaPercentageFieldNumberE
000000000008be20 (__TEXT,__const) external __ZN3awd7metrics20MotionFitnessSession33kVo2MaxWalkRunDeltaPctFieldNumberE
000000000008bd34 (__TEXT,__const) external __ZN3awd7metrics20MotionFitnessSession33kWalkCalibrationStatusFieldNumberE
000000000008bdec (__TEXT,__const) external __ZN3awd7metrics20MotionFitnessSession33kWorkoutElevationErrorFieldNumberE
000000000008bdcc (__TEXT,__const) external __ZN3awd7metrics20MotionFitnessSession34kPctStrokeSamplesFailMAFieldNumberE
000000000008bd20 (__TEXT,__const) external __ZN3awd7metrics20MotionFitnessSession34kVo2MaxEstimationStatusFieldNumberE
000000000008bd98 (__TEXT,__const) external __ZN3awd7metrics20MotionFitnessSession35kAvgInterCalibrationTimeFieldNumberE
000000000008be80 (__TEXT,__const) external __ZN3awd7metrics20MotionFitnessSession35kNumStopAlertRetractionsFieldNumberE
000000000008be14 (__TEXT,__const) external __ZN3awd7metrics20MotionFitnessSession35kPctMETSamplesValidDeltaFieldNumberE
000000000008bd68 (__TEXT,__const) external __ZN3awd7metrics20MotionFitnessSession35kPctPedestrianCalibratedFieldNumberE
000000000008bd30 (__TEXT,__const) external __ZN3awd7metrics20MotionFitnessSession35kRunCalibrationAvailableFieldNumberE
000000000008bd3c (__TEXT,__const) external __ZN3awd7metrics20MotionFitnessSession35kVo2MaxGradeAvailabilityFieldNumberE
000000000008be7c (__TEXT,__const) external __ZN3awd7metrics20MotionFitnessSession36kNumAlertsOfDetectedStopsFieldNumberE
000000000008bd7c (__TEXT,__const) external __ZN3awd7metrics20MotionFitnessSession36kPctSessionGPSSourcePhoneFieldNumberE
000000000008bd80 (__TEXT,__const) external __ZN3awd7metrics20MotionFitnessSession36kPctSessionGPSSourceWatchFieldNumberE
000000000008bd2c (__TEXT,__const) external __ZN3awd7metrics20MotionFitnessSession36kWalkCalibrationAvailableFieldNumberE
000000000008be40 (__TEXT,__const) external __ZN3awd7metrics20MotionFitnessSession37kNumBaroBadDEMAvailDEMUsedFieldNumberE
000000000008be10 (__TEXT,__const) external __ZN3awd7metrics20MotionFitnessSession37kPctMETSamplesWithRecentHRFieldNumberE
000000000008bd4c (__TEXT,__const) external __ZN3awd7metrics20MotionFitnessSession37kPctPedestrianGPSAvailableFieldNumberE
000000000008bdd0 (__TEXT,__const) external __ZN3awd7metrics20MotionFitnessSession37kPctStrokeSamplesFailAccelFieldNumberE
000000000008bd70 (__TEXT,__const) external __ZN3awd7metrics20MotionFitnessSession38kAvgPedestrianMetSourceDiffFieldNumberE
000000000008bd24 (__TEXT,__const) external __ZN3awd7metrics20MotionFitnessSession38kLoadCalibrationUtilizationFieldNumberE
000000000008bd74 (__TEXT,__const) external __ZN3awd7metrics20MotionFitnessSession38kStdPedestrianMetSourceDiffFieldNumberE
000000000008bd58 (__TEXT,__const) external __ZN3awd7metrics20MotionFitnessSession39kPctDistanceTrackInvalidGainFieldNumberE
000000000008bd90 (__TEXT,__const) external __ZN3awd7metrics20MotionFitnessSession39kPctSessionCaloriesFromGradeFieldNumberE
000000000008be68 (__TEXT,__const) external __ZN3awd7metrics20MotionFitnessSession40kActivityTypeWhenStopDisabledFieldNumberE
000000000008be44 (__TEXT,__const) external __ZN3awd7metrics20MotionFitnessSession40kNumBaroBadDEMUnavailNoSourceFieldNumberE
000000000008be3c (__TEXT,__const) external __ZN3awd7metrics20MotionFitnessSession40kNumBaroUnkDEMUnavailBaroUsedFieldNumberE
000000000008bd5c (__TEXT,__const) external __ZN3awd7metrics20MotionFitnessSession40kPctDistanceTrackInvalidSpeedFieldNumberE
000000000008be6c (__TEXT,__const) external __ZN3awd7metrics20MotionFitnessSession41kActivityTypeWhenStartDisabledFieldNumberE
000000000008bd60 (__TEXT,__const) external __ZN3awd7metrics20MotionFitnessSession41kPctDistanceTrackInvalidLengthFieldNumberE
000000000008bdc8 (__TEXT,__const) external __ZN3awd7metrics20MotionFitnessSession41kPctStrokeSamplesFailCurvatureFieldNumberE
000000000008bd28 (__TEXT,__const) external __ZN3awd7metrics20MotionFitnessSession41kStrideCalibrationAvailabilityFieldNumberE
000000000008be90 (__TEXT,__const) external __ZN3awd7metrics20MotionFitnessSession41kWeatherPressureAltitudeChangeFieldNumberE
000000000008be30 (__TEXT,__const) external __ZN3awd7metrics20MotionFitnessSession42kNumBaroUnkBaroDEMAgreeBaroUsedFieldNumberE
000000000008bd54 (__TEXT,__const) external __ZN3awd7metrics20MotionFitnessSession43kPctDistanceTrackInvalidGradientFieldNumberE
000000000008be34 (__TEXT,__const) external __ZN3awd7metrics20MotionFitnessSession44kNumBaroUnkBaroDEMDisagreeDEMUsedFieldNumberE
000000000008be38 (__TEXT,__const) external __ZN3awd7metrics20MotionFitnessSession45kNumBaroUnkBaroDEMDisagreeBaroUsedFieldNumberE
000000000008bd94 (__TEXT,__const) external __ZN3awd7metrics20MotionFitnessSession48kBoolSessionDurationThresholdExceededFieldNumberE
000000000008be50 (__TEXT,__const) external __ZN3awd7metrics20MotionFitnessSession48kNumGPSSelectedGPSAvailGPSUsedBaroBadFieldNumberE
000000000008be4c (__TEXT,__const) external __ZN3awd7metrics20MotionFitnessSession48kNumGPSSelectedGPSAvailGPSUsedBaroUnkFieldNumberE
000000000008be48 (__TEXT,__const) external __ZN3awd7metrics20MotionFitnessSession49kNumGPSSelectedGPSAvailGPSUsedBaroGoodFieldNumberE
000000000008be78 (__TEXT,__const) external __ZN3awd7metrics20MotionFitnessSession49kTimeSinceLastDetectedStopToWorkoutEndFieldNumberE
000000000002538a (__TEXT,__text) external __ZN3awd7metrics20MotionFitnessSession4SwapEPS1_
000000000008be5c (__TEXT,__const) external __ZN3awd7metrics20MotionFitnessSession51kNumGPSSelectedGPSUnavailNoUpdateBaroBadFieldNumberE
000000000008be58 (__TEXT,__const) external __ZN3awd7metrics20MotionFitnessSession51kNumGPSSelectedGPSUnavailNoUpdateBaroUnkFieldNumberE
000000000008be54 (__TEXT,__const) external __ZN3awd7metrics20MotionFitnessSession52kNumGPSSelectedGPSUnavailNoUpdateBaroGoodFieldNumberE
000000000001f44a (__TEXT,__text) external __ZN3awd7metrics20MotionFitnessSession5ClearEv
000000000002535a (__TEXT,__text) external __ZN3awd7metrics20MotionFitnessSession8CopyFromERKS1_
000000000001e2d0 (__TEXT,__text) external __ZN3awd7metrics20MotionFitnessSession9MergeFromERKS1_
0000000000089af2 (__TEXT,__text) non-external __ZN3awd7metrics20MotionFitnessSession9MergeFromERKS1_.cold.1
0000000000089b15 (__TEXT,__text) non-external __ZN3awd7metrics20MotionFitnessSession9MergeFromERKS1_.cold.2
0000000000089b38 (__TEXT,__text) non-external __ZN3awd7metrics20MotionFitnessSession9MergeFromERKS1_.cold.3
0000000000089b5b (__TEXT,__text) non-external __ZN3awd7metrics20MotionFitnessSession9MergeFromERKS1_.cold.4
0000000000089b7e (__TEXT,__text) non-external __ZN3awd7metrics20MotionFitnessSession9MergeFromERKS1_.cold.5
0000000000089ba1 (__TEXT,__text) non-external __ZN3awd7metrics20MotionFitnessSession9MergeFromERKS1_.cold.6
0000000000089bc4 (__TEXT,__text) non-external __ZN3awd7metrics20MotionFitnessSession9MergeFromERKS1_.cold.7
0000000000089be7 (__TEXT,__text) non-external __ZN3awd7metrics20MotionFitnessSession9MergeFromERKS1_.cold.8
000000000001f266 (__TEXT,__text) external __ZN3awd7metrics20MotionFitnessSessionC1ERKS1_
0000000000002d8c (__TEXT,__text) external __ZN3awd7metrics20MotionFitnessSessionC1Ev
000000000001e1ac (__TEXT,__text) external __ZN3awd7metrics20MotionFitnessSessionC2ERKS1_
000000000001e004 (__TEXT,__text) external __ZN3awd7metrics20MotionFitnessSessionC2Ev
000000000001f308 (__TEXT,__text) external __ZN3awd7metrics20MotionFitnessSessionD0Ev
000000000001f2fe (__TEXT,__text) external __ZN3awd7metrics20MotionFitnessSessionD1Ev
000000000001f270 (__TEXT,__text) external __ZN3awd7metrics20MotionFitnessSessionD2Ev
00000000000395d4 (__TEXT,__text) external __ZN3awd7metrics20MotionNoGPSRunAllDay10SharedCtorEv
00000000000396ec (__TEXT,__text) external __ZN3awd7metrics20MotionNoGPSRunAllDay10SharedDtorEv
0000000000039740 (__TEXT,__text) external __ZN3awd7metrics20MotionNoGPSRunAllDay16default_instanceEv
000000000009d0d8 (__DATA_DIRTY,__common) external __ZN3awd7metrics20MotionNoGPSRunAllDay17default_instance_E
000000000003999c (__TEXT,__text) external __ZN3awd7metrics20MotionNoGPSRunAllDay21CheckTypeAndMergeFromERKN20wireless_diagnostics6google8protobuf11MessageLiteE
0000000000089d4c (__TEXT,__text) non-external __ZN3awd7metrics20MotionNoGPSRunAllDay21CheckTypeAndMergeFromERKN20wireless_diagnostics6google8protobuf11MessageLiteE.cold.1
0000000000003b28 (__TEXT,__text) external __ZN3awd7metrics20MotionNoGPSRunAllDay21InitAsDefaultInstanceEv
000000000008c17c (__TEXT,__const) external __ZN3awd7metrics20MotionNoGPSRunAllDay21kTimestampFieldNumberE
00000000000397b2 (__TEXT,__text) external __ZN3awd7metrics20MotionNoGPSRunAllDay27MergePartialFromCodedStreamEPN20wireless_diagnostics6google8protobuf2io16CodedInputStreamE
000000000008c180 (__TEXT,__const) external __ZN3awd7metrics20MotionNoGPSRunAllDay33kCompanionOnlyNoGPSRunFieldNumberE
0000000000039a0a (__TEXT,__text) external __ZN3awd7metrics20MotionNoGPSRunAllDay4SwapEPS1_
0000000000039792 (__TEXT,__text) external __ZN3awd7metrics20MotionNoGPSRunAllDay5ClearEv
00000000000399da (__TEXT,__text) external __ZN3awd7metrics20MotionNoGPSRunAllDay8CopyFromERKS1_
0000000000039628 (__TEXT,__text) external __ZN3awd7metrics20MotionNoGPSRunAllDay9MergeFromERKS1_
00000000000396ce (__TEXT,__text) external __ZN3awd7metrics20MotionNoGPSRunAllDayC1ERKS1_
0000000000003024 (__TEXT,__text) external __ZN3awd7metrics20MotionNoGPSRunAllDayC1Ev
00000000000395e8 (__TEXT,__text) external __ZN3awd7metrics20MotionNoGPSRunAllDayC2ERKS1_
00000000000395b6 (__TEXT,__text) external __ZN3awd7metrics20MotionNoGPSRunAllDayC2Ev
0000000000039706 (__TEXT,__text) external __ZN3awd7metrics20MotionNoGPSRunAllDayD0Ev
00000000000396f2 (__TEXT,__text) external __ZN3awd7metrics20MotionNoGPSRunAllDayD1Ev
00000000000396d8 (__TEXT,__text) external __ZN3awd7metrics20MotionNoGPSRunAllDayD2Ev
00000000000716c4 (__TEXT,__text) external __ZN3awd7metrics21LocationALSCacheUsage10SharedCtorEv
000000000007185e (__TEXT,__text) external __ZN3awd7metrics21LocationALSCacheUsage10SharedDtorEv
00000000000718b2 (__TEXT,__text) external __ZN3awd7metrics21LocationALSCacheUsage16default_instanceEv
000000000009d2f0 (__DATA_DIRTY,__common) external __ZN3awd7metrics21LocationALSCacheUsage17default_instance_E
0000000000071f7a (__TEXT,__text) external __ZN3awd7metrics21LocationALSCacheUsage21CheckTypeAndMergeFromERKN20wireless_diagnostics6google8protobuf11MessageLiteE
000000000008ab3f (__TEXT,__text) non-external __ZN3awd7metrics21LocationALSCacheUsage21CheckTypeAndMergeFromERKN20wireless_diagnostics6google8protobuf11MessageLiteE.cold.1
0000000000071242 (__TEXT,__text) external __ZN3awd7metrics21LocationALSCacheUsage21InitAsDefaultInstanceEv
000000000008e0d8 (__TEXT,__const) external __ZN3awd7metrics21LocationALSCacheUsage22kApHitCountFieldNumberE
000000000008e0e0 (__TEXT,__const) external __ZN3awd7metrics21LocationALSCacheUsage23kInsertCountFieldNumberE
000000000008e0dc (__TEXT,__const) external __ZN3awd7metrics21LocationALSCacheUsage24kScanHitCountFieldNumberE
0000000000071928 (__TEXT,__text) external __ZN3awd7metrics21LocationALSCacheUsage27MergePartialFromCodedStreamEPN20wireless_diagnostics6google8protobuf2io16CodedInputStreamE
000000000008e0f4 (__TEXT,__const) external __ZN3awd7metrics21LocationALSCacheUsage28kOtherDeleteCountFieldNumberE
000000000008e0e8 (__TEXT,__const) external __ZN3awd7metrics21LocationALSCacheUsage29kUnusedDeleteCountFieldNumberE
000000000008e0e4 (__TEXT,__const) external __ZN3awd7metrics21LocationALSCacheUsage30kExpiredDeleteCountFieldNumberE
000000000008e0f0 (__TEXT,__const) external __ZN3awd7metrics21LocationALSCacheUsage30kRefreshDeleteCountFieldNumberE
000000000008e0ec (__TEXT,__const) external __ZN3awd7metrics21LocationALSCacheUsage38kMaxSizeExceededDeleteCountFieldNumberE
0000000000071fe8 (__TEXT,__text) external __ZN3awd7metrics21LocationALSCacheUsage4SwapEPS1_
000000000007190a (__TEXT,__text) external __ZN3awd7metrics21LocationALSCacheUsage5ClearEv
0000000000071fb8 (__TEXT,__text) external __ZN3awd7metrics21LocationALSCacheUsage8CopyFromERKS1_
0000000000071722 (__TEXT,__text) external __ZN3awd7metrics21LocationALSCacheUsage9MergeFromERKS1_
0000000000071840 (__TEXT,__text) external __ZN3awd7metrics21LocationALSCacheUsageC1ERKS1_
0000000000071110 (__TEXT,__text) external __ZN3awd7metrics21LocationALSCacheUsageC1Ev
00000000000716de (__TEXT,__text) external __ZN3awd7metrics21LocationALSCacheUsageC2ERKS1_
00000000000716a0 (__TEXT,__text) external __ZN3awd7metrics21LocationALSCacheUsageC2Ev
0000000000071878 (__TEXT,__text) external __ZN3awd7metrics21LocationALSCacheUsageD0Ev
0000000000071864 (__TEXT,__text) external __ZN3awd7metrics21LocationALSCacheUsageD1Ev
000000000007184a (__TEXT,__text) external __ZN3awd7metrics21LocationALSCacheUsageD2Ev
0000000000059052 (__TEXT,__text) external __ZN3awd7metrics21LocationCellTileUsage10SharedCtorEv
0000000000059244 (__TEXT,__text) external __ZN3awd7metrics21LocationCellTileUsage10SharedDtorEv
0000000000059298 (__TEXT,__text) external __ZN3awd7metrics21LocationCellTileUsage16default_instanceEv
000000000009d1f8 (__DATA_DIRTY,__common) external __ZN3awd7metrics21LocationCellTileUsage17default_instance_E
0000000000059b9c (__TEXT,__text) external __ZN3awd7metrics21LocationCellTileUsage21CheckTypeAndMergeFromERKN20wireless_diagnostics6google8protobuf11MessageLiteE
000000000008a48b (__TEXT,__text) non-external __ZN3awd7metrics21LocationCellTileUsage21CheckTypeAndMergeFromERKN20wireless_diagnostics6google8protobuf11MessageLiteE.cold.1
0000000000003c48 (__TEXT,__text) external __ZN3awd7metrics21LocationCellTileUsage21InitAsDefaultInstanceEv
000000000008c964 (__TEXT,__const) external __ZN3awd7metrics21LocationCellTileUsage21kTimestampFieldNumberE
000000000008c978 (__TEXT,__const) external __ZN3awd7metrics21LocationCellTileUsage26kNumAlsRequestsFieldNumberE
0000000000059330 (__TEXT,__text) external __ZN3awd7metrics21LocationCellTileUsage27MergePartialFromCodedStreamEPN20wireless_diagnostics6google8protobuf2io16CodedInputStreamE
000000000008c974 (__TEXT,__const) external __ZN3awd7metrics21LocationCellTileUsage27kLocationUnknownFieldNumberE
000000000008c968 (__TEXT,__const) external __ZN3awd7metrics21LocationCellTileUsage28kLocationAttemptsFieldNumberE
000000000008c970 (__TEXT,__const) external __ZN3awd7metrics21LocationCellTileUsage29kLocationFromTilesFieldNumberE
000000000008c97c (__TEXT,__const) external __ZN3awd7metrics21LocationCellTileUsage31kNumAlsCellsReturnedFieldNumberE
000000000008c980 (__TEXT,__const) external __ZN3awd7metrics21LocationCellTileUsage31kNumCurrentDownloadsFieldNumberE
000000000008c988 (__TEXT,__const) external __ZN3awd7metrics21LocationCellTileUsage32kNumNeighborDownloadsFieldNumberE
000000000008c984 (__TEXT,__const) external __ZN3awd7metrics21LocationCellTileUsage32kSizeCurrentDownloadsFieldNumberE
000000000008c98c (__TEXT,__const) external __ZN3awd7metrics21LocationCellTileUsage33kSizeNeighborDownloadsFieldNumberE
000000000008c96c (__TEXT,__const) external __ZN3awd7metrics21LocationCellTileUsage36kLocationFromNetworkCacheFieldNumberE
0000000000059c0a (__TEXT,__text) external __ZN3awd7metrics21LocationCellTileUsage4SwapEPS1_
00000000000592f4 (__TEXT,__text) external __ZN3awd7metrics21LocationCellTileUsage5ClearEv
0000000000059bda (__TEXT,__text) external __ZN3awd7metrics21LocationCellTileUsage8CopyFromERKS1_
00000000000590b8 (__TEXT,__text) external __ZN3awd7metrics21LocationCellTileUsage9MergeFromERKS1_
0000000000059226 (__TEXT,__text) external __ZN3awd7metrics21LocationCellTileUsageC1ERKS1_
0000000000003536 (__TEXT,__text) external __ZN3awd7metrics21LocationCellTileUsageC1Ev
0000000000059070 (__TEXT,__text) external __ZN3awd7metrics21LocationCellTileUsageC2ERKS1_
000000000005902a (__TEXT,__text) external __ZN3awd7metrics21LocationCellTileUsageC2Ev
000000000005925e (__TEXT,__text) external __ZN3awd7metrics21LocationCellTileUsageD0Ev
000000000005924a (__TEXT,__text) external __ZN3awd7metrics21LocationCellTileUsageD1Ev
0000000000059230 (__TEXT,__text) external __ZN3awd7metrics21LocationCellTileUsageD2Ev
0000000000004064 (__TEXT,__text) external __ZN3awd7metrics21LocationServicesState10SharedCtorEv
0000000000004218 (__TEXT,__text) external __ZN3awd7metrics21LocationServicesState10SharedDtorEv
00000000000042ce (__TEXT,__text) external __ZN3awd7metrics21LocationServicesState16default_instanceEv
000000000009d000 (__DATA_DIRTY,__common) external __ZN3awd7metrics21LocationServicesState17default_instance_E
000000000008b414 (__TEXT,__const) external __ZN3awd7metrics21LocationServicesState17kEventFieldNumberE
000000000008b410 (__TEXT,__const) external __ZN3awd7metrics21LocationServicesState19kEnabledFieldNumberE
000000000008b40c (__TEXT,__const) external __ZN3awd7metrics21LocationServicesState20kBundleidFieldNumberE
0000000000004740 (__TEXT,__text) external __ZN3awd7metrics21LocationServicesState21CheckTypeAndMergeFromERKN20wireless_diagnostics6google8protobuf11MessageLiteE
00000000000893b3 (__TEXT,__text) non-external __ZN3awd7metrics21LocationServicesState21CheckTypeAndMergeFromERKN20wireless_diagnostics6google8protobuf11MessageLiteE.cold.1
000000000000399c (__TEXT,__text) external __ZN3awd7metrics21LocationServicesState21InitAsDefaultInstanceEv
000000000008b408 (__TEXT,__const) external __ZN3awd7metrics21LocationServicesState21kTimestampFieldNumberE
0000000000004386 (__TEXT,__text) external __ZN3awd7metrics21LocationServicesState27MergePartialFromCodedStreamEPN20wireless_diagnostics6google8protobuf2io16CodedInputStreamE
00000000000047ae (__TEXT,__text) external __ZN3awd7metrics21LocationServicesState4SwapEPS1_
0000000000004332 (__TEXT,__text) external __ZN3awd7metrics21LocationServicesState5ClearEv
000000000000477e (__TEXT,__text) external __ZN3awd7metrics21LocationServicesState8CopyFromERKS1_
00000000000040dc (__TEXT,__text) external __ZN3awd7metrics21LocationServicesState9MergeFromERKS1_
00000000000041e8 (__TEXT,__text) external __ZN3awd7metrics21LocationServicesStateC1ERKS1_
0000000000002894 (__TEXT,__text) external __ZN3awd7metrics21LocationServicesStateC1Ev
000000000000408a (__TEXT,__text) external __ZN3awd7metrics21LocationServicesStateC2ERKS1_
0000000000004034 (__TEXT,__text) external __ZN3awd7metrics21LocationServicesStateC2Ev
000000000000428c (__TEXT,__text) external __ZN3awd7metrics21LocationServicesStateD0Ev
0000000000004266 (__TEXT,__text) external __ZN3awd7metrics21LocationServicesStateD1Ev
00000000000041f2 (__TEXT,__text) external __ZN3awd7metrics21LocationServicesStateD2Ev
0000000000074438 (__TEXT,__text) external __ZN3awd7metrics21LocationTileFileUsage10SharedCtorEv
000000000007490e (__TEXT,__text) external __ZN3awd7metrics21LocationTileFileUsage10SharedDtorEv
0000000000074950 (__TEXT,__text) external __ZN3awd7metrics21LocationTileFileUsage16default_instanceEv
000000000009d308 (__DATA_DIRTY,__common) external __ZN3awd7metrics21LocationTileFileUsage17default_instance_E
00000000000762e0 (__TEXT,__text) external __ZN3awd7metrics21LocationTileFileUsage21CheckTypeAndMergeFromERKN20wireless_diagnostics6google8protobuf11MessageLiteE
000000000008abc6 (__TEXT,__text) non-external __ZN3awd7metrics21LocationTileFileUsage21CheckTypeAndMergeFromERKN20wireless_diagnostics6google8protobuf11MessageLiteE.cold.1
00000000000712b2 (__TEXT,__text) external __ZN3awd7metrics21LocationTileFileUsage21InitAsDefaultInstanceEv
000000000008e188 (__TEXT,__const) external __ZN3awd7metrics21LocationTileFileUsage22kApHitCountFieldNumberE
000000000008e168 (__TEXT,__const) external __ZN3awd7metrics21LocationTileFileUsage22kSessionDayFieldNumberE
000000000008e184 (__TEXT,__const) external __ZN3awd7metrics21LocationTileFileUsage23kAccessCountFieldNumberE
000000000008e18c (__TEXT,__const) external __ZN3awd7metrics21LocationTileFileUsage24kScanHitCountFieldNumberE
000000000008e16c (__TEXT,__const) external __ZN3awd7metrics21LocationTileFileUsage25kApSearchCountFieldNumberE
000000000008e1b0 (__TEXT,__const) external __ZN3awd7metrics21LocationTileFileUsage25kDownloadCountFieldNumberE
0000000000074a24 (__TEXT,__text) external __ZN3awd7metrics21LocationTileFileUsage27MergePartialFromCodedStreamEPN20wireless_diagnostics6google8protobuf2io16CodedInputStreamE
000000000008e170 (__TEXT,__const) external __ZN3awd7metrics21LocationTileFileUsage27kScanSearchCountFieldNumberE
000000000008e198 (__TEXT,__const) external __ZN3awd7metrics21LocationTileFileUsage28kOnTileAPHitCountFieldNumberE
000000000008e1cc (__TEXT,__const) external __ZN3awd7metrics21LocationTileFileUsage28kOtherDeleteCountFieldNumberE
000000000008e1c0 (__TEXT,__const) external __ZN3awd7metrics21LocationTileFileUsage29kUnusedDeleteCountFieldNumberE
000000000008e1bc (__TEXT,__const) external __ZN3awd7metrics21LocationTileFileUsage30kExpiredDeleteCountFieldNumberE
000000000008e19c (__TEXT,__const) external __ZN3awd7metrics21LocationTileFileUsage30kOnTileScanHitCountFieldNumberE
000000000008e1c8 (__TEXT,__const) external __ZN3awd7metrics21LocationTileFileUsage30kRefreshDeleteCountFieldNumberE
000000000008e17c (__TEXT,__const) external __ZN3awd7metrics21LocationTileFileUsage31kOnTileAPSearchCountFieldNumberE
000000000008e180 (__TEXT,__const) external __ZN3awd7metrics21LocationTileFileUsage33kOnTileScanSearchCountFieldNumberE
000000000008e1b4 (__TEXT,__const) external __ZN3awd7metrics21LocationTileFileUsage34kDownloadLocationHintXsFieldNumberE
000000000008e1b8 (__TEXT,__const) external __ZN3awd7metrics21LocationTileFileUsage34kDownloadLocationHintYsFieldNumberE
000000000008e1c4 (__TEXT,__const) external __ZN3awd7metrics21LocationTileFileUsage38kExceededMaxSizeDeleteCountFieldNumberE
000000000008e1a8 (__TEXT,__const) external __ZN3awd7metrics21LocationTileFileUsage38kMissingOnTileAPSearchCountFieldNumberE
000000000008e190 (__TEXT,__const) external __ZN3awd7metrics21LocationTileFileUsage39kImmediateNeighborAPHitCountFieldNumberE
000000000008e1ac (__TEXT,__const) external __ZN3awd7metrics21LocationTileFileUsage40kMissingOnTileScanSearchCountFieldNumberE
000000000008e194 (__TEXT,__const) external __ZN3awd7metrics21LocationTileFileUsage41kImmediateNeighborScanHitCountFieldNumberE
000000000008e174 (__TEXT,__const) external __ZN3awd7metrics21LocationTileFileUsage42kImmediateNeighborAPSearchCountFieldNumberE
000000000008e178 (__TEXT,__const) external __ZN3awd7metrics21LocationTileFileUsage44kImmediateNeighborScanSearchCountFieldNumberE
000000000008e1a0 (__TEXT,__const) external __ZN3awd7metrics21LocationTileFileUsage49kMissingImmediateNeighborAPSearchCountFieldNumberE
000000000007634e (__TEXT,__text) external __ZN3awd7metrics21LocationTileFileUsage4SwapEPS1_
000000000008e1a4 (__TEXT,__const) external __ZN3awd7metrics21LocationTileFileUsage51kMissingImmediateNeighborScanSearchCountFieldNumberE
00000000000749c2 (__TEXT,__text) external __ZN3awd7metrics21LocationTileFileUsage5ClearEv
000000000007631e (__TEXT,__text) external __ZN3awd7metrics21LocationTileFileUsage8CopyFromERKS1_
00000000000744f2 (__TEXT,__text) external __ZN3awd7metrics21LocationTileFileUsage9MergeFromERKS1_
00000000000748b8 (__TEXT,__text) external __ZN3awd7metrics21LocationTileFileUsageC1ERKS1_
0000000000071180 (__TEXT,__text) external __ZN3awd7metrics21LocationTileFileUsageC1Ev
0000000000074466 (__TEXT,__text) external __ZN3awd7metrics21LocationTileFileUsageC2ERKS1_
000000000008aba8 (__TEXT,__text) non-external __ZN3awd7metrics21LocationTileFileUsageC2ERKS1_.cold.1
00000000000743fa (__TEXT,__text) external __ZN3awd7metrics21LocationTileFileUsageC2Ev
000000000007491e (__TEXT,__text) external __ZN3awd7metrics21LocationTileFileUsageD0Ev
0000000000074914 (__TEXT,__text) external __ZN3awd7metrics21LocationTileFileUsageD1Ev
00000000000748c2 (__TEXT,__text) external __ZN3awd7metrics21LocationTileFileUsageD2Ev
00000000000052e4 (__TEXT,__text) external __ZN3awd7metrics21LocationUpdateSession10SharedCtorEv
000000000000593e (__TEXT,__text) external __ZN3awd7metrics21LocationUpdateSession10SharedDtorEv
0000000000005a6e (__TEXT,__text) external __ZN3awd7metrics21LocationUpdateSession16default_instanceEv
000000000008b450 (__TEXT,__const) external __ZN3awd7metrics21LocationUpdateSession16kTtffFieldNumberE
000000000009d010 (__DATA_DIRTY,__common) external __ZN3awd7metrics21LocationUpdateSession17default_instance_E
000000000008b464 (__TEXT,__const) external __ZN3awd7metrics21LocationUpdateSession19kPoweredFieldNumberE
000000000008b454 (__TEXT,__const) external __ZN3awd7metrics21LocationUpdateSession19kTtffGpsFieldNumberE
000000000008b430 (__TEXT,__const) external __ZN3awd7metrics21LocationUpdateSession20kBundleidFieldNumberE
000000000000774e (__TEXT,__text) external __ZN3awd7metrics21LocationUpdateSession21CheckTypeAndMergeFromERKN20wireless_diagnostics6google8protobuf11MessageLiteE
00000000000893f9 (__TEXT,__text) non-external __ZN3awd7metrics21LocationUpdateSession21CheckTypeAndMergeFromERKN20wireless_diagnostics6google8protobuf11MessageLiteE.cold.1
00000000000039a8 (__TEXT,__text) external __ZN3awd7metrics21LocationUpdateSession21InitAsDefaultInstanceEv
000000000008b478 (__TEXT,__const) external __ZN3awd7metrics21LocationUpdateSession21kGpsCoexBtFieldNumberE
000000000008b42c (__TEXT,__const) external __ZN3awd7metrics21LocationUpdateSession21kTimestampFieldNumberE
000000000008b46c (__TEXT,__const) external __ZN3awd7metrics21LocationUpdateSession23kAutoStoppedFieldNumberE
000000000008b474 (__TEXT,__const) external __ZN3awd7metrics21LocationUpdateSession23kGpsCoexWifiFieldNumberE
000000000008b44c (__TEXT,__const) external __ZN3awd7metrics21LocationUpdateSession24kAirplaneModeFieldNumberE
000000000008b460 (__TEXT,__const) external __ZN3awd7metrics21LocationUpdateSession24kReachabilityFieldNumberE
000000000008b434 (__TEXT,__const) external __ZN3awd7metrics21LocationUpdateSession24kTimestampEndFieldNumberE
000000000008b490 (__TEXT,__const) external __ZN3awd7metrics21LocationUpdateSession25kAccessoryNameFieldNumberE
000000000008b45c (__TEXT,__const) external __ZN3awd7metrics21LocationUpdateSession25kAccessoryUsedFieldNumberE
000000000008b458 (__TEXT,__const) external __ZN3awd7metrics21LocationUpdateSession25kAchievedSpeedFieldNumberE
000000000008b488 (__TEXT,__const) external __ZN3awd7metrics21LocationUpdateSession25kBtDeviceTypesFieldNumberE
000000000008b440 (__TEXT,__const) external __ZN3awd7metrics21LocationUpdateSession25kCellAvailableFieldNumberE
000000000008b444 (__TEXT,__const) external __ZN3awd7metrics21LocationUpdateSession25kWifiAvailableFieldNumberE
000000000008b494 (__TEXT,__const) external __ZN3awd7metrics21LocationUpdateSession26kAccessoryModelFieldNumberE
000000000008b484 (__TEXT,__const) external __ZN3awd7metrics21LocationUpdateSession26kBtEyesfreeModeFieldNumberE
000000000008b448 (__TEXT,__const) external __ZN3awd7metrics21LocationUpdateSession26kPasscodeLockedFieldNumberE
0000000000005c3a (__TEXT,__text) external __ZN3awd7metrics21LocationUpdateSession27MergePartialFromCodedStreamEPN20wireless_diagnostics6google8protobuf2io16CodedInputStreamE
000000000008b438 (__TEXT,__const) external __ZN3awd7metrics21LocationUpdateSession27kDesiredAccuracyFieldNumberE
000000000008b480 (__TEXT,__const) external __ZN3awd7metrics21LocationUpdateSession27kMountedDurationFieldNumberE
000000000008b468 (__TEXT,__const) external __ZN3awd7metrics21LocationUpdateSession27kPersonalHotspotFieldNumberE
000000000008b47c (__TEXT,__const) external __ZN3awd7metrics21LocationUpdateSession27kPoweredDurationFieldNumberE
000000000008b43c (__TEXT,__const) external __ZN3awd7metrics21LocationUpdateSession28kAchievedAccuracyFieldNumberE
000000000008b4a0 (__TEXT,__const) external __ZN3awd7metrics21LocationUpdateSession28kHasAccessoryGyroFieldNumberE
000000000008b470 (__TEXT,__const) external __ZN3awd7metrics21LocationUpdateSession29kDeferredLocationsFieldNumberE
000000000008b49c (__TEXT,__const) external __ZN3awd7metrics21LocationUpdateSession29kHasAccessoryAccelFieldNumberE
000000000008b4a4 (__TEXT,__const) external __ZN3awd7metrics21LocationUpdateSession29kHasAccessorySpeedFieldNumberE
000000000008b498 (__TEXT,__const) external __ZN3awd7metrics21LocationUpdateSession32kHasAccessoryLocationFieldNumberE
000000000008b48c (__TEXT,__const) external __ZN3awd7metrics21LocationUpdateSession33kAccessoryManufacturerFieldNumberE
00000000000077bc (__TEXT,__text) external __ZN3awd7metrics21LocationUpdateSession4SwapEPS1_
0000000000005af8 (__TEXT,__text) external __ZN3awd7metrics21LocationUpdateSession5ClearEv
000000000000778c (__TEXT,__text) external __ZN3awd7metrics21LocationUpdateSession8CopyFromERKS1_
00000000000053c8 (__TEXT,__text) external __ZN3awd7metrics21LocationUpdateSession9MergeFromERKS1_
00000000000058f6 (__TEXT,__text) external __ZN3awd7metrics21LocationUpdateSessionC1ERKS1_
00000000000028f8 (__TEXT,__text) external __ZN3awd7metrics21LocationUpdateSessionC1Ev
000000000000532c (__TEXT,__text) external __ZN3awd7metrics21LocationUpdateSessionC2ERKS1_
000000000000528e (__TEXT,__text) external __ZN3awd7metrics21LocationUpdateSessionC2Ev
0000000000005a3c (__TEXT,__text) external __ZN3awd7metrics21LocationUpdateSessionD0Ev
0000000000005a32 (__TEXT,__text) external __ZN3awd7metrics21LocationUpdateSessionD1Ev
0000000000005900 (__TEXT,__text) external __ZN3awd7metrics21LocationUpdateSessionD2Ev
0000000000034cf0 (__TEXT,__text) external __ZN3awd7metrics21MotionElevationAllDay10SharedCtorEv
00000000000355c2 (__TEXT,__text) external __ZN3awd7metrics21MotionElevationAllDay10SharedDtorEv
0000000000035604 (__TEXT,__text) external __ZN3awd7metrics21MotionElevationAllDay16default_instanceEv
000000000009d0c8 (__DATA_DIRTY,__common) external __ZN3awd7metrics21MotionElevationAllDay17default_instance_E
000000000008c13c (__TEXT,__const) external __ZN3awd7metrics21MotionElevationAllDay17kSlopeFieldNumberE
000000000008c104 (__TEXT,__const) external __ZN3awd7metrics21MotionElevationAllDay18HasWetWorkouts_MAXE
000000000008c100 (__TEXT,__const) external __ZN3awd7metrics21MotionElevationAllDay18HasWetWorkouts_MINE
0000000000037a74 (__TEXT,__text) external __ZN3awd7metrics21MotionElevationAllDay21CheckTypeAndMergeFromERKN20wireless_diagnostics6google8protobuf11MessageLiteE
0000000000089d06 (__TEXT,__text) non-external __ZN3awd7metrics21MotionElevationAllDay21CheckTypeAndMergeFromERKN20wireless_diagnostics6google8protobuf11MessageLiteE.cold.1
0000000000003b1c (__TEXT,__text) external __ZN3awd7metrics21MotionElevationAllDay21InitAsDefaultInstanceEv
000000000008c10c (__TEXT,__const) external __ZN3awd7metrics21MotionElevationAllDay21kTimestampFieldNumberE
000000000008c140 (__TEXT,__const) external __ZN3awd7metrics21MotionElevationAllDay23kMaxAbsSlopeFieldNumberE
000000000008c108 (__TEXT,__const) external __ZN3awd7metrics21MotionElevationAllDay24HasWetWorkouts_ARRAYSIZEE
000000000008c120 (__TEXT,__const) external __ZN3awd7metrics21MotionElevationAllDay25kHistWetPeriodFieldNumberE
000000000008c148 (__TEXT,__const) external __ZN3awd7metrics21MotionElevationAllDay26kDeltaTimeDailyFieldNumberE
000000000008c110 (__TEXT,__const) external __ZN3awd7metrics21MotionElevationAllDay26kHasWetWorkoutsFieldNumberE
0000000000035746 (__TEXT,__text) external __ZN3awd7metrics21MotionElevationAllDay27MergePartialFromCodedStreamEPN20wireless_diagnostics6google8protobuf2io16CodedInputStreamE
000000000008c14c (__TEXT,__const) external __ZN3awd7metrics21MotionElevationAllDay27kDeltaTimeWeeklyFieldNumberE
000000000008c114 (__TEXT,__const) external __ZN3awd7metrics21MotionElevationAllDay27kNumAscendEventsFieldNumberE
000000000008c134 (__TEXT,__const) external __ZN3awd7metrics21MotionElevationAllDay27kParkingSessionsFieldNumberE
000000000008c118 (__TEXT,__const) external __ZN3awd7metrics21MotionElevationAllDay28kNumDescendEventsFieldNumberE
000000000008c11c (__TEXT,__const) external __ZN3awd7metrics21MotionElevationAllDay28kNumFailureByTypeFieldNumberE
000000000008c130 (__TEXT,__const) external __ZN3awd7metrics21MotionElevationAllDay29kConfirmedSessionsFieldNumberE
000000000008c12c (__TEXT,__const) external __ZN3awd7metrics21MotionElevationAllDay29kEscalatedSessionsFieldNumberE
000000000008c138 (__TEXT,__const) external __ZN3awd7metrics21MotionElevationAllDay29kSignalEnvironmentFieldNumberE
000000000008c0f4 (__TEXT,__const) external __ZN3awd7metrics21MotionElevationAllDay2NAE
000000000008c124 (__TEXT,__const) external __ZN3awd7metrics21MotionElevationAllDay33kHistPressureAmplitudeFieldNumberE
000000000008c128 (__TEXT,__const) external __ZN3awd7metrics21MotionElevationAllDay34kNumOccludedDaysInAWeekFieldNumberE
000000000008c150 (__TEXT,__const) external __ZN3awd7metrics21MotionElevationAllDay35kPressureChangeRateDailyFieldNumberE
000000000008c154 (__TEXT,__const) external __ZN3awd7metrics21MotionElevationAllDay36kPressureChangeRateWeeklyFieldNumberE
000000000008c144 (__TEXT,__const) external __ZN3awd7metrics21MotionElevationAllDay37kGroundAltitudeUncertaintyFieldNumberE
0000000000037ae2 (__TEXT,__text) external __ZN3awd7metrics21MotionElevationAllDay4SwapEPS1_
000000000008c0fc (__TEXT,__const) external __ZN3awd7metrics21MotionElevationAllDay4TrueE
00000000000356c4 (__TEXT,__text) external __ZN3awd7metrics21MotionElevationAllDay5ClearEv
000000000008c0f8 (__TEXT,__const) external __ZN3awd7metrics21MotionElevationAllDay5FalseE
0000000000037ab2 (__TEXT,__text) external __ZN3awd7metrics21MotionElevationAllDay8CopyFromERKS1_
0000000000034f42 (__TEXT,__text) external __ZN3awd7metrics21MotionElevationAllDay9MergeFromERKS1_
0000000000089ce3 (__TEXT,__text) non-external __ZN3awd7metrics21MotionElevationAllDay9MergeFromERKS1_.cold.1
0000000000035476 (__TEXT,__text) external __ZN3awd7metrics21MotionElevationAllDayC1ERKS1_
0000000000002f52 (__TEXT,__text) external __ZN3awd7metrics21MotionElevationAllDayC1Ev
0000000000034d16 (__TEXT,__text) external __ZN3awd7metrics21MotionElevationAllDayC2ERKS1_
0000000000034c64 (__TEXT,__text) external __ZN3awd7metrics21MotionElevationAllDayC2Ev
00000000000355d2 (__TEXT,__text) external __ZN3awd7metrics21MotionElevationAllDayD0Ev
00000000000355c8 (__TEXT,__text) external __ZN3awd7metrics21MotionElevationAllDayD1Ev
0000000000035480 (__TEXT,__text) external __ZN3awd7metrics21MotionElevationAllDayD2Ev
00000000000079f6 (__TEXT,__text) external __ZN3awd7metrics22LocationMonitorSession10SharedCtorEv
0000000000007c42 (__TEXT,__text) external __ZN3awd7metrics22LocationMonitorSession10SharedDtorEv
000000000008b4c4 (__TEXT,__const) external __ZN3awd7metrics22LocationMonitorSession15kSlcFieldNumberE
0000000000007cf6 (__TEXT,__text) external __ZN3awd7metrics22LocationMonitorSession16default_instanceEv
000000000009d018 (__DATA_DIRTY,__common) external __ZN3awd7metrics22LocationMonitorSession17default_instance_E
000000000008b4ac (__TEXT,__const) external __ZN3awd7metrics22LocationMonitorSession20kBundleidFieldNumberE
0000000000008632 (__TEXT,__text) external __ZN3awd7metrics22LocationMonitorSession21CheckTypeAndMergeFromERKN20wireless_diagnostics6google8protobuf11MessageLiteE
000000000008941c (__TEXT,__text) non-external __ZN3awd7metrics22LocationMonitorSession21CheckTypeAndMergeFromERKN20wireless_diagnostics6google8protobuf11MessageLiteE.cold.1
00000000000039ae (__TEXT,__text) external __ZN3awd7metrics22LocationMonitorSession21InitAsDefaultInstanceEv
000000000008b4bc (__TEXT,__const) external __ZN3awd7metrics22LocationMonitorSession21kNumFencesFieldNumberE
000000000008b4a8 (__TEXT,__const) external __ZN3awd7metrics22LocationMonitorSession21kTimestampFieldNumberE
000000000008b4b0 (__TEXT,__const) external __ZN3awd7metrics22LocationMonitorSession23kFenceRadiusFieldNumberE
000000000008b4c8 (__TEXT,__const) external __ZN3awd7metrics22LocationMonitorSession25kCellAvailableFieldNumberE
000000000008b4cc (__TEXT,__const) external __ZN3awd7metrics22LocationMonitorSession25kWifiAvailableFieldNumberE
000000000008b4b8 (__TEXT,__const) external __ZN3awd7metrics22LocationMonitorSession26kFenceRadiusMaxFieldNumberE
000000000008b4b4 (__TEXT,__const) external __ZN3awd7metrics22LocationMonitorSession26kFenceRadiusMinFieldNumberE
000000000008b4d0 (__TEXT,__const) external __ZN3awd7metrics22LocationMonitorSession26kPasscodeLockedFieldNumberE
0000000000007dc4 (__TEXT,__text) external __ZN3awd7metrics22LocationMonitorSession27MergePartialFromCodedStreamEPN20wireless_diagnostics6google8protobuf2io16CodedInputStreamE
000000000008b4c0 (__TEXT,__const) external __ZN3awd7metrics22LocationMonitorSession28kNumFencesRemovedFieldNumberE
00000000000086a0 (__TEXT,__text) external __ZN3awd7metrics22LocationMonitorSession4SwapEPS1_
0000000000007d58 (__TEXT,__text) external __ZN3awd7metrics22LocationMonitorSession5ClearEv
0000000000008670 (__TEXT,__text) external __ZN3awd7metrics22LocationMonitorSession8CopyFromERKS1_
0000000000007a6a (__TEXT,__text) external __ZN3awd7metrics22LocationMonitorSession9MergeFromERKS1_
0000000000007c12 (__TEXT,__text) external __ZN3awd7metrics22LocationMonitorSessionC1ERKS1_
000000000000294e (__TEXT,__text) external __ZN3awd7metrics22LocationMonitorSessionC1Ev
0000000000007a1a (__TEXT,__text) external __ZN3awd7metrics22LocationMonitorSessionC2ERKS1_
00000000000079c8 (__TEXT,__text) external __ZN3awd7metrics22LocationMonitorSessionC2Ev
0000000000007cb4 (__TEXT,__text) external __ZN3awd7metrics22LocationMonitorSessionD0Ev
0000000000007c8e (__TEXT,__text) external __ZN3awd7metrics22LocationMonitorSessionD1Ev
0000000000007c1c (__TEXT,__text) external __ZN3awd7metrics22LocationMonitorSessionD2Ev
00000000000087b0 (__TEXT,__text) external __ZN3awd7metrics22LocationMonitorTrigger10SharedCtorEv
0000000000008a46 (__TEXT,__text) external __ZN3awd7metrics22LocationMonitorTrigger10SharedDtorEv
0000000000008afa (__TEXT,__text) external __ZN3awd7metrics22LocationMonitorTrigger16default_instanceEv
000000000009d020 (__DATA_DIRTY,__common) external __ZN3awd7metrics22LocationMonitorTrigger17default_instance_E
000000000008b4d8 (__TEXT,__const) external __ZN3awd7metrics22LocationMonitorTrigger20kBundleidFieldNumberE
00000000000095da (__TEXT,__text) external __ZN3awd7metrics22LocationMonitorTrigger21CheckTypeAndMergeFromERKN20wireless_diagnostics6google8protobuf11MessageLiteE
000000000008943f (__TEXT,__text) non-external __ZN3awd7metrics22LocationMonitorTrigger21CheckTypeAndMergeFromERKN20wireless_diagnostics6google8protobuf11MessageLiteE.cold.1
00000000000039b4 (__TEXT,__text) external __ZN3awd7metrics22LocationMonitorTrigger21InitAsDefaultInstanceEv
000000000008b504 (__TEXT,__const) external __ZN3awd7metrics22LocationMonitorTrigger21kEventMaskFieldNumberE
000000000008b4f4 (__TEXT,__const) external __ZN3awd7metrics22LocationMonitorTrigger21kEventTypeFieldNumberE
000000000008b4e4 (__TEXT,__const) external __ZN3awd7metrics22LocationMonitorTrigger21kSlcEventsFieldNumberE
000000000008b4d4 (__TEXT,__const) external __ZN3awd7metrics22LocationMonitorTrigger21kTimestampFieldNumberE
000000000008b4e0 (__TEXT,__const) external __ZN3awd7metrics22LocationMonitorTrigger22kFenceExitsFieldNumberE
000000000008b4f8 (__TEXT,__const) external __ZN3awd7metrics22LocationMonitorTrigger23kEventRadiusFieldNumberE
000000000008b500 (__TEXT,__const) external __ZN3awd7metrics22LocationMonitorTrigger24kEventLatencyFieldNumberE
000000000008b4dc (__TEXT,__const) external __ZN3awd7metrics22LocationMonitorTrigger24kFenceEntriesFieldNumberE
000000000008b4e8 (__TEXT,__const) external __ZN3awd7metrics22LocationMonitorTrigger25kCellAvailableFieldNumberE
000000000008b4fc (__TEXT,__const) external __ZN3awd7metrics22LocationMonitorTrigger25kEventDistanceFieldNumberE
000000000008b4ec (__TEXT,__const) external __ZN3awd7metrics22LocationMonitorTrigger25kWifiAvailableFieldNumberE
000000000008b4f0 (__TEXT,__const) external __ZN3awd7metrics22LocationMonitorTrigger26kPasscodeLockedFieldNumberE
0000000000008bd4 (__TEXT,__text) external __ZN3awd7metrics22LocationMonitorTrigger27MergePartialFromCodedStreamEPN20wireless_diagnostics6google8protobuf2io16CodedInputStreamE
0000000000009648 (__TEXT,__text) external __ZN3awd7metrics22LocationMonitorTrigger4SwapEPS1_
0000000000008b6a (__TEXT,__text) external __ZN3awd7metrics22LocationMonitorTrigger5ClearEv
0000000000009618 (__TEXT,__text) external __ZN3awd7metrics22LocationMonitorTrigger8CopyFromERKS1_
000000000000883e (__TEXT,__text) external __ZN3awd7metrics22LocationMonitorTrigger9MergeFromERKS1_
0000000000008a16 (__TEXT,__text) external __ZN3awd7metrics22LocationMonitorTriggerC1ERKS1_
000000000000297c (__TEXT,__text) external __ZN3awd7metrics22LocationMonitorTriggerC1Ev
00000000000087e2 (__TEXT,__text) external __ZN3awd7metrics22LocationMonitorTriggerC2ERKS1_
0000000000008774 (__TEXT,__text) external __ZN3awd7metrics22LocationMonitorTriggerC2Ev
0000000000008ab8 (__TEXT,__text) external __ZN3awd7metrics22LocationMonitorTriggerD0Ev
0000000000008a92 (__TEXT,__text) external __ZN3awd7metrics22LocationMonitorTriggerD1Ev
0000000000008a20 (__TEXT,__text) external __ZN3awd7metrics22LocationMonitorTriggerD2Ev
0000000000009768 (__TEXT,__text) external __ZN3awd7metrics22LocationNetworkQueries10SharedCtorEv
0000000000009a0c (__TEXT,__text) external __ZN3awd7metrics22LocationNetworkQueries10SharedDtorEv
0000000000009ac0 (__TEXT,__text) external __ZN3awd7metrics22LocationNetworkQueries16default_instanceEv
000000000009d028 (__DATA_DIRTY,__common) external __ZN3awd7metrics22LocationNetworkQueries17default_instance_E
000000000008b50c (__TEXT,__const) external __ZN3awd7metrics22LocationNetworkQueries20kBundleidFieldNumberE
000000000000a6a4 (__TEXT,__text) external __ZN3awd7metrics22LocationNetworkQueries21CheckTypeAndMergeFromERKN20wireless_diagnostics6google8protobuf11MessageLiteE
0000000000089462 (__TEXT,__text) non-external __ZN3awd7metrics22LocationNetworkQueries21CheckTypeAndMergeFromERKN20wireless_diagnostics6google8protobuf11MessageLiteE.cold.1
00000000000039ba (__TEXT,__text) external __ZN3awd7metrics22LocationNetworkQueries21InitAsDefaultInstanceEv
000000000008b508 (__TEXT,__const) external __ZN3awd7metrics22LocationNetworkQueries21kTimestampFieldNumberE
000000000008b510 (__TEXT,__const) external __ZN3awd7metrics22LocationNetworkQueries24kCellsQueriedFieldNumberE
000000000008b514 (__TEXT,__const) external __ZN3awd7metrics22LocationNetworkQueries24kWifisQueriedFieldNumberE
000000000008b51c (__TEXT,__const) external __ZN3awd7metrics22LocationNetworkQueries25kTotalRequestsFieldNumberE
0000000000009b98 (__TEXT,__text) external __ZN3awd7metrics22LocationNetworkQueries27MergePartialFromCodedStreamEPN20wireless_diagnostics6google8protobuf2io16CodedInputStreamE
000000000008b538 (__TEXT,__const) external __ZN3awd7metrics22LocationNetworkQueries27kCellTilesCachedFieldNumberE
000000000008b52c (__TEXT,__const) external __ZN3awd7metrics22LocationNetworkQueries27kWifiTilesCachedFieldNumberE
000000000008b518 (__TEXT,__const) external __ZN3awd7metrics22LocationNetworkQueries28kLocationsQueriedFieldNumberE
000000000008b53c (__TEXT,__const) external __ZN3awd7metrics22LocationNetworkQueries30kDemTilesDownloadedFieldNumberE
000000000008b530 (__TEXT,__const) external __ZN3awd7metrics22LocationNetworkQueries31kCellTilesDownloadedFieldNumberE
000000000008b524 (__TEXT,__const) external __ZN3awd7metrics22LocationNetworkQueries31kWifiTilesDownloadedFieldNumberE
000000000008b534 (__TEXT,__const) external __ZN3awd7metrics22LocationNetworkQueries33kCellTilesDownloaded3GFieldNumberE
000000000008b528 (__TEXT,__const) external __ZN3awd7metrics22LocationNetworkQueries33kWifiTilesDownloaded3GFieldNumberE
000000000008b520 (__TEXT,__const) external __ZN3awd7metrics22LocationNetworkQueries35kTotalRequestsSuccessfulFieldNumberE
000000000000a712 (__TEXT,__text) external __ZN3awd7metrics22LocationNetworkQueries4SwapEPS1_
0000000000009b28 (__TEXT,__text) external __ZN3awd7metrics22LocationNetworkQueries5ClearEv
000000000000a6e2 (__TEXT,__text) external __ZN3awd7metrics22LocationNetworkQueries8CopyFromERKS1_
00000000000097e8 (__TEXT,__text) external __ZN3awd7metrics22LocationNetworkQueries9MergeFromERKS1_
00000000000099dc (__TEXT,__text) external __ZN3awd7metrics22LocationNetworkQueriesC1ERKS1_
00000000000029b8 (__TEXT,__text) external __ZN3awd7metrics22LocationNetworkQueriesC1Ev
0000000000009792 (__TEXT,__text) external __ZN3awd7metrics22LocationNetworkQueriesC2ERKS1_
0000000000009734 (__TEXT,__text) external __ZN3awd7metrics22LocationNetworkQueriesC2Ev
0000000000009a7e (__TEXT,__text) external __ZN3awd7metrics22LocationNetworkQueriesD0Ev
0000000000009a58 (__TEXT,__text) external __ZN3awd7metrics22LocationNetworkQueriesD1Ev
00000000000099e6 (__TEXT,__text) external __ZN3awd7metrics22LocationNetworkQueriesD2Ev
000000000003b024 (__TEXT,__text) external __ZN3awd7metrics22MotionFitnessPedometer10SharedCtorEv
000000000003b2f0 (__TEXT,__text) external __ZN3awd7metrics22MotionFitnessPedometer10SharedDtorEv
000000000003b344 (__TEXT,__text) external __ZN3awd7metrics22MotionFitnessPedometer16default_instanceEv
000000000009d0e8 (__DATA_DIRTY,__common) external __ZN3awd7metrics22MotionFitnessPedometer17default_instance_E
000000000003c284 (__TEXT,__text) external __ZN3awd7metrics22MotionFitnessPedometer21CheckTypeAndMergeFromERKN20wireless_diagnostics6google8protobuf11MessageLiteE
0000000000089db5 (__TEXT,__text) non-external __ZN3awd7metrics22MotionFitnessPedometer21CheckTypeAndMergeFromERKN20wireless_diagnostics6google8protobuf11MessageLiteE.cold.1
0000000000003b34 (__TEXT,__text) external __ZN3awd7metrics22MotionFitnessPedometer21InitAsDefaultInstanceEv
000000000008c1e8 (__TEXT,__const) external __ZN3awd7metrics22MotionFitnessPedometer21kTimestampFieldNumberE
000000000008c228 (__TEXT,__const) external __ZN3awd7metrics22MotionFitnessPedometer24kPctStepsFlatFieldNumberE
000000000003b3f6 (__TEXT,__text) external __ZN3awd7metrics22MotionFitnessPedometer27MergePartialFromCodedStreamEPN20wireless_diagnostics6google8protobuf2io16CodedInputStreamE
000000000008c1ec (__TEXT,__const) external __ZN3awd7metrics22MotionFitnessPedometer29kPctStepsIndoorRunFieldNumberE
000000000008c1f0 (__TEXT,__const) external __ZN3awd7metrics22MotionFitnessPedometer30kPctStepsIndoorWalkFieldNumberE
000000000008c1f4 (__TEXT,__const) external __ZN3awd7metrics22MotionFitnessPedometer30kPctStepsOutdoorRunFieldNumberE
000000000008c1f8 (__TEXT,__const) external __ZN3awd7metrics22MotionFitnessPedometer31kPctStepsOutdoorWalkFieldNumberE
000000000008c220 (__TEXT,__const) external __ZN3awd7metrics22MotionFitnessPedometer31kPctStepsSteepInlineFieldNumberE
000000000008c1fc (__TEXT,__const) external __ZN3awd7metrics22MotionFitnessPedometer32kPctStepsOtherSessionFieldNumberE
000000000008c230 (__TEXT,__const) external __ZN3awd7metrics22MotionFitnessPedometer32kPctStepsSteepDeclineFieldNumberE
000000000008c22c (__TEXT,__const) external __ZN3awd7metrics22MotionFitnessPedometer34kPctStepsGradualDeclineFieldNumberE
000000000008c224 (__TEXT,__const) external __ZN3awd7metrics22MotionFitnessPedometer34kPctStepsGradualInclineFieldNumberE
000000000008c200 (__TEXT,__const) external __ZN3awd7metrics22MotionFitnessPedometer35kPctStepsOutOfSessionRunFieldNumberE
000000000008c20c (__TEXT,__const) external __ZN3awd7metrics22MotionFitnessPedometer40kPctStepsOutOfSessionWalkLongFieldNumberE
000000000008c204 (__TEXT,__const) external __ZN3awd7metrics22MotionFitnessPedometer41kPctStepsOutOfSessionWalkShortFieldNumberE
000000000008c208 (__TEXT,__const) external __ZN3awd7metrics22MotionFitnessPedometer42kPctStepsOutOfSessionWalkMediumFieldNumberE
000000000008c214 (__TEXT,__const) external __ZN3awd7metrics22MotionFitnessPedometer48kPctStepErrorBetweenGizmoCompanionRunFieldNumberE
000000000008c210 (__TEXT,__const) external __ZN3awd7metrics22MotionFitnessPedometer49kPctStepErrorBetweenGizmoCompanionWalkFieldNumberE
000000000003c2f2 (__TEXT,__text) external __ZN3awd7metrics22MotionFitnessPedometer4SwapEPS1_
000000000008c21c (__TEXT,__const) external __ZN3awd7metrics22MotionFitnessPedometer52kPctDistanceErrorBetweenGizmoCompanionRunFieldNumberE
000000000008c218 (__TEXT,__const) external __ZN3awd7metrics22MotionFitnessPedometer53kPctDistanceErrorBetweenGizmoCompanionWalkFieldNumberE
000000000003b3a8 (__TEXT,__text) external __ZN3awd7metrics22MotionFitnessPedometer5ClearEv
000000000003c2c2 (__TEXT,__text) external __ZN3awd7metrics22MotionFitnessPedometer8CopyFromERKS1_
000000000003b09a (__TEXT,__text) external __ZN3awd7metrics22MotionFitnessPedometer9MergeFromERKS1_
000000000003b2d2 (__TEXT,__text) external __ZN3awd7metrics22MotionFitnessPedometerC1ERKS1_
0000000000003086 (__TEXT,__text) external __ZN3awd7metrics22MotionFitnessPedometerC1Ev
000000000003b04a (__TEXT,__text) external __ZN3awd7metrics22MotionFitnessPedometerC2ERKS1_
000000000003aff4 (__TEXT,__text) external __ZN3awd7metrics22MotionFitnessPedometerC2Ev
000000000003b30a (__TEXT,__text) external __ZN3awd7metrics22MotionFitnessPedometerD0Ev
000000000003b2f6 (__TEXT,__text) external __ZN3awd7metrics22MotionFitnessPedometerD1Ev
000000000003b2dc (__TEXT,__text) external __ZN3awd7metrics22MotionFitnessPedometerD2Ev
0000000000015a62 (__TEXT,__text) external __ZN3awd7metrics23CompassSession_Rotation10SharedCtorEv
0000000000015b98 (__TEXT,__text) external __ZN3awd7metrics23CompassSession_Rotation10SharedDtorEv
000000000008bac0 (__TEXT,__const) external __ZN3awd7metrics23CompassSession_Rotation13kXFieldNumberE
000000000008bac4 (__TEXT,__const) external __ZN3awd7metrics23CompassSession_Rotation13kYFieldNumberE
000000000008bac8 (__TEXT,__const) external __ZN3awd7metrics23CompassSession_Rotation13kZFieldNumberE
0000000000015bec (__TEXT,__text) external __ZN3awd7metrics23CompassSession_Rotation16default_instanceEv
000000000009d068 (__DATA_DIRTY,__common) external __ZN3awd7metrics23CompassSession_Rotation17default_instance_E
0000000000015e80 (__TEXT,__text) external __ZN3awd7metrics23CompassSession_Rotation21CheckTypeAndMergeFromERKN20wireless_diagnostics6google8protobuf11MessageLiteE
000000000008994e (__TEXT,__text) non-external __ZN3awd7metrics23CompassSession_Rotation21CheckTypeAndMergeFromERKN20wireless_diagnostics6google8protobuf11MessageLiteE.cold.1
0000000000003a92 (__TEXT,__text) external __ZN3awd7metrics23CompassSession_Rotation21InitAsDefaultInstanceEv
0000000000015c60 (__TEXT,__text) external __ZN3awd7metrics23CompassSession_Rotation27MergePartialFromCodedStreamEPN20wireless_diagnostics6google8protobuf2io16CodedInputStreamE
0000000000015eee (__TEXT,__text) external __ZN3awd7metrics23CompassSession_Rotation4SwapEPS1_
0000000000015c3e (__TEXT,__text) external __ZN3awd7metrics23CompassSession_Rotation5ClearEv
0000000000015ebe (__TEXT,__text) external __ZN3awd7metrics23CompassSession_Rotation8CopyFromERKS1_
0000000000015ab6 (__TEXT,__text) external __ZN3awd7metrics23CompassSession_Rotation9MergeFromERKS1_
0000000000015b7a (__TEXT,__text) external __ZN3awd7metrics23CompassSession_RotationC1ERKS1_
0000000000002c34 (__TEXT,__text) external __ZN3awd7metrics23CompassSession_RotationC1Ev
0000000000015a76 (__TEXT,__text) external __ZN3awd7metrics23CompassSession_RotationC2ERKS1_
0000000000015a44 (__TEXT,__text) external __ZN3awd7metrics23CompassSession_RotationC2Ev
0000000000015bb2 (__TEXT,__text) external __ZN3awd7metrics23CompassSession_RotationD0Ev
0000000000015b9e (__TEXT,__text) external __ZN3awd7metrics23CompassSession_RotationD1Ev
0000000000015b84 (__TEXT,__text) external __ZN3awd7metrics23CompassSession_RotationD2Ev
00000000000720b0 (__TEXT,__text) external __ZN3awd7metrics23LocationALSNetworkUsage10SharedCtorEv
00000000000722e4 (__TEXT,__text) external __ZN3awd7metrics23LocationALSNetworkUsage10SharedDtorEv
0000000000072338 (__TEXT,__text) external __ZN3awd7metrics23LocationALSNetworkUsage16default_instanceEv
000000000009d2f8 (__DATA_DIRTY,__common) external __ZN3awd7metrics23LocationALSNetworkUsage17default_instance_E
0000000000072e70 (__TEXT,__text) external __ZN3awd7metrics23LocationALSNetworkUsage21CheckTypeAndMergeFromERKN20wireless_diagnostics6google8protobuf11MessageLiteE
000000000008ab62 (__TEXT,__text) non-external __ZN3awd7metrics23LocationALSNetworkUsage21CheckTypeAndMergeFromERKN20wireless_diagnostics6google8protobuf11MessageLiteE.cold.1
0000000000071248 (__TEXT,__text) external __ZN3awd7metrics23LocationALSNetworkUsage21InitAsDefaultInstanceEv
000000000008e100 (__TEXT,__const) external __ZN3awd7metrics23LocationALSNetworkUsage22kApHitCountFieldNumberE
000000000008e104 (__TEXT,__const) external __ZN3awd7metrics23LocationALSNetworkUsage24kScanHitCountFieldNumberE
000000000008e0f8 (__TEXT,__const) external __ZN3awd7metrics23LocationALSNetworkUsage25kApSearchCountFieldNumberE
00000000000723c6 (__TEXT,__text) external __ZN3awd7metrics23LocationALSNetworkUsage27MergePartialFromCodedStreamEPN20wireless_diagnostics6google8protobuf2io16CodedInputStreamE
000000000008e0fc (__TEXT,__const) external __ZN3awd7metrics23LocationALSNetworkUsage27kScanSearchCountFieldNumberE
000000000008e114 (__TEXT,__const) external __ZN3awd7metrics23LocationALSNetworkUsage29kRequestOtherCountFieldNumberE
000000000008e128 (__TEXT,__const) external __ZN3awd7metrics23LocationALSNetworkUsage33kNoRequestOtherAPCountFieldNumberE
000000000008e12c (__TEXT,__const) external __ZN3awd7metrics23LocationALSNetworkUsage35kNoRequestOtherScanCountFieldNumberE
000000000008e118 (__TEXT,__const) external __ZN3awd7metrics23LocationALSNetworkUsage36kNoRequestKnownAPsAPCountFieldNumberE
000000000008e110 (__TEXT,__const) external __ZN3awd7metrics23LocationALSNetworkUsage36kRequestCacheRefreshCountFieldNumberE
000000000008e108 (__TEXT,__const) external __ZN3awd7metrics23LocationALSNetworkUsage36kRequestUnknownAPsAPCountFieldNumberE
000000000008e11c (__TEXT,__const) external __ZN3awd7metrics23LocationALSNetworkUsage38kNoRequestKnownAPsScanCountFieldNumberE
000000000008e10c (__TEXT,__const) external __ZN3awd7metrics23LocationALSNetworkUsage38kRequestUnknownAPsScanCountFieldNumberE
000000000008e120 (__TEXT,__const) external __ZN3awd7metrics23LocationALSNetworkUsage46kNoRequestNetworkUnavailableAPCountFieldNumberE
000000000008e124 (__TEXT,__const) external __ZN3awd7metrics23LocationALSNetworkUsage48kNoRequestNetworkUnavailableScanCountFieldNumberE
0000000000072ede (__TEXT,__text) external __ZN3awd7metrics23LocationALSNetworkUsage4SwapEPS1_
0000000000072390 (__TEXT,__text) external __ZN3awd7metrics23LocationALSNetworkUsage5ClearEv
0000000000072eae (__TEXT,__text) external __ZN3awd7metrics23LocationALSNetworkUsage8CopyFromERKS1_
000000000007210e (__TEXT,__text) external __ZN3awd7metrics23LocationALSNetworkUsage9MergeFromERKS1_
00000000000722c6 (__TEXT,__text) external __ZN3awd7metrics23LocationALSNetworkUsageC1ERKS1_
0000000000071134 (__TEXT,__text) external __ZN3awd7metrics23LocationALSNetworkUsageC1Ev
00000000000720ca (__TEXT,__text) external __ZN3awd7metrics23LocationALSNetworkUsageC2ERKS1_
000000000007208c (__TEXT,__text) external __ZN3awd7metrics23LocationALSNetworkUsageC2Ev
00000000000722fe (__TEXT,__text) external __ZN3awd7metrics23LocationALSNetworkUsageD0Ev
00000000000722ea (__TEXT,__text) external __ZN3awd7metrics23LocationALSNetworkUsageD1Ev
00000000000722d0 (__TEXT,__text) external __ZN3awd7metrics23LocationALSNetworkUsageD2Ev
0000000000014848 (__TEXT,__text) external __ZN3awd7metrics23LocationRealTimeHarvest10SharedCtorEv
00000000000149a0 (__TEXT,__text) external __ZN3awd7metrics23LocationRealTimeHarvest10SharedDtorEv
00000000000149f4 (__TEXT,__text) external __ZN3awd7metrics23LocationRealTimeHarvest16default_instanceEv
000000000009d050 (__DATA_DIRTY,__common) external __ZN3awd7metrics23LocationRealTimeHarvest17default_instance_E
0000000000014e62 (__TEXT,__text) external __ZN3awd7metrics23LocationRealTimeHarvest21CheckTypeAndMergeFromERKN20wireless_diagnostics6google8protobuf11MessageLiteE
0000000000089908 (__TEXT,__text) non-external __ZN3awd7metrics23LocationRealTimeHarvest21CheckTypeAndMergeFromERKN20wireless_diagnostics6google8protobuf11MessageLiteE.cold.1
00000000000039d8 (__TEXT,__text) external __ZN3awd7metrics23LocationRealTimeHarvest21InitAsDefaultInstanceEv
000000000008ba44 (__TEXT,__const) external __ZN3awd7metrics23LocationRealTimeHarvest21kTimestampFieldNumberE
0000000000014a6e (__TEXT,__text) external __ZN3awd7metrics23LocationRealTimeHarvest27MergePartialFromCodedStreamEPN20wireless_diagnostics6google8protobuf2io16CodedInputStreamE
000000000008ba48 (__TEXT,__const) external __ZN3awd7metrics23LocationRealTimeHarvest27kRemainingBudgetFieldNumberE
000000000008ba4c (__TEXT,__const) external __ZN3awd7metrics23LocationRealTimeHarvest29kRemainingIntervalFieldNumberE
000000000008ba50 (__TEXT,__const) external __ZN3awd7metrics23LocationRealTimeHarvest30kPointsLostByBudgetFieldNumberE
000000000008ba54 (__TEXT,__const) external __ZN3awd7metrics23LocationRealTimeHarvest36kPointsLostByBatchRestartFieldNumberE
0000000000014ed0 (__TEXT,__text) external __ZN3awd7metrics23LocationRealTimeHarvest4SwapEPS1_
0000000000014a48 (__TEXT,__text) external __ZN3awd7metrics23LocationRealTimeHarvest5ClearEv
0000000000014ea0 (__TEXT,__text) external __ZN3awd7metrics23LocationRealTimeHarvest8CopyFromERKS1_
000000000001489e (__TEXT,__text) external __ZN3awd7metrics23LocationRealTimeHarvest9MergeFromERKS1_
0000000000014982 (__TEXT,__text) external __ZN3awd7metrics23LocationRealTimeHarvestC1ERKS1_
0000000000002b78 (__TEXT,__text) external __ZN3awd7metrics23LocationRealTimeHarvestC1Ev
000000000001485e (__TEXT,__text) external __ZN3awd7metrics23LocationRealTimeHarvestC2ERKS1_
0000000000014828 (__TEXT,__text) external __ZN3awd7metrics23LocationRealTimeHarvestC2Ev
00000000000149ba (__TEXT,__text) external __ZN3awd7metrics23LocationRealTimeHarvestD0Ev
00000000000149a6 (__TEXT,__text) external __ZN3awd7metrics23LocationRealTimeHarvestD1Ev
000000000001498c (__TEXT,__text) external __ZN3awd7metrics23LocationRealTimeHarvestD2Ev
000000000000b2e8 (__TEXT,__text) external __ZN3awd7metrics24LocationEmergencySession10SharedCtorEv
000000000000b4ba (__TEXT,__text) external __ZN3awd7metrics24LocationEmergencySession10SharedDtorEv
000000000008b564 (__TEXT,__const) external __ZN3awd7metrics24LocationEmergencySession15kMccFieldNumberE
000000000008b568 (__TEXT,__const) external __ZN3awd7metrics24LocationEmergencySession15kMncFieldNumberE
000000000000b56e (__TEXT,__text) external __ZN3awd7metrics24LocationEmergencySession16default_instanceEv
000000000008b570 (__TEXT,__const) external __ZN3awd7metrics24LocationEmergencySession16kTtffFieldNumberE
000000000009d038 (__DATA_DIRTY,__common) external __ZN3awd7metrics24LocationEmergencySession17default_instance_E
000000000008b560 (__TEXT,__const) external __ZN3awd7metrics24LocationEmergencySession20kBundleidFieldNumberE
000000000000bb5c (__TEXT,__text) external __ZN3awd7metrics24LocationEmergencySession21CheckTypeAndMergeFromERKN20wireless_diagnostics6google8protobuf11MessageLiteE
00000000000894a8 (__TEXT,__text) non-external __ZN3awd7metrics24LocationEmergencySession21CheckTypeAndMergeFromERKN20wireless_diagnostics6google8protobuf11MessageLiteE.cold.1
00000000000039c6 (__TEXT,__text) external __ZN3awd7metrics24LocationEmergencySession21InitAsDefaultInstanceEv
000000000008b55c (__TEXT,__const) external __ZN3awd7metrics24LocationEmergencySession21kTimestampFieldNumberE
000000000000b61e (__TEXT,__text) external __ZN3awd7metrics24LocationEmergencySession27MergePartialFromCodedStreamEPN20wireless_diagnostics6google8protobuf2io16CodedInputStreamE
000000000008b56c (__TEXT,__const) external __ZN3awd7metrics24LocationEmergencySession28kAchievedAccuracyFieldNumberE
000000000000bbca (__TEXT,__text) external __ZN3awd7metrics24LocationEmergencySession4SwapEPS1_
000000000000b5ce (__TEXT,__text) external __ZN3awd7metrics24LocationEmergencySession5ClearEv
000000000000bb9a (__TEXT,__text) external __ZN3awd7metrics24LocationEmergencySession8CopyFromERKS1_
000000000000b358 (__TEXT,__text) external __ZN3awd7metrics24LocationEmergencySession9MergeFromERKS1_
000000000000b48a (__TEXT,__text) external __ZN3awd7metrics24LocationEmergencySessionC1ERKS1_
0000000000002a20 (__TEXT,__text) external __ZN3awd7metrics24LocationEmergencySessionC1Ev
000000000000b30a (__TEXT,__text) external __ZN3awd7metrics24LocationEmergencySessionC2ERKS1_
000000000000b2bc (__TEXT,__text) external __ZN3awd7metrics24LocationEmergencySessionC2Ev
000000000000b52c (__TEXT,__text) external __ZN3awd7metrics24LocationEmergencySessionD0Ev
000000000000b506 (__TEXT,__text) external __ZN3awd7metrics24LocationEmergencySessionD1Ev
000000000000b494 (__TEXT,__text) external __ZN3awd7metrics24LocationEmergencySessionD2Ev
00000000000048f4 (__TEXT,__text) external __ZN3awd7metrics24LocationServicesApproval10SharedCtorEv
0000000000004afe (__TEXT,__text) external __ZN3awd7metrics24LocationServicesApproval10SharedDtorEv
0000000000004bf6 (__TEXT,__text) external __ZN3awd7metrics24LocationServicesApproval16default_instanceEv
000000000009d008 (__DATA_DIRTY,__common) external __ZN3awd7metrics24LocationServicesApproval17default_instance_E
000000000008b420 (__TEXT,__const) external __ZN3awd7metrics24LocationServicesApproval20kApprovedFieldNumberE
000000000008b41c (__TEXT,__const) external __ZN3awd7metrics24LocationServicesApproval20kBundleidFieldNumberE
0000000000005194 (__TEXT,__text) external __ZN3awd7metrics24LocationServicesApproval21CheckTypeAndMergeFromERKN20wireless_diagnostics6google8protobuf11MessageLiteE
00000000000893d6 (__TEXT,__text) non-external __ZN3awd7metrics24LocationServicesApproval21CheckTypeAndMergeFromERKN20wireless_diagnostics6google8protobuf11MessageLiteE.cold.1
00000000000039a2 (__TEXT,__text) external __ZN3awd7metrics24LocationServicesApproval21InitAsDefaultInstanceEv
000000000008b418 (__TEXT,__const) external __ZN3awd7metrics24LocationServicesApproval21kTimestampFieldNumberE
000000000008b428 (__TEXT,__const) external __ZN3awd7metrics24LocationServicesApproval25kAuthorizationFieldNumberE
0000000000004ce0 (__TEXT,__text) external __ZN3awd7metrics24LocationServicesApproval27MergePartialFromCodedStreamEPN20wireless_diagnostics6google8protobuf2io16CodedInputStreamE
000000000008b424 (__TEXT,__const) external __ZN3awd7metrics24LocationServicesApproval28kBundleidApprovedFieldNumberE
0000000000005202 (__TEXT,__text) external __ZN3awd7metrics24LocationServicesApproval4SwapEPS1_
0000000000004c5e (__TEXT,__text) external __ZN3awd7metrics24LocationServicesApproval5ClearEv
00000000000051d2 (__TEXT,__text) external __ZN3awd7metrics24LocationServicesApproval8CopyFromERKS1_
0000000000004974 (__TEXT,__text) external __ZN3awd7metrics24LocationServicesApproval9MergeFromERKS1_
0000000000004ace (__TEXT,__text) external __ZN3awd7metrics24LocationServicesApprovalC1ERKS1_
00000000000028c4 (__TEXT,__text) external __ZN3awd7metrics24LocationServicesApprovalC1Ev
000000000000491e (__TEXT,__text) external __ZN3awd7metrics24LocationServicesApprovalC2ERKS1_
00000000000048c0 (__TEXT,__text) external __ZN3awd7metrics24LocationServicesApprovalC2Ev
0000000000004bb4 (__TEXT,__text) external __ZN3awd7metrics24LocationServicesApprovalD0Ev
0000000000004b8e (__TEXT,__text) external __ZN3awd7metrics24LocationServicesApprovalD1Ev
0000000000004ad8 (__TEXT,__text) external __ZN3awd7metrics24LocationServicesApprovalD2Ev
000000000001cee2 (__TEXT,__text) external __ZN3awd7metrics24MotionGyroBiasEstimation10SharedCtorEv
000000000001d19e (__TEXT,__text) external __ZN3awd7metrics24MotionGyroBiasEstimation10SharedDtorEv
000000000001d216 (__TEXT,__text) external __ZN3awd7metrics24MotionGyroBiasEstimation16default_instanceEv
000000000009d0a0 (__DATA_DIRTY,__common) external __ZN3awd7metrics24MotionGyroBiasEstimation17default_instance_E
000000000001de92 (__TEXT,__text) external __ZN3awd7metrics24MotionGyroBiasEstimation21CheckTypeAndMergeFromERKN20wireless_diagnostics6google8protobuf11MessageLiteE
0000000000089acf (__TEXT,__text) non-external __ZN3awd7metrics24MotionGyroBiasEstimation21CheckTypeAndMergeFromERKN20wireless_diagnostics6google8protobuf11MessageLiteE.cold.1
0000000000003abc (__TEXT,__text) external __ZN3awd7metrics24MotionGyroBiasEstimation21InitAsDefaultInstanceEv
000000000008bc08 (__TEXT,__const) external __ZN3awd7metrics24MotionGyroBiasEstimation21kTimestampFieldNumberE
000000000008bc1c (__TEXT,__const) external __ZN3awd7metrics24MotionGyroBiasEstimation23kMaxDurationFieldNumberE
000000000008bc18 (__TEXT,__const) external __ZN3awd7metrics24MotionGyroBiasEstimation23kMinDurationFieldNumberE
000000000008bc20 (__TEXT,__const) external __ZN3awd7metrics24MotionGyroBiasEstimation24kMeanDurationFieldNumberE
000000000008bc0c (__TEXT,__const) external __ZN3awd7metrics24MotionGyroBiasEstimation25kEndConditionsFieldNumberE
000000000008bc10 (__TEXT,__const) external __ZN3awd7metrics24MotionGyroBiasEstimation25kImageSessionsFieldNumberE
000000000008bc28 (__TEXT,__const) external __ZN3awd7metrics24MotionGyroBiasEstimation26kMaxTemperatureFieldNumberE
000000000008bc24 (__TEXT,__const) external __ZN3awd7metrics24MotionGyroBiasEstimation26kMinTemperatureFieldNumberE
000000000001d300 (__TEXT,__text) external __ZN3awd7metrics24MotionGyroBiasEstimation27MergePartialFromCodedStreamEPN20wireless_diagnostics6google8protobuf2io16CodedInputStreamE
000000000008bc14 (__TEXT,__const) external __ZN3awd7metrics24MotionGyroBiasEstimation27kBiasCorrectionsFieldNumberE
000000000001df00 (__TEXT,__text) external __ZN3awd7metrics24MotionGyroBiasEstimation4SwapEPS1_
000000000001d276 (__TEXT,__text) external __ZN3awd7metrics24MotionGyroBiasEstimation5ClearEv
000000000001ded0 (__TEXT,__text) external __ZN3awd7metrics24MotionGyroBiasEstimation8CopyFromERKS1_
000000000001cf64 (__TEXT,__text) external __ZN3awd7metrics24MotionGyroBiasEstimation9MergeFromERKS1_
000000000001d156 (__TEXT,__text) external __ZN3awd7metrics24MotionGyroBiasEstimationC1ERKS1_
0000000000002d44 (__TEXT,__text) external __ZN3awd7metrics24MotionGyroBiasEstimationC1Ev
000000000001cf00 (__TEXT,__text) external __ZN3awd7metrics24MotionGyroBiasEstimationC2ERKS1_
000000000001ceb6 (__TEXT,__text) external __ZN3awd7metrics24MotionGyroBiasEstimationC2Ev
000000000001d1e6 (__TEXT,__text) external __ZN3awd7metrics24MotionGyroBiasEstimationD0Ev
000000000001d1dc (__TEXT,__text) external __ZN3awd7metrics24MotionGyroBiasEstimationD1Ev
000000000001d160 (__TEXT,__text) external __ZN3awd7metrics24MotionGyroBiasEstimationD2Ev
000000000003f3a6 (__TEXT,__text) external __ZN3awd7metrics25LocationNavigationSession10SharedCtorEv
000000000003f604 (__TEXT,__text) external __ZN3awd7metrics25LocationNavigationSession10SharedDtorEv
000000000003f68a (__TEXT,__text) external __ZN3awd7metrics25LocationNavigationSession16default_instanceEv
000000000009d120 (__DATA_DIRTY,__common) external __ZN3awd7metrics25LocationNavigationSession17default_instance_E
000000000008c308 (__TEXT,__const) external __ZN3awd7metrics25LocationNavigationSession20kDurationFieldNumberE
000000000008c31c (__TEXT,__const) external __ZN3awd7metrics25LocationNavigationSession20kMapsUsedFieldNumberE
000000000003ffc8 (__TEXT,__text) external __ZN3awd7metrics25LocationNavigationSession21CheckTypeAndMergeFromERKN20wireless_diagnostics6google8protobuf11MessageLiteE
0000000000089ecd (__TEXT,__text) non-external __ZN3awd7metrics25LocationNavigationSession21CheckTypeAndMergeFromERKN20wireless_diagnostics6google8protobuf11MessageLiteE.cold.1
0000000000003b5e (__TEXT,__text) external __ZN3awd7metrics25LocationNavigationSession21InitAsDefaultInstanceEv
000000000008c300 (__TEXT,__const) external __ZN3awd7metrics25LocationNavigationSession21kTimestampFieldNumberE
000000000008c304 (__TEXT,__const) external __ZN3awd7metrics25LocationNavigationSession22kIdentifierFieldNumberE
000000000008c314 (__TEXT,__const) external __ZN3awd7metrics25LocationNavigationSession23kGpsDurationFieldNumberE
000000000008c320 (__TEXT,__const) external __ZN3awd7metrics25LocationNavigationSession25kBatteryStatesFieldNumberE
000000000003f790 (__TEXT,__text) external __ZN3awd7metrics25LocationNavigationSession27MergePartialFromCodedStreamEPN20wireless_diagnostics6google8protobuf2io16CodedInputStreamE
000000000008c318 (__TEXT,__const) external __ZN3awd7metrics25LocationNavigationSession32kProactiveGpsDurationFieldNumberE
000000000008c30c (__TEXT,__const) external __ZN3awd7metrics25LocationNavigationSession38kAutomotiveActivityDurationFieldNumberE
000000000008c310 (__TEXT,__const) external __ZN3awd7metrics25LocationNavigationSession38kIsVehicleConnectedDurationFieldNumberE
0000000000040036 (__TEXT,__text) external __ZN3awd7metrics25LocationNavigationSession4SwapEPS1_
000000000003f702 (__TEXT,__text) external __ZN3awd7metrics25LocationNavigationSession5ClearEv
0000000000040006 (__TEXT,__text) external __ZN3awd7metrics25LocationNavigationSession8CopyFromERKS1_
000000000003f456 (__TEXT,__text) external __ZN3awd7metrics25LocationNavigationSession9MergeFromERKS1_
000000000003f5c2 (__TEXT,__text) external __ZN3awd7metrics25LocationNavigationSessionC1ERKS1_
0000000000003172 (__TEXT,__text) external __ZN3awd7metrics25LocationNavigationSessionC1Ev
000000000003f3d4 (__TEXT,__text) external __ZN3awd7metrics25LocationNavigationSessionC2ERKS1_
000000000003f362 (__TEXT,__text) external __ZN3awd7metrics25LocationNavigationSessionC2Ev
000000000003f65a (__TEXT,__text) external __ZN3awd7metrics25LocationNavigationSessionD0Ev
000000000003f650 (__TEXT,__text) external __ZN3awd7metrics25LocationNavigationSessionD1Ev
000000000003f5cc (__TEXT,__text) external __ZN3awd7metrics25LocationNavigationSessionD2Ev
000000000003397a (__TEXT,__text) external __ZN3awd7metrics25MotionPressureTemperature10SharedCtorEv
0000000000033c8c (__TEXT,__text) external __ZN3awd7metrics25MotionPressureTemperature10SharedDtorEv
0000000000033ccc (__TEXT,__text) external __ZN3awd7metrics25MotionPressureTemperature16default_instanceEv
000000000009d0c0 (__DATA_DIRTY,__common) external __ZN3awd7metrics25MotionPressureTemperature17default_instance_E
0000000000034ad0 (__TEXT,__text) external __ZN3awd7metrics25MotionPressureTemperature21CheckTypeAndMergeFromERKN20wireless_diagnostics6google8protobuf11MessageLiteE
0000000000089cc0 (__TEXT,__text) non-external __ZN3awd7metrics25MotionPressureTemperature21CheckTypeAndMergeFromERKN20wireless_diagnostics6google8protobuf11MessageLiteE.cold.1
0000000000003b16 (__TEXT,__text) external __ZN3awd7metrics25MotionPressureTemperature21InitAsDefaultInstanceEv
000000000008c0d4 (__TEXT,__const) external __ZN3awd7metrics25MotionPressureTemperature21kTimestampFieldNumberE
0000000000033d5c (__TEXT,__text) external __ZN3awd7metrics25MotionPressureTemperature27MergePartialFromCodedStreamEPN20wireless_diagnostics6google8protobuf2io16CodedInputStreamE
000000000008c0d8 (__TEXT,__const) external __ZN3awd7metrics25MotionPressureTemperature40kPressureTemperatureAllDayMaxFieldNumberE
000000000008c0dc (__TEXT,__const) external __ZN3awd7metrics25MotionPressureTemperature40kPressureTemperatureAllDayMinFieldNumberE
000000000008c0e8 (__TEXT,__const) external __ZN3awd7metrics25MotionPressureTemperature42kPressureTemperatureLargeWindowFieldNumberE
000000000008c0e0 (__TEXT,__const) external __ZN3awd7metrics25MotionPressureTemperature42kPressureTemperatureSmallWindowFieldNumberE
000000000008c0e4 (__TEXT,__const) external __ZN3awd7metrics25MotionPressureTemperature43kPressureTemperatureMediumWindowFieldNumberE
000000000008c0ec (__TEXT,__const) external __ZN3awd7metrics25MotionPressureTemperature47kPressureTemperatureStepsSmallWindowFieldNumberE
000000000008c0f0 (__TEXT,__const) external __ZN3awd7metrics25MotionPressureTemperature48kPressureTemperatureStepsMediumWindowFieldNumberE
0000000000034b3e (__TEXT,__text) external __ZN3awd7metrics25MotionPressureTemperature4SwapEPS1_
0000000000033d34 (__TEXT,__text) external __ZN3awd7metrics25MotionPressureTemperature5ClearEv
0000000000034b0e (__TEXT,__text) external __ZN3awd7metrics25MotionPressureTemperature8CopyFromERKS1_
0000000000033a30 (__TEXT,__text) external __ZN3awd7metrics25MotionPressureTemperature9MergeFromERKS1_
0000000000033c02 (__TEXT,__text) external __ZN3awd7metrics25MotionPressureTemperatureC1ERKS1_
0000000000002f1e (__TEXT,__text) external __ZN3awd7metrics25MotionPressureTemperatureC1Ev
0000000000033990 (__TEXT,__text) external __ZN3awd7metrics25MotionPressureTemperatureC2ERKS1_
0000000000089c50 (__TEXT,__text) non-external __ZN3awd7metrics25MotionPressureTemperatureC2ERKS1_.cold.1
0000000000033946 (__TEXT,__text) external __ZN3awd7metrics25MotionPressureTemperatureC2Ev
0000000000033c9c (__TEXT,__text) external __ZN3awd7metrics25MotionPressureTemperatureD0Ev
0000000000033c92 (__TEXT,__text) external __ZN3awd7metrics25MotionPressureTemperatureD1Ev
0000000000033c0c (__TEXT,__text) external __ZN3awd7metrics25MotionPressureTemperatureD2Ev
00000000000193f8 (__TEXT,__text) external __ZN3awd7metrics26LocationCompassSaturations10SharedCtorEv
00000000000195b8 (__TEXT,__text) external __ZN3awd7metrics26LocationCompassSaturations10SharedDtorEv
000000000001960c (__TEXT,__text) external __ZN3awd7metrics26LocationCompassSaturations16default_instanceEv
000000000009d070 (__DATA_DIRTY,__common) external __ZN3awd7metrics26LocationCompassSaturations17default_instance_E
0000000000019d6e (__TEXT,__text) external __ZN3awd7metrics26LocationCompassSaturations21CheckTypeAndMergeFromERKN20wireless_diagnostics6google8protobuf11MessageLiteE
00000000000899da (__TEXT,__text) non-external __ZN3awd7metrics26LocationCompassSaturations21CheckTypeAndMergeFromERKN20wireless_diagnostics6google8protobuf11MessageLiteE.cold.1
0000000000003a98 (__TEXT,__text) external __ZN3awd7metrics26LocationCompassSaturations21InitAsDefaultInstanceEv
000000000008bb68 (__TEXT,__const) external __ZN3awd7metrics26LocationCompassSaturations21kTimestampFieldNumberE
000000000008bb6c (__TEXT,__const) external __ZN3awd7metrics26LocationCompassSaturations26kNumSaturationsFieldNumberE
000000000001969a (__TEXT,__text) external __ZN3awd7metrics26LocationCompassSaturations27MergePartialFromCodedStreamEPN20wireless_diagnostics6google8protobuf2io16CodedInputStreamE
000000000008bb78 (__TEXT,__const) external __ZN3awd7metrics26LocationCompassSaturations27kMagMagnitudeMaxFieldNumberE
000000000008bb74 (__TEXT,__const) external __ZN3awd7metrics26LocationCompassSaturations27kMagMagnitudeMinFieldNumberE
000000000008bb88 (__TEXT,__const) external __ZN3awd7metrics26LocationCompassSaturations31kNumCoverAttachmentsFieldNumberE
000000000008bb80 (__TEXT,__const) external __ZN3awd7metrics26LocationCompassSaturations34kDeltaBiasHighQuality3DFieldNumberE
000000000008bb7c (__TEXT,__const) external __ZN3awd7metrics26LocationCompassSaturations35kMaxCalibrationQuality3DFieldNumberE
000000000008bb84 (__TEXT,__const) external __ZN3awd7metrics26LocationCompassSaturations36kDeltaRadiusHighQuality3DFieldNumberE
000000000008bb70 (__TEXT,__const) external __ZN3awd7metrics26LocationCompassSaturations40kMeanDeltaTimeSaturationsMsecFieldNumberE
0000000000019ddc (__TEXT,__text) external __ZN3awd7metrics26LocationCompassSaturations4SwapEPS1_
0000000000019668 (__TEXT,__text) external __ZN3awd7metrics26LocationCompassSaturations5ClearEv
0000000000019dac (__TEXT,__text) external __ZN3awd7metrics26LocationCompassSaturations8CopyFromERKS1_
000000000001945e (__TEXT,__text) external __ZN3awd7metrics26LocationCompassSaturations9MergeFromERKS1_
000000000001959a (__TEXT,__text) external __ZN3awd7metrics26LocationCompassSaturationsC1ERKS1_
0000000000002c52 (__TEXT,__text) external __ZN3awd7metrics26LocationCompassSaturationsC1Ev
0000000000019416 (__TEXT,__text) external __ZN3awd7metrics26LocationCompassSaturationsC2ERKS1_
00000000000193d0 (__TEXT,__text) external __ZN3awd7metrics26LocationCompassSaturationsC2Ev
00000000000195d2 (__TEXT,__text) external __ZN3awd7metrics26LocationCompassSaturationsD0Ev
00000000000195be (__TEXT,__text) external __ZN3awd7metrics26LocationCompassSaturationsD1Ev
00000000000195a4 (__TEXT,__text) external __ZN3awd7metrics26LocationCompassSaturationsD2Ev
0000000000087704 (__TEXT,__text) external __ZN3awd7metrics26LocationPeerRangingMetrics10SharedCtorEv
0000000000087974 (__TEXT,__text) external __ZN3awd7metrics26LocationPeerRangingMetrics10SharedDtorEv
00000000000879b6 (__TEXT,__text) external __ZN3awd7metrics26LocationPeerRangingMetrics16default_instanceEv
000000000009d3d8 (__DATA_DIRTY,__common) external __ZN3awd7metrics26LocationPeerRangingMetrics17default_instance_E
000000000008e840 (__TEXT,__const) external __ZN3awd7metrics26LocationPeerRangingMetrics20kMetaDataFieldNumberE
00000000000887c4 (__TEXT,__text) external __ZN3awd7metrics26LocationPeerRangingMetrics21CheckTypeAndMergeFromERKN20wireless_diagnostics6google8protobuf11MessageLiteE
000000000008b22e (__TEXT,__text) non-external __ZN3awd7metrics26LocationPeerRangingMetrics21CheckTypeAndMergeFromERKN20wireless_diagnostics6google8protobuf11MessageLiteE.cold.1
0000000000084586 (__TEXT,__text) external __ZN3awd7metrics26LocationPeerRangingMetrics21InitAsDefaultInstanceEv
000000000008e83c (__TEXT,__const) external __ZN3awd7metrics26LocationPeerRangingMetrics21kTimestampFieldNumberE
000000000008e84c (__TEXT,__const) external __ZN3awd7metrics26LocationPeerRangingMetrics24kBurstMetricsFieldNumberE
0000000000087b6a (__TEXT,__text) external __ZN3awd7metrics26LocationPeerRangingMetrics27MergePartialFromCodedStreamEPN20wireless_diagnostics6google8protobuf2io16CodedInputStreamE
000000000008e848 (__TEXT,__const) external __ZN3awd7metrics26LocationPeerRangingMetrics30kMeasurementMetricsFieldNumberE
000000000008e850 (__TEXT,__const) external __ZN3awd7metrics26LocationPeerRangingMetrics33kEarlyTerminateMetricsFieldNumberE
000000000008e854 (__TEXT,__const) external __ZN3awd7metrics26LocationPeerRangingMetrics33kUnlockDecisionMetricsFieldNumberE
000000000008e844 (__TEXT,__const) external __ZN3awd7metrics26LocationPeerRangingMetrics34kEstimatorConfigurationFieldNumberE
0000000000088a96 (__TEXT,__text) external __ZN3awd7metrics26LocationPeerRangingMetrics4SwapEPS1_
0000000000087a3e (__TEXT,__text) external __ZN3awd7metrics26LocationPeerRangingMetrics5ClearEv
0000000000088a66 (__TEXT,__text) external __ZN3awd7metrics26LocationPeerRangingMetrics8CopyFromERKS1_
0000000000087818 (__TEXT,__text) external __ZN3awd7metrics26LocationPeerRangingMetrics9MergeFromERKS1_
00000000000878fe (__TEXT,__text) external __ZN3awd7metrics26LocationPeerRangingMetricsC1ERKS1_
0000000000084508 (__TEXT,__text) external __ZN3awd7metrics26LocationPeerRangingMetricsC1Ev
0000000000087718 (__TEXT,__text) external __ZN3awd7metrics26LocationPeerRangingMetricsC2ERKS1_
00000000000876b0 (__TEXT,__text) external __ZN3awd7metrics26LocationPeerRangingMetricsC2Ev
0000000000087984 (__TEXT,__text) external __ZN3awd7metrics26LocationPeerRangingMetricsD0Ev
000000000008797a (__TEXT,__text) external __ZN3awd7metrics26LocationPeerRangingMetricsD1Ev
0000000000087908 (__TEXT,__text) external __ZN3awd7metrics26LocationPeerRangingMetricsD2Ev
000000000003d35c (__TEXT,__text) external __ZN3awd7metrics26MotionBarometerCalibration10SharedCtorEv
000000000003d4b4 (__TEXT,__text) external __ZN3awd7metrics26MotionBarometerCalibration10SharedDtorEv
000000000003d508 (__TEXT,__text) external __ZN3awd7metrics26MotionBarometerCalibration16default_instanceEv
000000000009d100 (__DATA_DIRTY,__common) external __ZN3awd7metrics26MotionBarometerCalibration17default_instance_E
000000000008c26c (__TEXT,__const) external __ZN3awd7metrics26MotionBarometerCalibration17kSlopeFieldNumberE
000000000008c270 (__TEXT,__const) external __ZN3awd7metrics26MotionBarometerCalibration20kResidualFieldNumberE
000000000003d8fc (__TEXT,__text) external __ZN3awd7metrics26MotionBarometerCalibration21CheckTypeAndMergeFromERKN20wireless_diagnostics6google8protobuf11MessageLiteE
0000000000089e1e (__TEXT,__text) non-external __ZN3awd7metrics26MotionBarometerCalibration21CheckTypeAndMergeFromERKN20wireless_diagnostics6google8protobuf11MessageLiteE.cold.1
0000000000003b46 (__TEXT,__text) external __ZN3awd7metrics26MotionBarometerCalibration21InitAsDefaultInstanceEv
000000000008c260 (__TEXT,__const) external __ZN3awd7metrics26MotionBarometerCalibration21kTimestampFieldNumberE
000000000003d57a (__TEXT,__text) external __ZN3awd7metrics26MotionBarometerCalibration27MergePartialFromCodedStreamEPN20wireless_diagnostics6google8protobuf2io16CodedInputStreamE
000000000008c264 (__TEXT,__const) external __ZN3awd7metrics26MotionBarometerCalibration27kNumCalibrationsFieldNumberE
000000000008c268 (__TEXT,__const) external __ZN3awd7metrics26MotionBarometerCalibration34kMedianCalibrationValueFieldNumberE
000000000003d96a (__TEXT,__text) external __ZN3awd7metrics26MotionBarometerCalibration4SwapEPS1_
000000000003d558 (__TEXT,__text) external __ZN3awd7metrics26MotionBarometerCalibration5ClearEv
000000000003d93a (__TEXT,__text) external __ZN3awd7metrics26MotionBarometerCalibration8CopyFromERKS1_
000000000003d3aa (__TEXT,__text) external __ZN3awd7metrics26MotionBarometerCalibration9MergeFromERKS1_
000000000003d496 (__TEXT,__text) external __ZN3awd7metrics26MotionBarometerCalibrationC1ERKS1_
00000000000030f6 (__TEXT,__text) external __ZN3awd7metrics26MotionBarometerCalibrationC1Ev
000000000003d36e (__TEXT,__text) external __ZN3awd7metrics26MotionBarometerCalibrationC2ERKS1_
000000000003d340 (__TEXT,__text) external __ZN3awd7metrics26MotionBarometerCalibrationC2Ev
000000000003d4ce (__TEXT,__text) external __ZN3awd7metrics26MotionBarometerCalibrationD0Ev
000000000003d4ba (__TEXT,__text) external __ZN3awd7metrics26MotionBarometerCalibrationD1Ev
000000000003d4a0 (__TEXT,__text) external __ZN3awd7metrics26MotionBarometerCalibrationD2Ev
000000000001bdd6 (__TEXT,__text) external __ZN3awd7metrics26MotionPedometerCalibration10SharedCtorEv
000000000001bf82 (__TEXT,__text) external __ZN3awd7metrics26MotionPedometerCalibration10SharedDtorEv
000000000001bfd6 (__TEXT,__text) external __ZN3awd7metrics26MotionPedometerCalibration16default_instanceEv
000000000009d098 (__DATA_DIRTY,__common) external __ZN3awd7metrics26MotionPedometerCalibration17default_instance_E
000000000008bbd4 (__TEXT,__const) external __ZN3awd7metrics26MotionPedometerCalibration17kStepsFieldNumberE
000000000008bbe8 (__TEXT,__const) external __ZN3awd7metrics26MotionPedometerCalibration19kKfactorFieldNumberE
000000000008bbd8 (__TEXT,__const) external __ZN3awd7metrics26MotionPedometerCalibration20kDistanceFieldNumberE
000000000001c53c (__TEXT,__text) external __ZN3awd7metrics26MotionPedometerCalibration21CheckTypeAndMergeFromERKN20wireless_diagnostics6google8protobuf11MessageLiteE
0000000000089a89 (__TEXT,__text) non-external __ZN3awd7metrics26MotionPedometerCalibration21CheckTypeAndMergeFromERKN20wireless_diagnostics6google8protobuf11MessageLiteE.cold.1
0000000000003ab6 (__TEXT,__text) external __ZN3awd7metrics26MotionPedometerCalibration21InitAsDefaultInstanceEv
000000000008bbd0 (__TEXT,__const) external __ZN3awd7metrics26MotionPedometerCalibration21kTimestampFieldNumberE
000000000008bbe0 (__TEXT,__const) external __ZN3awd7metrics26MotionPedometerCalibration22kTrackScoreFieldNumberE
000000000008bbe4 (__TEXT,__const) external __ZN3awd7metrics26MotionPedometerCalibration25kTrackDistanceFieldNumberE
000000000008bbec (__TEXT,__const) external __ZN3awd7metrics26MotionPedometerCalibration26kKfactorUpdatedFieldNumberE
000000000001c050 (__TEXT,__text) external __ZN3awd7metrics26MotionPedometerCalibration27MergePartialFromCodedStreamEPN20wireless_diagnostics6google8protobuf2io16CodedInputStreamE
000000000008bbdc (__TEXT,__const) external __ZN3awd7metrics26MotionPedometerCalibration29kTrackPaceVarianceFieldNumberE
000000000001c5aa (__TEXT,__text) external __ZN3awd7metrics26MotionPedometerCalibration4SwapEPS1_
000000000001c02a (__TEXT,__text) external __ZN3awd7metrics26MotionPedometerCalibration5ClearEv
000000000001c57a (__TEXT,__text) external __ZN3awd7metrics26MotionPedometerCalibration8CopyFromERKS1_
000000000001be2c (__TEXT,__text) external __ZN3awd7metrics26MotionPedometerCalibration9MergeFromERKS1_
000000000001bf64 (__TEXT,__text) external __ZN3awd7metrics26MotionPedometerCalibrationC1ERKS1_
0000000000002d24 (__TEXT,__text) external __ZN3awd7metrics26MotionPedometerCalibrationC1Ev
000000000001bdec (__TEXT,__text) external __ZN3awd7metrics26MotionPedometerCalibrationC2ERKS1_
000000000001bdb6 (__TEXT,__text) external __ZN3awd7metrics26MotionPedometerCalibrationC2Ev
000000000001bf9c (__TEXT,__text) external __ZN3awd7metrics26MotionPedometerCalibrationD0Ev
000000000001bf88 (__TEXT,__text) external __ZN3awd7metrics26MotionPedometerCalibrationD1Ev
000000000001bf6e (__TEXT,__text) external __ZN3awd7metrics26MotionPedometerCalibrationD2Ev
000000000006e6c6 (__TEXT,__text) external __ZN3awd7metrics27BaroAltitudeCalibrationInfo10SharedCtorEv
000000000006e906 (__TEXT,__text) external __ZN3awd7metrics27BaroAltitudeCalibrationInfo10SharedDtorEv
000000000006e9ba (__TEXT,__text) external __ZN3awd7metrics27BaroAltitudeCalibrationInfo16default_instanceEv
000000000009d2e0 (__DATA_DIRTY,__common) external __ZN3awd7metrics27BaroAltitudeCalibrationInfo17default_instance_E
000000000008ceb8 (__TEXT,__const) external __ZN3awd7metrics27BaroAltitudeCalibrationInfo20kBundleidFieldNumberE
000000000006f234 (__TEXT,__text) external __ZN3awd7metrics27BaroAltitudeCalibrationInfo21CheckTypeAndMergeFromERKN20wireless_diagnostics6google8protobuf11MessageLiteE
000000000008aaf8 (__TEXT,__text) non-external __ZN3awd7metrics27BaroAltitudeCalibrationInfo21CheckTypeAndMergeFromERKN20wireless_diagnostics6google8protobuf11MessageLiteE.cold.1
0000000000004016 (__TEXT,__text) external __ZN3awd7metrics27BaroAltitudeCalibrationInfo21InitAsDefaultInstanceEv
000000000008ceb4 (__TEXT,__const) external __ZN3awd7metrics27BaroAltitudeCalibrationInfo21kTimestampFieldNumberE
000000000006ea88 (__TEXT,__text) external __ZN3awd7metrics27BaroAltitudeCalibrationInfo27MergePartialFromCodedStreamEPN20wireless_diagnostics6google8protobuf2io16CodedInputStreamE
000000000008ced4 (__TEXT,__const) external __ZN3awd7metrics27BaroAltitudeCalibrationInfo30kDeresFinalLatitudeFieldNumberE
000000000008ced8 (__TEXT,__const) external __ZN3awd7metrics27BaroAltitudeCalibrationInfo31kDeresFinalLongitudeFieldNumberE
000000000008cec0 (__TEXT,__const) external __ZN3awd7metrics27BaroAltitudeCalibrationInfo38kCalibrationCountMapMatchedFieldNumberE
000000000008cec8 (__TEXT,__const) external __ZN3awd7metrics27BaroAltitudeCalibrationInfo39kAppropriateToCalibrateCountFieldNumberE
000000000008cecc (__TEXT,__const) external __ZN3awd7metrics27BaroAltitudeCalibrationInfo39kCalibrationCountOnlyUsedDemFieldNumberE
000000000008cec4 (__TEXT,__const) external __ZN3awd7metrics27BaroAltitudeCalibrationInfo42kCalibrationCountOutdoorContextFieldNumberE
000000000008cebc (__TEXT,__const) external __ZN3awd7metrics27BaroAltitudeCalibrationInfo45kDurationSinceStartMonitoringTimeSFieldNumberE
000000000008ced0 (__TEXT,__const) external __ZN3awd7metrics27BaroAltitudeCalibrationInfo49kCalibrationCountUsedDemAndRefPressureFieldNumberE
000000000006f2a2 (__TEXT,__text) external __ZN3awd7metrics27BaroAltitudeCalibrationInfo4SwapEPS1_
000000000006ea1e (__TEXT,__text) external __ZN3awd7metrics27BaroAltitudeCalibrationInfo5ClearEv
000000000006f272 (__TEXT,__text) external __ZN3awd7metrics27BaroAltitudeCalibrationInfo8CopyFromERKS1_
000000000006e73e (__TEXT,__text) external __ZN3awd7metrics27BaroAltitudeCalibrationInfo9MergeFromERKS1_
000000000006e8d6 (__TEXT,__text) external __ZN3awd7metrics27BaroAltitudeCalibrationInfoC1ERKS1_
000000000000396c (__TEXT,__text) external __ZN3awd7metrics27BaroAltitudeCalibrationInfoC1Ev
000000000006e6ec (__TEXT,__text) external __ZN3awd7metrics27BaroAltitudeCalibrationInfoC2ERKS1_
000000000006e696 (__TEXT,__text) external __ZN3awd7metrics27BaroAltitudeCalibrationInfoC2Ev
000000000006e978 (__TEXT,__text) external __ZN3awd7metrics27BaroAltitudeCalibrationInfoD0Ev
000000000006e952 (__TEXT,__text) external __ZN3awd7metrics27BaroAltitudeCalibrationInfoD1Ev
000000000006e8e0 (__TEXT,__text) external __ZN3awd7metrics27BaroAltitudeCalibrationInfoD2Ev
0000000000086954 (__TEXT,__text) external __ZN3awd7metrics27LocationPeerRangingDecision10SharedCtorEv
0000000000086a76 (__TEXT,__text) external __ZN3awd7metrics27LocationPeerRangingDecision10SharedDtorEv
0000000000086aca (__TEXT,__text) external __ZN3awd7metrics27LocationPeerRangingDecision16default_instanceEv
000000000009d3c8 (__DATA_DIRTY,__common) external __ZN3awd7metrics27LocationPeerRangingDecision17default_instance_E
000000000008e828 (__TEXT,__const) external __ZN3awd7metrics27LocationPeerRangingDecision18kReasonFieldNumberE
0000000000086d4e (__TEXT,__text) external __ZN3awd7metrics27LocationPeerRangingDecision21CheckTypeAndMergeFromERKN20wireless_diagnostics6google8protobuf11MessageLiteE
000000000008b1e8 (__TEXT,__text) non-external __ZN3awd7metrics27LocationPeerRangingDecision21CheckTypeAndMergeFromERKN20wireless_diagnostics6google8protobuf11MessageLiteE.cold.1
000000000008457a (__TEXT,__text) external __ZN3awd7metrics27LocationPeerRangingDecision21InitAsDefaultInstanceEv
000000000008e82c (__TEXT,__const) external __ZN3awd7metrics27LocationPeerRangingDecision25kDecisionCountFieldNumberE
0000000000086b3e (__TEXT,__text) external __ZN3awd7metrics27LocationPeerRangingDecision27MergePartialFromCodedStreamEPN20wireless_diagnostics6google8protobuf2io16CodedInputStreamE
0000000000086dbc (__TEXT,__text) external __ZN3awd7metrics27LocationPeerRangingDecision4SwapEPS1_
0000000000086b1c (__TEXT,__text) external __ZN3awd7metrics27LocationPeerRangingDecision5ClearEv
0000000000086d8c (__TEXT,__text) external __ZN3awd7metrics27LocationPeerRangingDecision8CopyFromERKS1_
00000000000869a8 (__TEXT,__text) external __ZN3awd7metrics27LocationPeerRangingDecision9MergeFromERKS1_
000000000008b1c5 (__TEXT,__text) non-external __ZN3awd7metrics27LocationPeerRangingDecision9MergeFromERKS1_.cold.1
0000000000086a58 (__TEXT,__text) external __ZN3awd7metrics27LocationPeerRangingDecisionC1ERKS1_
00000000000844c0 (__TEXT,__text) external __ZN3awd7metrics27LocationPeerRangingDecisionC1Ev
0000000000086968 (__TEXT,__text) external __ZN3awd7metrics27LocationPeerRangingDecisionC2ERKS1_
0000000000086936 (__TEXT,__text) external __ZN3awd7metrics27LocationPeerRangingDecisionC2Ev
0000000000086a90 (__TEXT,__text) external __ZN3awd7metrics27LocationPeerRangingDecisionD0Ev
0000000000086a7c (__TEXT,__text) external __ZN3awd7metrics27LocationPeerRangingDecisionD1Ev
0000000000086a62 (__TEXT,__text) external __ZN3awd7metrics27LocationPeerRangingDecisionD2Ev
00000000000845bc (__TEXT,__text) external __ZN3awd7metrics27LocationPeerRangingMetaData10SharedCtorEv
00000000000846ae (__TEXT,__text) external __ZN3awd7metrics27LocationPeerRangingMetaData10SharedDtorEv
0000000000084704 (__TEXT,__text) external __ZN3awd7metrics27LocationPeerRangingMetaData16default_instanceEv
000000000009d3a0 (__DATA_DIRTY,__common) external __ZN3awd7metrics27LocationPeerRangingMetaData17default_instance_E
000000000008488c (__TEXT,__text) external __ZN3awd7metrics27LocationPeerRangingMetaData21CheckTypeAndMergeFromERKN20wireless_diagnostics6google8protobuf11MessageLiteE
000000000008b0b6 (__TEXT,__text) non-external __ZN3awd7metrics27LocationPeerRangingMetaData21CheckTypeAndMergeFromERKN20wireless_diagnostics6google8protobuf11MessageLiteE.cold.1
000000000008455c (__TEXT,__text) external __ZN3awd7metrics27LocationPeerRangingMetaData21InitAsDefaultInstanceEv
000000000008476c (__TEXT,__text) external __ZN3awd7metrics27LocationPeerRangingMetaData27MergePartialFromCodedStreamEPN20wireless_diagnostics6google8protobuf2io16CodedInputStreamE
000000000008e7e4 (__TEXT,__const) external __ZN3awd7metrics27LocationPeerRangingMetaData39kStatisticsTimePeriodInHoursFieldNumberE
00000000000848fa (__TEXT,__text) external __ZN3awd7metrics27LocationPeerRangingMetaData4SwapEPS1_
0000000000084750 (__TEXT,__text) external __ZN3awd7metrics27LocationPeerRangingMetaData5ClearEv
00000000000848ca (__TEXT,__text) external __ZN3awd7metrics27LocationPeerRangingMetaData8CopyFromERKS1_
0000000000084602 (__TEXT,__text) external __ZN3awd7metrics27LocationPeerRangingMetaData9MergeFromERKS1_
0000000000084690 (__TEXT,__text) external __ZN3awd7metrics27LocationPeerRangingMetaDataC1ERKS1_
0000000000084408 (__TEXT,__text) external __ZN3awd7metrics27LocationPeerRangingMetaDataC1Ev
00000000000845ca (__TEXT,__text) external __ZN3awd7metrics27LocationPeerRangingMetaDataC2ERKS1_
00000000000845a4 (__TEXT,__text) external __ZN3awd7metrics27LocationPeerRangingMetaDataC2Ev
00000000000846ca (__TEXT,__text) external __ZN3awd7metrics27LocationPeerRangingMetaDataD0Ev
00000000000846b6 (__TEXT,__text) external __ZN3awd7metrics27LocationPeerRangingMetaDataD1Ev
000000000008469a (__TEXT,__text) external __ZN3awd7metrics27LocationPeerRangingMetaDataD2Ev
00000000000414ee (__TEXT,__text) external __ZN3awd7metrics27LocationSubHarvesterMetrics10SharedCtorEv
0000000000041786 (__TEXT,__text) external __ZN3awd7metrics27LocationSubHarvesterMetrics10SharedDtorEv
000000000004180c (__TEXT,__text) external __ZN3awd7metrics27LocationSubHarvesterMetrics16default_instanceEv
000000000009d138 (__DATA_DIRTY,__common) external __ZN3awd7metrics27LocationSubHarvesterMetrics17default_instance_E
00000000000422e0 (__TEXT,__text) external __ZN3awd7metrics27LocationSubHarvesterMetrics21CheckTypeAndMergeFromERKN20wireless_diagnostics6google8protobuf11MessageLiteE
0000000000089f59 (__TEXT,__text) non-external __ZN3awd7metrics27LocationSubHarvesterMetrics21CheckTypeAndMergeFromERKN20wireless_diagnostics6google8protobuf11MessageLiteE.cold.1
0000000000003b70 (__TEXT,__text) external __ZN3awd7metrics27LocationSubHarvesterMetrics21InitAsDefaultInstanceEv
000000000008c35c (__TEXT,__const) external __ZN3awd7metrics27LocationSubHarvesterMetrics21kTimestampFieldNumberE
000000000008c36c (__TEXT,__const) external __ZN3awd7metrics27LocationSubHarvesterMetrics23kPointsSavedFieldNumberE
000000000008c370 (__TEXT,__const) external __ZN3awd7metrics27LocationSubHarvesterMetrics24kPointsPrunedFieldNumberE
000000000008c374 (__TEXT,__const) external __ZN3awd7metrics27LocationSubHarvesterMetrics25kPointsClearedFieldNumberE
000000000008c368 (__TEXT,__const) external __ZN3awd7metrics27LocationSubHarvesterMetrics26kPointsReceivedFieldNumberE
000000000008c378 (__TEXT,__const) external __ZN3awd7metrics27LocationSubHarvesterMetrics26kPointsUploadedFieldNumberE
000000000008c384 (__TEXT,__const) external __ZN3awd7metrics27LocationSubHarvesterMetrics26kUploadAttemptsFieldNumberE
0000000000041916 (__TEXT,__text) external __ZN3awd7metrics27LocationSubHarvesterMetrics27MergePartialFromCodedStreamEPN20wireless_diagnostics6google8protobuf2io16CodedInputStreamE
000000000008c360 (__TEXT,__const) external __ZN3awd7metrics27LocationSubHarvesterMetrics29kMetricsIdentifierFieldNumberE
000000000008c37c (__TEXT,__const) external __ZN3awd7metrics27LocationSubHarvesterMetrics33kDurationUploadCapableFieldNumberE
000000000008c364 (__TEXT,__const) external __ZN3awd7metrics27LocationSubHarvesterMetrics34kSubHarvesterIdentifierFieldNumberE
000000000008c380 (__TEXT,__const) external __ZN3awd7metrics27LocationSubHarvesterMetrics35kDurationUploadIncapableFieldNumberE
000000000004234e (__TEXT,__text) external __ZN3awd7metrics27LocationSubHarvesterMetrics4SwapEPS1_
0000000000041880 (__TEXT,__text) external __ZN3awd7metrics27LocationSubHarvesterMetrics5ClearEv
000000000004231e (__TEXT,__text) external __ZN3awd7metrics27LocationSubHarvesterMetrics8CopyFromERKS1_
0000000000041596 (__TEXT,__text) external __ZN3awd7metrics27LocationSubHarvesterMetrics9MergeFromERKS1_
0000000000089f36 (__TEXT,__text) non-external __ZN3awd7metrics27LocationSubHarvesterMetrics9MergeFromERKS1_.cold.1
0000000000041744 (__TEXT,__text) external __ZN3awd7metrics27LocationSubHarvesterMetricsC1ERKS1_
0000000000003206 (__TEXT,__text) external __ZN3awd7metrics27LocationSubHarvesterMetricsC1Ev
0000000000041518 (__TEXT,__text) external __ZN3awd7metrics27LocationSubHarvesterMetricsC2ERKS1_
00000000000414ae (__TEXT,__text) external __ZN3awd7metrics27LocationSubHarvesterMetricsC2Ev
00000000000417dc (__TEXT,__text) external __ZN3awd7metrics27LocationSubHarvesterMetricsD0Ev
00000000000417d2 (__TEXT,__text) external __ZN3awd7metrics27LocationSubHarvesterMetricsD1Ev
000000000004174e (__TEXT,__text) external __ZN3awd7metrics27LocationSubHarvesterMetricsD2Ev
000000000005bb4e (__TEXT,__text) external __ZN3awd7metrics27LocationVisibilityAssertion10SharedCtorEv
000000000005bd7c (__TEXT,__text) external __ZN3awd7metrics27LocationVisibilityAssertion10SharedDtorEv
000000000008c9c4 (__TEXT,__const) external __ZN3awd7metrics27LocationVisibilityAssertion12DisconnectedE
000000000005be30 (__TEXT,__text) external __ZN3awd7metrics27LocationVisibilityAssertion16default_instanceEv
000000000009d220 (__DATA_DIRTY,__common) external __ZN3awd7metrics27LocationVisibilityAssertion17default_instance_E
000000000008c9dc (__TEXT,__const) external __ZN3awd7metrics27LocationVisibilityAssertion19kElapsedFieldNumberE
000000000008c9d8 (__TEXT,__const) external __ZN3awd7metrics27LocationVisibilityAssertion20kBundleidFieldNumberE
000000000005c5ea (__TEXT,__text) external __ZN3awd7metrics27LocationVisibilityAssertion21CheckTypeAndMergeFromERKN20wireless_diagnostics6google8protobuf11MessageLiteE
000000000008a580 (__TEXT,__text) non-external __ZN3awd7metrics27LocationVisibilityAssertion21CheckTypeAndMergeFromERKN20wireless_diagnostics6google8protobuf11MessageLiteE.cold.1
0000000000003cb2 (__TEXT,__text) external __ZN3awd7metrics27LocationVisibilityAssertion21InitAsDefaultInstanceEv
000000000008c9d4 (__TEXT,__const) external __ZN3awd7metrics27LocationVisibilityAssertion21kTimestampFieldNumberE
000000000008c9cc (__TEXT,__const) external __ZN3awd7metrics27LocationVisibilityAssertion22InvalidationReason_MAXE
000000000008c9c8 (__TEXT,__const) external __ZN3awd7metrics27LocationVisibilityAssertion22InvalidationReason_MINE
000000000005bef8 (__TEXT,__text) external __ZN3awd7metrics27LocationVisibilityAssertion27MergePartialFromCodedStreamEPN20wireless_diagnostics6google8protobuf2io16CodedInputStreamE
000000000008c9d0 (__TEXT,__const) external __ZN3awd7metrics27LocationVisibilityAssertion28InvalidationReason_ARRAYSIZEE
000000000008c9e8 (__TEXT,__const) external __ZN3awd7metrics27LocationVisibilityAssertion28kEverInBackgroundFieldNumberE
000000000008c9f4 (__TEXT,__const) external __ZN3awd7metrics27LocationVisibilityAssertion30kAuthorizationStateFieldNumberE
000000000008c9f0 (__TEXT,__const) external __ZN3awd7metrics27LocationVisibilityAssertion30kInvalidationReasonFieldNumberE
000000000008c9e0 (__TEXT,__const) external __ZN3awd7metrics27LocationVisibilityAssertion31kStartedInBackgroundFieldNumberE
000000000008c9e4 (__TEXT,__const) external __ZN3awd7metrics27LocationVisibilityAssertion31kStoppedInBackgroundFieldNumberE
000000000008c9ec (__TEXT,__const) external __ZN3awd7metrics27LocationVisibilityAssertion32kEverHiddenBySettingsFieldNumberE
000000000005c658 (__TEXT,__text) external __ZN3awd7metrics27LocationVisibilityAssertion4SwapEPS1_
000000000005be98 (__TEXT,__text) external __ZN3awd7metrics27LocationVisibilityAssertion5ClearEv
000000000005c628 (__TEXT,__text) external __ZN3awd7metrics27LocationVisibilityAssertion8CopyFromERKS1_
000000000005bbcc (__TEXT,__text) external __ZN3awd7metrics27LocationVisibilityAssertion9MergeFromERKS1_
000000000008a53a (__TEXT,__text) non-external __ZN3awd7metrics27LocationVisibilityAssertion9MergeFromERKS1_.cold.1
000000000008a55d (__TEXT,__text) non-external __ZN3awd7metrics27LocationVisibilityAssertion9MergeFromERKS1_.cold.2
000000000008c9c0 (__TEXT,__const) external __ZN3awd7metrics27LocationVisibilityAssertion9RequestedE
000000000005bd4c (__TEXT,__text) external __ZN3awd7metrics27LocationVisibilityAssertionC1ERKS1_
00000000000035f8 (__TEXT,__text) external __ZN3awd7metrics27LocationVisibilityAssertionC1Ev
000000000005bb78 (__TEXT,__text) external __ZN3awd7metrics27LocationVisibilityAssertionC2ERKS1_
000000000005bb1a (__TEXT,__text) external __ZN3awd7metrics27LocationVisibilityAssertionC2Ev
000000000005bdee (__TEXT,__text) external __ZN3awd7metrics27LocationVisibilityAssertionD0Ev
000000000005bdc8 (__TEXT,__text) external __ZN3awd7metrics27LocationVisibilityAssertionD1Ev
000000000005bd56 (__TEXT,__text) external __ZN3awd7metrics27LocationVisibilityAssertionD2Ev
0000000000068ef8 (__TEXT,__text) external __ZN3awd7metrics28LocationAccessory_Coordinate10SharedCtorEv
000000000006901a (__TEXT,__text) external __ZN3awd7metrics28LocationAccessory_Coordinate10SharedDtorEv
000000000006906e (__TEXT,__text) external __ZN3awd7metrics28LocationAccessory_Coordinate16default_instanceEv
000000000009d2d8 (__DATA_DIRTY,__common) external __ZN3awd7metrics28LocationAccessory_Coordinate17default_instance_E
000000000006926e (__TEXT,__text) external __ZN3awd7metrics28LocationAccessory_Coordinate21CheckTypeAndMergeFromERKN20wireless_diagnostics6google8protobuf11MessageLiteE
000000000008aab2 (__TEXT,__text) non-external __ZN3awd7metrics28LocationAccessory_Coordinate21CheckTypeAndMergeFromERKN20wireless_diagnostics6google8protobuf11MessageLiteE.cold.1
0000000000004010 (__TEXT,__text) external __ZN3awd7metrics28LocationAccessory_Coordinate21InitAsDefaultInstanceEv
000000000008ce00 (__TEXT,__const) external __ZN3awd7metrics28LocationAccessory_Coordinate25kLatitudeInDegFieldNumberE
000000000008ce04 (__TEXT,__const) external __ZN3awd7metrics28LocationAccessory_Coordinate26kLongitudeInDegFieldNumberE
00000000000690dc (__TEXT,__text) external __ZN3awd7metrics28LocationAccessory_Coordinate27MergePartialFromCodedStreamEPN20wireless_diagnostics6google8protobuf2io16CodedInputStreamE
00000000000692dc (__TEXT,__text) external __ZN3awd7metrics28LocationAccessory_Coordinate4SwapEPS1_
00000000000690c2 (__TEXT,__text) external __ZN3awd7metrics28LocationAccessory_Coordinate5ClearEv
00000000000692ac (__TEXT,__text) external __ZN3awd7metrics28LocationAccessory_Coordinate8CopyFromERKS1_
0000000000068f4e (__TEXT,__text) external __ZN3awd7metrics28LocationAccessory_Coordinate9MergeFromERKS1_
0000000000068ffc (__TEXT,__text) external __ZN3awd7metrics28LocationAccessory_CoordinateC1ERKS1_
000000000000394c (__TEXT,__text) external __ZN3awd7metrics28LocationAccessory_CoordinateC1Ev
0000000000068f0e (__TEXT,__text) external __ZN3awd7metrics28LocationAccessory_CoordinateC2ERKS1_
0000000000068ed8 (__TEXT,__text) external __ZN3awd7metrics28LocationAccessory_CoordinateC2Ev
0000000000069034 (__TEXT,__text) external __ZN3awd7metrics28LocationAccessory_CoordinateD0Ev
0000000000069020 (__TEXT,__text) external __ZN3awd7metrics28LocationAccessory_CoordinateD1Ev
0000000000069006 (__TEXT,__text) external __ZN3awd7metrics28LocationAccessory_CoordinateD2Ev
00000000000681c0 (__TEXT,__text) external __ZN3awd7metrics28LocationAccessory_PASCDStats10SharedCtorEv
00000000000683c6 (__TEXT,__text) external __ZN3awd7metrics28LocationAccessory_PASCDStats10SharedDtorEv
0000000000068420 (__TEXT,__text) external __ZN3awd7metrics28LocationAccessory_PASCDStats16default_instanceEv
000000000009d2d0 (__DATA_DIRTY,__common) external __ZN3awd7metrics28LocationAccessory_PASCDStats17default_instance_E
0000000000068b86 (__TEXT,__text) external __ZN3awd7metrics28LocationAccessory_PASCDStats21CheckTypeAndMergeFromERKN20wireless_diagnostics6google8protobuf11MessageLiteE
000000000008aa8f (__TEXT,__text) non-external __ZN3awd7metrics28LocationAccessory_PASCDStats21CheckTypeAndMergeFromERKN20wireless_diagnostics6google8protobuf11MessageLiteE.cold.1
0000000000003fe4 (__TEXT,__text) external __ZN3awd7metrics28LocationAccessory_PASCDStats21InitAsDefaultInstanceEv
0000000000068506 (__TEXT,__text) external __ZN3awd7metrics28LocationAccessory_PASCDStats27MergePartialFromCodedStreamEPN20wireless_diagnostics6google8protobuf2io16CodedInputStreamE
000000000008cdf8 (__TEXT,__const) external __ZN3awd7metrics28LocationAccessory_PASCDStats27kRavenUsageStatsFieldNumberE
000000000008cdf4 (__TEXT,__const) external __ZN3awd7metrics28LocationAccessory_PASCDStats31kHistogramSampleSizeFieldNumberE
000000000008cdf0 (__TEXT,__const) external __ZN3awd7metrics28LocationAccessory_PASCDStats33kHistogramTransmissionFieldNumberE
000000000008cdfc (__TEXT,__const) external __ZN3awd7metrics28LocationAccessory_PASCDStats34kSlipDetectedEpochCountFieldNumberE
0000000000068e4c (__TEXT,__text) external __ZN3awd7metrics28LocationAccessory_PASCDStats4SwapEPS1_
000000000006847e (__TEXT,__text) external __ZN3awd7metrics28LocationAccessory_PASCDStats5ClearEv
0000000000068e1c (__TEXT,__text) external __ZN3awd7metrics28LocationAccessory_PASCDStats8CopyFromERKS1_
000000000006824a (__TEXT,__text) external __ZN3awd7metrics28LocationAccessory_PASCDStats9MergeFromERKS1_
0000000000068366 (__TEXT,__text) external __ZN3awd7metrics28LocationAccessory_PASCDStatsC1ERKS1_
0000000000003922 (__TEXT,__text) external __ZN3awd7metrics28LocationAccessory_PASCDStatsC1Ev
00000000000681d4 (__TEXT,__text) external __ZN3awd7metrics28LocationAccessory_PASCDStatsC2ERKS1_
0000000000068196 (__TEXT,__text) external __ZN3awd7metrics28LocationAccessory_PASCDStatsC2Ev
00000000000683f0 (__TEXT,__text) external __ZN3awd7metrics28LocationAccessory_PASCDStatsD0Ev
00000000000683e6 (__TEXT,__text) external __ZN3awd7metrics28LocationAccessory_PASCDStatsD1Ev
0000000000068370 (__TEXT,__text) external __ZN3awd7metrics28LocationAccessory_PASCDStatsD2Ev
000000000006199c (__TEXT,__text) external __ZN3awd7metrics28LocationAccessory_Statistics10SharedCtorEv
0000000000061b12 (__TEXT,__text) external __ZN3awd7metrics28LocationAccessory_Statistics10SharedDtorEv
000000000008cd48 (__TEXT,__const) external __ZN3awd7metrics28LocationAccessory_Statistics15kRmsFieldNumberE
000000000008cd4c (__TEXT,__const) external __ZN3awd7metrics28LocationAccessory_Statistics15kStdFieldNumberE
0000000000061b66 (__TEXT,__text) external __ZN3awd7metrics28LocationAccessory_Statistics16default_instanceEv
000000000009d260 (__DATA_DIRTY,__common) external __ZN3awd7metrics28LocationAccessory_Statistics17default_instance_E
000000000008cd50 (__TEXT,__const) external __ZN3awd7metrics28LocationAccessory_Statistics17kCountFieldNumberE
000000000008cd3c (__TEXT,__const) external __ZN3awd7metrics28LocationAccessory_Statistics19kAverageFieldNumberE
000000000008cd40 (__TEXT,__const) external __ZN3awd7metrics28LocationAccessory_Statistics19kMaximumFieldNumberE
000000000008cd44 (__TEXT,__const) external __ZN3awd7metrics28LocationAccessory_Statistics19kMinimumFieldNumberE
0000000000061fce (__TEXT,__text) external __ZN3awd7metrics28LocationAccessory_Statistics21CheckTypeAndMergeFromERKN20wireless_diagnostics6google8protobuf11MessageLiteE
000000000008a7d3 (__TEXT,__text) non-external __ZN3awd7metrics28LocationAccessory_Statistics21CheckTypeAndMergeFromERKN20wireless_diagnostics6google8protobuf11MessageLiteE.cold.1
0000000000003f02 (__TEXT,__text) external __ZN3awd7metrics28LocationAccessory_Statistics21InitAsDefaultInstanceEv
0000000000061bd8 (__TEXT,__text) external __ZN3awd7metrics28LocationAccessory_Statistics27MergePartialFromCodedStreamEPN20wireless_diagnostics6google8protobuf2io16CodedInputStreamE
000000000006203c (__TEXT,__text) external __ZN3awd7metrics28LocationAccessory_Statistics4SwapEPS1_
0000000000061bb6 (__TEXT,__text) external __ZN3awd7metrics28LocationAccessory_Statistics5ClearEv
000000000006200c (__TEXT,__text) external __ZN3awd7metrics28LocationAccessory_Statistics8CopyFromERKS1_
00000000000619ea (__TEXT,__text) external __ZN3awd7metrics28LocationAccessory_Statistics9MergeFromERKS1_
0000000000061af4 (__TEXT,__text) external __ZN3awd7metrics28LocationAccessory_StatisticsC1ERKS1_
000000000000375c (__TEXT,__text) external __ZN3awd7metrics28LocationAccessory_StatisticsC1Ev
00000000000619ae (__TEXT,__text) external __ZN3awd7metrics28LocationAccessory_StatisticsC2ERKS1_
0000000000061980 (__TEXT,__text) external __ZN3awd7metrics28LocationAccessory_StatisticsC2Ev
0000000000061b2c (__TEXT,__text) external __ZN3awd7metrics28LocationAccessory_StatisticsD0Ev
0000000000061b18 (__TEXT,__text) external __ZN3awd7metrics28LocationAccessory_StatisticsD1Ev
0000000000061afe (__TEXT,__text) external __ZN3awd7metrics28LocationAccessory_StatisticsD2Ev
000000000004246e (__TEXT,__text) external __ZN3awd7metrics28LocationBeaconMonitorSession10SharedCtorEv
0000000000042702 (__TEXT,__text) external __ZN3awd7metrics28LocationBeaconMonitorSession10SharedDtorEv
00000000000427fa (__TEXT,__text) external __ZN3awd7metrics28LocationBeaconMonitorSession16default_instanceEv
000000000009d140 (__DATA_DIRTY,__common) external __ZN3awd7metrics28LocationBeaconMonitorSession17default_instance_E
000000000008c38c (__TEXT,__const) external __ZN3awd7metrics28LocationBeaconMonitorSession20kBundleIdFieldNumberE
000000000004320a (__TEXT,__text) external __ZN3awd7metrics28LocationBeaconMonitorSession21CheckTypeAndMergeFromERKN20wireless_diagnostics6google8protobuf11MessageLiteE
0000000000089f7c (__TEXT,__text) non-external __ZN3awd7metrics28LocationBeaconMonitorSession21CheckTypeAndMergeFromERKN20wireless_diagnostics6google8protobuf11MessageLiteE.cold.1
0000000000003b76 (__TEXT,__text) external __ZN3awd7metrics28LocationBeaconMonitorSession21InitAsDefaultInstanceEv
000000000008c388 (__TEXT,__const) external __ZN3awd7metrics28LocationBeaconMonitorSession21kTimestampFieldNumberE
000000000008c394 (__TEXT,__const) external __ZN3awd7metrics28LocationBeaconMonitorSession24kAddedRegionsFieldNumberE
000000000008c3a4 (__TEXT,__const) external __ZN3awd7metrics28LocationBeaconMonitorSession26kRemovedRegionsFieldNumberE
0000000000042900 (__TEXT,__text) external __ZN3awd7metrics28LocationBeaconMonitorSession27MergePartialFromCodedStreamEPN20wireless_diagnostics6google8protobuf2io16CodedInputStreamE
000000000008c398 (__TEXT,__const) external __ZN3awd7metrics28LocationBeaconMonitorSession27kAddedWildCardedFieldNumberE
000000000008c390 (__TEXT,__const) external __ZN3awd7metrics28LocationBeaconMonitorSession28kOnBehalfBundleIdFieldNumberE
000000000008c3a8 (__TEXT,__const) external __ZN3awd7metrics28LocationBeaconMonitorSession29kRemovedWildCardedFieldNumberE
000000000008c3a0 (__TEXT,__const) external __ZN3awd7metrics28LocationBeaconMonitorSession34kAddedConservativeEntryFieldNumberE
000000000008c39c (__TEXT,__const) external __ZN3awd7metrics28LocationBeaconMonitorSession36kAddedEntryStateOnDisplayFieldNumberE
000000000008c3b0 (__TEXT,__const) external __ZN3awd7metrics28LocationBeaconMonitorSession36kRemovedConservativeEntryFieldNumberE
000000000008c3ac (__TEXT,__const) external __ZN3awd7metrics28LocationBeaconMonitorSession38kRemovedEntryStateOnDisplayFieldNumberE
0000000000043278 (__TEXT,__text) external __ZN3awd7metrics28LocationBeaconMonitorSession4SwapEPS1_
0000000000042862 (__TEXT,__text) external __ZN3awd7metrics28LocationBeaconMonitorSession5ClearEv
0000000000043248 (__TEXT,__text) external __ZN3awd7metrics28LocationBeaconMonitorSession8CopyFromERKS1_
00000000000424ee (__TEXT,__text) external __ZN3awd7metrics28LocationBeaconMonitorSession9MergeFromERKS1_
00000000000426d2 (__TEXT,__text) external __ZN3awd7metrics28LocationBeaconMonitorSessionC1ERKS1_
0000000000003246 (__TEXT,__text) external __ZN3awd7metrics28LocationBeaconMonitorSessionC1Ev
0000000000042498 (__TEXT,__text) external __ZN3awd7metrics28LocationBeaconMonitorSessionC2ERKS1_
000000000004243a (__TEXT,__text) external __ZN3awd7metrics28LocationBeaconMonitorSessionC2Ev
00000000000427b8 (__TEXT,__text) external __ZN3awd7metrics28LocationBeaconMonitorSessionD0Ev
0000000000042792 (__TEXT,__text) external __ZN3awd7metrics28LocationBeaconMonitorSessionD1Ev
00000000000426dc (__TEXT,__text) external __ZN3awd7metrics28LocationBeaconMonitorSessionD2Ev
0000000000043380 (__TEXT,__text) external __ZN3awd7metrics28LocationBeaconMonitorTrigger10SharedCtorEv
00000000000435a8 (__TEXT,__text) external __ZN3awd7metrics28LocationBeaconMonitorTrigger10SharedDtorEv
00000000000436a0 (__TEXT,__text) external __ZN3awd7metrics28LocationBeaconMonitorTrigger16default_instanceEv
000000000009d148 (__DATA_DIRTY,__common) external __ZN3awd7metrics28LocationBeaconMonitorTrigger17default_instance_E
000000000008c3b8 (__TEXT,__const) external __ZN3awd7metrics28LocationBeaconMonitorTrigger20kBundleIdFieldNumberE
0000000000043db6 (__TEXT,__text) external __ZN3awd7metrics28LocationBeaconMonitorTrigger21CheckTypeAndMergeFromERKN20wireless_diagnostics6google8protobuf11MessageLiteE
0000000000089f9f (__TEXT,__text) non-external __ZN3awd7metrics28LocationBeaconMonitorTrigger21CheckTypeAndMergeFromERKN20wireless_diagnostics6google8protobuf11MessageLiteE.cold.1
0000000000003b7c (__TEXT,__text) external __ZN3awd7metrics28LocationBeaconMonitorTrigger21InitAsDefaultInstanceEv
000000000008c3c0 (__TEXT,__const) external __ZN3awd7metrics28LocationBeaconMonitorTrigger21kEventTypeFieldNumberE
000000000008c3b4 (__TEXT,__const) external __ZN3awd7metrics28LocationBeaconMonitorTrigger21kTimestampFieldNumberE
000000000008c3c4 (__TEXT,__const) external __ZN3awd7metrics28LocationBeaconMonitorTrigger22kRegionmaskFieldNumberE
0000000000043782 (__TEXT,__text) external __ZN3awd7metrics28LocationBeaconMonitorTrigger27MergePartialFromCodedStreamEPN20wireless_diagnostics6google8protobuf2io16CodedInputStreamE
000000000008c3bc (__TEXT,__const) external __ZN3awd7metrics28LocationBeaconMonitorTrigger28kOnBehalfBundleIdFieldNumberE
000000000008c3cc (__TEXT,__const) external __ZN3awd7metrics28LocationBeaconMonitorTrigger32kMonitoredZonesDeviceFieldNumberE
000000000008c3c8 (__TEXT,__const) external __ZN3awd7metrics28LocationBeaconMonitorTrigger34kMonitoredRegionsClientFieldNumberE
0000000000043e24 (__TEXT,__text) external __ZN3awd7metrics28LocationBeaconMonitorTrigger4SwapEPS1_
0000000000043704 (__TEXT,__text) external __ZN3awd7metrics28LocationBeaconMonitorTrigger5ClearEv
0000000000043df4 (__TEXT,__text) external __ZN3awd7metrics28LocationBeaconMonitorTrigger8CopyFromERKS1_
00000000000433f8 (__TEXT,__text) external __ZN3awd7metrics28LocationBeaconMonitorTrigger9MergeFromERKS1_
0000000000043578 (__TEXT,__text) external __ZN3awd7metrics28LocationBeaconMonitorTriggerC1ERKS1_
000000000000327a (__TEXT,__text) external __ZN3awd7metrics28LocationBeaconMonitorTriggerC1Ev
00000000000433a6 (__TEXT,__text) external __ZN3awd7metrics28LocationBeaconMonitorTriggerC2ERKS1_
0000000000043350 (__TEXT,__text) external __ZN3awd7metrics28LocationBeaconMonitorTriggerC2Ev
000000000004365e (__TEXT,__text) external __ZN3awd7metrics28LocationBeaconMonitorTriggerD0Ev
0000000000043638 (__TEXT,__text) external __ZN3awd7metrics28LocationBeaconMonitorTriggerD1Ev
0000000000043582 (__TEXT,__text) external __ZN3awd7metrics28LocationBeaconMonitorTriggerD2Ev
0000000000043ef8 (__TEXT,__text) external __ZN3awd7metrics28LocationBeaconRangingSession10SharedCtorEv
0000000000044142 (__TEXT,__text) external __ZN3awd7metrics28LocationBeaconRangingSession10SharedDtorEv
00000000000441c8 (__TEXT,__text) external __ZN3awd7metrics28LocationBeaconRangingSession16default_instanceEv
000000000009d150 (__DATA_DIRTY,__common) external __ZN3awd7metrics28LocationBeaconRangingSession17default_instance_E
000000000008c3d4 (__TEXT,__const) external __ZN3awd7metrics28LocationBeaconRangingSession20kBundleIdFieldNumberE
0000000000044b30 (__TEXT,__text) external __ZN3awd7metrics28LocationBeaconRangingSession21CheckTypeAndMergeFromERKN20wireless_diagnostics6google8protobuf11MessageLiteE
0000000000089fc2 (__TEXT,__text) non-external __ZN3awd7metrics28LocationBeaconRangingSession21CheckTypeAndMergeFromERKN20wireless_diagnostics6google8protobuf11MessageLiteE.cold.1
0000000000003b82 (__TEXT,__text) external __ZN3awd7metrics28LocationBeaconRangingSession21InitAsDefaultInstanceEv
000000000008c3e8 (__TEXT,__const) external __ZN3awd7metrics28LocationBeaconRangingSession21kRssiTraceFieldNumberE
000000000008c3d0 (__TEXT,__const) external __ZN3awd7metrics28LocationBeaconRangingSession21kTimestampFieldNumberE
000000000008c3e4 (__TEXT,__const) external __ZN3awd7metrics28LocationBeaconRangingSession25kRangedRegionsFieldNumberE
000000000008c3dc (__TEXT,__const) external __ZN3awd7metrics28LocationBeaconRangingSession26kRangingBeaconsFieldNumberE
000000000004427e (__TEXT,__text) external __ZN3awd7metrics28LocationBeaconRangingSession27MergePartialFromCodedStreamEPN20wireless_diagnostics6google8protobuf2io16CodedInputStreamE
000000000008c3e0 (__TEXT,__const) external __ZN3awd7metrics28LocationBeaconRangingSession27kRangingDurationFieldNumberE
000000000008c3d8 (__TEXT,__const) external __ZN3awd7metrics28LocationBeaconRangingSession31kRangingMeasurementsFieldNumberE
0000000000044b9e (__TEXT,__text) external __ZN3awd7metrics28LocationBeaconRangingSession4SwapEPS1_
000000000004422c (__TEXT,__text) external __ZN3awd7metrics28LocationBeaconRangingSession5ClearEv
0000000000044b6e (__TEXT,__text) external __ZN3awd7metrics28LocationBeaconRangingSession8CopyFromERKS1_
0000000000043f90 (__TEXT,__text) external __ZN3awd7metrics28LocationBeaconRangingSession9MergeFromERKS1_
00000000000440fa (__TEXT,__text) external __ZN3awd7metrics28LocationBeaconRangingSessionC1ERKS1_
00000000000032aa (__TEXT,__text) external __ZN3awd7metrics28LocationBeaconRangingSessionC1Ev
0000000000043f1a (__TEXT,__text) external __ZN3awd7metrics28LocationBeaconRangingSessionC2ERKS1_
0000000000043ec8 (__TEXT,__text) external __ZN3awd7metrics28LocationBeaconRangingSessionC2Ev
0000000000044198 (__TEXT,__text) external __ZN3awd7metrics28LocationBeaconRangingSessionD0Ev
000000000004418e (__TEXT,__text) external __ZN3awd7metrics28LocationBeaconRangingSessionD1Ev
0000000000044104 (__TEXT,__text) external __ZN3awd7metrics28LocationBeaconRangingSessionD2Ev
000000000004baea (__TEXT,__text) external __ZN3awd7metrics28LocationGPSSessionStatistics10SharedCtorEv
000000000004d4ca (__TEXT,__text) external __ZN3awd7metrics28LocationGPSSessionStatistics10SharedDtorEv
000000000008c834 (__TEXT,__const) external __ZN3awd7metrics28LocationGPSSessionStatistics15kMccFieldNumberE
000000000008c838 (__TEXT,__const) external __ZN3awd7metrics28LocationGPSSessionStatistics15kMncFieldNumberE
000000000008c840 (__TEXT,__const) external __ZN3awd7metrics28LocationGPSSessionStatistics15kNidFieldNumberE
000000000008c83c (__TEXT,__const) external __ZN3awd7metrics28LocationGPSSessionStatistics15kSidFieldNumberE
000000000004d580 (__TEXT,__text) external __ZN3awd7metrics28LocationGPSSessionStatistics16default_instanceEv
000000000008c7a0 (__TEXT,__const) external __ZN3awd7metrics28LocationGPSSessionStatistics16kTtffFieldNumberE
000000000009d158 (__DATA_DIRTY,__common) external __ZN3awd7metrics28LocationGPSSessionStatistics17default_instance_E
000000000008c538 (__TEXT,__const) external __ZN3awd7metrics28LocationGPSSessionStatistics18PowerStateType_MAXE
000000000008c534 (__TEXT,__const) external __ZN3awd7metrics28LocationGPSSessionStatistics18PowerStateType_MINE
000000000008c51c (__TEXT,__const) external __ZN3awd7metrics28LocationGPSSessionStatistics19MovingStateType_MAXE
000000000008c518 (__TEXT,__const) external __ZN3awd7metrics28LocationGPSSessionStatistics19MovingStateType_MINE
000000000008c500 (__TEXT,__const) external __ZN3awd7metrics28LocationGPSSessionStatistics20MountedStateType_MAXE
000000000008c4fc (__TEXT,__const) external __ZN3awd7metrics28LocationGPSSessionStatistics20MountedStateType_MINE
000000000008c77c (__TEXT,__const) external __ZN3awd7metrics28LocationGPSSessionStatistics20kBundleidFieldNumberE
000000000008c784 (__TEXT,__const) external __ZN3awd7metrics28LocationGPSSessionStatistics20kPctYieldFieldNumberE
00000000000572e0 (__TEXT,__text) external __ZN3awd7metrics28LocationGPSSessionStatistics21CheckTypeAndMergeFromERKN20wireless_diagnostics6google8protobuf11MessageLiteE
000000000008a468 (__TEXT,__text) non-external __ZN3awd7metrics28LocationGPSSessionStatistics21CheckTypeAndMergeFromERKN20wireless_diagnostics6google8protobuf11MessageLiteE.cold.1
0000000000003b88 (__TEXT,__text) external __ZN3awd7metrics28LocationGPSSessionStatistics21InitAsDefaultInstanceEv
000000000008c778 (__TEXT,__const) external __ZN3awd7metrics28LocationGPSSessionStatistics21kTimestampFieldNumberE
000000000008c4c0 (__TEXT,__const) external __ZN3awd7metrics28LocationGPSSessionStatistics22MotionActivityType_MAXE
000000000008c4bc (__TEXT,__const) external __ZN3awd7metrics28LocationGPSSessionStatistics22MotionActivityType_MINE
000000000008c8c0 (__TEXT,__const) external __ZN3awd7metrics28LocationGPSSessionStatistics22kEpochCountFieldNumberE
000000000008c514 (__TEXT,__const) external __ZN3awd7metrics28LocationGPSSessionStatistics22kMovingStateTypeFrozenE
000000000008c510 (__TEXT,__const) external __ZN3awd7metrics28LocationGPSSessionStatistics22kMovingStateTypeMovingE
000000000008c788 (__TEXT,__const) external __ZN3awd7metrics28LocationGPSSessionStatistics22kYieldCountFieldNumberE
000000000008c8c4 (__TEXT,__const) external __ZN3awd7metrics28LocationGPSSessionStatistics23kIsEmergencyFieldNumberE
000000000008c53c (__TEXT,__const) external __ZN3awd7metrics28LocationGPSSessionStatistics24PowerStateType_ARRAYSIZEE
000000000008c42c (__TEXT,__const) external __ZN3awd7metrics28LocationGPSSessionStatistics24UncertaintyRangeType_MAXE
000000000008c428 (__TEXT,__const) external __ZN3awd7metrics28LocationGPSSessionStatistics24UncertaintyRangeType_MINE
000000000008c938 (__TEXT,__const) external __ZN3awd7metrics28LocationGPSSessionStatistics24kHistCn0BdsNsFieldNumberE
000000000008c930 (__TEXT,__const) external __ZN3awd7metrics28LocationGPSSessionStatistics24kHistCn0GalNsFieldNumberE
000000000008c92c (__TEXT,__const) external __ZN3awd7metrics28LocationGPSSessionStatistics24kHistCn0GpsNsFieldNumberE
000000000008c4f4 (__TEXT,__const) external __ZN3awd7metrics28LocationGPSSessionStatistics24kMountedStateTypeMountedE
000000000008c85c (__TEXT,__const) external __ZN3awd7metrics28LocationGPSSessionStatistics24kOrbitFileAgeFieldNumberE
000000000008c844 (__TEXT,__const) external __ZN3awd7metrics28LocationGPSSessionStatistics24kRATOccupancyFieldNumberE
000000000008c8a4 (__TEXT,__const) external __ZN3awd7metrics28LocationGPSSessionStatistics24kRtiUsedCountFieldNumberE
000000000008c3ec (__TEXT,__const) external __ZN3awd7metrics28LocationGPSSessionStatistics24kUncertaintyRangeInvalidE
000000000008c40c (__TEXT,__const) external __ZN3awd7metrics28LocationGPSSessionStatistics24kUncertaintyRangeType0_5E
000000000008c5a0 (__TEXT,__const) external __ZN3awd7metrics28LocationGPSSessionStatistics25DeviceOrientationType_MAXE
000000000008c59c (__TEXT,__const) external __ZN3awd7metrics28LocationGPSSessionStatistics25DeviceOrientationType_MINE
000000000008c520 (__TEXT,__const) external __ZN3awd7metrics28LocationGPSSessionStatistics25MovingStateType_ARRAYSIZEE
000000000008c670 (__TEXT,__const) external __ZN3awd7metrics28LocationGPSSessionStatistics25PowerMeasurementRange_MAXE
000000000008c66c (__TEXT,__const) external __ZN3awd7metrics28LocationGPSSessionStatistics25PowerMeasurementRange_MINE
000000000008c578 (__TEXT,__const) external __ZN3awd7metrics28LocationGPSSessionStatistics25RadioAccessTechnology_MAXE
000000000008c574 (__TEXT,__const) external __ZN3awd7metrics28LocationGPSSessionStatistics25RadioAccessTechnology_MINE
000000000008c464 (__TEXT,__const) external __ZN3awd7metrics28LocationGPSSessionStatistics25SatelliteCNORangeType_MAXE
000000000008c460 (__TEXT,__const) external __ZN3awd7metrics28LocationGPSSessionStatistics25SatelliteCNORangeType_MINE
000000000008c4e8 (__TEXT,__const) external __ZN3awd7metrics28LocationGPSSessionStatistics25SignalEnvironmentType_MAXE
000000000008c4e4 (__TEXT,__const) external __ZN3awd7metrics28LocationGPSSessionStatistics25SignalEnvironmentType_MINE
000000000008c934 (__TEXT,__const) external __ZN3awd7metrics28LocationGPSSessionStatistics25kHistCn0QzssNsFieldNumberE
000000000008c49c (__TEXT,__const) external __ZN3awd7metrics28LocationGPSSessionStatistics25kMotionActivityTypeMovingE
000000000008c50c (__TEXT,__const) external __ZN3awd7metrics28LocationGPSSessionStatistics25kMovingStateTypeNotMovingE
000000000008c5f0 (__TEXT,__const) external __ZN3awd7metrics28LocationGPSSessionStatistics25kPowerMeasurementRange0_5E
000000000008c528 (__TEXT,__const) external __ZN3awd7metrics28LocationGPSSessionStatistics25kPowerStateTypeDutyCycledE
000000000008c544 (__TEXT,__const) external __ZN3awd7metrics28LocationGPSSessionStatistics25kRadioAccessTechnologyGSME
000000000008c55c (__TEXT,__const) external __ZN3awd7metrics28LocationGPSSessionStatistics25kRadioAccessTechnologyLTEE
000000000008c570 (__TEXT,__const) external __ZN3awd7metrics28LocationGPSSessionStatistics25kRadioAccessTechnologyNWTE
000000000008c46c (__TEXT,__const) external __ZN3awd7metrics28LocationGPSSessionStatistics25kSatelliteCountRangeType0E
000000000008c470 (__TEXT,__const) external __ZN3awd7metrics28LocationGPSSessionStatistics25kSatelliteCountRangeType1E
000000000008c474 (__TEXT,__const) external __ZN3awd7metrics28LocationGPSSessionStatistics25kSatelliteCountRangeType2E
000000000008c478 (__TEXT,__const) external __ZN3awd7metrics28LocationGPSSessionStatistics25kSatelliteCountRangeType3E
000000000008c47c (__TEXT,__const) external __ZN3awd7metrics28LocationGPSSessionStatistics25kSatelliteCountRangeType4E
000000000008c3f0 (__TEXT,__const) external __ZN3awd7metrics28LocationGPSSessionStatistics25kUncertaintyRangeType0_20E
000000000008c410 (__TEXT,__const) external __ZN3awd7metrics28LocationGPSSessionStatistics25kUncertaintyRangeType5_10E
000000000008c504 (__TEXT,__const) external __ZN3awd7metrics28LocationGPSSessionStatistics26MountedStateType_ARRAYSIZEE
000000000008c864 (__TEXT,__const) external __ZN3awd7metrics28LocationGPSSessionStatistics26kDisplayOnCountFieldNumberE
000000000008c7d0 (__TEXT,__const) external __ZN3awd7metrics28LocationGPSSessionStatistics26kHistMountStateFieldNumberE
000000000008c860 (__TEXT,__const) external __ZN3awd7metrics28LocationGPSSessionStatistics26kHistPowerStateFieldNumberE
000000000008c4a8 (__TEXT,__const) external __ZN3awd7metrics28LocationGPSSessionStatistics26kMotionActivityTypeCyclingE
000000000008c4a4 (__TEXT,__const) external __ZN3awd7metrics28LocationGPSSessionStatistics26kMotionActivityTypeDrivingE
000000000008c4ac (__TEXT,__const) external __ZN3awd7metrics28LocationGPSSessionStatistics26kMotionActivityTypeRunningE
000000000008c498 (__TEXT,__const) external __ZN3awd7metrics28LocationGPSSessionStatistics26kMotionActivityTypeUnknownE
000000000008c4a0 (__TEXT,__const) external __ZN3awd7metrics28LocationGPSSessionStatistics26kMotionActivityTypeWalkingE
000000000008c4f8 (__TEXT,__const) external __ZN3awd7metrics28LocationGPSSessionStatistics26kMountedStateTypeUnmountedE
000000000008c5f4 (__TEXT,__const) external __ZN3awd7metrics28LocationGPSSessionStatistics26kPowerMeasurementRange5_10E
000000000008c530 (__TEXT,__const) external __ZN3awd7metrics28LocationGPSSessionStatistics26kPowerStateTypeAcquisitionE
000000000008c524 (__TEXT,__const) external __ZN3awd7metrics28LocationGPSSessionStatistics26kPowerStateTypeUnavailableE
000000000008c564 (__TEXT,__const) external __ZN3awd7metrics28LocationGPSSessionStatistics26kRadioAccessTechnologyHRPDE
000000000008c560 (__TEXT,__const) external __ZN3awd7metrics28LocationGPSSessionStatistics26kRadioAccessTechnologyUMTSE
000000000008c56c (__TEXT,__const) external __ZN3awd7metrics28LocationGPSSessionStatistics26kRadioAccessTechnologyWiFiE
000000000008c868 (__TEXT,__const) external __ZN3awd7metrics28LocationGPSSessionStatistics26kReachableCountFieldNumberE
000000000008c43c (__TEXT,__const) external __ZN3awd7metrics28LocationGPSSessionStatistics26kSatelliteCNORangeType0_16E
000000000008c84c (__TEXT,__const) external __ZN3awd7metrics28LocationGPSSessionStatistics26kTransmissionBWFieldNumberE
000000000008c414 (__TEXT,__const) external __ZN3awd7metrics28LocationGPSSessionStatistics26kUncertaintyRangeType10_15E
000000000008c418 (__TEXT,__const) external __ZN3awd7metrics28LocationGPSSessionStatistics26kUncertaintyRangeType15_20E
000000000008c41c (__TEXT,__const) external __ZN3awd7metrics28LocationGPSSessionStatistics26kUncertaintyRangeType20_30E
000000000008c3f4 (__TEXT,__const) external __ZN3awd7metrics28LocationGPSSessionStatistics26kUncertaintyRangeType20_50E
000000000008c420 (__TEXT,__const) external __ZN3awd7metrics28LocationGPSSessionStatistics26kUncertaintyRangeType30_40E
000000000008c424 (__TEXT,__const) external __ZN3awd7metrics28LocationGPSSessionStatistics26kUncertaintyRangeType40_50E
000000000004dfa4 (__TEXT,__text) external __ZN3awd7metrics28LocationGPSSessionStatistics27MergePartialFromCodedStreamEPN20wireless_diagnostics6google8protobuf2io16CodedInputStreamE
000000000008c490 (__TEXT,__const) external __ZN3awd7metrics28LocationGPSSessionStatistics27SatelliteCountRangeType_MAXE
000000000008c48c (__TEXT,__const) external __ZN3awd7metrics28LocationGPSSessionStatistics27SatelliteCountRangeType_MINE
000000000008c918 (__TEXT,__const) external __ZN3awd7metrics28LocationGPSSessionStatistics27kHistChargerTypeFieldNumberE
000000000008c4b8 (__TEXT,__const) external __ZN3awd7metrics28LocationGPSSessionStatistics27kMotionActivityTypeAirborneE
000000000008c4b0 (__TEXT,__const) external __ZN3awd7metrics28LocationGPSSessionStatistics27kMotionActivityTypeSwimmingE
000000000008c508 (__TEXT,__const) external __ZN3awd7metrics28LocationGPSSessionStatistics27kMovingStateTypeUnavailableE
000000000008c5f8 (__TEXT,__const) external __ZN3awd7metrics28LocationGPSSessionStatistics27kPowerMeasurementRange10_15E
000000000008c5fc (__TEXT,__const) external __ZN3awd7metrics28LocationGPSSessionStatistics27kPowerMeasurementRange15_20E
000000000008c600 (__TEXT,__const) external __ZN3awd7metrics28LocationGPSSessionStatistics27kPowerMeasurementRange20_25E
000000000008c604 (__TEXT,__const) external __ZN3awd7metrics28LocationGPSSessionStatistics27kPowerMeasurementRange25_30E
000000000008c608 (__TEXT,__const) external __ZN3awd7metrics28LocationGPSSessionStatistics27kPowerMeasurementRange30_35E
000000000008c60c (__TEXT,__const) external __ZN3awd7metrics28LocationGPSSessionStatistics27kPowerMeasurementRange35_40E
000000000008c610 (__TEXT,__const) external __ZN3awd7metrics28LocationGPSSessionStatistics27kPowerMeasurementRange40_45E
000000000008c614 (__TEXT,__const) external __ZN3awd7metrics28LocationGPSSessionStatistics27kPowerMeasurementRange45_50E
000000000008c618 (__TEXT,__const) external __ZN3awd7metrics28LocationGPSSessionStatistics27kPowerMeasurementRange50_55E
000000000008c61c (__TEXT,__const) external __ZN3awd7metrics28LocationGPSSessionStatistics27kPowerMeasurementRange55_60E
000000000008c620 (__TEXT,__const) external __ZN3awd7metrics28LocationGPSSessionStatistics27kPowerMeasurementRange60_65E
000000000008c624 (__TEXT,__const) external __ZN3awd7metrics28LocationGPSSessionStatistics27kPowerMeasurementRange65_70E
000000000008c628 (__TEXT,__const) external __ZN3awd7metrics28LocationGPSSessionStatistics27kPowerMeasurementRange70_75E
000000000008c62c (__TEXT,__const) external __ZN3awd7metrics28LocationGPSSessionStatistics27kPowerMeasurementRange75_80E
000000000008c630 (__TEXT,__const) external __ZN3awd7metrics28LocationGPSSessionStatistics27kPowerMeasurementRange80_85E
000000000008c634 (__TEXT,__const) external __ZN3awd7metrics28LocationGPSSessionStatistics27kPowerMeasurementRange85_90E
000000000008c638 (__TEXT,__const) external __ZN3awd7metrics28LocationGPSSessionStatistics27kPowerMeasurementRange90_95E
000000000008c52c (__TEXT,__const) external __ZN3awd7metrics28LocationGPSSessionStatistics27kPowerStateTypeFullTrackingE
000000000008c568 (__TEXT,__const) external __ZN3awd7metrics28LocationGPSSessionStatistics27kRadioAccessTechnologySCDMAE
000000000008c54c (__TEXT,__const) external __ZN3awd7metrics28LocationGPSSessionStatistics27kRadioAccessTechnologyUTRANE
000000000008c8b8 (__TEXT,__const) external __ZN3awd7metrics28LocationGPSSessionStatistics27kRtiFileChecksumFieldNumberE
000000000008c440 (__TEXT,__const) external __ZN3awd7metrics28LocationGPSSessionStatistics27kSatelliteCNORangeType16_20E
000000000008c444 (__TEXT,__const) external __ZN3awd7metrics28LocationGPSSessionStatistics27kSatelliteCNORangeType20_24E
000000000008c448 (__TEXT,__const) external __ZN3awd7metrics28LocationGPSSessionStatistics27kSatelliteCNORangeType24_28E
000000000008c44c (__TEXT,__const) external __ZN3awd7metrics28LocationGPSSessionStatistics27kSatelliteCNORangeType28_32E
000000000008c450 (__TEXT,__const) external __ZN3awd7metrics28LocationGPSSessionStatistics27kSatelliteCNORangeType32_36E
000000000008c454 (__TEXT,__const) external __ZN3awd7metrics28LocationGPSSessionStatistics27kSatelliteCNORangeType36_40E
000000000008c458 (__TEXT,__const) external __ZN3awd7metrics28LocationGPSSessionStatistics27kSatelliteCNORangeType40_44E
000000000008c480 (__TEXT,__const) external __ZN3awd7metrics28LocationGPSSessionStatistics27kSatelliteCountRangeType5_8E
000000000008c780 (__TEXT,__const) external __ZN3awd7metrics28LocationGPSSessionStatistics27kSessionDurationFieldNumberE
000000000008c4cc (__TEXT,__const) external __ZN3awd7metrics28LocationGPSSessionStatistics27kSignalEnvironmentTypeRuralE
000000000008c4d0 (__TEXT,__const) external __ZN3awd7metrics28LocationGPSSessionStatistics27kSignalEnvironmentTypeUrbanE
000000000008c3f8 (__TEXT,__const) external __ZN3awd7metrics28LocationGPSSessionStatistics27kUncertaintyRangeType50_100E
000000000008c4c4 (__TEXT,__const) external __ZN3awd7metrics28LocationGPSSessionStatistics28MotionActivityType_ARRAYSIZEE
000000000008c594 (__TEXT,__const) external __ZN3awd7metrics28LocationGPSSessionStatistics28kDeviceOrientationTypeFaceUpE
000000000008c928 (__TEXT,__const) external __ZN3awd7metrics28LocationGPSSessionStatistics28kHistNsOnOffStateFieldNumberE
000000000008c91c (__TEXT,__const) external __ZN3awd7metrics28LocationGPSSessionStatistics28kHistThermalLevelFieldNumberE
000000000008c4f0 (__TEXT,__const) external __ZN3awd7metrics28LocationGPSSessionStatistics28kMountedStateTypeUnavailableE
000000000008c63c (__TEXT,__const) external __ZN3awd7metrics28LocationGPSSessionStatistics28kPowerMeasurementRange95_100E
000000000008c550 (__TEXT,__const) external __ZN3awd7metrics28LocationGPSSessionStatistics28kRadioAccessTechnologyCDMA1xE
000000000008c888 (__TEXT,__const) external __ZN3awd7metrics28LocationGPSSessionStatistics28kRtiProvidedCountFieldNumberE
000000000008c484 (__TEXT,__const) external __ZN3awd7metrics28LocationGPSSessionStatistics28kSatelliteCountRangeType9_12E
000000000008c4e0 (__TEXT,__const) external __ZN3awd7metrics28LocationGPSSessionStatistics28kSignalEnvironmentTypeMarineE
000000000008c3fc (__TEXT,__const) external __ZN3awd7metrics28LocationGPSSessionStatistics28kUncertaintyRangeType100_200E
000000000008c400 (__TEXT,__const) external __ZN3awd7metrics28LocationGPSSessionStatistics28kUncertaintyRangeType200_400E
000000000008c820 (__TEXT,__const) external __ZN3awd7metrics28LocationGPSSessionStatistics29kGyroDataUsedCountFieldNumberE
000000000008c4b4 (__TEXT,__const) external __ZN3awd7metrics28LocationGPSSessionStatistics29kMotionActivityTypeWheelchairE
000000000008c640 (__TEXT,__const) external __ZN3awd7metrics28LocationGPSSessionStatistics29kPowerMeasurementRange100_110E
000000000008c644 (__TEXT,__const) external __ZN3awd7metrics28LocationGPSSessionStatistics29kPowerMeasurementRange110_120E
000000000008c648 (__TEXT,__const) external __ZN3awd7metrics28LocationGPSSessionStatistics29kPowerMeasurementRange120_130E
000000000008c64c (__TEXT,__const) external __ZN3awd7metrics28LocationGPSSessionStatistics29kPowerMeasurementRange130_140E
000000000008c650 (__TEXT,__const) external __ZN3awd7metrics28LocationGPSSessionStatistics29kPowerMeasurementRange140_150E
000000000008c654 (__TEXT,__const) external __ZN3awd7metrics28LocationGPSSessionStatistics29kPowerMeasurementRange150_160E
000000000008c658 (__TEXT,__const) external __ZN3awd7metrics28LocationGPSSessionStatistics29kPowerMeasurementRange160_170E
000000000008c65c (__TEXT,__const) external __ZN3awd7metrics28LocationGPSSessionStatistics29kPowerMeasurementRange170_180E
000000000008c660 (__TEXT,__const) external __ZN3awd7metrics28LocationGPSSessionStatistics29kPowerMeasurementRange180_190E
000000000008c664 (__TEXT,__const) external __ZN3awd7metrics28LocationGPSSessionStatistics29kPowerMeasurementRange190_200E
000000000008c5ec (__TEXT,__const) external __ZN3awd7metrics28LocationGPSSessionStatistics29kPowerMeasurementRangeInvalidE
000000000008c540 (__TEXT,__const) external __ZN3awd7metrics28LocationGPSSessionStatistics29kRadioAccessTechnologyUnknownE
000000000008c8bc (__TEXT,__const) external __ZN3awd7metrics28LocationGPSSessionStatistics29kRtiFileAgeSecondsFieldNumberE
000000000008c434 (__TEXT,__const) external __ZN3awd7metrics28LocationGPSSessionStatistics29kSatelliteCNORangeTypeInvalidE
000000000008c4dc (__TEXT,__const) external __ZN3awd7metrics28LocationGPSSessionStatistics29kSignalEnvironmentTypeFoliageE
000000000008c960 (__TEXT,__const) external __ZN3awd7metrics28LocationGPSSessionStatistics29kTransmissionCountFieldNumberE
000000000008c95c (__TEXT,__const) external __ZN3awd7metrics28LocationGPSSessionStatistics29kTransmissionSnrDbFieldNumberE
000000000008c404 (__TEXT,__const) external __ZN3awd7metrics28LocationGPSSessionStatistics29kUncertaintyRangeType400_1000E
000000000008c430 (__TEXT,__const) external __ZN3awd7metrics28LocationGPSSessionStatistics30UncertaintyRangeType_ARRAYSIZEE
000000000008c81c (__TEXT,__const) external __ZN3awd7metrics28LocationGPSSessionStatistics30kAccelDataUsedCountFieldNumberE
000000000008c794 (__TEXT,__const) external __ZN3awd7metrics28LocationGPSSessionStatistics30kDeresFinalAltitudeFieldNumberE
000000000008c78c (__TEXT,__const) external __ZN3awd7metrics28LocationGPSSessionStatistics30kDeresFinalLatitudeFieldNumberE
000000000008c598 (__TEXT,__const) external __ZN3awd7metrics28LocationGPSSessionStatistics30kDeviceOrientationTypeFaceDownE
000000000008c584 (__TEXT,__const) external __ZN3awd7metrics28LocationGPSSessionStatistics30kDeviceOrientationTypePortraitE
000000000008c8a8 (__TEXT,__const) external __ZN3awd7metrics28LocationGPSSessionStatistics30kEphemerisUsedCountFieldNumberE
000000000008c914 (__TEXT,__const) external __ZN3awd7metrics28LocationGPSSessionStatistics30kHistNoOfBDSSVsUsedFieldNumberE
000000000008c7c0 (__TEXT,__const) external __ZN3awd7metrics28LocationGPSSessionStatistics30kHistNoOfGALSVsUsedFieldNumberE
000000000008c7bc (__TEXT,__const) external __ZN3awd7metrics28LocationGPSSessionStatistics30kHistNoOfGLOSVsUsedFieldNumberE
000000000008c7b8 (__TEXT,__const) external __ZN3awd7metrics28LocationGPSSessionStatistics30kHistNoOfGPSSVsUsedFieldNumberE
000000000008c8b4 (__TEXT,__const) external __ZN3awd7metrics28LocationGPSSessionStatistics30kIsRtiFileAvailableFieldNumberE
000000000008c554 (__TEXT,__const) external __ZN3awd7metrics28LocationGPSSessionStatistics30kRadioAccessTechnologyCDMAEVDOE
000000000008c5a4 (__TEXT,__const) external __ZN3awd7metrics28LocationGPSSessionStatistics31DeviceOrientationType_ARRAYSIZEE
000000000008c674 (__TEXT,__const) external __ZN3awd7metrics28LocationGPSSessionStatistics31PowerMeasurementRange_ARRAYSIZEE
000000000008c57c (__TEXT,__const) external __ZN3awd7metrics28LocationGPSSessionStatistics31RadioAccessTechnology_ARRAYSIZEE
000000000008c468 (__TEXT,__const) external __ZN3awd7metrics28LocationGPSSessionStatistics31SatelliteCNORangeType_ARRAYSIZEE
000000000008c4ec (__TEXT,__const) external __ZN3awd7metrics28LocationGPSSessionStatistics31SignalEnvironmentType_ARRAYSIZEE
000000000008c790 (__TEXT,__const) external __ZN3awd7metrics28LocationGPSSessionStatistics31kDeresFinalLongitudeFieldNumberE
000000000008c580 (__TEXT,__const) external __ZN3awd7metrics28LocationGPSSessionStatistics31kDeviceOrientationTypeAmbiguousE
000000000008c7c4 (__TEXT,__const) external __ZN3awd7metrics28LocationGPSSessionStatistics31kHistNoOfQZSSSVsUsedFieldNumberE
000000000008c830 (__TEXT,__const) external __ZN3awd7metrics28LocationGPSSessionStatistics31kMotionDataUsedCountFieldNumberE
000000000008c8ac (__TEXT,__const) external __ZN3awd7metrics28LocationGPSSessionStatistics31kMountStateUsedCountFieldNumberE
000000000008c438 (__TEXT,__const) external __ZN3awd7metrics28LocationGPSSessionStatistics31kSatelliteCNORangeTypeLessThan0E
000000000008c958 (__TEXT,__const) external __ZN3awd7metrics28LocationGPSSessionStatistics31kTransmissionRsrpDbmFieldNumberE
000000000008c910 (__TEXT,__const) external __ZN3awd7metrics28LocationGPSSessionStatistics32kHistCNOForUsedBDSSVsFieldNumberE
000000000008c7b0 (__TEXT,__const) external __ZN3awd7metrics28LocationGPSSessionStatistics32kHistCNOForUsedGALSVsFieldNumberE
000000000008c7ac (__TEXT,__const) external __ZN3awd7metrics28LocationGPSSessionStatistics32kHistCNOForUsedGLOSVsFieldNumberE
000000000008c7a8 (__TEXT,__const) external __ZN3awd7metrics28LocationGPSSessionStatistics32kHistCNOForUsedGPSSVsFieldNumberE
000000000008c924 (__TEXT,__const) external __ZN3awd7metrics28LocationGPSSessionStatistics32kHistNsForceOffReasonFieldNumberE
000000000008c878 (__TEXT,__const) external __ZN3awd7metrics28LocationGPSSessionStatistics32kHistPowerMeasurementFieldNumberE
000000000008c94c (__TEXT,__const) external __ZN3awd7metrics28LocationGPSSessionStatistics32kIsAccessoryConnectedFieldNumberE
000000000008c854 (__TEXT,__const) external __ZN3awd7metrics28LocationGPSSessionStatistics32kIsOrbitFileAvailableFieldNumberE
000000000008c8ec (__TEXT,__const) external __ZN3awd7metrics28LocationGPSSessionStatistics32kMsToFirstBdsCodeLockFieldNumberE
000000000008c90c (__TEXT,__const) external __ZN3awd7metrics28LocationGPSSessionStatistics32kMsToFirstBdsFullSyncFieldNumberE
000000000008c8e8 (__TEXT,__const) external __ZN3awd7metrics28LocationGPSSessionStatistics32kMsToFirstGalCodeLockFieldNumberE
000000000008c908 (__TEXT,__const) external __ZN3awd7metrics28LocationGPSSessionStatistics32kMsToFirstGalFullSyncFieldNumberE
000000000008c8e4 (__TEXT,__const) external __ZN3awd7metrics28LocationGPSSessionStatistics32kMsToFirstGloCodeLockFieldNumberE
000000000008c904 (__TEXT,__const) external __ZN3awd7metrics28LocationGPSSessionStatistics32kMsToFirstGloFullSyncFieldNumberE
000000000008c8e0 (__TEXT,__const) external __ZN3awd7metrics28LocationGPSSessionStatistics32kMsToFirstGpsCodeLockFieldNumberE
000000000008c900 (__TEXT,__const) external __ZN3awd7metrics28LocationGPSSessionStatistics32kMsToFirstGpsFullSyncFieldNumberE
000000000008c558 (__TEXT,__const) external __ZN3awd7metrics28LocationGPSSessionStatistics32kRadioAccessTechnologyCDMAHybridE
000000000008c548 (__TEXT,__const) external __ZN3awd7metrics28LocationGPSSessionStatistics32kRadioAccessTechnologyGSMCompactE
000000000008c4d4 (__TEXT,__const) external __ZN3awd7metrics28LocationGPSSessionStatistics32kSignalEnvironmentTypeDenseUrbanE
000000000008c494 (__TEXT,__const) external __ZN3awd7metrics28LocationGPSSessionStatistics33SatelliteCountRangeType_ARRAYSIZEE
000000000008c7f4 (__TEXT,__const) external __ZN3awd7metrics28LocationGPSSessionStatistics33kGyroDataProvidedCountFieldNumberE
000000000008c7b4 (__TEXT,__const) external __ZN3awd7metrics28LocationGPSSessionStatistics33kHistCNOForUsedQZSSSVsFieldNumberE
000000000008c870 (__TEXT,__const) external __ZN3awd7metrics28LocationGPSSessionStatistics33kHistDeviceOrientationFieldNumberE
000000000008c7a4 (__TEXT,__const) external __ZN3awd7metrics28LocationGPSSessionStatistics33kHistSignalEnvironmentFieldNumberE
000000000008c814 (__TEXT,__const) external __ZN3awd7metrics28LocationGPSSessionStatistics33kMMAssistanceUsedCountFieldNumberE
000000000008c824 (__TEXT,__const) external __ZN3awd7metrics28LocationGPSSessionStatistics33kPressureDataUsedCountFieldNumberE
000000000008c4c8 (__TEXT,__const) external __ZN3awd7metrics28LocationGPSSessionStatistics33kSignalEnvironmentTypeUnavailableE
000000000008c810 (__TEXT,__const) external __ZN3awd7metrics28LocationGPSSessionStatistics33kTAAssistanceUsedCountFieldNumberE
000000000008c848 (__TEXT,__const) external __ZN3awd7metrics28LocationGPSSessionStatistics33kTransmissionFrequencyFieldNumberE
000000000008c7f0 (__TEXT,__const) external __ZN3awd7metrics28LocationGPSSessionStatistics34kAccelDataProvidedCountFieldNumberE
000000000008c858 (__TEXT,__const) external __ZN3awd7metrics28LocationGPSSessionStatistics34kAssistanceFileChecksumFieldNumberE
000000000008c818 (__TEXT,__const) external __ZN3awd7metrics28LocationGPSSessionStatistics34kDEMAssistanceUsedCountFieldNumberE
000000000008c88c (__TEXT,__const) external __ZN3awd7metrics28LocationGPSSessionStatistics34kEphemerisProvidedCountFieldNumberE
000000000008c7cc (__TEXT,__const) external __ZN3awd7metrics28LocationGPSSessionStatistics34kHistMovingStateContextFieldNumberE
000000000008c8fc (__TEXT,__const) external __ZN3awd7metrics28LocationGPSSessionStatistics34kMsToFirstBdsTowDecodedFieldNumberE
000000000008c8f8 (__TEXT,__const) external __ZN3awd7metrics28LocationGPSSessionStatistics34kMsToFirstGalTowDecodedFieldNumberE
000000000008c8f4 (__TEXT,__const) external __ZN3awd7metrics28LocationGPSSessionStatistics34kMsToFirstGloTodDecodedFieldNumberE
000000000008c8f0 (__TEXT,__const) external __ZN3awd7metrics28LocationGPSSessionStatistics34kMsToFirstGpsTowDecodedFieldNumberE
000000000008c7e8 (__TEXT,__const) external __ZN3awd7metrics28LocationGPSSessionStatistics34kTimeAssistanceProvidedFieldNumberE
000000000008c5e4 (__TEXT,__const) external __ZN3awd7metrics28LocationGPSSessionStatistics35EphemerisFileIntegrityCheckType_MAXE
000000000008c5e0 (__TEXT,__const) external __ZN3awd7metrics28LocationGPSSessionStatistics35EphemerisFileIntegrityCheckType_MINE
000000000008c86c (__TEXT,__const) external __ZN3awd7metrics28LocationGPSSessionStatistics35kBatterySaverModeOnCountFieldNumberE
000000000008c58c (__TEXT,__const) external __ZN3awd7metrics28LocationGPSSessionStatistics35kDeviceOrientationTypeLandscapeLeftE
000000000008c948 (__TEXT,__const) external __ZN3awd7metrics28LocationGPSSessionStatistics35kHistNoOfNSBDSSVsTrackedFieldNumberE
000000000008c940 (__TEXT,__const) external __ZN3awd7metrics28LocationGPSSessionStatistics35kHistNoOfNSGALSVsTrackedFieldNumberE
000000000008c93c (__TEXT,__const) external __ZN3awd7metrics28LocationGPSSessionStatistics35kHistNoOfNSGPSSVsTrackedFieldNumberE
000000000008c804 (__TEXT,__const) external __ZN3awd7metrics28LocationGPSSessionStatistics35kMotionDataProvidedCountFieldNumberE
000000000008c890 (__TEXT,__const) external __ZN3awd7metrics28LocationGPSSessionStatistics35kMountStateProvidedCountFieldNumberE
000000000008c45c (__TEXT,__const) external __ZN3awd7metrics28LocationGPSSessionStatistics35kSatelliteCNORangeTypeGreaterThan44E
000000000008c898 (__TEXT,__const) external __ZN3awd7metrics28LocationGPSSessionStatistics35kTimeAssistanceUsedCountFieldNumberE
000000000008c590 (__TEXT,__const) external __ZN3awd7metrics28LocationGPSSessionStatistics36kDeviceOrientationTypeLandscapeRightE
000000000008c944 (__TEXT,__const) external __ZN3awd7metrics28LocationGPSSessionStatistics36kHistNoOfNSQZSSSVsTrackedFieldNumberE
000000000008c668 (__TEXT,__const) external __ZN3awd7metrics28LocationGPSSessionStatistics36kPowerMeasurementRangeGreaterThan200E
000000000008c8d4 (__TEXT,__const) external __ZN3awd7metrics28LocationGPSSessionStatistics36kRunningOrSimulationFlagsFieldNumberE
000000000008c408 (__TEXT,__const) external __ZN3awd7metrics28LocationGPSSessionStatistics36kUncertaintyRangeTypeGreaterThan1000E
000000000008c7c8 (__TEXT,__const) external __ZN3awd7metrics28LocationGPSSessionStatistics37kHistMotionActivityContextFieldNumberE
000000000008c7f8 (__TEXT,__const) external __ZN3awd7metrics28LocationGPSSessionStatistics37kPressureDataProvidedCountFieldNumberE
000000000008c488 (__TEXT,__const) external __ZN3awd7metrics28LocationGPSSessionStatistics37kSatelliteCountRangeTypeGreaterThan12E
000000000008c7dc (__TEXT,__const) external __ZN3awd7metrics28LocationGPSSessionStatistics37kTAAssistanceProvidedCountFieldNumberE
000000000008c850 (__TEXT,__const) external __ZN3awd7metrics28LocationGPSSessionStatistics37kTransmissionFrequencyBandFieldNumberE
000000000008c7e4 (__TEXT,__const) external __ZN3awd7metrics28LocationGPSSessionStatistics38kDEMAssistanceProvidedCountFieldNumberE
000000000008c5b0 (__TEXT,__const) external __ZN3awd7metrics28LocationGPSSessionStatistics38kEphemerisFileIntegrityCheckTypeNotEofE
000000000008c5a8 (__TEXT,__const) external __ZN3awd7metrics28LocationGPSSessionStatistics38kEphemerisFileIntegrityCheckTypePassedE
000000000008c7e0 (__TEXT,__const) external __ZN3awd7metrics28LocationGPSSessionStatistics38kMMPAssistanceProvidedCountFieldNumberE
000000000008c4d8 (__TEXT,__const) external __ZN3awd7metrics28LocationGPSSessionStatistics38kSignalEnvironmentTypeDenseUrbanCanyonE
000000000008c7ec (__TEXT,__const) external __ZN3awd7metrics28LocationGPSSessionStatistics39kFrequencyAssistanceProvidedFieldNumberE
000000000008c828 (__TEXT,__const) external __ZN3awd7metrics28LocationGPSSessionStatistics39kPedometerSpeedDataUsedCountFieldNumberE
000000000008c87c (__TEXT,__const) external __ZN3awd7metrics28LocationGPSSessionStatistics39kTimeAssistanceProvidedCountFieldNumberE
000000000008c588 (__TEXT,__const) external __ZN3awd7metrics28LocationGPSSessionStatistics40kDeviceOrientationTypePortraitUpsideDownE
000000000008c89c (__TEXT,__const) external __ZN3awd7metrics28LocationGPSSessionStatistics40kFrequencyAssistanceUsedCountFieldNumberE
000000000008c79c (__TEXT,__const) external __ZN3awd7metrics28LocationGPSSessionStatistics40kHistVerticalAccuracyAchievedFieldNumberE
000000000008c950 (__TEXT,__const) external __ZN3awd7metrics28LocationGPSSessionStatistics40kIsAccessoryYieldingLocationsFieldNumberE
000000000008c5e8 (__TEXT,__const) external __ZN3awd7metrics28LocationGPSSessionStatistics41EphemerisFileIntegrityCheckType_ARRAYSIZEE
000000000008c808 (__TEXT,__const) external __ZN3awd7metrics28LocationGPSSessionStatistics42kCPIPositionAssistanceUsedCountFieldNumberE
000000000008c5cc (__TEXT,__const) external __ZN3awd7metrics28LocationGPSSessionStatistics42kEphemerisFileIntegrityCheckTypeSizeIsZeroE
000000000008c798 (__TEXT,__const) external __ZN3awd7metrics28LocationGPSSessionStatistics42kHistHorizontalAccuracyAchievedFieldNumberE
000000000008c954 (__TEXT,__const) external __ZN3awd7metrics28LocationGPSSessionStatistics42kHistJammingMetricDataPerSignalFieldNumberE
000000000008c8b0 (__TEXT,__const) external __ZN3awd7metrics28LocationGPSSessionStatistics42kMotionActivityContextUsedCountFieldNumberE
000000000008c8dc (__TEXT,__const) external __ZN3awd7metrics28LocationGPSSessionStatistics42kNumWirelessChargingTransitionsFieldNumberE
000000000008c8a0 (__TEXT,__const) external __ZN3awd7metrics28LocationGPSSessionStatistics42kSignalEnvironmentDataUsedCountFieldNumberE
000000000008c920 (__TEXT,__const) external __ZN3awd7metrics28LocationGPSSessionStatistics43kBarometricAltitudeDriftRateInfoFieldNumberE
000000000008c5d8 (__TEXT,__const) external __ZN3awd7metrics28LocationGPSSessionStatistics43kEphemerisFileIntegrityCheckTypeCheckFailedE
000000000008c8d8 (__TEXT,__const) external __ZN3awd7metrics28LocationGPSSessionStatistics43kLocationGpsPersistentStatisticsFieldNumberE
000000000008c7fc (__TEXT,__const) external __ZN3awd7metrics28LocationGPSSessionStatistics43kPedometerSpeedDataProvidedCountFieldNumberE
000000000008c5b8 (__TEXT,__const) external __ZN3awd7metrics28LocationGPSSessionStatistics44kEphemerisFileIntegrityCheckTypeFileTooLargeE
000000000008c5b4 (__TEXT,__const) external __ZN3awd7metrics28LocationGPSSessionStatistics44kEphemerisFileIntegrityCheckTypeFileTooSmallE
000000000008c880 (__TEXT,__const) external __ZN3awd7metrics28LocationGPSSessionStatistics44kFrequencyAssistanceProvidedCountFieldNumberE
000000000008c874 (__TEXT,__const) external __ZN3awd7metrics28LocationGPSSessionStatistics45kEphemerisFileIntegrityCheckResultFieldNumberE
000000000008c5ac (__TEXT,__const) external __ZN3awd7metrics28LocationGPSSessionStatistics45kEphemerisFileIntegrityCheckTypeFailedUnknownE
000000000008c7d4 (__TEXT,__const) external __ZN3awd7metrics28LocationGPSSessionStatistics46kCPIPositionAssistanceProvidedCountFieldNumberE
000000000008c5d0 (__TEXT,__const) external __ZN3awd7metrics28LocationGPSSessionStatistics46kEphemerisFileIntegrityCheckTypeSizeBeyondBuffE
000000000008c894 (__TEXT,__const) external __ZN3awd7metrics28LocationGPSSessionStatistics46kMotionActivityContextProvidedCountFieldNumberE
000000000008c8d0 (__TEXT,__const) external __ZN3awd7metrics28LocationGPSSessionStatistics46kNumEpochsSimulationStatusAuthenticFieldNumberE
000000000008c8cc (__TEXT,__const) external __ZN3awd7metrics28LocationGPSSessionStatistics46kNumEpochsSimulationStatusSimulatedFieldNumberE
000000000008c884 (__TEXT,__const) external __ZN3awd7metrics28LocationGPSSessionStatistics46kSignalEnvironmentDataProvidedCountFieldNumberE
000000000008c5bc (__TEXT,__const) external __ZN3awd7metrics28LocationGPSSessionStatistics48kEphemerisFileIntegrityCheckTypeInvalidByteOrderE
000000000008c82c (__TEXT,__const) external __ZN3awd7metrics28LocationGPSSessionStatistics49kPedometerSpeedConstraintDataUsedCountFieldNumberE
000000000005840a (__TEXT,__text) external __ZN3awd7metrics28LocationGPSSessionStatistics4SwapEPS1_
000000000008c5d4 (__TEXT,__const) external __ZN3awd7metrics28LocationGPSSessionStatistics51kEphemerisFileIntegrityCheckTypeSignatureBeyondBuffE
000000000008c5c4 (__TEXT,__const) external __ZN3awd7metrics28LocationGPSSessionStatistics51kEphemerisFileIntegrityCheckTypeSizeFieldBeyondBuffE
000000000008c8c8 (__TEXT,__const) external __ZN3awd7metrics28LocationGPSSessionStatistics52kNumEpochsSimulationStatusNoDeterminationFieldNumberE
000000000008c5c0 (__TEXT,__const) external __ZN3awd7metrics28LocationGPSSessionStatistics53kEphemerisFileIntegrityCheckTypeOffsetFieldBeyondBuffE
000000000008c800 (__TEXT,__const) external __ZN3awd7metrics28LocationGPSSessionStatistics53kPedometerSpeedConstraintDataProvidedCountFieldNumberE
000000000008c80c (__TEXT,__const) external __ZN3awd7metrics28LocationGPSSessionStatistics56kCPITightlyCoupledPositionAssistanceUsedCountFieldNumberE
000000000008c5c8 (__TEXT,__const) external __ZN3awd7metrics28LocationGPSSessionStatistics56kEphemerisFileIntegrityCheckTypeSignatureFieldBeyondBuffE
000000000008c5dc (__TEXT,__const) external __ZN3awd7metrics28LocationGPSSessionStatistics59kEphemerisFileIntegrityCheckTypeMaxSizeAndFileMisconfiguredE
000000000004d5d0 (__TEXT,__text) external __ZN3awd7metrics28LocationGPSSessionStatistics5ClearEv
000000000008c7d8 (__TEXT,__const) external __ZN3awd7metrics28LocationGPSSessionStatistics60kCPITightlyCoupledPositionAssistanceProvidedCountFieldNumberE
00000000000583da (__TEXT,__text) external __ZN3awd7metrics28LocationGPSSessionStatistics8CopyFromERKS1_
000000000004c280 (__TEXT,__text) external __ZN3awd7metrics28LocationGPSSessionStatistics9MergeFromERKS1_
000000000008a422 (__TEXT,__text) non-external __ZN3awd7metrics28LocationGPSSessionStatistics9MergeFromERKS1_.cold.1
000000000008a445 (__TEXT,__text) non-external __ZN3awd7metrics28LocationGPSSessionStatistics9MergeFromERKS1_.cold.2
000000000004d2c0 (__TEXT,__text) external __ZN3awd7metrics28LocationGPSSessionStatisticsC1ERKS1_
00000000000032da (__TEXT,__text) external __ZN3awd7metrics28LocationGPSSessionStatisticsC1Ev
000000000004bc06 (__TEXT,__text) external __ZN3awd7metrics28LocationGPSSessionStatisticsC2ERKS1_
000000000004b81c (__TEXT,__text) external __ZN3awd7metrics28LocationGPSSessionStatisticsC2Ev
000000000004d54e (__TEXT,__text) external __ZN3awd7metrics28LocationGPSSessionStatisticsD0Ev
000000000004d544 (__TEXT,__text) external __ZN3awd7metrics28LocationGPSSessionStatisticsD1Ev
000000000004d2ca (__TEXT,__text) external __ZN3awd7metrics28LocationGPSSessionStatisticsD2Ev
000000000004014a (__TEXT,__text) external __ZN3awd7metrics28LocationMainHarvesterMetrics10SharedCtorEv
00000000000403a4 (__TEXT,__text) external __ZN3awd7metrics28LocationMainHarvesterMetrics10SharedDtorEv
0000000000040458 (__TEXT,__text) external __ZN3awd7metrics28LocationMainHarvesterMetrics16default_instanceEv
000000000009d128 (__DATA_DIRTY,__common) external __ZN3awd7metrics28LocationMainHarvesterMetrics17default_instance_E
0000000000040dec (__TEXT,__text) external __ZN3awd7metrics28LocationMainHarvesterMetrics21CheckTypeAndMergeFromERKN20wireless_diagnostics6google8protobuf11MessageLiteE
0000000000089ef0 (__TEXT,__text) non-external __ZN3awd7metrics28LocationMainHarvesterMetrics21CheckTypeAndMergeFromERKN20wireless_diagnostics6google8protobuf11MessageLiteE.cold.1
0000000000003b64 (__TEXT,__text) external __ZN3awd7metrics28LocationMainHarvesterMetrics21InitAsDefaultInstanceEv
000000000008c324 (__TEXT,__const) external __ZN3awd7metrics28LocationMainHarvesterMetrics21kTimestampFieldNumberE
0000000000040530 (__TEXT,__text) external __ZN3awd7metrics28LocationMainHarvesterMetrics27MergePartialFromCodedStreamEPN20wireless_diagnostics6google8protobuf2io16CodedInputStreamE
000000000008c328 (__TEXT,__const) external __ZN3awd7metrics28LocationMainHarvesterMetrics29kMetricsIdentifierFieldNumberE
000000000008c33c (__TEXT,__const) external __ZN3awd7metrics28LocationMainHarvesterMetrics31kRawGpsNotificationsFieldNumberE
000000000008c330 (__TEXT,__const) external __ZN3awd7metrics28LocationMainHarvesterMetrics32kBatteryNotificationsFieldNumberE
000000000008c344 (__TEXT,__const) external __ZN3awd7metrics28LocationMainHarvesterMetrics32kManagerNotificationsFieldNumberE
000000000008c334 (__TEXT,__const) external __ZN3awd7metrics28LocationMainHarvesterMetrics32kThermalNotificationsFieldNumberE
000000000008c338 (__TEXT,__const) external __ZN3awd7metrics28LocationMainHarvesterMetrics33kLocationNotificationsFieldNumberE
000000000008c32c (__TEXT,__const) external __ZN3awd7metrics28LocationMainHarvesterMetrics37kReachabilityNotificationsFieldNumberE
000000000008c340 (__TEXT,__const) external __ZN3awd7metrics28LocationMainHarvesterMetrics37kValidatedGpsNotificationsFieldNumberE
000000000008c348 (__TEXT,__const) external __ZN3awd7metrics28LocationMainHarvesterMetrics49kDurationMinimumUploadsRequirementsMetFieldNumberE
0000000000040e5a (__TEXT,__text) external __ZN3awd7metrics28LocationMainHarvesterMetrics4SwapEPS1_
000000000008c34c (__TEXT,__const) external __ZN3awd7metrics28LocationMainHarvesterMetrics52kDurationMinimumUploadsRequirementsNotMetFieldNumberE
00000000000404c0 (__TEXT,__text) external __ZN3awd7metrics28LocationMainHarvesterMetrics5ClearEv
0000000000040e2a (__TEXT,__text) external __ZN3awd7metrics28LocationMainHarvesterMetrics8CopyFromERKS1_
00000000000401ca (__TEXT,__text) external __ZN3awd7metrics28LocationMainHarvesterMetrics9MergeFromERKS1_
0000000000040374 (__TEXT,__text) external __ZN3awd7metrics28LocationMainHarvesterMetricsC1ERKS1_
00000000000031b6 (__TEXT,__text) external __ZN3awd7metrics28LocationMainHarvesterMetricsC1Ev
0000000000040174 (__TEXT,__text) external __ZN3awd7metrics28LocationMainHarvesterMetricsC2ERKS1_
0000000000040116 (__TEXT,__text) external __ZN3awd7metrics28LocationMainHarvesterMetricsC2Ev
0000000000040416 (__TEXT,__text) external __ZN3awd7metrics28LocationMainHarvesterMetricsD0Ev
00000000000403f0 (__TEXT,__text) external __ZN3awd7metrics28LocationMainHarvesterMetricsD1Ev
000000000004037e (__TEXT,__text) external __ZN3awd7metrics28LocationMainHarvesterMetricsD2Ev
000000000003ce1e (__TEXT,__text) external __ZN3awd7metrics28MotionFitnessAccelSampleRate10SharedCtorEv
000000000003cf54 (__TEXT,__text) external __ZN3awd7metrics28MotionFitnessAccelSampleRate10SharedDtorEv
000000000003cfa8 (__TEXT,__text) external __ZN3awd7metrics28MotionFitnessAccelSampleRate16default_instanceEv
000000000009d0f8 (__DATA_DIRTY,__common) external __ZN3awd7metrics28MotionFitnessAccelSampleRate17default_instance_E
000000000003d256 (__TEXT,__text) external __ZN3awd7metrics28MotionFitnessAccelSampleRate21CheckTypeAndMergeFromERKN20wireless_diagnostics6google8protobuf11MessageLiteE
0000000000089dfb (__TEXT,__text) non-external __ZN3awd7metrics28MotionFitnessAccelSampleRate21CheckTypeAndMergeFromERKN20wireless_diagnostics6google8protobuf11MessageLiteE.cold.1
0000000000003b40 (__TEXT,__text) external __ZN3awd7metrics28MotionFitnessAccelSampleRate21InitAsDefaultInstanceEv
000000000008c254 (__TEXT,__const) external __ZN3awd7metrics28MotionFitnessAccelSampleRate21kTimestampFieldNumberE
000000000003d016 (__TEXT,__text) external __ZN3awd7metrics28MotionFitnessAccelSampleRate27MergePartialFromCodedStreamEPN20wireless_diagnostics6google8protobuf2io16CodedInputStreamE
000000000008c258 (__TEXT,__const) external __ZN3awd7metrics28MotionFitnessAccelSampleRate28kSampleRateGyroOnFieldNumberE
000000000008c25c (__TEXT,__const) external __ZN3awd7metrics28MotionFitnessAccelSampleRate29kSampleRateGyroOffFieldNumberE
000000000003d2c4 (__TEXT,__text) external __ZN3awd7metrics28MotionFitnessAccelSampleRate4SwapEPS1_
000000000003cffc (__TEXT,__text) external __ZN3awd7metrics28MotionFitnessAccelSampleRate5ClearEv
000000000003d294 (__TEXT,__text) external __ZN3awd7metrics28MotionFitnessAccelSampleRate8CopyFromERKS1_
000000000003ce74 (__TEXT,__text) external __ZN3awd7metrics28MotionFitnessAccelSampleRate9MergeFromERKS1_
000000000003cf36 (__TEXT,__text) external __ZN3awd7metrics28MotionFitnessAccelSampleRateC1ERKS1_
00000000000030d6 (__TEXT,__text) external __ZN3awd7metrics28MotionFitnessAccelSampleRateC1Ev
000000000003ce34 (__TEXT,__text) external __ZN3awd7metrics28MotionFitnessAccelSampleRateC2ERKS1_
000000000003cdfe (__TEXT,__text) external __ZN3awd7metrics28MotionFitnessAccelSampleRateC2Ev
000000000003cf6e (__TEXT,__text) external __ZN3awd7metrics28MotionFitnessAccelSampleRateD0Ev
000000000003cf5a (__TEXT,__text) external __ZN3awd7metrics28MotionFitnessAccelSampleRateD1Ev
000000000003cf40 (__TEXT,__text) external __ZN3awd7metrics28MotionFitnessAccelSampleRateD2Ev
000000000007b43c (__TEXT,__text) external __ZN3awd7metrics29LocationMicroLocationMetaData10SharedCtorEv
000000000007b63a (__TEXT,__text) external __ZN3awd7metrics29LocationMicroLocationMetaData10SharedDtorEv
000000000007b6c0 (__TEXT,__text) external __ZN3awd7metrics29LocationMicroLocationMetaData16default_instanceEv
000000000009d350 (__DATA_DIRTY,__common) external __ZN3awd7metrics29LocationMicroLocationMetaData17default_instance_E
000000000008e3ac (__TEXT,__const) external __ZN3awd7metrics29LocationMicroLocationMetaData19kZipCodeFieldNumberE
000000000007bbf6 (__TEXT,__text) external __ZN3awd7metrics29LocationMicroLocationMetaData21CheckTypeAndMergeFromERKN20wireless_diagnostics6google8protobuf11MessageLiteE
000000000008ad90 (__TEXT,__text) non-external __ZN3awd7metrics29LocationMicroLocationMetaData21CheckTypeAndMergeFromERKN20wireless_diagnostics6google8protobuf11MessageLiteE.cold.1
0000000000078e46 (__TEXT,__text) external __ZN3awd7metrics29LocationMicroLocationMetaData21InitAsDefaultInstanceEv
000000000008e3a4 (__TEXT,__const) external __ZN3awd7metrics29LocationMicroLocationMetaData21kTimestampFieldNumberE
000000000007b774 (__TEXT,__text) external __ZN3awd7metrics29LocationMicroLocationMetaData27MergePartialFromCodedStreamEPN20wireless_diagnostics6google8protobuf2io16CodedInputStreamE
000000000008e3a8 (__TEXT,__const) external __ZN3awd7metrics29LocationMicroLocationMetaData29kSupportedLoiTypesFieldNumberE
000000000008e3b0 (__TEXT,__const) external __ZN3awd7metrics29LocationMicroLocationMetaData39kStatisticsTimePeriodInHoursFieldNumberE
000000000007bc64 (__TEXT,__text) external __ZN3awd7metrics29LocationMicroLocationMetaData4SwapEPS1_
000000000007b722 (__TEXT,__text) external __ZN3awd7metrics29LocationMicroLocationMetaData5ClearEv
000000000007bc34 (__TEXT,__text) external __ZN3awd7metrics29LocationMicroLocationMetaData8CopyFromERKS1_
000000000007b4c4 (__TEXT,__text) external __ZN3awd7metrics29LocationMicroLocationMetaData9MergeFromERKS1_
000000000007b5f2 (__TEXT,__text) external __ZN3awd7metrics29LocationMicroLocationMetaDataC1ERKS1_
0000000000078bc2 (__TEXT,__text) external __ZN3awd7metrics29LocationMicroLocationMetaDataC1Ev
000000000007b45c (__TEXT,__text) external __ZN3awd7metrics29LocationMicroLocationMetaDataC2ERKS1_
000000000007b40e (__TEXT,__text) external __ZN3awd7metrics29LocationMicroLocationMetaDataC2Ev
000000000007b690 (__TEXT,__text) external __ZN3awd7metrics29LocationMicroLocationMetaDataD0Ev
000000000007b686 (__TEXT,__text) external __ZN3awd7metrics29LocationMicroLocationMetaDataD1Ev
000000000007b5fc (__TEXT,__text) external __ZN3awd7metrics29LocationMicroLocationMetaDataD2Ev
000000000005dd7e (__TEXT,__text) external __ZN3awd7metrics29LocationMobileAssetStatistics10SharedCtorEv
000000000005e24a (__TEXT,__text) external __ZN3awd7metrics29LocationMobileAssetStatistics10SharedDtorEv
000000000008ca74 (__TEXT,__const) external __ZN3awd7metrics29LocationMobileAssetStatistics13AssetType_MAXE
000000000008ca70 (__TEXT,__const) external __ZN3awd7metrics29LocationMobileAssetStatistics13AssetType_MINE
000000000008ca40 (__TEXT,__const) external __ZN3awd7metrics29LocationMobileAssetStatistics14AEUnknownEventE
000000000008ca60 (__TEXT,__const) external __ZN3awd7metrics29LocationMobileAssetStatistics14AssetEvent_MAXE
000000000008ca5c (__TEXT,__const) external __ZN3awd7metrics29LocationMobileAssetStatistics14AssetEvent_MINE
000000000005e344 (__TEXT,__text) external __ZN3awd7metrics29LocationMobileAssetStatistics16default_instanceEv
000000000009d230 (__DATA_DIRTY,__common) external __ZN3awd7metrics29LocationMobileAssetStatistics17default_instance_E
000000000008ca7c (__TEXT,__const) external __ZN3awd7metrics29LocationMobileAssetStatistics18ACUnknownComponentE
000000000008ca68 (__TEXT,__const) external __ZN3awd7metrics29LocationMobileAssetStatistics18ATUnknownAssetTypeE
000000000008ca98 (__TEXT,__const) external __ZN3awd7metrics29LocationMobileAssetStatistics18AssetComponent_MAXE
000000000008ca94 (__TEXT,__const) external __ZN3awd7metrics29LocationMobileAssetStatistics18AssetComponent_MINE
000000000008ca80 (__TEXT,__const) external __ZN3awd7metrics29LocationMobileAssetStatistics19ACEmergencyLocationE
000000000008ca78 (__TEXT,__const) external __ZN3awd7metrics29LocationMobileAssetStatistics19AssetType_ARRAYSIZEE
000000000008ca6c (__TEXT,__const) external __ZN3awd7metrics29LocationMobileAssetStatistics20ATCoreLocationConfigE
000000000008ca64 (__TEXT,__const) external __ZN3awd7metrics29LocationMobileAssetStatistics20AssetEvent_ARRAYSIZEE
000000000008cabc (__TEXT,__const) external __ZN3awd7metrics29LocationMobileAssetStatistics20kBundleidFieldNumberE
000000000008ca50 (__TEXT,__const) external __ZN3awd7metrics29LocationMobileAssetStatistics21AEAssetDownloadFailedE
000000000005f6aa (__TEXT,__text) external __ZN3awd7metrics29LocationMobileAssetStatistics21CheckTypeAndMergeFromERKN20wireless_diagnostics6google8protobuf11MessageLiteE
000000000008a675 (__TEXT,__text) non-external __ZN3awd7metrics29LocationMobileAssetStatistics21CheckTypeAndMergeFromERKN20wireless_diagnostics6google8protobuf11MessageLiteE.cold.1
0000000000003cbe (__TEXT,__text) external __ZN3awd7metrics29LocationMobileAssetStatistics21InitAsDefaultInstanceEv
000000000008cac4 (__TEXT,__const) external __ZN3awd7metrics29LocationMobileAssetStatistics21kAssetTypeFieldNumberE
000000000008cac8 (__TEXT,__const) external __ZN3awd7metrics29LocationMobileAssetStatistics21kComponentFieldNumberE
000000000008cab8 (__TEXT,__const) external __ZN3awd7metrics29LocationMobileAssetStatistics21kTimestampFieldNumberE
000000000008cac0 (__TEXT,__const) external __ZN3awd7metrics29LocationMobileAssetStatistics22kAssetEventFieldNumberE
000000000008ca58 (__TEXT,__const) external __ZN3awd7metrics29LocationMobileAssetStatistics23AEAssetVersionReportingE
000000000008ca48 (__TEXT,__const) external __ZN3awd7metrics29LocationMobileAssetStatistics23AECatalogDownloadFailedE
000000000008ca4c (__TEXT,__const) external __ZN3awd7metrics29LocationMobileAssetStatistics24AEAssetDownloadSucceededE
000000000008ca9c (__TEXT,__const) external __ZN3awd7metrics29LocationMobileAssetStatistics24AssetComponent_ARRAYSIZEE
000000000008ca44 (__TEXT,__const) external __ZN3awd7metrics29LocationMobileAssetStatistics26AECatalogDownloadSucceededE
000000000008cad4 (__TEXT,__const) external __ZN3awd7metrics29LocationMobileAssetStatistics26kDownloadResultFieldNumberE
000000000005e48e (__TEXT,__text) external __ZN3awd7metrics29LocationMobileAssetStatistics27MergePartialFromCodedStreamEPN20wireless_diagnostics6google8protobuf2io16CodedInputStreamE
000000000008cad8 (__TEXT,__const) external __ZN3awd7metrics29LocationMobileAssetStatistics28kDownloadDurationFieldNumberE
000000000008caf0 (__TEXT,__const) external __ZN3awd7metrics29LocationMobileAssetStatistics28kGenericAssetUsedFieldNumberE
000000000008caf4 (__TEXT,__const) external __ZN3awd7metrics29LocationMobileAssetStatistics29kSim1CarrierStatusFieldNumberE
000000000008cafc (__TEXT,__const) external __ZN3awd7metrics29LocationMobileAssetStatistics29kSim2CarrierStatusFieldNumberE
000000000008caf8 (__TEXT,__const) external __ZN3awd7metrics29LocationMobileAssetStatistics30kSim1OperatorStatusFieldNumberE
000000000008cb00 (__TEXT,__const) external __ZN3awd7metrics29LocationMobileAssetStatistics30kSim2OperatorStatusFieldNumberE
000000000008ca54 (__TEXT,__const) external __ZN3awd7metrics29LocationMobileAssetStatistics37AECatalogDownloadActivityNotTriggeredE
000000000008cacc (__TEXT,__const) external __ZN3awd7metrics29LocationMobileAssetStatistics38kCurrentAssetContentVersionFieldNumberE
000000000008caec (__TEXT,__const) external __ZN3awd7metrics29LocationMobileAssetStatistics42kAggressiveDownloadCriteriaUsedFieldNumberE
000000000008cad0 (__TEXT,__const) external __ZN3awd7metrics29LocationMobileAssetStatistics44kCurrentAssetCompatibilityVersionFieldNumberE
000000000008cae4 (__TEXT,__const) external __ZN3awd7metrics29LocationMobileAssetStatistics45kDaysSinceLastAssetDownloadAttemptFieldNumberE
000000000008cae8 (__TEXT,__const) external __ZN3awd7metrics29LocationMobileAssetStatistics45kDaysSinceLastAssetDownloadSuccessFieldNumberE
000000000008cadc (__TEXT,__const) external __ZN3awd7metrics29LocationMobileAssetStatistics47kDaysSinceLastCatalogDownloadAttemptFieldNumberE
000000000008cae0 (__TEXT,__const) external __ZN3awd7metrics29LocationMobileAssetStatistics47kDaysSinceLastCatalogDownloadSuccessFieldNumberE
000000000005f718 (__TEXT,__text) external __ZN3awd7metrics29LocationMobileAssetStatistics4SwapEPS1_
000000000008ca88 (__TEXT,__const) external __ZN3awd7metrics29LocationMobileAssetStatistics5ACCLXE
000000000005e3b4 (__TEXT,__text) external __ZN3awd7metrics29LocationMobileAssetStatistics5ClearEv
000000000008ca84 (__TEXT,__const) external __ZN3awd7metrics29LocationMobileAssetStatistics6ACGNSSE
000000000008ca8c (__TEXT,__const) external __ZN3awd7metrics29LocationMobileAssetStatistics8ACNearbyE
000000000005f6e8 (__TEXT,__text) external __ZN3awd7metrics29LocationMobileAssetStatistics8CopyFromERKS1_
000000000008ca90 (__TEXT,__const) external __ZN3awd7metrics29LocationMobileAssetStatistics9ACHarvestE
000000000005de0e (__TEXT,__text) external __ZN3awd7metrics29LocationMobileAssetStatistics9MergeFromERKS1_
000000000008a60c (__TEXT,__text) non-external __ZN3awd7metrics29LocationMobileAssetStatistics9MergeFromERKS1_.cold.1
000000000008a62f (__TEXT,__text) non-external __ZN3awd7metrics29LocationMobileAssetStatistics9MergeFromERKS1_.cold.2
000000000008a652 (__TEXT,__text) non-external __ZN3awd7metrics29LocationMobileAssetStatistics9MergeFromERKS1_.cold.3
000000000005e21a (__TEXT,__text) external __ZN3awd7metrics29LocationMobileAssetStatisticsC1ERKS1_
0000000000003664 (__TEXT,__text) external __ZN3awd7metrics29LocationMobileAssetStatisticsC1Ev
000000000005ddb0 (__TEXT,__text) external __ZN3awd7metrics29LocationMobileAssetStatisticsC2ERKS1_
000000000005dd42 (__TEXT,__text) external __ZN3awd7metrics29LocationMobileAssetStatisticsC2Ev
000000000005e302 (__TEXT,__text) external __ZN3awd7metrics29LocationMobileAssetStatisticsD0Ev
000000000005e2dc (__TEXT,__text) external __ZN3awd7metrics29LocationMobileAssetStatisticsD1Ev
000000000005e224 (__TEXT,__text) external __ZN3awd7metrics29LocationMobileAssetStatisticsD2Ev
0000000000064fc4 (__TEXT,__text) external __ZN3awd7metrics30LocationAccessory_MessageStats10SharedCtorEv
00000000000651e2 (__TEXT,__text) external __ZN3awd7metrics30LocationAccessory_MessageStats10SharedDtorEv
000000000006525a (__TEXT,__text) external __ZN3awd7metrics30LocationAccessory_MessageStats16default_instanceEv
000000000009d298 (__DATA_DIRTY,__common) external __ZN3awd7metrics30LocationAccessory_MessageStats17default_instance_E
0000000000065a2a (__TEXT,__text) external __ZN3awd7metrics30LocationAccessory_MessageStats21CheckTypeAndMergeFromERKN20wireless_diagnostics6google8protobuf11MessageLiteE
000000000008a931 (__TEXT,__text) non-external __ZN3awd7metrics30LocationAccessory_MessageStats21CheckTypeAndMergeFromERKN20wireless_diagnostics6google8protobuf11MessageLiteE.cold.1
0000000000003f78 (__TEXT,__text) external __ZN3awd7metrics30LocationAccessory_MessageStats21InitAsDefaultInstanceEv
000000000008cda8 (__TEXT,__const) external __ZN3awd7metrics30LocationAccessory_MessageStats24kStatsLatencyFieldNumberE
000000000008cda0 (__TEXT,__const) external __ZN3awd7metrics30LocationAccessory_MessageStats24kStatsSpacingFieldNumberE
000000000008cd98 (__TEXT,__const) external __ZN3awd7metrics30LocationAccessory_MessageStats26kCountsReceivedFieldNumberE
0000000000065354 (__TEXT,__text) external __ZN3awd7metrics30LocationAccessory_MessageStats27MergePartialFromCodedStreamEPN20wireless_diagnostics6google8protobuf2io16CodedInputStreamE
000000000008cda4 (__TEXT,__const) external __ZN3awd7metrics30LocationAccessory_MessageStats28kHistogramLatencyFieldNumberE
000000000008cd9c (__TEXT,__const) external __ZN3awd7metrics30LocationAccessory_MessageStats42kRepeatedDataReceptionInstancesFieldNumberE
0000000000065bc4 (__TEXT,__text) external __ZN3awd7metrics30LocationAccessory_MessageStats4SwapEPS1_
00000000000652b4 (__TEXT,__text) external __ZN3awd7metrics30LocationAccessory_MessageStats5ClearEv
0000000000065b94 (__TEXT,__text) external __ZN3awd7metrics30LocationAccessory_MessageStats8CopyFromERKS1_
000000000006502e (__TEXT,__text) external __ZN3awd7metrics30LocationAccessory_MessageStats9MergeFromERKS1_
00000000000651a0 (__TEXT,__text) external __ZN3awd7metrics30LocationAccessory_MessageStatsC1ERKS1_
0000000000003846 (__TEXT,__text) external __ZN3awd7metrics30LocationAccessory_MessageStatsC1Ev
0000000000064fd6 (__TEXT,__text) external __ZN3awd7metrics30LocationAccessory_MessageStatsC2ERKS1_
0000000000064f9e (__TEXT,__text) external __ZN3awd7metrics30LocationAccessory_MessageStatsC2Ev
000000000006522a (__TEXT,__text) external __ZN3awd7metrics30LocationAccessory_MessageStatsD0Ev
0000000000065220 (__TEXT,__text) external __ZN3awd7metrics30LocationAccessory_MessageStatsD1Ev
00000000000651aa (__TEXT,__text) external __ZN3awd7metrics30LocationAccessory_MessageStatsD2Ev
000000000008cb3c (__TEXT,__const) external __ZN3awd7metrics30LocationEmergencyPOIStatistics10POITypeGymE
000000000005f8dc (__TEXT,__text) external __ZN3awd7metrics30LocationEmergencyPOIStatistics10SharedCtorEv
000000000005fc56 (__TEXT,__text) external __ZN3awd7metrics30LocationEmergencyPOIStatistics10SharedDtorEv
000000000008cb58 (__TEXT,__const) external __ZN3awd7metrics30LocationEmergencyPOIStatistics11ErrorDeniedE
000000000008cb30 (__TEXT,__const) external __ZN3awd7metrics30LocationEmergencyPOIStatistics11POITypeHomeE
000000000008cb34 (__TEXT,__const) external __ZN3awd7metrics30LocationEmergencyPOIStatistics11POITypeWorkE
000000000008cb44 (__TEXT,__const) external __ZN3awd7metrics30LocationEmergencyPOIStatistics11POIType_MAXE
000000000008cb40 (__TEXT,__const) external __ZN3awd7metrics30LocationEmergencyPOIStatistics11POIType_MINE
000000000008cba8 (__TEXT,__const) external __ZN3awd7metrics30LocationEmergencyPOIStatistics13DSAResult_MAXE
000000000008cba4 (__TEXT,__const) external __ZN3awd7metrics30LocationEmergencyPOIStatistics13DSAResult_MINE
000000000008cb08 (__TEXT,__const) external __ZN3awd7metrics30LocationEmergencyPOIStatistics13POISourceNoneE
000000000008cb1c (__TEXT,__const) external __ZN3awd7metrics30LocationEmergencyPOIStatistics13POISourceUserE
000000000008cb24 (__TEXT,__const) external __ZN3awd7metrics30LocationEmergencyPOIStatistics13POISource_MAXE
000000000008cb20 (__TEXT,__const) external __ZN3awd7metrics30LocationEmergencyPOIStatistics13POISource_MINE
000000000008cb38 (__TEXT,__const) external __ZN3awd7metrics30LocationEmergencyPOIStatistics13POITypeSchoolE
000000000008cb4c (__TEXT,__const) external __ZN3awd7metrics30LocationEmergencyPOIStatistics13ResultUnknownE
000000000008cb2c (__TEXT,__const) external __ZN3awd7metrics30LocationEmergencyPOIStatistics14POITypeUnknownE
000000000008cb0c (__TEXT,__const) external __ZN3awd7metrics30LocationEmergencyPOIStatistics15POISourceMeCardE
000000000008cb84 (__TEXT,__const) external __ZN3awd7metrics30LocationEmergencyPOIStatistics16DSAResultSuccessE
000000000008cb80 (__TEXT,__const) external __ZN3awd7metrics30LocationEmergencyPOIStatistics16DSAResultUnknownE
000000000008cb54 (__TEXT,__const) external __ZN3awd7metrics30LocationEmergencyPOIStatistics16ErrorUnsupportedE
000000000008cb04 (__TEXT,__const) external __ZN3awd7metrics30LocationEmergencyPOIStatistics16POISourceUnknownE
000000000005fd0a (__TEXT,__text) external __ZN3awd7metrics30LocationEmergencyPOIStatistics16default_instanceEv
000000000008cb48 (__TEXT,__const) external __ZN3awd7metrics30LocationEmergencyPOIStatistics17POIType_ARRAYSIZEE
000000000008cb70 (__TEXT,__const) external __ZN3awd7metrics30LocationEmergencyPOIStatistics17SubmissionTypeDSAE
000000000008cb6c (__TEXT,__const) external __ZN3awd7metrics30LocationEmergencyPOIStatistics17SubmissionTypePOIE
000000000009d240 (__DATA_DIRTY,__common) external __ZN3awd7metrics30LocationEmergencyPOIStatistics17default_instance_E
000000000008cb60 (__TEXT,__const) external __ZN3awd7metrics30LocationEmergencyPOIStatistics18LOIQueryResult_MAXE
000000000008cb5c (__TEXT,__const) external __ZN3awd7metrics30LocationEmergencyPOIStatistics18LOIQueryResult_MINE
000000000008cb18 (__TEXT,__const) external __ZN3awd7metrics30LocationEmergencyPOIStatistics18POISourceTopMedianE
000000000008cb78 (__TEXT,__const) external __ZN3awd7metrics30LocationEmergencyPOIStatistics18SubmissionType_MAXE
000000000008cb74 (__TEXT,__const) external __ZN3awd7metrics30LocationEmergencyPOIStatistics18SubmissionType_MINE
000000000008cb98 (__TEXT,__const) external __ZN3awd7metrics30LocationEmergencyPOIStatistics19DSAResultErrorLSOffE
000000000008cbac (__TEXT,__const) external __ZN3awd7metrics30LocationEmergencyPOIStatistics19DSAResult_ARRAYSIZEE
000000000008cb28 (__TEXT,__const) external __ZN3awd7metrics30LocationEmergencyPOIStatistics19POISource_ARRAYSIZEE
000000000008cbb4 (__TEXT,__const) external __ZN3awd7metrics30LocationEmergencyPOIStatistics19kBundledFieldNumberE
000000000008cbdc (__TEXT,__const) external __ZN3awd7metrics30LocationEmergencyPOIStatistics20kLOIcountFieldNumberE
0000000000060b1a (__TEXT,__text) external __ZN3awd7metrics30LocationEmergencyPOIStatistics21CheckTypeAndMergeFromERKN20wireless_diagnostics6google8protobuf11MessageLiteE
000000000008a747 (__TEXT,__text) non-external __ZN3awd7metrics30LocationEmergencyPOIStatistics21CheckTypeAndMergeFromERKN20wireless_diagnostics6google8protobuf11MessageLiteE.cold.1
0000000000003d40 (__TEXT,__text) external __ZN3awd7metrics30LocationEmergencyPOIStatistics21InitAsDefaultInstanceEv
000000000008cb14 (__TEXT,__const) external __ZN3awd7metrics30LocationEmergencyPOIStatistics21POISourcePatternBasedE
000000000008cb68 (__TEXT,__const) external __ZN3awd7metrics30LocationEmergencyPOIStatistics21SubmissionTypeUnknownE
000000000008cbd4 (__TEXT,__const) external __ZN3awd7metrics30LocationEmergencyPOIStatistics21kDsaResultFieldNumberE
000000000008cbb0 (__TEXT,__const) external __ZN3awd7metrics30LocationEmergencyPOIStatistics21kTimestampFieldNumberE
000000000008cb64 (__TEXT,__const) external __ZN3awd7metrics30LocationEmergencyPOIStatistics24LOIQueryResult_ARRAYSIZEE
000000000008cb7c (__TEXT,__const) external __ZN3awd7metrics30LocationEmergencyPOIStatistics24SubmissionType_ARRAYSIZEE
000000000008cb94 (__TEXT,__const) external __ZN3awd7metrics30LocationEmergencyPOIStatistics25DSAResultErrorSourceCheckE
000000000008cb10 (__TEXT,__const) external __ZN3awd7metrics30LocationEmergencyPOIStatistics26POISourceAggregateInferredE
000000000008cbcc (__TEXT,__const) external __ZN3awd7metrics30LocationEmergencyPOIStatistics26kLoiQueryResultFieldNumberE
000000000008cbc0 (__TEXT,__const) external __ZN3awd7metrics30LocationEmergencyPOIStatistics26kNearestPOITypeFieldNumberE
000000000008cbd0 (__TEXT,__const) external __ZN3awd7metrics30LocationEmergencyPOIStatistics26kSubmissionTypeFieldNumberE
000000000008cb8c (__TEXT,__const) external __ZN3awd7metrics30LocationEmergencyPOIStatistics27DSAResultErrorCategoryCheckE
000000000008cb90 (__TEXT,__const) external __ZN3awd7metrics30LocationEmergencyPOIStatistics27DSAResultErrorDistanceCheckE
000000000005fe08 (__TEXT,__text) external __ZN3awd7metrics30LocationEmergencyPOIStatistics27MergePartialFromCodedStreamEPN20wireless_diagnostics6google8protobuf2io16CodedInputStreamE
000000000008cbd8 (__TEXT,__const) external __ZN3awd7metrics30LocationEmergencyPOIStatistics27kApiResponseTimeFieldNumberE
000000000008cbbc (__TEXT,__const) external __ZN3awd7metrics30LocationEmergencyPOIStatistics28kNearestPOISourceFieldNumberE
000000000008cb88 (__TEXT,__const) external __ZN3awd7metrics30LocationEmergencyPOIStatistics29DSAResultErrorConfidenceCheckE
000000000008cbf4 (__TEXT,__const) external __ZN3awd7metrics30LocationEmergencyPOIStatistics30kSubpremiseCategoryFieldNumberE
000000000008cba0 (__TEXT,__const) external __ZN3awd7metrics30LocationEmergencyPOIStatistics31DSAResultErrorMeCardFetchFailedE
000000000008cbe0 (__TEXT,__const) external __ZN3awd7metrics30LocationEmergencyPOIStatistics31kChosenLOIConfidenceFieldNumberE
000000000008cbf0 (__TEXT,__const) external __ZN3awd7metrics30LocationEmergencyPOIStatistics31kE911LocUncertainityFieldNumberE
000000000008cb9c (__TEXT,__const) external __ZN3awd7metrics30LocationEmergencyPOIStatistics34DSAResultErrorPlacemarkUnavailableE
000000000008cbc4 (__TEXT,__const) external __ZN3awd7metrics30LocationEmergencyPOIStatistics34kNormDevOverReportedUncFieldNumberE
000000000008cbec (__TEXT,__const) external __ZN3awd7metrics30LocationEmergencyPOIStatistics36kPlacemarkLocUncertainityFieldNumberE
000000000008cbb8 (__TEXT,__const) external __ZN3awd7metrics30LocationEmergencyPOIStatistics38kFixDeviationFromNearestPOIFieldNumberE
000000000008cbe4 (__TEXT,__const) external __ZN3awd7metrics30LocationEmergencyPOIStatistics38kPlacemarkLocDevFrome911LocFieldNumberE
000000000008cbc8 (__TEXT,__const) external __ZN3awd7metrics30LocationEmergencyPOIStatistics44kNormDevOverSumLOIUncAndReportUncFieldNumberE
000000000008cbe8 (__TEXT,__const) external __ZN3awd7metrics30LocationEmergencyPOIStatistics47kPlacemarkLocDevFromCurrentDeviceLocFieldNumberE
0000000000060b88 (__TEXT,__text) external __ZN3awd7metrics30LocationEmergencyPOIStatistics4SwapEPS1_
000000000005fd82 (__TEXT,__text) external __ZN3awd7metrics30LocationEmergencyPOIStatistics5ClearEv
000000000008cb50 (__TEXT,__const) external __ZN3awd7metrics30LocationEmergencyPOIStatistics7SuccessE
0000000000060b58 (__TEXT,__text) external __ZN3awd7metrics30LocationEmergencyPOIStatistics8CopyFromERKS1_
000000000005f97a (__TEXT,__text) external __ZN3awd7metrics30LocationEmergencyPOIStatistics9MergeFromERKS1_
000000000008a698 (__TEXT,__text) non-external __ZN3awd7metrics30LocationEmergencyPOIStatistics9MergeFromERKS1_.cold.1
000000000008a6bb (__TEXT,__text) non-external __ZN3awd7metrics30LocationEmergencyPOIStatistics9MergeFromERKS1_.cold.2
000000000008a6de (__TEXT,__text) non-external __ZN3awd7metrics30LocationEmergencyPOIStatistics9MergeFromERKS1_.cold.3
000000000008a701 (__TEXT,__text) non-external __ZN3awd7metrics30LocationEmergencyPOIStatistics9MergeFromERKS1_.cold.4
000000000008a724 (__TEXT,__text) non-external __ZN3awd7metrics30LocationEmergencyPOIStatistics9MergeFromERKS1_.cold.5
000000000005fc26 (__TEXT,__text) external __ZN3awd7metrics30LocationEmergencyPOIStatisticsC1ERKS1_
00000000000036ce (__TEXT,__text) external __ZN3awd7metrics30LocationEmergencyPOIStatisticsC1Ev
000000000005f916 (__TEXT,__text) external __ZN3awd7metrics30LocationEmergencyPOIStatisticsC2ERKS1_
000000000005f898 (__TEXT,__text) external __ZN3awd7metrics30LocationEmergencyPOIStatisticsC2Ev
000000000005fcc8 (__TEXT,__text) external __ZN3awd7metrics30LocationEmergencyPOIStatisticsD0Ev
000000000005fca2 (__TEXT,__text) external __ZN3awd7metrics30LocationEmergencyPOIStatisticsD1Ev
000000000005fc30 (__TEXT,__text) external __ZN3awd7metrics30LocationEmergencyPOIStatisticsD2Ev
0000000000014f84 (__TEXT,__text) external __ZN3awd7metrics30LocationSecondaryDeviceRequest10SharedCtorEv
000000000001512e (__TEXT,__text) external __ZN3awd7metrics30LocationSecondaryDeviceRequest10SharedDtorEv
0000000000015182 (__TEXT,__text) external __ZN3awd7metrics30LocationSecondaryDeviceRequest16default_instanceEv
000000000009d058 (__DATA_DIRTY,__common) external __ZN3awd7metrics30LocationSecondaryDeviceRequest17default_instance_E
0000000000015904 (__TEXT,__text) external __ZN3awd7metrics30LocationSecondaryDeviceRequest21CheckTypeAndMergeFromERKN20wireless_diagnostics6google8protobuf11MessageLiteE
000000000008992b (__TEXT,__text) non-external __ZN3awd7metrics30LocationSecondaryDeviceRequest21CheckTypeAndMergeFromERKN20wireless_diagnostics6google8protobuf11MessageLiteE.cold.1
00000000000039de (__TEXT,__text) external __ZN3awd7metrics30LocationSecondaryDeviceRequest21InitAsDefaultInstanceEv
000000000008ba58 (__TEXT,__const) external __ZN3awd7metrics30LocationSecondaryDeviceRequest21kTimestampFieldNumberE
000000000008ba74 (__TEXT,__const) external __ZN3awd7metrics30LocationSecondaryDeviceRequest23kFullResyncsFieldNumberE
000000000008ba5c (__TEXT,__const) external __ZN3awd7metrics30LocationSecondaryDeviceRequest25kRequestsTotalFieldNumberE
000000000001520a (__TEXT,__text) external __ZN3awd7metrics30LocationSecondaryDeviceRequest27MergePartialFromCodedStreamEPN20wireless_diagnostics6google8protobuf2io16CodedInputStreamE
000000000008ba68 (__TEXT,__const) external __ZN3awd7metrics30LocationSecondaryDeviceRequest27kFailedConnectedFieldNumberE
000000000008ba70 (__TEXT,__const) external __ZN3awd7metrics30LocationSecondaryDeviceRequest27kFailedTunnelledFieldNumberE
000000000008ba6c (__TEXT,__const) external __ZN3awd7metrics30LocationSecondaryDeviceRequest28kFailedStandaloneFieldNumberE
000000000008ba60 (__TEXT,__const) external __ZN3awd7metrics30LocationSecondaryDeviceRequest29kRequestStandaloneFieldNumberE
000000000008ba64 (__TEXT,__const) external __ZN3awd7metrics30LocationSecondaryDeviceRequest29kRequestsTunnelledFieldNumberE
000000000008ba78 (__TEXT,__const) external __ZN3awd7metrics30LocationSecondaryDeviceRequest30kApInTilePercentageFieldNumberE
0000000000015972 (__TEXT,__text) external __ZN3awd7metrics30LocationSecondaryDeviceRequest4SwapEPS1_
00000000000151d6 (__TEXT,__text) external __ZN3awd7metrics30LocationSecondaryDeviceRequest5ClearEv
0000000000015942 (__TEXT,__text) external __ZN3awd7metrics30LocationSecondaryDeviceRequest8CopyFromERKS1_
0000000000014fda (__TEXT,__text) external __ZN3awd7metrics30LocationSecondaryDeviceRequest9MergeFromERKS1_
0000000000015110 (__TEXT,__text) external __ZN3awd7metrics30LocationSecondaryDeviceRequestC1ERKS1_
0000000000002b98 (__TEXT,__text) external __ZN3awd7metrics30LocationSecondaryDeviceRequestC1Ev
0000000000014f9a (__TEXT,__text) external __ZN3awd7metrics30LocationSecondaryDeviceRequestC2ERKS1_
0000000000014f64 (__TEXT,__text) external __ZN3awd7metrics30LocationSecondaryDeviceRequestC2Ev
0000000000015148 (__TEXT,__text) external __ZN3awd7metrics30LocationSecondaryDeviceRequestD0Ev
0000000000015134 (__TEXT,__text) external __ZN3awd7metrics30LocationSecondaryDeviceRequestD1Ev
000000000001511a (__TEXT,__text) external __ZN3awd7metrics30LocationSecondaryDeviceRequestD2Ev
000000000003c442 (__TEXT,__text) external __ZN3awd7metrics30MotionFitnessStrideCalibration10SharedCtorEv
000000000003c5d6 (__TEXT,__text) external __ZN3awd7metrics30MotionFitnessStrideCalibration10SharedDtorEv
000000000003c62a (__TEXT,__text) external __ZN3awd7metrics30MotionFitnessStrideCalibration16default_instanceEv
000000000009d0f0 (__DATA_DIRTY,__common) external __ZN3awd7metrics30MotionFitnessStrideCalibration17default_instance_E
000000000003cce0 (__TEXT,__text) external __ZN3awd7metrics30MotionFitnessStrideCalibration21CheckTypeAndMergeFromERKN20wireless_diagnostics6google8protobuf11MessageLiteE
0000000000089dd8 (__TEXT,__text) non-external __ZN3awd7metrics30MotionFitnessStrideCalibration21CheckTypeAndMergeFromERKN20wireless_diagnostics6google8protobuf11MessageLiteE.cold.1
0000000000003b3a (__TEXT,__text) external __ZN3awd7metrics30MotionFitnessStrideCalibration21InitAsDefaultInstanceEv
000000000008c250 (__TEXT,__const) external __ZN3awd7metrics30MotionFitnessStrideCalibration21kHeightBinFieldNumberE
000000000008c234 (__TEXT,__const) external __ZN3awd7metrics30MotionFitnessStrideCalibration21kTimestampFieldNumberE
000000000008c248 (__TEXT,__const) external __ZN3awd7metrics30MotionFitnessStrideCalibration25kNumStepsTrackFieldNumberE
000000000008c244 (__TEXT,__const) external __ZN3awd7metrics30MotionFitnessStrideCalibration25kTimespanTrackFieldNumberE
000000000008c24c (__TEXT,__const) external __ZN3awd7metrics30MotionFitnessStrideCalibration25kTrackGradientFieldNumberE
000000000003c6a4 (__TEXT,__text) external __ZN3awd7metrics30MotionFitnessStrideCalibration27MergePartialFromCodedStreamEPN20wireless_diagnostics6google8protobuf2io16CodedInputStreamE
000000000008c23c (__TEXT,__const) external __ZN3awd7metrics30MotionFitnessStrideCalibration28kGpsTrackDistanceFieldNumberE
000000000008c240 (__TEXT,__const) external __ZN3awd7metrics30MotionFitnessStrideCalibration29kCalibrationStatusFieldNumberE
000000000008c238 (__TEXT,__const) external __ZN3awd7metrics30MotionFitnessStrideCalibration31kRawPedTrackDistanceFieldNumberE
000000000003cd4e (__TEXT,__text) external __ZN3awd7metrics30MotionFitnessStrideCalibration4SwapEPS1_
000000000003c67e (__TEXT,__text) external __ZN3awd7metrics30MotionFitnessStrideCalibration5ClearEv
000000000003cd1e (__TEXT,__text) external __ZN3awd7metrics30MotionFitnessStrideCalibration8CopyFromERKS1_
000000000003c498 (__TEXT,__text) external __ZN3awd7metrics30MotionFitnessStrideCalibration9MergeFromERKS1_
000000000003c5b8 (__TEXT,__text) external __ZN3awd7metrics30MotionFitnessStrideCalibrationC1ERKS1_
00000000000030b6 (__TEXT,__text) external __ZN3awd7metrics30MotionFitnessStrideCalibrationC1Ev
000000000003c458 (__TEXT,__text) external __ZN3awd7metrics30MotionFitnessStrideCalibrationC2ERKS1_
000000000003c422 (__TEXT,__text) external __ZN3awd7metrics30MotionFitnessStrideCalibrationC2Ev
000000000003c5f0 (__TEXT,__text) external __ZN3awd7metrics30MotionFitnessStrideCalibrationD0Ev
000000000003c5dc (__TEXT,__text) external __ZN3awd7metrics30MotionFitnessStrideCalibrationD1Ev
000000000003c5c2 (__TEXT,__text) external __ZN3awd7metrics30MotionFitnessStrideCalibrationD2Ev
000000000007e512 (__TEXT,__text) external __ZN3awd7metrics31LocationMicroLocationModelState10SharedCtorEv
000000000007e6b6 (__TEXT,__text) external __ZN3awd7metrics31LocationMicroLocationModelState10SharedDtorEv
000000000007e70a (__TEXT,__text) external __ZN3awd7metrics31LocationMicroLocationModelState16default_instanceEv
000000000009d378 (__DATA_DIRTY,__common) external __ZN3awd7metrics31LocationMicroLocationModelState17default_instance_E
000000000008e424 (__TEXT,__const) external __ZN3awd7metrics31LocationMicroLocationModelState19kLoiTypeFieldNumberE
000000000007ec8a (__TEXT,__text) external __ZN3awd7metrics31LocationMicroLocationModelState21CheckTypeAndMergeFromERKN20wireless_diagnostics6google8protobuf11MessageLiteE
000000000008af7a (__TEXT,__text) non-external __ZN3awd7metrics31LocationMicroLocationModelState21CheckTypeAndMergeFromERKN20wireless_diagnostics6google8protobuf11MessageLiteE.cold.1
0000000000078e64 (__TEXT,__text) external __ZN3awd7metrics31LocationMicroLocationModelState21InitAsDefaultInstanceEv
000000000008e434 (__TEXT,__const) external __ZN3awd7metrics31LocationMicroLocationModelState21kModelTypeFieldNumberE
000000000008e420 (__TEXT,__const) external __ZN3awd7metrics31LocationMicroLocationModelState21kTimestampFieldNumberE
000000000007e794 (__TEXT,__text) external __ZN3awd7metrics31LocationMicroLocationModelState27MergePartialFromCodedStreamEPN20wireless_diagnostics6google8protobuf2io16CodedInputStreamE
000000000008e430 (__TEXT,__const) external __ZN3awd7metrics31LocationMicroLocationModelState28kAgeOfNewestModelFieldNumberE
000000000008e42c (__TEXT,__const) external __ZN3awd7metrics31LocationMicroLocationModelState28kNumberOfClustersFieldNumberE
000000000008e428 (__TEXT,__const) external __ZN3awd7metrics31LocationMicroLocationModelState31kGenerationAlgorithmFieldNumberE
000000000007ecf8 (__TEXT,__text) external __ZN3awd7metrics31LocationMicroLocationModelState4SwapEPS1_
000000000007e768 (__TEXT,__text) external __ZN3awd7metrics31LocationMicroLocationModelState5ClearEv
000000000007ecc8 (__TEXT,__text) external __ZN3awd7metrics31LocationMicroLocationModelState8CopyFromERKS1_
000000000007e57e (__TEXT,__text) external __ZN3awd7metrics31LocationMicroLocationModelState9MergeFromERKS1_
000000000008af11 (__TEXT,__text) non-external __ZN3awd7metrics31LocationMicroLocationModelState9MergeFromERKS1_.cold.1
000000000008af34 (__TEXT,__text) non-external __ZN3awd7metrics31LocationMicroLocationModelState9MergeFromERKS1_.cold.2
000000000008af57 (__TEXT,__text) non-external __ZN3awd7metrics31LocationMicroLocationModelState9MergeFromERKS1_.cold.3
000000000007e698 (__TEXT,__text) external __ZN3awd7metrics31LocationMicroLocationModelStateC1ERKS1_
0000000000078cc6 (__TEXT,__text) external __ZN3awd7metrics31LocationMicroLocationModelStateC1Ev
000000000007e532 (__TEXT,__text) external __ZN3awd7metrics31LocationMicroLocationModelStateC2ERKS1_
000000000007e4e8 (__TEXT,__text) external __ZN3awd7metrics31LocationMicroLocationModelStateC2Ev
000000000007e6d0 (__TEXT,__text) external __ZN3awd7metrics31LocationMicroLocationModelStateD0Ev
000000000007e6bc (__TEXT,__text) external __ZN3awd7metrics31LocationMicroLocationModelStateD1Ev
000000000007e6a2 (__TEXT,__text) external __ZN3awd7metrics31LocationMicroLocationModelStateD2Ev
00000000000810fa (__TEXT,__text) external __ZN3awd7metrics31LocationMicroLocationStatistics10SharedCtorEv
000000000008172e (__TEXT,__text) external __ZN3awd7metrics31LocationMicroLocationStatistics10SharedDtorEv
000000000008178a (__TEXT,__text) external __ZN3awd7metrics31LocationMicroLocationStatistics16default_instanceEv
000000000009d398 (__DATA_DIRTY,__common) external __ZN3awd7metrics31LocationMicroLocationStatistics17default_instance_E
000000000008e484 (__TEXT,__const) external __ZN3awd7metrics31LocationMicroLocationStatistics20kMetaDataFieldNumberE
0000000000082e6e (__TEXT,__text) external __ZN3awd7metrics31LocationMicroLocationStatistics21CheckTypeAndMergeFromERKN20wireless_diagnostics6google8protobuf11MessageLiteE
000000000008b092 (__TEXT,__text) non-external __ZN3awd7metrics31LocationMicroLocationStatistics21CheckTypeAndMergeFromERKN20wireless_diagnostics6google8protobuf11MessageLiteE.cold.1
0000000000078f40 (__TEXT,__text) external __ZN3awd7metrics31LocationMicroLocationStatistics21InitAsDefaultInstanceEv
000000000008e480 (__TEXT,__const) external __ZN3awd7metrics31LocationMicroLocationStatistics21kTimestampFieldNumberE
000000000008e494 (__TEXT,__const) external __ZN3awd7metrics31LocationMicroLocationStatistics22kModelStateFieldNumberE
000000000008e498 (__TEXT,__const) external __ZN3awd7metrics31LocationMicroLocationStatistics25kLearningStateFieldNumberE
000000000008e49c (__TEXT,__const) external __ZN3awd7metrics31LocationMicroLocationStatistics26kAnalyticsStateFieldNumberE
0000000000081a28 (__TEXT,__text) external __ZN3awd7metrics31LocationMicroLocationStatistics27MergePartialFromCodedStreamEPN20wireless_diagnostics6google8protobuf2io16CodedInputStreamE
000000000008e48c (__TEXT,__const) external __ZN3awd7metrics31LocationMicroLocationStatistics31kUserEventStatisticsFieldNumberE
000000000008e4a0 (__TEXT,__const) external __ZN3awd7metrics31LocationMicroLocationStatistics32kClusteringStatisticsFieldNumberE
000000000008e488 (__TEXT,__const) external __ZN3awd7metrics31LocationMicroLocationStatistics33kMeasurementStatisticsFieldNumberE
000000000008e490 (__TEXT,__const) external __ZN3awd7metrics31LocationMicroLocationStatistics34kLocalizationStatisticsFieldNumberE
000000000008e4a8 (__TEXT,__const) external __ZN3awd7metrics31LocationMicroLocationStatistics37kEventClusteringStatisticsFieldNumberE
000000000008e4a4 (__TEXT,__const) external __ZN3awd7metrics31LocationMicroLocationStatistics40kClusteringHistogramsByModelsFieldNumberE
0000000000082edc (__TEXT,__text) external __ZN3awd7metrics31LocationMicroLocationStatistics4SwapEPS1_
000000000008183c (__TEXT,__text) external __ZN3awd7metrics31LocationMicroLocationStatistics5ClearEv
0000000000082eac (__TEXT,__text) external __ZN3awd7metrics31LocationMicroLocationStatistics8CopyFromERKS1_
000000000008127e (__TEXT,__text) external __ZN3awd7metrics31LocationMicroLocationStatistics9MergeFromERKS1_
0000000000081676 (__TEXT,__text) external __ZN3awd7metrics31LocationMicroLocationStatisticsC1ERKS1_
0000000000078d84 (__TEXT,__text) external __ZN3awd7metrics31LocationMicroLocationStatisticsC1Ev
0000000000081112 (__TEXT,__text) external __ZN3awd7metrics31LocationMicroLocationStatisticsC2ERKS1_
000000000008107c (__TEXT,__text) external __ZN3awd7metrics31LocationMicroLocationStatisticsC2Ev
0000000000081758 (__TEXT,__text) external __ZN3awd7metrics31LocationMicroLocationStatisticsD0Ev
000000000008174e (__TEXT,__text) external __ZN3awd7metrics31LocationMicroLocationStatisticsD1Ev
0000000000081680 (__TEXT,__text) external __ZN3awd7metrics31LocationMicroLocationStatisticsD2Ev
0000000000085d72 (__TEXT,__text) external __ZN3awd7metrics31LocationPeerRangingBurstMetrics10SharedCtorEv
0000000000085ec0 (__TEXT,__text) external __ZN3awd7metrics31LocationPeerRangingBurstMetrics10SharedDtorEv
0000000000085f14 (__TEXT,__text) external __ZN3awd7metrics31LocationPeerRangingBurstMetrics16default_instanceEv
000000000009d3b8 (__DATA_DIRTY,__common) external __ZN3awd7metrics31LocationPeerRangingBurstMetrics17default_instance_E
00000000000862cc (__TEXT,__text) external __ZN3awd7metrics31LocationPeerRangingBurstMetrics21CheckTypeAndMergeFromERKN20wireless_diagnostics6google8protobuf11MessageLiteE
000000000008b17f (__TEXT,__text) non-external __ZN3awd7metrics31LocationPeerRangingBurstMetrics21CheckTypeAndMergeFromERKN20wireless_diagnostics6google8protobuf11MessageLiteE.cold.1
000000000008456e (__TEXT,__text) external __ZN3awd7metrics31LocationPeerRangingBurstMetrics21InitAsDefaultInstanceEv
0000000000085f8a (__TEXT,__text) external __ZN3awd7metrics31LocationPeerRangingBurstMetrics27MergePartialFromCodedStreamEPN20wireless_diagnostics6google8protobuf2io16CodedInputStreamE
000000000008e810 (__TEXT,__const) external __ZN3awd7metrics31LocationPeerRangingBurstMetrics34kNumberOfBurstsReceivedFieldNumberE
000000000008e80c (__TEXT,__const) external __ZN3awd7metrics31LocationPeerRangingBurstMetrics35kNumberOfBurstsRequestedFieldNumberE
000000000008633a (__TEXT,__text) external __ZN3awd7metrics31LocationPeerRangingBurstMetrics4SwapEPS1_
000000000008e818 (__TEXT,__const) external __ZN3awd7metrics31LocationPeerRangingBurstMetrics55kAverageNumberOfMeasurementsPerReceivedBurstFieldNumberE
000000000008e814 (__TEXT,__const) external __ZN3awd7metrics31LocationPeerRangingBurstMetrics56kAverageNumberOfMeasurementsPerRequestedBurstFieldNumberE
0000000000085f6c (__TEXT,__text) external __ZN3awd7metrics31LocationPeerRangingBurstMetrics5ClearEv
000000000008630a (__TEXT,__text) external __ZN3awd7metrics31LocationPeerRangingBurstMetrics8CopyFromERKS1_
0000000000085dd0 (__TEXT,__text) external __ZN3awd7metrics31LocationPeerRangingBurstMetrics9MergeFromERKS1_
0000000000085ea2 (__TEXT,__text) external __ZN3awd7metrics31LocationPeerRangingBurstMetricsC1ERKS1_
0000000000084478 (__TEXT,__text) external __ZN3awd7metrics31LocationPeerRangingBurstMetricsC1Ev
0000000000085d8c (__TEXT,__text) external __ZN3awd7metrics31LocationPeerRangingBurstMetricsC2ERKS1_
0000000000085d4e (__TEXT,__text) external __ZN3awd7metrics31LocationPeerRangingBurstMetricsC2Ev
0000000000085eda (__TEXT,__text) external __ZN3awd7metrics31LocationPeerRangingBurstMetricsD0Ev
0000000000085ec6 (__TEXT,__text) external __ZN3awd7metrics31LocationPeerRangingBurstMetricsD1Ev
0000000000085eac (__TEXT,__text) external __ZN3awd7metrics31LocationPeerRangingBurstMetricsD2Ev
000000000005c75c (__TEXT,__text) external __ZN3awd7metrics31LocationPhoneNumberAvailability10SharedCtorEv
000000000005c992 (__TEXT,__text) external __ZN3awd7metrics31LocationPhoneNumberAvailability10SharedDtorEv
000000000008c9f8 (__TEXT,__const) external __ZN3awd7metrics31LocationPhoneNumberAvailability16SPNStatusUnknownE
000000000005ca46 (__TEXT,__text) external __ZN3awd7metrics31LocationPhoneNumberAvailability16default_instanceEv
000000000008c9fc (__TEXT,__const) external __ZN3awd7metrics31LocationPhoneNumberAvailability17SPNNoSubscriptionE
000000000009d228 (__DATA_DIRTY,__common) external __ZN3awd7metrics31LocationPhoneNumberAvailability17default_instance_E
000000000008ca38 (__TEXT,__const) external __ZN3awd7metrics31LocationPhoneNumberAvailability18kSimMccFieldNumberE
000000000008ca3c (__TEXT,__const) external __ZN3awd7metrics31LocationPhoneNumberAvailability18kSimMncFieldNumberE
000000000008ca04 (__TEXT,__const) external __ZN3awd7metrics31LocationPhoneNumberAvailability19SPNNativeNumberOnlyE
000000000008ca00 (__TEXT,__const) external __ZN3awd7metrics31LocationPhoneNumberAvailability20SPNNumberUnavailableE
000000000008ca20 (__TEXT,__const) external __ZN3awd7metrics31LocationPhoneNumberAvailability20kBundleidFieldNumberE
000000000005d26a (__TEXT,__text) external __ZN3awd7metrics31LocationPhoneNumberAvailability21CheckTypeAndMergeFromERKN20wireless_diagnostics6google8protobuf11MessageLiteE
000000000008a5c6 (__TEXT,__text) non-external __ZN3awd7metrics31LocationPhoneNumberAvailability21CheckTypeAndMergeFromERKN20wireless_diagnostics6google8protobuf11MessageLiteE.cold.1
0000000000003cb8 (__TEXT,__text) external __ZN3awd7metrics31LocationPhoneNumberAvailability21InitAsDefaultInstanceEv
000000000008ca0c (__TEXT,__const) external __ZN3awd7metrics31LocationPhoneNumberAvailability21SPNNativeAndCompanionE
000000000008ca34 (__TEXT,__const) external __ZN3awd7metrics31LocationPhoneNumberAvailability21kNInstanceFieldNumberE
000000000008ca1c (__TEXT,__const) external __ZN3awd7metrics31LocationPhoneNumberAvailability21kTimestampFieldNumberE
000000000008ca08 (__TEXT,__const) external __ZN3awd7metrics31LocationPhoneNumberAvailability22SPNCompanionNumberOnlyE
000000000005cb1a (__TEXT,__text) external __ZN3awd7metrics31LocationPhoneNumberAvailability27MergePartialFromCodedStreamEPN20wireless_diagnostics6google8protobuf2io16CodedInputStreamE
000000000008ca30 (__TEXT,__const) external __ZN3awd7metrics31LocationPhoneNumberAvailability31kIsEEDEnabledCarrierFieldNumberE
000000000008ca28 (__TEXT,__const) external __ZN3awd7metrics31LocationPhoneNumberAvailability33kTimeSinceProvisioningFieldNumberE
000000000008ca24 (__TEXT,__const) external __ZN3awd7metrics31LocationPhoneNumberAvailability35kPhoneNumberAvailabilityFieldNumberE
000000000008ca2c (__TEXT,__const) external __ZN3awd7metrics31LocationPhoneNumberAvailability35kTimeWithoutNativeNumberFieldNumberE
000000000008ca14 (__TEXT,__const) external __ZN3awd7metrics31LocationPhoneNumberAvailability36SubscriptionAndPhoneNumberStatus_MAXE
000000000008ca10 (__TEXT,__const) external __ZN3awd7metrics31LocationPhoneNumberAvailability36SubscriptionAndPhoneNumberStatus_MINE
000000000008ca18 (__TEXT,__const) external __ZN3awd7metrics31LocationPhoneNumberAvailability42SubscriptionAndPhoneNumberStatus_ARRAYSIZEE
000000000005d2d8 (__TEXT,__text) external __ZN3awd7metrics31LocationPhoneNumberAvailability4SwapEPS1_
000000000005cab2 (__TEXT,__text) external __ZN3awd7metrics31LocationPhoneNumberAvailability5ClearEv
000000000005d2a8 (__TEXT,__text) external __ZN3awd7metrics31LocationPhoneNumberAvailability8CopyFromERKS1_
000000000005c7e2 (__TEXT,__text) external __ZN3awd7metrics31LocationPhoneNumberAvailability9MergeFromERKS1_
000000000008a5a3 (__TEXT,__text) non-external __ZN3awd7metrics31LocationPhoneNumberAvailability9MergeFromERKS1_.cold.1
000000000005c962 (__TEXT,__text) external __ZN3awd7metrics31LocationPhoneNumberAvailabilityC1ERKS1_
000000000000362c (__TEXT,__text) external __ZN3awd7metrics31LocationPhoneNumberAvailabilityC1Ev
000000000005c78a (__TEXT,__text) external __ZN3awd7metrics31LocationPhoneNumberAvailabilityC2ERKS1_
000000000005c724 (__TEXT,__text) external __ZN3awd7metrics31LocationPhoneNumberAvailabilityC2Ev
000000000005ca04 (__TEXT,__text) external __ZN3awd7metrics31LocationPhoneNumberAvailabilityD0Ev
000000000005c9de (__TEXT,__text) external __ZN3awd7metrics31LocationPhoneNumberAvailabilityD1Ev
000000000005c96c (__TEXT,__text) external __ZN3awd7metrics31LocationPhoneNumberAvailabilityD2Ev
000000000005b2f4 (__TEXT,__text) external __ZN3awd7metrics32LocationGnssSWRecoveryStatistics10SharedCtorEv
000000000005b4da (__TEXT,__text) external __ZN3awd7metrics32LocationGnssSWRecoveryStatistics10SharedDtorEv
000000000005b5a6 (__TEXT,__text) external __ZN3awd7metrics32LocationGnssSWRecoveryStatistics16default_instanceEv
000000000009d200 (__DATA_DIRTY,__common) external __ZN3awd7metrics32LocationGnssSWRecoveryStatistics17default_instance_E
000000000008c9b8 (__TEXT,__const) external __ZN3awd7metrics32LocationGnssSWRecoveryStatistics20kBundleidFieldNumberE
000000000005ba2c (__TEXT,__text) external __ZN3awd7metrics32LocationGnssSWRecoveryStatistics21CheckTypeAndMergeFromERKN20wireless_diagnostics6google8protobuf11MessageLiteE
000000000008a517 (__TEXT,__text) non-external __ZN3awd7metrics32LocationGnssSWRecoveryStatistics21CheckTypeAndMergeFromERKN20wireless_diagnostics6google8protobuf11MessageLiteE.cold.1
0000000000003c4e (__TEXT,__text) external __ZN3awd7metrics32LocationGnssSWRecoveryStatistics21InitAsDefaultInstanceEv
000000000008c9b4 (__TEXT,__const) external __ZN3awd7metrics32LocationGnssSWRecoveryStatistics21kTimestampFieldNumberE
000000000008c9bc (__TEXT,__const) external __ZN3awd7metrics32LocationGnssSWRecoveryStatistics24kRecoveryInfoFieldNumberE
000000000005b66c (__TEXT,__text) external __ZN3awd7metrics32LocationGnssSWRecoveryStatistics27MergePartialFromCodedStreamEPN20wireless_diagnostics6google8protobuf2io16CodedInputStreamE
000000000005ba9a (__TEXT,__text) external __ZN3awd7metrics32LocationGnssSWRecoveryStatistics4SwapEPS1_
000000000005b604 (__TEXT,__text) external __ZN3awd7metrics32LocationGnssSWRecoveryStatistics5ClearEv
000000000005ba6a (__TEXT,__text) external __ZN3awd7metrics32LocationGnssSWRecoveryStatistics8CopyFromERKS1_
000000000005b360 (__TEXT,__text) external __ZN3awd7metrics32LocationGnssSWRecoveryStatistics9MergeFromERKS1_
000000000005b4aa (__TEXT,__text) external __ZN3awd7metrics32LocationGnssSWRecoveryStatisticsC1ERKS1_
000000000000355e (__TEXT,__text) external __ZN3awd7metrics32LocationGnssSWRecoveryStatisticsC1Ev
000000000005b314 (__TEXT,__text) external __ZN3awd7metrics32LocationGnssSWRecoveryStatisticsC2ERKS1_
000000000005b2ca (__TEXT,__text) external __ZN3awd7metrics32LocationGnssSWRecoveryStatisticsC2Ev
000000000005b564 (__TEXT,__text) external __ZN3awd7metrics32LocationGnssSWRecoveryStatisticsD0Ev
000000000005b53e (__TEXT,__text) external __ZN3awd7metrics32LocationGnssSWRecoveryStatisticsD1Ev
000000000005b4b4 (__TEXT,__text) external __ZN3awd7metrics32LocationGnssSWRecoveryStatisticsD2Ev
0000000000015a37 (__TEXT,__text) external __ZN3awd7metrics33CompassSession_CoverState_IsValidEi
0000000000040f52 (__TEXT,__text) external __ZN3awd7metrics33LocationSubHarvesterUploadAttempt10SharedCtorEv
0000000000041076 (__TEXT,__text) external __ZN3awd7metrics33LocationSubHarvesterUploadAttempt10SharedDtorEv
00000000000410ca (__TEXT,__text) external __ZN3awd7metrics33LocationSubHarvesterUploadAttempt16default_instanceEv
000000000009d130 (__DATA_DIRTY,__common) external __ZN3awd7metrics33LocationSubHarvesterUploadAttempt17default_instance_E
00000000000413d8 (__TEXT,__text) external __ZN3awd7metrics33LocationSubHarvesterUploadAttempt21CheckTypeAndMergeFromERKN20wireless_diagnostics6google8protobuf11MessageLiteE
0000000000089f13 (__TEXT,__text) non-external __ZN3awd7metrics33LocationSubHarvesterUploadAttempt21CheckTypeAndMergeFromERKN20wireless_diagnostics6google8protobuf11MessageLiteE.cold.1
0000000000003b6a (__TEXT,__text) external __ZN3awd7metrics33LocationSubHarvesterUploadAttempt21InitAsDefaultInstanceEv
000000000008c354 (__TEXT,__const) external __ZN3awd7metrics33LocationSubHarvesterUploadAttempt21kErrorCodeFieldNumberE
000000000008c358 (__TEXT,__const) external __ZN3awd7metrics33LocationSubHarvesterUploadAttempt26kPointsAttachedFieldNumberE
000000000004113a (__TEXT,__text) external __ZN3awd7metrics33LocationSubHarvesterUploadAttempt27MergePartialFromCodedStreamEPN20wireless_diagnostics6google8protobuf2io16CodedInputStreamE
000000000008c350 (__TEXT,__const) external __ZN3awd7metrics33LocationSubHarvesterUploadAttempt27kUploadSucceededFieldNumberE
0000000000041446 (__TEXT,__text) external __ZN3awd7metrics33LocationSubHarvesterUploadAttempt4SwapEPS1_
000000000004111a (__TEXT,__text) external __ZN3awd7metrics33LocationSubHarvesterUploadAttempt5ClearEv
0000000000041416 (__TEXT,__text) external __ZN3awd7metrics33LocationSubHarvesterUploadAttempt8CopyFromERKS1_
0000000000040fa0 (__TEXT,__text) external __ZN3awd7metrics33LocationSubHarvesterUploadAttempt9MergeFromERKS1_
0000000000041058 (__TEXT,__text) external __ZN3awd7metrics33LocationSubHarvesterUploadAttemptC1ERKS1_
00000000000031ea (__TEXT,__text) external __ZN3awd7metrics33LocationSubHarvesterUploadAttemptC1Ev
0000000000040f64 (__TEXT,__text) external __ZN3awd7metrics33LocationSubHarvesterUploadAttemptC2ERKS1_
0000000000040f36 (__TEXT,__text) external __ZN3awd7metrics33LocationSubHarvesterUploadAttemptC2Ev
0000000000041090 (__TEXT,__text) external __ZN3awd7metrics33LocationSubHarvesterUploadAttemptD0Ev
000000000004107c (__TEXT,__text) external __ZN3awd7metrics33LocationSubHarvesterUploadAttemptD1Ev
0000000000041062 (__TEXT,__text) external __ZN3awd7metrics33LocationSubHarvesterUploadAttemptD2Ev
000000000001c6a2 (__TEXT,__text) external __ZN3awd7metrics33MotionGyroBiasEstimation_EndCount10SharedCtorEv
000000000001c800 (__TEXT,__text) external __ZN3awd7metrics33MotionGyroBiasEstimation_EndCount10SharedDtorEv
000000000001c854 (__TEXT,__text) external __ZN3awd7metrics33MotionGyroBiasEstimation_EndCount16default_instanceEv
000000000009d0a8 (__DATA_DIRTY,__common) external __ZN3awd7metrics33MotionGyroBiasEstimation_EndCount17default_instance_E
000000000008bbf0 (__TEXT,__const) external __ZN3awd7metrics33MotionGyroBiasEstimation_EndCount19kUnknownFieldNumberE
000000000001cdbc (__TEXT,__text) external __ZN3awd7metrics33MotionGyroBiasEstimation_EndCount21CheckTypeAndMergeFromERKN20wireless_diagnostics6google8protobuf11MessageLiteE
0000000000089aac (__TEXT,__text) non-external __ZN3awd7metrics33MotionGyroBiasEstimation_EndCount21CheckTypeAndMergeFromERKN20wireless_diagnostics6google8protobuf11MessageLiteE.cold.1
0000000000003b04 (__TEXT,__text) external __ZN3awd7metrics33MotionGyroBiasEstimation_EndCount21InitAsDefaultInstanceEv
000000000001c8c6 (__TEXT,__text) external __ZN3awd7metrics33MotionGyroBiasEstimation_EndCount27MergePartialFromCodedStreamEPN20wireless_diagnostics6google8protobuf2io16CodedInputStreamE
000000000008bc00 (__TEXT,__const) external __ZN3awd7metrics33MotionGyroBiasEstimation_EndCount27kProactiveMotionFieldNumberE
000000000008bc04 (__TEXT,__const) external __ZN3awd7metrics33MotionGyroBiasEstimation_EndCount28kProactiveTimeoutFieldNumberE
000000000008bbfc (__TEXT,__const) external __ZN3awd7metrics33MotionGyroBiasEstimation_EndCount30kProactiveConvergedFieldNumberE
000000000008bbf8 (__TEXT,__const) external __ZN3awd7metrics33MotionGyroBiasEstimation_EndCount33kOpportunisticDisabledFieldNumberE
000000000008bbf4 (__TEXT,__const) external __ZN3awd7metrics33MotionGyroBiasEstimation_EndCount34kOpportunisticConvergedFieldNumberE
000000000001ce2a (__TEXT,__text) external __ZN3awd7metrics33MotionGyroBiasEstimation_EndCount4SwapEPS1_
000000000001c8a4 (__TEXT,__text) external __ZN3awd7metrics33MotionGyroBiasEstimation_EndCount5ClearEv
000000000001cdfa (__TEXT,__text) external __ZN3awd7metrics33MotionGyroBiasEstimation_EndCount8CopyFromERKS1_
000000000001c6f0 (__TEXT,__text) external __ZN3awd7metrics33MotionGyroBiasEstimation_EndCount9MergeFromERKS1_
000000000001c7e2 (__TEXT,__text) external __ZN3awd7metrics33MotionGyroBiasEstimation_EndCountC1ERKS1_
0000000000002d70 (__TEXT,__text) external __ZN3awd7metrics33MotionGyroBiasEstimation_EndCountC1Ev
000000000001c6b4 (__TEXT,__text) external __ZN3awd7metrics33MotionGyroBiasEstimation_EndCountC2ERKS1_
000000000001c686 (__TEXT,__text) external __ZN3awd7metrics33MotionGyroBiasEstimation_EndCountC2Ev
000000000001c81a (__TEXT,__text) external __ZN3awd7metrics33MotionGyroBiasEstimation_EndCountD0Ev
000000000001c806 (__TEXT,__text) external __ZN3awd7metrics33MotionGyroBiasEstimation_EndCountD1Ev
000000000001c7ec (__TEXT,__text) external __ZN3awd7metrics33MotionGyroBiasEstimation_EndCountD2Ev
0000000000001019 (__TEXT,__text) external __ZN3awd7metrics33protobuf_AddDesc_Location_2eprotoEv
00000000000649a8 (__TEXT,__text) external __ZN3awd7metrics34LocationAccessory_MessageHistogram10SharedCtorEv
0000000000064b24 (__TEXT,__text) external __ZN3awd7metrics34LocationAccessory_MessageHistogram10SharedDtorEv
0000000000064bd8 (__TEXT,__text) external __ZN3awd7metrics34LocationAccessory_MessageHistogram16default_instanceEv
000000000008cd90 (__TEXT,__const) external __ZN3awd7metrics34LocationAccessory_MessageHistogram16kNameFieldNumberE
000000000009d290 (__DATA_DIRTY,__common) external __ZN3awd7metrics34LocationAccessory_MessageHistogram17default_instance_E
000000000008cd94 (__TEXT,__const) external __ZN3awd7metrics34LocationAccessory_MessageHistogram17kCountFieldNumberE
0000000000064ed0 (__TEXT,__text) external __ZN3awd7metrics34LocationAccessory_MessageHistogram21CheckTypeAndMergeFromERKN20wireless_diagnostics6google8protobuf11MessageLiteE
000000000008a90e (__TEXT,__text) non-external __ZN3awd7metrics34LocationAccessory_MessageHistogram21CheckTypeAndMergeFromERKN20wireless_diagnostics6google8protobuf11MessageLiteE.cold.1
0000000000003f72 (__TEXT,__text) external __ZN3awd7metrics34LocationAccessory_MessageHistogram21InitAsDefaultInstanceEv
0000000000064c7e (__TEXT,__text) external __ZN3awd7metrics34LocationAccessory_MessageHistogram27MergePartialFromCodedStreamEPN20wireless_diagnostics6google8protobuf2io16CodedInputStreamE
0000000000064f3e (__TEXT,__text) external __ZN3awd7metrics34LocationAccessory_MessageHistogram4SwapEPS1_
0000000000064c36 (__TEXT,__text) external __ZN3awd7metrics34LocationAccessory_MessageHistogram5ClearEv
0000000000064f0e (__TEXT,__text) external __ZN3awd7metrics34LocationAccessory_MessageHistogram8CopyFromERKS1_
0000000000064a14 (__TEXT,__text) external __ZN3awd7metrics34LocationAccessory_MessageHistogram9MergeFromERKS1_
0000000000064af4 (__TEXT,__text) external __ZN3awd7metrics34LocationAccessory_MessageHistogramC1ERKS1_
000000000000381c (__TEXT,__text) external __ZN3awd7metrics34LocationAccessory_MessageHistogramC1Ev
00000000000649c8 (__TEXT,__text) external __ZN3awd7metrics34LocationAccessory_MessageHistogramC2ERKS1_
000000000006497e (__TEXT,__text) external __ZN3awd7metrics34LocationAccessory_MessageHistogramC2Ev
0000000000064b96 (__TEXT,__text) external __ZN3awd7metrics34LocationAccessory_MessageHistogramD0Ev
0000000000064b70 (__TEXT,__text) external __ZN3awd7metrics34LocationAccessory_MessageHistogramD1Ev
0000000000064afe (__TEXT,__text) external __ZN3awd7metrics34LocationAccessory_MessageHistogramD2Ev
00000000000625f0 (__TEXT,__text) external __ZN3awd7metrics34LocationAccessory_PerformanceStats10SharedCtorEv
000000000006281c (__TEXT,__text) external __ZN3awd7metrics34LocationAccessory_PerformanceStats10SharedDtorEv
0000000000062876 (__TEXT,__text) external __ZN3awd7metrics34LocationAccessory_PerformanceStats16default_instanceEv
000000000009d270 (__DATA_DIRTY,__common) external __ZN3awd7metrics34LocationAccessory_PerformanceStats17default_instance_E
00000000000631b4 (__TEXT,__text) external __ZN3awd7metrics34LocationAccessory_PerformanceStats21CheckTypeAndMergeFromERKN20wireless_diagnostics6google8protobuf11MessageLiteE
000000000008a83c (__TEXT,__text) non-external __ZN3awd7metrics34LocationAccessory_PerformanceStats21CheckTypeAndMergeFromERKN20wireless_diagnostics6google8protobuf11MessageLiteE.cold.1
0000000000003f0e (__TEXT,__text) external __ZN3awd7metrics34LocationAccessory_PerformanceStats21InitAsDefaultInstanceEv
000000000008cd68 (__TEXT,__const) external __ZN3awd7metrics34LocationAccessory_PerformanceStats21kStatsDiffFieldNumberE
000000000008cd5c (__TEXT,__const) external __ZN3awd7metrics34LocationAccessory_PerformanceStats25kHistogramDiffFieldNumberE
00000000000629a4 (__TEXT,__text) external __ZN3awd7metrics34LocationAccessory_PerformanceStats27MergePartialFromCodedStreamEPN20wireless_diagnostics6google8protobuf2io16CodedInputStreamE
000000000008cd6c (__TEXT,__const) external __ZN3awd7metrics34LocationAccessory_PerformanceStats29kInvalidEpochCountFieldNumberE
000000000008cd64 (__TEXT,__const) external __ZN3awd7metrics34LocationAccessory_PerformanceStats30kHistogramDeviceUncFieldNumberE
000000000008cd60 (__TEXT,__const) external __ZN3awd7metrics34LocationAccessory_PerformanceStats33kHistogramAccessoryUncFieldNumberE
000000000006334e (__TEXT,__text) external __ZN3awd7metrics34LocationAccessory_PerformanceStats4SwapEPS1_
00000000000628dc (__TEXT,__text) external __ZN3awd7metrics34LocationAccessory_PerformanceStats5ClearEv
000000000006331e (__TEXT,__text) external __ZN3awd7metrics34LocationAccessory_PerformanceStats8CopyFromERKS1_
0000000000062698 (__TEXT,__text) external __ZN3awd7metrics34LocationAccessory_PerformanceStats9MergeFromERKS1_
00000000000627b2 (__TEXT,__text) external __ZN3awd7metrics34LocationAccessory_PerformanceStatsC1ERKS1_
0000000000003790 (__TEXT,__text) external __ZN3awd7metrics34LocationAccessory_PerformanceStatsC1Ev
0000000000062604 (__TEXT,__text) external __ZN3awd7metrics34LocationAccessory_PerformanceStatsC2ERKS1_
00000000000625be (__TEXT,__text) external __ZN3awd7metrics34LocationAccessory_PerformanceStatsC2Ev
0000000000062846 (__TEXT,__text) external __ZN3awd7metrics34LocationAccessory_PerformanceStatsD0Ev
000000000006283c (__TEXT,__text) external __ZN3awd7metrics34LocationAccessory_PerformanceStatsD1Ev
00000000000627bc (__TEXT,__text) external __ZN3awd7metrics34LocationAccessory_PerformanceStatsD2Ev
000000000000401c (__TEXT,__text) external __ZN3awd7metrics34LocationAuthorizationState_IsValidEi
000000000008b628 (__TEXT,__const) external __ZN3awd7metrics34LocationEmergencySessionStatistics10CDMAHybridE
000000000008b80c (__TEXT,__const) external __ZN3awd7metrics34LocationEmergencySessionStatistics10CallModeSAE
000000000008b618 (__TEXT,__const) external __ZN3awd7metrics34LocationEmergencySessionStatistics10GSMCompactE
000000000008b6dc (__TEXT,__const) external __ZN3awd7metrics34LocationEmergencySessionStatistics10InvalidSMSE
000000000008b578 (__TEXT,__const) external __ZN3awd7metrics34LocationEmergencySessionStatistics10MSAssistedE
000000000008b59c (__TEXT,__const) external __ZN3awd7metrics34LocationEmergencySessionStatistics10NoPositionE
000000000008b698 (__TEXT,__const) external __ZN3awd7metrics34LocationEmergencySessionStatistics10OverriddenE
000000000000be20 (__TEXT,__text) external __ZN3awd7metrics34LocationEmergencySessionStatistics10SharedCtorEv
000000000000d2de (__TEXT,__text) external __ZN3awd7metrics34LocationEmergencySessionStatistics10SharedDtorEv
000000000008b654 (__TEXT,__const) external __ZN3awd7metrics34LocationEmergencySessionStatistics10SingleshotE
000000000008b580 (__TEXT,__const) external __ZN3awd7metrics34LocationEmergencySessionStatistics10StandaloneE
000000000008b610 (__TEXT,__const) external __ZN3awd7metrics34LocationEmergencySessionStatistics10UnknownRATE
000000000008b810 (__TEXT,__const) external __ZN3awd7metrics34LocationEmergencySessionStatistics11CallModeNSAE
000000000008b6a8 (__TEXT,__const) external __ZN3awd7metrics34LocationEmergencySessionStatistics11ConnSSLFailE
000000000008b6c0 (__TEXT,__const) external __ZN3awd7metrics34LocationEmergencySessionStatistics11DecodeErrorE
00000000000112ec (__TEXT,__text) non-external (was a private external) __ZN3awd7metrics34LocationEmergencySessionStatistics11set_envtypeENS0_60LocationEmergencySessionStatistics_GnssSignalEnvironmentTypeE
000000000008989f (__TEXT,__text) non-external __ZN3awd7metrics34LocationEmergencySessionStatistics11set_envtypeENS0_60LocationEmergencySessionStatistics_GnssSignalEnvironmentTypeE.cold.1
000000000008b818 (__TEXT,__const) external __ZN3awd7metrics34LocationEmergencySessionStatistics12CallMode_MAXE
000000000008b814 (__TEXT,__const) external __ZN3awd7metrics34LocationEmergencySessionStatistics12CallMode_MINE
000000000008b768 (__TEXT,__const) external __ZN3awd7metrics34LocationEmergencySessionStatistics12CommTypeTextE
000000000008b6b0 (__TEXT,__const) external __ZN3awd7metrics34LocationEmergencySessionStatistics12ConnReadFailE
000000000008b5b0 (__TEXT,__const) external __ZN3awd7metrics34LocationEmergencySessionStatistics12ControlPlaneE
000000000008b7f0 (__TEXT,__const) external __ZN3awd7metrics34LocationEmergencySessionStatistics12MsgTypeAbortE
000000000008b7ec (__TEXT,__const) external __ZN3awd7metrics34LocationEmergencySessionStatistics12MsgTypeErrorE
000000000008b67c (__TEXT,__const) external __ZN3awd7metrics34LocationEmergencySessionStatistics12NetworkAbortE
000000000008b680 (__TEXT,__const) external __ZN3awd7metrics34LocationEmergencySessionStatistics12NoAssistanceE
000000000008b6d4 (__TEXT,__const) external __ZN3awd7metrics34LocationEmergencySessionStatistics12UnknownErrorE
000000000008b68c (__TEXT,__const) external __ZN3awd7metrics34LocationEmergencySessionStatistics13BasebandAbortE
000000000008b6a0 (__TEXT,__const) external __ZN3awd7metrics34LocationEmergencySessionStatistics13CarrierUpdateE
000000000008b764 (__TEXT,__const) external __ZN3awd7metrics34LocationEmergencySessionStatistics13CommTypeVoiceE
000000000008b6b4 (__TEXT,__const) external __ZN3awd7metrics34LocationEmergencySessionStatistics13ConnGetFdFailE
000000000008b6b8 (__TEXT,__const) external __ZN3awd7metrics34LocationEmergencySessionStatistics13ConnWriteFailE
000000000008b70c (__TEXT,__const) external __ZN3awd7metrics34LocationEmergencySessionStatistics13HELOUsageUsedE
000000000008b718 (__TEXT,__const) external __ZN3awd7metrics34LocationEmergencySessionStatistics13HELOUsage_MAXE
000000000008b714 (__TEXT,__const) external __ZN3awd7metrics34LocationEmergencySessionStatistics13HELOUsage_MINE
000000000008b744 (__TEXT,__const) external __ZN3awd7metrics34LocationEmergencySessionStatistics13PNUnavailableE
000000000008b678 (__TEXT,__const) external __ZN3awd7metrics34LocationEmergencySessionStatistics13ProtocolErrorE
000000000008b574 (__TEXT,__const) external __ZN3awd7metrics34LocationEmergencySessionStatistics13UnknownMethodE
000000000008b5c8 (__TEXT,__const) external __ZN3awd7metrics34LocationEmergencySessionStatistics13WlanUserPlaneE
000000000008b7dc (__TEXT,__const) external __ZN3awd7metrics34LocationEmergencySessionStatistics14MsgTypeUnknownE
000000000008b6a4 (__TEXT,__const) external __ZN3awd7metrics34LocationEmergencySessionStatistics14OperatorUpdateE
000000000008b6cc (__TEXT,__const) external __ZN3awd7metrics34LocationEmergencySessionStatistics14SuplNotAllowedE
000000000008b5ac (__TEXT,__const) external __ZN3awd7metrics34LocationEmergencySessionStatistics14UnknownSessionE
000000000008b808 (__TEXT,__const) external __ZN3awd7metrics34LocationEmergencySessionStatistics15CallModeUnknownE
000000000008b760 (__TEXT,__const) external __ZN3awd7metrics34LocationEmergencySessionStatistics15CommTypeUnknownE
000000000008b6ac (__TEXT,__const) external __ZN3awd7metrics34LocationEmergencySessionStatistics15ConnGenericFailE
000000000008b710 (__TEXT,__const) external __ZN3awd7metrics34LocationEmergencySessionStatistics15HELOUsageUnusedE
000000000008b5e0 (__TEXT,__const) external __ZN3awd7metrics34LocationEmergencySessionStatistics15UnknownProtocolE
000000000008b6bc (__TEXT,__const) external __ZN3awd7metrics34LocationEmergencySessionStatistics15VersionMismatchE
000000000008b898 (__TEXT,__const) external __ZN3awd7metrics34LocationEmergencySessionStatistics15kMccFieldNumberE
000000000008b89c (__TEXT,__const) external __ZN3awd7metrics34LocationEmergencySessionStatistics15kMncFieldNumberE
000000000008b8a4 (__TEXT,__const) external __ZN3awd7metrics34LocationEmergencySessionStatistics15kNidFieldNumberE
000000000008b8a0 (__TEXT,__const) external __ZN3awd7metrics34LocationEmergencySessionStatistics15kSidFieldNumberE
000000000008b6d0 (__TEXT,__const) external __ZN3awd7metrics34LocationEmergencySessionStatistics16AlreadyInSessionE
000000000008b694 (__TEXT,__const) external __ZN3awd7metrics34LocationEmergencySessionStatistics16EmergencyCallEndE
000000000008b708 (__TEXT,__const) external __ZN3awd7metrics34LocationEmergencySessionStatistics16HELOUsageUnknownE
000000000008b6c4 (__TEXT,__const) external __ZN3awd7metrics34LocationEmergencySessionStatistics16InvalidSessionIdE
000000000008b588 (__TEXT,__const) external __ZN3awd7metrics34LocationEmergencySessionStatistics16MSBasedPreferredE
000000000008b7f4 (__TEXT,__const) external __ZN3awd7metrics34LocationEmergencySessionStatistics16MsgTypeTestResetE
000000000008b5c4 (__TEXT,__const) external __ZN3awd7metrics34LocationEmergencySessionStatistics16WlanControlPlaneE
000000000000d47a (__TEXT,__text) external __ZN3awd7metrics34LocationEmergencySessionStatistics16default_instanceEv
000000000008b880 (__TEXT,__const) external __ZN3awd7metrics34LocationEmergencySessionStatistics16kTtffFieldNumberE
000000000008b854 (__TEXT,__const) external __ZN3awd7metrics34LocationEmergencySessionStatistics17ADRFieldAvailableE
000000000008b840 (__TEXT,__const) external __ZN3awd7metrics34LocationEmergencySessionStatistics17TriggerTypeSosEcgE
000000000008b650 (__TEXT,__const) external __ZN3awd7metrics34LocationEmergencySessionStatistics17UnknownReportTypeE
000000000009d040 (__DATA_DIRTY,__common) external __ZN3awd7metrics34LocationEmergencySessionStatistics17default_instance_E
000000000008b7d4 (__TEXT,__const) external __ZN3awd7metrics34LocationEmergencySessionStatistics18AbortCauseType_MAXE
000000000008b7d0 (__TEXT,__const) external __ZN3awd7metrics34LocationEmergencySessionStatistics18AbortCauseType_MINE
000000000008b690 (__TEXT,__const) external __ZN3awd7metrics34LocationEmergencySessionStatistics18BasebandDisconnectE
000000000008b81c (__TEXT,__const) external __ZN3awd7metrics34LocationEmergencySessionStatistics18CallMode_ARRAYSIZEE
000000000008b688 (__TEXT,__const) external __ZN3awd7metrics34LocationEmergencySessionStatistics18MethodNotSupportedE
000000000008b748 (__TEXT,__const) external __ZN3awd7metrics34LocationEmergencySessionStatistics18PNNativeNumberOnlyE
000000000008b5a4 (__TEXT,__const) external __ZN3awd7metrics34LocationEmergencySessionStatistics18PositionMethod_MAXE
000000000008b5a0 (__TEXT,__const) external __ZN3awd7metrics34LocationEmergencySessionStatistics18PositionMethod_MINE
000000000008b664 (__TEXT,__const) external __ZN3awd7metrics34LocationEmergencySessionStatistics18PositionReport_MAXE
000000000008b660 (__TEXT,__const) external __ZN3awd7metrics34LocationEmergencySessionStatistics18PositionReport_MINE
000000000008b834 (__TEXT,__const) external __ZN3awd7metrics34LocationEmergencySessionStatistics18TriggerTypeSosClawE
000000000008b820 (__TEXT,__const) external __ZN3awd7metrics34LocationEmergencySessionStatistics18TriggerTypeUnknownE
000000000008b6f8 (__TEXT,__const) external __ZN3awd7metrics34LocationEmergencySessionStatistics18WlanErrorUndefinedE
000000000008b6f4 (__TEXT,__const) external __ZN3awd7metrics34LocationEmergencySessionStatistics18WlanSessionTimeoutE
000000000008b858 (__TEXT,__const) external __ZN3awd7metrics34LocationEmergencySessionStatistics19ADRFieldUnavailableE
000000000008b848 (__TEXT,__const) external __ZN3awd7metrics34LocationEmergencySessionStatistics19CallTriggerType_MAXE
000000000008b844 (__TEXT,__const) external __ZN3awd7metrics34LocationEmergencySessionStatistics19CallTriggerType_MINE
000000000008b71c (__TEXT,__const) external __ZN3awd7metrics34LocationEmergencySessionStatistics19HELOUsage_ARRAYSIZEE
000000000008b6c8 (__TEXT,__const) external __ZN3awd7metrics34LocationEmergencySessionStatistics19HslpAddressMismatchE
000000000008b584 (__TEXT,__const) external __ZN3awd7metrics34LocationEmergencySessionStatistics19MSAssistedPreferredE
000000000008b684 (__TEXT,__const) external __ZN3awd7metrics34LocationEmergencySessionStatistics19NotEnoughSatellitesE
000000000008b6e8 (__TEXT,__const) external __ZN3awd7metrics34LocationEmergencySessionStatistics19OutsideCoverageAreaE
000000000008b5d8 (__TEXT,__const) external __ZN3awd7metrics34LocationEmergencySessionStatistics19PositionSession_MAXE
000000000008b5d4 (__TEXT,__const) external __ZN3awd7metrics34LocationEmergencySessionStatistics19PositionSession_MINE
000000000008b6e0 (__TEXT,__const) external __ZN3awd7metrics34LocationEmergencySessionStatistics19RoamingNotSupportedE
000000000008b94c (__TEXT,__const) external __ZN3awd7metrics34LocationEmergencySessionStatistics19kEnvTypeFieldNumberE
000000000008b894 (__TEXT,__const) external __ZN3awd7metrics34LocationEmergencySessionStatistics19kRatTypeFieldNumberE
000000000008b7e0 (__TEXT,__const) external __ZN3awd7metrics34LocationEmergencySessionStatistics20MsgTypeCapabilityReqE
000000000008b750 (__TEXT,__const) external __ZN3awd7metrics34LocationEmergencySessionStatistics20PNNativeAndCompanionE
000000000008b608 (__TEXT,__const) external __ZN3awd7metrics34LocationEmergencySessionStatistics20PositionProtocol_MAXE
000000000008b604 (__TEXT,__const) external __ZN3awd7metrics34LocationEmergencySessionStatistics20PositionProtocol_MINE
000000000008b700 (__TEXT,__const) external __ZN3awd7metrics34LocationEmergencySessionStatistics20SessionErrorCode_MAXE
000000000008b6fc (__TEXT,__const) external __ZN3awd7metrics34LocationEmergencySessionStatistics20SessionErrorCode_MINE
000000000008b738 (__TEXT,__const) external __ZN3awd7metrics34LocationEmergencySessionStatistics20TandemCapability_MAXE
000000000008b734 (__TEXT,__const) external __ZN3awd7metrics34LocationEmergencySessionStatistics20TandemCapability_MINE
000000000008b6f0 (__TEXT,__const) external __ZN3awd7metrics34LocationEmergencySessionStatistics20WlanMeasNotAvailableE
000000000008b8cc (__TEXT,__const) external __ZN3awd7metrics34LocationEmergencySessionStatistics20kAltitudeFieldNumberE
000000000008b870 (__TEXT,__const) external __ZN3awd7metrics34LocationEmergencySessionStatistics20kBundleidFieldNumberE
000000000008b9c0 (__TEXT,__const) external __ZN3awd7metrics34LocationEmergencySessionStatistics20kCallModeFieldNumberE
000000000008b948 (__TEXT,__const) external __ZN3awd7metrics34LocationEmergencySessionStatistics20kCommTypeFieldNumberE
000000000008b8c8 (__TEXT,__const) external __ZN3awd7metrics34LocationEmergencySessionStatistics20kHELOUsedFieldNumberE
000000000008b874 (__TEXT,__const) external __ZN3awd7metrics34LocationEmergencySessionStatistics20kLatitudeFieldNumberE
000000000001340c (__TEXT,__text) external __ZN3awd7metrics34LocationEmergencySessionStatistics21CheckTypeAndMergeFromERKN20wireless_diagnostics6google8protobuf11MessageLiteE
00000000000898c2 (__TEXT,__text) non-external __ZN3awd7metrics34LocationEmergencySessionStatistics21CheckTypeAndMergeFromERKN20wireless_diagnostics6google8protobuf11MessageLiteE.cold.1
000000000008b770 (__TEXT,__const) external __ZN3awd7metrics34LocationEmergencySessionStatistics21CommunicationType_MAXE
000000000008b76c (__TEXT,__const) external __ZN3awd7metrics34LocationEmergencySessionStatistics21CommunicationType_MINE
00000000000039cc (__TEXT,__text) external __ZN3awd7metrics34LocationEmergencySessionStatistics21InitAsDefaultInstanceEv
000000000008b74c (__TEXT,__const) external __ZN3awd7metrics34LocationEmergencySessionStatistics21PNCompanionNumberOnlyE
000000000008b740 (__TEXT,__const) external __ZN3awd7metrics34LocationEmergencySessionStatistics21PNUnknownAvailabilityE
000000000008b82c (__TEXT,__const) external __ZN3awd7metrics34LocationEmergencySessionStatistics21TriggerTypeSosUnknownE
000000000008b8bc (__TEXT,__const) external __ZN3awd7metrics34LocationEmergencySessionStatistics21kErrorCodeFieldNumberE
000000000008b878 (__TEXT,__const) external __ZN3awd7metrics34LocationEmergencySessionStatistics21kLongitudeFieldNumberE
000000000008b8f4 (__TEXT,__const) external __ZN3awd7metrics34LocationEmergencySessionStatistics21kNInstanceFieldNumberE
000000000008b8d4 (__TEXT,__const) external __ZN3awd7metrics34LocationEmergencySessionStatistics21kSendErrorFieldNumberE
000000000008b86c (__TEXT,__const) external __ZN3awd7metrics34LocationEmergencySessionStatistics21kTimestampFieldNumberE
000000000008b9c4 (__TEXT,__const) external __ZN3awd7metrics34LocationEmergencySessionStatistics21kWatchModeFieldNumberE
000000000008b6d8 (__TEXT,__const) external __ZN3awd7metrics34LocationEmergencySessionStatistics22NotInCellularEmergencyE
000000000008b6e4 (__TEXT,__const) external __ZN3awd7metrics34LocationEmergencySessionStatistics22PhoneNumberUnavailableE
000000000008b6ec (__TEXT,__const) external __ZN3awd7metrics34LocationEmergencySessionStatistics22WlanMethodNotSupportedE
000000000008b954 (__TEXT,__const) external __ZN3awd7metrics34LocationEmergencySessionStatistics22kAbortCauseFieldNumberE
000000000008b8e0 (__TEXT,__const) external __ZN3awd7metrics34LocationEmergencySessionStatistics22kIsTandemDPFieldNumberE
000000000008b8f8 (__TEXT,__const) external __ZN3awd7metrics34LocationEmergencySessionStatistics22kIsTandemVDFieldNumberE
000000000008b888 (__TEXT,__const) external __ZN3awd7metrics34LocationEmergencySessionStatistics22kMethodTypeFieldNumberE
000000000008b8d8 (__TEXT,__const) external __ZN3awd7metrics34LocationEmergencySessionStatistics22kModemErrorFieldNumberE
000000000008b7c4 (__TEXT,__const) external __ZN3awd7metrics34LocationEmergencySessionStatistics23AbortCauseTypeApTimeoutE
000000000008b7c0 (__TEXT,__const) external __ZN3awd7metrics34LocationEmergencySessionStatistics23AbortCauseTypeApUnknownE
000000000008b7a0 (__TEXT,__const) external __ZN3awd7metrics34LocationEmergencySessionStatistics23AbortCauseTypeBbInvalidE
000000000008b7a8 (__TEXT,__const) external __ZN3awd7metrics34LocationEmergencySessionStatistics23AbortCauseTypeBbNetworkE
000000000008b7b0 (__TEXT,__const) external __ZN3awd7metrics34LocationEmergencySessionStatistics23AbortCauseTypeBbRATLossE
000000000008b7a4 (__TEXT,__const) external __ZN3awd7metrics34LocationEmergencySessionStatistics23AbortCauseTypeBbUnknownE
000000000008b800 (__TEXT,__const) external __ZN3awd7metrics34LocationEmergencySessionStatistics23DiscardedPosMsgType_MAXE
000000000008b7fc (__TEXT,__const) external __ZN3awd7metrics34LocationEmergencySessionStatistics23DiscardedPosMsgType_MINE
000000000008b728 (__TEXT,__const) external __ZN3awd7metrics34LocationEmergencySessionStatistics23TandemCapabilityEnabledE
000000000008b720 (__TEXT,__const) external __ZN3awd7metrics34LocationEmergencySessionStatistics23TandemCapabilityInvalidE
000000000008b730 (__TEXT,__const) external __ZN3awd7metrics34LocationEmergencySessionStatistics23TandemCapabilityUnknownE
000000000008b824 (__TEXT,__const) external __ZN3awd7metrics34LocationEmergencySessionStatistics23TriggerTypeNormalDialerE
000000000008b8c0 (__TEXT,__const) external __ZN3awd7metrics34LocationEmergencySessionStatistics23kHELOEnabledFieldNumberE
000000000008b88c (__TEXT,__const) external __ZN3awd7metrics34LocationEmergencySessionStatistics23kSessionTypeFieldNumberE
000000000008b92c (__TEXT,__const) external __ZN3awd7metrics34LocationEmergencySessionStatistics23kWasNILRSentFieldNumberE
000000000008b864 (__TEXT,__const) external __ZN3awd7metrics34LocationEmergencySessionStatistics24ADRFieldAvailability_MAXE
000000000008b860 (__TEXT,__const) external __ZN3awd7metrics34LocationEmergencySessionStatistics24ADRFieldAvailability_MINE
000000000008b7d8 (__TEXT,__const) external __ZN3awd7metrics34LocationEmergencySessionStatistics24AbortCauseType_ARRAYSIZEE
000000000008b5a8 (__TEXT,__const) external __ZN3awd7metrics34LocationEmergencySessionStatistics24PositionMethod_ARRAYSIZEE
000000000008b668 (__TEXT,__const) external __ZN3awd7metrics34LocationEmergencySessionStatistics24PositionReport_ARRAYSIZEE
000000000008b724 (__TEXT,__const) external __ZN3awd7metrics34LocationEmergencySessionStatistics24TandemCapabilityDisabledE
000000000008b838 (__TEXT,__const) external __ZN3awd7metrics34LocationEmergencySessionStatistics24TriggerTypeSosButtonHoldE
000000000008b830 (__TEXT,__const) external __ZN3awd7metrics34LocationEmergencySessionStatistics24TriggerTypeSosMultiPressE
000000000008b9ac (__TEXT,__const) external __ZN3awd7metrics34LocationEmergencySessionStatistics24kCallDurationFieldNumberE
000000000008b8c4 (__TEXT,__const) external __ZN3awd7metrics34LocationEmergencySessionStatistics24kHELOInjectedFieldNumberE
000000000008b90c (__TEXT,__const) external __ZN3awd7metrics34LocationEmergencySessionStatistics24kHELORejectedFieldNumberE
000000000008b978 (__TEXT,__const) external __ZN3awd7metrics34LocationEmergencySessionStatistics24kIsDBHEnabledFieldNumberE
000000000008b8fc (__TEXT,__const) external __ZN3awd7metrics34LocationEmergencySessionStatistics24kIsSimPresentFieldNumberE
000000000008b8e8 (__TEXT,__const) external __ZN3awd7metrics34LocationEmergencySessionStatistics24kOrbitFileAgeFieldNumberE
000000000008b890 (__TEXT,__const) external __ZN3awd7metrics34LocationEmergencySessionStatistics24kProtocolTypeFieldNumberE
000000000008b904 (__TEXT,__const) external __ZN3awd7metrics34LocationEmergencySessionStatistics24kSubscribeMNCFieldNumberE
000000000008b84c (__TEXT,__const) external __ZN3awd7metrics34LocationEmergencySessionStatistics25CallTriggerType_ARRAYSIZEE
000000000008b7f8 (__TEXT,__const) external __ZN3awd7metrics34LocationEmergencySessionStatistics25MsgTypeTestUpdateLocationE
000000000008b5dc (__TEXT,__const) external __ZN3awd7metrics34LocationEmergencySessionStatistics25PositionSession_ARRAYSIZEE
000000000008b648 (__TEXT,__const) external __ZN3awd7metrics34LocationEmergencySessionStatistics25RadioAccessTechnology_MAXE
000000000008b644 (__TEXT,__const) external __ZN3awd7metrics34LocationEmergencySessionStatistics25RadioAccessTechnology_MINE
000000000008b974 (__TEXT,__const) external __ZN3awd7metrics34LocationEmergencySessionStatistics25kIsSUPLEnabledFieldNumberE
000000000008b900 (__TEXT,__const) external __ZN3awd7metrics34LocationEmergencySessionStatistics25kSubscriberMCCFieldNumberE
000000000008b7cc (__TEXT,__const) external __ZN3awd7metrics34LocationEmergencySessionStatistics26AbortCauseTypeApEmgModeEndE
000000000008b7b8 (__TEXT,__const) external __ZN3awd7metrics34LocationEmergencySessionStatistics26AbortCauseTypeBbCPOverrideE
000000000008b7b4 (__TEXT,__const) external __ZN3awd7metrics34LocationEmergencySessionStatistics26AbortCauseTypeBbEmgModeEndE
000000000008b7e8 (__TEXT,__const) external __ZN3awd7metrics34LocationEmergencySessionStatistics26MsgTypeRequestLocationInfoE
000000000008b60c (__TEXT,__const) external __ZN3awd7metrics34LocationEmergencySessionStatistics26PositionProtocol_ARRAYSIZEE
000000000008b704 (__TEXT,__const) external __ZN3awd7metrics34LocationEmergencySessionStatistics26SessionErrorCode_ARRAYSIZEE
000000000008b73c (__TEXT,__const) external __ZN3awd7metrics34LocationEmergencySessionStatistics26TandemCapability_ARRAYSIZEE
000000000008b8dc (__TEXT,__const) external __ZN3awd7metrics34LocationEmergencySessionStatistics26kWifiAssociatedFieldNumberE
000000000008b850 (__TEXT,__const) external __ZN3awd7metrics34LocationEmergencySessionStatistics27ADRFieldAvailabilityUnknownE
000000000008b85c (__TEXT,__const) external __ZN3awd7metrics34LocationEmergencySessionStatistics27ADRFieldAvailableButNotSentE
000000000008b774 (__TEXT,__const) external __ZN3awd7metrics34LocationEmergencySessionStatistics27CommunicationType_ARRAYSIZEE
000000000000d8ae (__TEXT,__text) external __ZN3awd7metrics34LocationEmergencySessionStatistics27MergePartialFromCodedStreamEPN20wireless_diagnostics6google8protobuf2io16CodedInputStreamE
000000000008b758 (__TEXT,__const) external __ZN3awd7metrics34LocationEmergencySessionStatistics27PhoneNumberAvailability_MAXE
000000000008b754 (__TEXT,__const) external __ZN3awd7metrics34LocationEmergencySessionStatistics27PhoneNumberAvailability_MINE
000000000008b828 (__TEXT,__const) external __ZN3awd7metrics34LocationEmergencySessionStatistics27TriggerTypeLockscreenDialerE
000000000008b83c (__TEXT,__const) external __ZN3awd7metrics34LocationEmergencySessionStatistics27TriggerTypeSosFallDetectionE
000000000008b9dc (__TEXT,__const) external __ZN3awd7metrics34LocationEmergencySessionStatistics27kAgeAvailabilityFieldNumberE
000000000008b9d0 (__TEXT,__const) external __ZN3awd7metrics34LocationEmergencySessionStatistics27kCallTriggerTypeFieldNumberE
000000000008b968 (__TEXT,__const) external __ZN3awd7metrics34LocationEmergencySessionStatistics27kCarrierBundleIDFieldNumberE
000000000008b9d4 (__TEXT,__const) external __ZN3awd7metrics34LocationEmergencySessionStatistics27kDsaAvailabilityFieldNumberE
000000000008b7ac (__TEXT,__const) external __ZN3awd7metrics34LocationEmergencySessionStatistics28AbortCauseTypeBbGaurdTimeoutE
000000000008b7e4 (__TEXT,__const) external __ZN3awd7metrics34LocationEmergencySessionStatistics28MsgTypeProvideAssistanceDataE
000000000008b72c (__TEXT,__const) external __ZN3awd7metrics34LocationEmergencySessionStatistics28TandemCapabilityNotSupportedE
000000000008b87c (__TEXT,__const) external __ZN3awd7metrics34LocationEmergencySessionStatistics28kAchievedAccuracyFieldNumberE
000000000008b910 (__TEXT,__const) external __ZN3awd7metrics34LocationEmergencySessionStatistics28kHeloRejectReasonFieldNumberE
000000000008b9d8 (__TEXT,__const) external __ZN3awd7metrics34LocationEmergencySessionStatistics28kNameAvailabilityFieldNumberE
000000000008b8f0 (__TEXT,__const) external __ZN3awd7metrics34LocationEmergencySessionStatistics28kTandemCapabilityFieldNumberE
000000000008b884 (__TEXT,__const) external __ZN3awd7metrics34LocationEmergencySessionStatistics28kTechnologySourceFieldNumberE
000000000008b9a0 (__TEXT,__const) external __ZN3awd7metrics34LocationEmergencySessionStatistics28kWasRssiRequestedFieldNumberE
000000000008b9a4 (__TEXT,__const) external __ZN3awd7metrics34LocationEmergencySessionStatistics28kWasServingApSentFieldNumberE
000000000008b7bc (__TEXT,__const) external __ZN3awd7metrics34LocationEmergencySessionStatistics29AbortCauseTypeBbEndOfPeriodicE
000000000008b804 (__TEXT,__const) external __ZN3awd7metrics34LocationEmergencySessionStatistics29DiscardedPosMsgType_ARRAYSIZEE
000000000008b798 (__TEXT,__const) external __ZN3awd7metrics34LocationEmergencySessionStatistics29GnssSignalEnvironmentType_MAXE
000000000008b794 (__TEXT,__const) external __ZN3awd7metrics34LocationEmergencySessionStatistics29GnssSignalEnvironmentType_MINE
000000000008b914 (__TEXT,__const) external __ZN3awd7metrics34LocationEmergencySessionStatistics29kNumValidFixesSentFieldNumberE
000000000008b8ac (__TEXT,__const) external __ZN3awd7metrics34LocationEmergencySessionStatistics29kRequestedAccuracyFieldNumberE
000000000008b640 (__TEXT,__const) external __ZN3awd7metrics34LocationEmergencySessionStatistics2NRE
000000000008b868 (__TEXT,__const) external __ZN3awd7metrics34LocationEmergencySessionStatistics30ADRFieldAvailability_ARRAYSIZEE
000000000008b77c (__TEXT,__const) external __ZN3awd7metrics34LocationEmergencySessionStatistics30GnssSignalEnvironmentTypeRuralE
000000000008b780 (__TEXT,__const) external __ZN3awd7metrics34LocationEmergencySessionStatistics30GnssSignalEnvironmentTypeUrbanE
000000000008b9e4 (__TEXT,__const) external __ZN3awd7metrics34LocationEmergencySessionStatistics30kHeightAvailabilityFieldNumberE
000000000008b944 (__TEXT,__const) external __ZN3awd7metrics34LocationEmergencySessionStatistics30kNwRefLocConfidenceFieldNumberE
000000000008b95c (__TEXT,__const) external __ZN3awd7metrics34LocationEmergencySessionStatistics30kSupersededCommTypeFieldNumberE
000000000008b97c (__TEXT,__const) external __ZN3awd7metrics34LocationEmergencySessionStatistics30kWasDBHLocationSentFieldNumberE
000000000008b9e0 (__TEXT,__const) external __ZN3awd7metrics34LocationEmergencySessionStatistics30kWeightAvailabilityFieldNumberE
000000000008b7c8 (__TEXT,__const) external __ZN3awd7metrics34LocationEmergencySessionStatistics31AbortCauseTypeApSessionOverrideE
000000000008b790 (__TEXT,__const) external __ZN3awd7metrics34LocationEmergencySessionStatistics31GnssSignalEnvironmentTypeMarineE
000000000008b64c (__TEXT,__const) external __ZN3awd7metrics34LocationEmergencySessionStatistics31RadioAccessTechnology_ARRAYSIZEE
000000000008b9b0 (__TEXT,__const) external __ZN3awd7metrics34LocationEmergencySessionStatistics31kDiscardedPosMsgTypeFieldNumberE
000000000008b950 (__TEXT,__const) external __ZN3awd7metrics34LocationEmergencySessionStatistics31kIsInActiveEmergencyFieldNumberE
000000000008b930 (__TEXT,__const) external __ZN3awd7metrics34LocationEmergencySessionStatistics31kIsNWRefLocAvailableFieldNumberE
000000000008b990 (__TEXT,__const) external __ZN3awd7metrics34LocationEmergencySessionStatistics31kTimeToFirstRavenFixFieldNumberE
000000000008b9b8 (__TEXT,__const) external __ZN3awd7metrics34LocationEmergencySessionStatistics31kWasNavModelReceivedFieldNumberE
000000000008b8ec (__TEXT,__const) external __ZN3awd7metrics34LocationEmergencySessionStatistics31kWasNetworkReachableFieldNumberE
000000000008b78c (__TEXT,__const) external __ZN3awd7metrics34LocationEmergencySessionStatistics32GnssSignalEnvironmentTypeFoliageE
000000000008b964 (__TEXT,__const) external __ZN3awd7metrics34LocationEmergencySessionStatistics32kCarrierBundleVersionFieldNumberE
000000000008ba04 (__TEXT,__const) external __ZN3awd7metrics34LocationEmergencySessionStatistics32kDeviceSystemLanguageFieldNumberE
000000000008b8e4 (__TEXT,__const) external __ZN3awd7metrics34LocationEmergencySessionStatistics32kIsOrbitFileAvailableFieldNumberE
000000000008b994 (__TEXT,__const) external __ZN3awd7metrics34LocationEmergencySessionStatistics32kIsWlanFeatureEnabledFieldNumberE
000000000008b918 (__TEXT,__const) external __ZN3awd7metrics34LocationEmergencySessionStatistics32kNumNoFixMessagesSentFieldNumberE
000000000008b934 (__TEXT,__const) external __ZN3awd7metrics34LocationEmergencySessionStatistics32kNwRefLocUncertainityFieldNumberE
000000000008b908 (__TEXT,__const) external __ZN3awd7metrics34LocationEmergencySessionStatistics32kSatelliteReportCountFieldNumberE
000000000008b75c (__TEXT,__const) external __ZN3awd7metrics34LocationEmergencySessionStatistics33PhoneNumberAvailability_ARRAYSIZEE
000000000008b9e8 (__TEXT,__const) external __ZN3awd7metrics34LocationEmergencySessionStatistics33kBloodTypeAvailabilityFieldNumberE
000000000008ba00 (__TEXT,__const) external __ZN3awd7metrics34LocationEmergencySessionStatistics33kDevicePrimaryLanguageFieldNumberE
000000000008b928 (__TEXT,__const) external __ZN3awd7metrics34LocationEmergencySessionStatistics33kPhoneNumbersAvailableFieldNumberE
000000000008b958 (__TEXT,__const) external __ZN3awd7metrics34LocationEmergencySessionStatistics33kSupersededSessionTypeFieldNumberE
000000000008b8b8 (__TEXT,__const) external __ZN3awd7metrics34LocationEmergencySessionStatistics33kTransmissionBandwidthFieldNumberE
000000000008b8b4 (__TEXT,__const) external __ZN3awd7metrics34LocationEmergencySessionStatistics33kTransmissionFrequencyFieldNumberE
000000000008ba0c (__TEXT,__const) external __ZN3awd7metrics34LocationEmergencySessionStatistics34kDaysSinceLastAgeUpdateFieldNumberE
000000000008b99c (__TEXT,__const) external __ZN3awd7metrics34LocationEmergencySessionStatistics34kIsRssiReportingEnabledFieldNumberE
000000000008b784 (__TEXT,__const) external __ZN3awd7metrics34LocationEmergencySessionStatistics35GnssSignalEnvironmentTypeDenseUrbanE
000000000008b79c (__TEXT,__const) external __ZN3awd7metrics34LocationEmergencySessionStatistics35GnssSignalEnvironmentType_ARRAYSIZEE
000000000008ba08 (__TEXT,__const) external __ZN3awd7metrics34LocationEmergencySessionStatistics35kDaysSinceLastNameUpdateFieldNumberE
000000000008b998 (__TEXT,__const) external __ZN3awd7metrics34LocationEmergencySessionStatistics35kIsLocationSourceEnabledFieldNumberE
000000000008b924 (__TEXT,__const) external __ZN3awd7metrics34LocationEmergencySessionStatistics35kLastHttpPostFailureCodeFieldNumberE
000000000008b970 (__TEXT,__const) external __ZN3awd7metrics34LocationEmergencySessionStatistics35kLocConfigContentVersionFieldNumberE
000000000008b9f4 (__TEXT,__const) external __ZN3awd7metrics34LocationEmergencySessionStatistics35kMedicationsAvailabilityFieldNumberE
000000000008b98c (__TEXT,__const) external __ZN3awd7metrics34LocationEmergencySessionStatistics35kNumRavenFixMessagesSentFieldNumberE
000000000008b778 (__TEXT,__const) external __ZN3awd7metrics34LocationEmergencySessionStatistics36GnssSignalEnvironmentTypeUnavailableE
000000000008b8d0 (__TEXT,__const) external __ZN3awd7metrics34LocationEmergencySessionStatistics36kAchievedVerticalAccuracyFieldNumberE
000000000008b9ec (__TEXT,__const) external __ZN3awd7metrics34LocationEmergencySessionStatistics36kMedicalNotesAvailabilityFieldNumberE
000000000008b920 (__TEXT,__const) external __ZN3awd7metrics34LocationEmergencySessionStatistics36kNumSendFailForValidFixesFieldNumberE
000000000008b8a8 (__TEXT,__const) external __ZN3awd7metrics34LocationEmergencySessionStatistics36kRequestedResponseTimeoutFieldNumberE
000000000008b9bc (__TEXT,__const) external __ZN3awd7metrics34LocationEmergencySessionStatistics36kWasAcqAssistanceReceivedFieldNumberE
000000000008b9f0 (__TEXT,__const) external __ZN3awd7metrics34LocationEmergencySessionStatistics37kAllergyDetailAvailabilityFieldNumberE
000000000008ba14 (__TEXT,__const) external __ZN3awd7metrics34LocationEmergencySessionStatistics37kDaysSinceLastHeightUpdateFieldNumberE
000000000008ba10 (__TEXT,__const) external __ZN3awd7metrics34LocationEmergencySessionStatistics37kDaysSinceLastWeightUpdateFieldNumberE
000000000008b91c (__TEXT,__const) external __ZN3awd7metrics34LocationEmergencySessionStatistics37kNumSendSuccessForValidFixFieldNumberE
000000000008b938 (__TEXT,__const) external __ZN3awd7metrics34LocationEmergencySessionStatistics37kNwRefLocDeviationFromHELOFieldNumberE
000000000008b9b4 (__TEXT,__const) external __ZN3awd7metrics34LocationEmergencySessionStatistics37kWasTimeAssistanceReceivedFieldNumberE
000000000008b988 (__TEXT,__const) external __ZN3awd7metrics34LocationEmergencySessionStatistics38kDbhIntermediateFixAccuracyFieldNumberE
000000000008b9c8 (__TEXT,__const) external __ZN3awd7metrics34LocationEmergencySessionStatistics39kCountOfADRTotalPayloadsSentFieldNumberE
000000000008b8b0 (__TEXT,__const) external __ZN3awd7metrics34LocationEmergencySessionStatistics39kRequestedPositionReportTypeFieldNumberE
000000000008b5bc (__TEXT,__const) external __ZN3awd7metrics34LocationEmergencySessionStatistics3AMLE
000000000008b5c0 (__TEXT,__const) external __ZN3awd7metrics34LocationEmergencySessionStatistics3EEDE
000000000008b614 (__TEXT,__const) external __ZN3awd7metrics34LocationEmergencySessionStatistics3GSME
000000000008b5ec (__TEXT,__const) external __ZN3awd7metrics34LocationEmergencySessionStatistics3LPPE
000000000008b62c (__TEXT,__const) external __ZN3awd7metrics34LocationEmergencySessionStatistics3LTEE
000000000008b5e8 (__TEXT,__const) external __ZN3awd7metrics34LocationEmergencySessionStatistics3RRCE
000000000008b5b8 (__TEXT,__const) external __ZN3awd7metrics34LocationEmergencySessionStatistics3SIPE
000000000008b9a8 (__TEXT,__const) external __ZN3awd7metrics34LocationEmergencySessionStatistics40kFinalFixDeviationFromSuplEndFieldNumberE
000000000008b788 (__TEXT,__const) external __ZN3awd7metrics34LocationEmergencySessionStatistics41GnssSignalEnvironmentTypeDenseUrbanCanyonE
000000000008b9f8 (__TEXT,__const) external __ZN3awd7metrics34LocationEmergencySessionStatistics41kEmergencyContactsAvailabilityFieldNumberE
000000000008b96c (__TEXT,__const) external __ZN3awd7metrics34LocationEmergencySessionStatistics41kLocConfigCompatibilityVersionFieldNumberE
000000000008b9fc (__TEXT,__const) external __ZN3awd7metrics34LocationEmergencySessionStatistics41kMedicalConditionsAvailabilityFieldNumberE
000000000008b940 (__TEXT,__const) external __ZN3awd7metrics34LocationEmergencySessionStatistics41kNwRefLocDeviationFromFinalFixFieldNumberE
000000000008b980 (__TEXT,__const) external __ZN3awd7metrics34LocationEmergencySessionStatistics41kNwReportedFixDeviationFromDBHFieldNumberE
000000000008ba20 (__TEXT,__const) external __ZN3awd7metrics34LocationEmergencySessionStatistics42kDaysSinceLastMedicationsUpdateFieldNumberE
000000000008ba18 (__TEXT,__const) external __ZN3awd7metrics34LocationEmergencySessionStatistics43kDaysSinceLastMedicalNotesUpdateFieldNumberE
000000000008b9cc (__TEXT,__const) external __ZN3awd7metrics34LocationEmergencySessionStatistics44kCountOfADRSuccessfulPayloadsSentFieldNumberE
000000000008ba1c (__TEXT,__const) external __ZN3awd7metrics34LocationEmergencySessionStatistics45kDaysSinceLastAllergyDetailsUpdateFieldNumberE
000000000008b960 (__TEXT,__const) external __ZN3awd7metrics34LocationEmergencySessionStatistics45kFinalFixDeviationFromCellLocationFieldNumberE
000000000008b93c (__TEXT,__const) external __ZN3awd7metrics34LocationEmergencySessionStatistics45kNwRefLocDeviationFromCellLocationFieldNumberE
000000000008ba2c (__TEXT,__const) external __ZN3awd7metrics34LocationEmergencySessionStatistics48kDaysSinceLastDevicePrimaryLangUpdateFieldNumberE
000000000008ba24 (__TEXT,__const) external __ZN3awd7metrics34LocationEmergencySessionStatistics48kDaysSinceLastEmergencyContactsUpdateFieldNumberE
000000000008ba28 (__TEXT,__const) external __ZN3awd7metrics34LocationEmergencySessionStatistics48kDaysSinceLastMedicalConditionsUpdateFieldNumberE
000000000008b594 (__TEXT,__const) external __ZN3awd7metrics34LocationEmergencySessionStatistics4AFLTE
000000000008b590 (__TEXT,__const) external __ZN3awd7metrics34LocationEmergencySessionStatistics4ECIDE
000000000008b5d0 (__TEXT,__const) external __ZN3awd7metrics34LocationEmergencySessionStatistics4EED2E
000000000008b598 (__TEXT,__const) external __ZN3awd7metrics34LocationEmergencySessionStatistics4EOTDE
000000000008b634 (__TEXT,__const) external __ZN3awd7metrics34LocationEmergencySessionStatistics4HRPDE
000000000008b5f0 (__TEXT,__const) external __ZN3awd7metrics34LocationEmergencySessionStatistics4LPPeE
000000000008b5e4 (__TEXT,__const) external __ZN3awd7metrics34LocationEmergencySessionStatistics4RRLPE
000000000001347a (__TEXT,__text) external __ZN3awd7metrics34LocationEmergencySessionStatistics4SwapEPS1_
000000000008b63c (__TEXT,__const) external __ZN3awd7metrics34LocationEmergencySessionStatistics4WifiE
000000000008b984 (__TEXT,__const) external __ZN3awd7metrics34LocationEmergencySessionStatistics50kNwReportedFixDeviationFromWifiLocationFieldNumberE
000000000000d5a8 (__TEXT,__text) external __ZN3awd7metrics34LocationEmergencySessionStatistics5ClearEv
000000000008b600 (__TEXT,__const) external __ZN3awd7metrics34LocationEmergencySessionStatistics5HTTPSE
000000000008b5f4 (__TEXT,__const) external __ZN3awd7metrics34LocationEmergencySessionStatistics5IS801E
000000000008b58c (__TEXT,__const) external __ZN3awd7metrics34LocationEmergencySessionStatistics5OTDOAE
000000000008b638 (__TEXT,__const) external __ZN3awd7metrics34LocationEmergencySessionStatistics5SCDMAE
000000000008b61c (__TEXT,__const) external __ZN3awd7metrics34LocationEmergencySessionStatistics5UTRANE
000000000008b630 (__TEXT,__const) external __ZN3awd7metrics34LocationEmergencySessionStatistics5kUMTSE
000000000008b620 (__TEXT,__const) external __ZN3awd7metrics34LocationEmergencySessionStatistics6CDMA1xE
000000000008b5cc (__TEXT,__const) external __ZN3awd7metrics34LocationEmergencySessionStatistics6EED1_5E
000000000008b670 (__TEXT,__const) external __ZN3awd7metrics34LocationEmergencySessionStatistics7AbortedE
000000000008b57c (__TEXT,__const) external __ZN3awd7metrics34LocationEmergencySessionStatistics7MSBasedE
000000000008b66c (__TEXT,__const) external __ZN3awd7metrics34LocationEmergencySessionStatistics7SuccessE
000000000008b5f8 (__TEXT,__const) external __ZN3awd7metrics34LocationEmergencySessionStatistics7TextSMSE
000000000008b674 (__TEXT,__const) external __ZN3awd7metrics34LocationEmergencySessionStatistics7TimeoutE
000000000008b69c (__TEXT,__const) external __ZN3awd7metrics34LocationEmergencySessionStatistics8BadStateE
000000000008b624 (__TEXT,__const) external __ZN3awd7metrics34LocationEmergencySessionStatistics8CDMAEVDOE
000000000001344a (__TEXT,__text) external __ZN3awd7metrics34LocationEmergencySessionStatistics8CopyFromERKS1_
000000000008b658 (__TEXT,__const) external __ZN3awd7metrics34LocationEmergencySessionStatistics8PeriodicE
000000000008b65c (__TEXT,__const) external __ZN3awd7metrics34LocationEmergencySessionStatistics9AreaEventE
000000000008b5fc (__TEXT,__const) external __ZN3awd7metrics34LocationEmergencySessionStatistics9BinarySMSE
000000000000c02c (__TEXT,__text) external __ZN3awd7metrics34LocationEmergencySessionStatistics9MergeFromERKS1_
00000000000894cb (__TEXT,__text) non-external __ZN3awd7metrics34LocationEmergencySessionStatistics9MergeFromERKS1_.cold.1
0000000000089606 (__TEXT,__text) non-external __ZN3awd7metrics34LocationEmergencySessionStatistics9MergeFromERKS1_.cold.10
0000000000089629 (__TEXT,__text) non-external __ZN3awd7metrics34LocationEmergencySessionStatistics9MergeFromERKS1_.cold.11
000000000008964c (__TEXT,__text) non-external __ZN3awd7metrics34LocationEmergencySessionStatistics9MergeFromERKS1_.cold.12
000000000008966f (__TEXT,__text) non-external __ZN3awd7metrics34LocationEmergencySessionStatistics9MergeFromERKS1_.cold.13
0000000000089692 (__TEXT,__text) non-external __ZN3awd7metrics34LocationEmergencySessionStatistics9MergeFromERKS1_.cold.14
00000000000896b5 (__TEXT,__text) non-external __ZN3awd7metrics34LocationEmergencySessionStatistics9MergeFromERKS1_.cold.15
00000000000896d8 (__TEXT,__text) non-external __ZN3awd7metrics34LocationEmergencySessionStatistics9MergeFromERKS1_.cold.16
00000000000896fb (__TEXT,__text) non-external __ZN3awd7metrics34LocationEmergencySessionStatistics9MergeFromERKS1_.cold.17
000000000008971e (__TEXT,__text) non-external __ZN3awd7metrics34LocationEmergencySessionStatistics9MergeFromERKS1_.cold.18
0000000000089741 (__TEXT,__text) non-external __ZN3awd7metrics34LocationEmergencySessionStatistics9MergeFromERKS1_.cold.19
00000000000894ee (__TEXT,__text) non-external __ZN3awd7metrics34LocationEmergencySessionStatistics9MergeFromERKS1_.cold.2
0000000000089764 (__TEXT,__text) non-external __ZN3awd7metrics34LocationEmergencySessionStatistics9MergeFromERKS1_.cold.20
0000000000089787 (__TEXT,__text) non-external __ZN3awd7metrics34LocationEmergencySessionStatistics9MergeFromERKS1_.cold.21
00000000000897aa (__TEXT,__text) non-external __ZN3awd7metrics34LocationEmergencySessionStatistics9MergeFromERKS1_.cold.22
00000000000897cd (__TEXT,__text) non-external __ZN3awd7metrics34LocationEmergencySessionStatistics9MergeFromERKS1_.cold.23
00000000000897f0 (__TEXT,__text) non-external __ZN3awd7metrics34LocationEmergencySessionStatistics9MergeFromERKS1_.cold.24
0000000000089813 (__TEXT,__text) non-external __ZN3awd7metrics34LocationEmergencySessionStatistics9MergeFromERKS1_.cold.25
0000000000089836 (__TEXT,__text) non-external __ZN3awd7metrics34LocationEmergencySessionStatistics9MergeFromERKS1_.cold.26
0000000000089859 (__TEXT,__text) non-external __ZN3awd7metrics34LocationEmergencySessionStatistics9MergeFromERKS1_.cold.27
000000000008987c (__TEXT,__text) non-external __ZN3awd7metrics34LocationEmergencySessionStatistics9MergeFromERKS1_.cold.28
0000000000089511 (__TEXT,__text) non-external __ZN3awd7metrics34LocationEmergencySessionStatistics9MergeFromERKS1_.cold.3
0000000000089534 (__TEXT,__text) non-external __ZN3awd7metrics34LocationEmergencySessionStatistics9MergeFromERKS1_.cold.4
0000000000089557 (__TEXT,__text) non-external __ZN3awd7metrics34LocationEmergencySessionStatistics9MergeFromERKS1_.cold.5
000000000008957a (__TEXT,__text) non-external __ZN3awd7metrics34LocationEmergencySessionStatistics9MergeFromERKS1_.cold.6
000000000008959d (__TEXT,__text) non-external __ZN3awd7metrics34LocationEmergencySessionStatistics9MergeFromERKS1_.cold.7
00000000000895c0 (__TEXT,__text) non-external __ZN3awd7metrics34LocationEmergencySessionStatistics9MergeFromERKS1_.cold.8
00000000000895e3 (__TEXT,__text) non-external __ZN3awd7metrics34LocationEmergencySessionStatistics9MergeFromERKS1_.cold.9
000000000008b5b4 (__TEXT,__const) external __ZN3awd7metrics34LocationEmergencySessionStatistics9UserPlaneE
000000000000d2ae (__TEXT,__text) external __ZN3awd7metrics34LocationEmergencySessionStatisticsC1ERKS1_
0000000000002a4c (__TEXT,__text) external __ZN3awd7metrics34LocationEmergencySessionStatisticsC1Ev
000000000000bf10 (__TEXT,__text) external __ZN3awd7metrics34LocationEmergencySessionStatisticsC2ERKS1_
000000000000bd26 (__TEXT,__text) external __ZN3awd7metrics34LocationEmergencySessionStatisticsC2Ev
000000000000d436 (__TEXT,__text) external __ZN3awd7metrics34LocationEmergencySessionStatisticsD0Ev
000000000000d410 (__TEXT,__text) external __ZN3awd7metrics34LocationEmergencySessionStatisticsD1Ev
000000000000d2b8 (__TEXT,__text) external __ZN3awd7metrics34LocationEmergencySessionStatisticsD2Ev
00000000000802dc (__TEXT,__text) external __ZN3awd7metrics34LocationMicroLocationLearningState10SharedCtorEv
000000000008044c (__TEXT,__text) external __ZN3awd7metrics34LocationMicroLocationLearningState10SharedDtorEv
00000000000804a0 (__TEXT,__text) external __ZN3awd7metrics34LocationMicroLocationLearningState16default_instanceEv
000000000009d388 (__DATA_DIRTY,__common) external __ZN3awd7metrics34LocationMicroLocationLearningState17default_instance_E
000000000008e464 (__TEXT,__const) external __ZN3awd7metrics34LocationMicroLocationLearningState19kLoiTypeFieldNumberE
00000000000808a6 (__TEXT,__text) external __ZN3awd7metrics34LocationMicroLocationLearningState21CheckTypeAndMergeFromERKN20wireless_diagnostics6google8protobuf11MessageLiteE
000000000008b029 (__TEXT,__text) non-external __ZN3awd7metrics34LocationMicroLocationLearningState21CheckTypeAndMergeFromERKN20wireless_diagnostics6google8protobuf11MessageLiteE.cold.1
0000000000078f34 (__TEXT,__text) external __ZN3awd7metrics34LocationMicroLocationLearningState21InitAsDefaultInstanceEv
000000000008e460 (__TEXT,__const) external __ZN3awd7metrics34LocationMicroLocationLearningState21kTimestampFieldNumberE
000000000008052e (__TEXT,__text) external __ZN3awd7metrics34LocationMicroLocationLearningState27MergePartialFromCodedStreamEPN20wireless_diagnostics6google8protobuf2io16CodedInputStreamE
000000000008e468 (__TEXT,__const) external __ZN3awd7metrics34LocationMicroLocationLearningState27kDurationToLearnFieldNumberE
000000000008e46c (__TEXT,__const) external __ZN3awd7metrics34LocationMicroLocationLearningState34kAgeOfLearningCompletedFieldNumberE
0000000000080914 (__TEXT,__text) external __ZN3awd7metrics34LocationMicroLocationLearningState4SwapEPS1_
0000000000080504 (__TEXT,__text) external __ZN3awd7metrics34LocationMicroLocationLearningState5ClearEv
00000000000808e4 (__TEXT,__text) external __ZN3awd7metrics34LocationMicroLocationLearningState8CopyFromERKS1_
0000000000080352 (__TEXT,__text) external __ZN3awd7metrics34LocationMicroLocationLearningState9MergeFromERKS1_
000000000008b006 (__TEXT,__text) non-external __ZN3awd7metrics34LocationMicroLocationLearningState9MergeFromERKS1_.cold.1
000000000008042e (__TEXT,__text) external __ZN3awd7metrics34LocationMicroLocationLearningStateC1ERKS1_
0000000000078d24 (__TEXT,__text) external __ZN3awd7metrics34LocationMicroLocationLearningStateC1Ev
0000000000080302 (__TEXT,__text) external __ZN3awd7metrics34LocationMicroLocationLearningStateC2ERKS1_
00000000000802ac (__TEXT,__text) external __ZN3awd7metrics34LocationMicroLocationLearningStateC2Ev
0000000000080466 (__TEXT,__text) external __ZN3awd7metrics34LocationMicroLocationLearningStateD0Ev
0000000000080452 (__TEXT,__text) external __ZN3awd7metrics34LocationMicroLocationLearningStateD1Ev
0000000000080438 (__TEXT,__text) external __ZN3awd7metrics34LocationMicroLocationLearningStateD2Ev
000000000003e08f (__TEXT,__text) external __ZN3awd7metrics34MotionSOSEvent_WorkoutType_IsValidEi
00000000000809c4 (__TEXT,__text) external __ZN3awd7metrics35LocationMicroLocationAnalyticsState10SharedCtorEv
0000000000080b34 (__TEXT,__text) external __ZN3awd7metrics35LocationMicroLocationAnalyticsState10SharedDtorEv
0000000000080b88 (__TEXT,__text) external __ZN3awd7metrics35LocationMicroLocationAnalyticsState16default_instanceEv
000000000009d390 (__DATA_DIRTY,__common) external __ZN3awd7metrics35LocationMicroLocationAnalyticsState17default_instance_E
000000000008e474 (__TEXT,__const) external __ZN3awd7metrics35LocationMicroLocationAnalyticsState19kLoiTypeFieldNumberE
0000000000080f8e (__TEXT,__text) external __ZN3awd7metrics35LocationMicroLocationAnalyticsState21CheckTypeAndMergeFromERKN20wireless_diagnostics6google8protobuf11MessageLiteE
000000000008b06f (__TEXT,__text) non-external __ZN3awd7metrics35LocationMicroLocationAnalyticsState21CheckTypeAndMergeFromERKN20wireless_diagnostics6google8protobuf11MessageLiteE.cold.1
0000000000078f3a (__TEXT,__text) external __ZN3awd7metrics35LocationMicroLocationAnalyticsState21InitAsDefaultInstanceEv
000000000008e470 (__TEXT,__const) external __ZN3awd7metrics35LocationMicroLocationAnalyticsState21kTimestampFieldNumberE
0000000000080c16 (__TEXT,__text) external __ZN3awd7metrics35LocationMicroLocationAnalyticsState27MergePartialFromCodedStreamEPN20wireless_diagnostics6google8protobuf2io16CodedInputStreamE
000000000008e478 (__TEXT,__const) external __ZN3awd7metrics35LocationMicroLocationAnalyticsState34kDurationToRunAnalyticsFieldNumberE
000000000008e47c (__TEXT,__const) external __ZN3awd7metrics35LocationMicroLocationAnalyticsState35kAgeOfAnalyticsCompletedFieldNumberE
0000000000080ffc (__TEXT,__text) external __ZN3awd7metrics35LocationMicroLocationAnalyticsState4SwapEPS1_
0000000000080bec (__TEXT,__text) external __ZN3awd7metrics35LocationMicroLocationAnalyticsState5ClearEv
0000000000080fcc (__TEXT,__text) external __ZN3awd7metrics35LocationMicroLocationAnalyticsState8CopyFromERKS1_
0000000000080a3a (__TEXT,__text) external __ZN3awd7metrics35LocationMicroLocationAnalyticsState9MergeFromERKS1_
000000000008b04c (__TEXT,__text) non-external __ZN3awd7metrics35LocationMicroLocationAnalyticsState9MergeFromERKS1_.cold.1
0000000000080b16 (__TEXT,__text) external __ZN3awd7metrics35LocationMicroLocationAnalyticsStateC1ERKS1_
0000000000078d54 (__TEXT,__text) external __ZN3awd7metrics35LocationMicroLocationAnalyticsStateC1Ev
00000000000809ea (__TEXT,__text) external __ZN3awd7metrics35LocationMicroLocationAnalyticsStateC2ERKS1_
0000000000080994 (__TEXT,__text) external __ZN3awd7metrics35LocationMicroLocationAnalyticsStateC2Ev
0000000000080b4e (__TEXT,__text) external __ZN3awd7metrics35LocationMicroLocationAnalyticsStateD0Ev
0000000000080b3a (__TEXT,__text) external __ZN3awd7metrics35LocationMicroLocationAnalyticsStateD1Ev
0000000000080b20 (__TEXT,__text) external __ZN3awd7metrics35LocationMicroLocationAnalyticsStateD2Ev
000000000007a56a (__TEXT,__text) external __ZN3awd7metrics35LocationMicroLocationEventHistogram10SharedCtorEv
000000000007a6cc (__TEXT,__text) external __ZN3awd7metrics35LocationMicroLocationEventHistogram10SharedDtorEv
000000000007a70c (__TEXT,__text) external __ZN3awd7metrics35LocationMicroLocationEventHistogram16default_instanceEv
000000000009d340 (__DATA_DIRTY,__common) external __ZN3awd7metrics35LocationMicroLocationEventHistogram17default_instance_E
000000000007ab96 (__TEXT,__text) external __ZN3awd7metrics35LocationMicroLocationEventHistogram21CheckTypeAndMergeFromERKN20wireless_diagnostics6google8protobuf11MessageLiteE
000000000008ad04 (__TEXT,__text) non-external __ZN3awd7metrics35LocationMicroLocationEventHistogram21CheckTypeAndMergeFromERKN20wireless_diagnostics6google8protobuf11MessageLiteE.cold.1
0000000000078e3a (__TEXT,__text) external __ZN3awd7metrics35LocationMicroLocationEventHistogram21InitAsDefaultInstanceEv
000000000007a7b2 (__TEXT,__text) external __ZN3awd7metrics35LocationMicroLocationEventHistogram27MergePartialFromCodedStreamEPN20wireless_diagnostics6google8protobuf2io16CodedInputStreamE
000000000008e394 (__TEXT,__const) external __ZN3awd7metrics35LocationMicroLocationEventHistogram30kEventTypeAndCountsFieldNumberE
000000000008e390 (__TEXT,__const) external __ZN3awd7metrics35LocationMicroLocationEventHistogram31kSumOfAllEventCountsFieldNumberE
000000000008e38c (__TEXT,__const) external __ZN3awd7metrics35LocationMicroLocationEventHistogram31kTotalNumberOfEventsFieldNumberE
000000000007ac04 (__TEXT,__text) external __ZN3awd7metrics35LocationMicroLocationEventHistogram4SwapEPS1_
000000000007a76a (__TEXT,__text) external __ZN3awd7metrics35LocationMicroLocationEventHistogram5ClearEv
000000000007abd4 (__TEXT,__text) external __ZN3awd7metrics35LocationMicroLocationEventHistogram8CopyFromERKS1_
000000000007a5dc (__TEXT,__text) external __ZN3awd7metrics35LocationMicroLocationEventHistogram9MergeFromERKS1_
000000000007a690 (__TEXT,__text) external __ZN3awd7metrics35LocationMicroLocationEventHistogramC1ERKS1_
0000000000078b6e (__TEXT,__text) external __ZN3awd7metrics35LocationMicroLocationEventHistogramC1Ev
000000000007a580 (__TEXT,__text) external __ZN3awd7metrics35LocationMicroLocationEventHistogramC2ERKS1_
000000000007a540 (__TEXT,__text) external __ZN3awd7metrics35LocationMicroLocationEventHistogramC2Ev
000000000007a6dc (__TEXT,__text) external __ZN3awd7metrics35LocationMicroLocationEventHistogramD0Ev
000000000007a6d2 (__TEXT,__text) external __ZN3awd7metrics35LocationMicroLocationEventHistogramD1Ev
000000000007a69a (__TEXT,__text) external __ZN3awd7metrics35LocationMicroLocationEventHistogramD2Ev
000000000006210c (__TEXT,__text) external __ZN3awd7metrics36LocationAccessory_PerfRangeHistogram10SharedCtorEv
0000000000062220 (__TEXT,__text) external __ZN3awd7metrics36LocationAccessory_PerfRangeHistogram10SharedDtorEv
0000000000062274 (__TEXT,__text) external __ZN3awd7metrics36LocationAccessory_PerfRangeHistogram16default_instanceEv
000000000009d268 (__DATA_DIRTY,__common) external __ZN3awd7metrics36LocationAccessory_PerfRangeHistogram17default_instance_E
00000000000624f4 (__TEXT,__text) external __ZN3awd7metrics36LocationAccessory_PerfRangeHistogram21CheckTypeAndMergeFromERKN20wireless_diagnostics6google8protobuf11MessageLiteE
000000000008a819 (__TEXT,__text) non-external __ZN3awd7metrics36LocationAccessory_PerfRangeHistogram21CheckTypeAndMergeFromERKN20wireless_diagnostics6google8protobuf11MessageLiteE.cold.1
0000000000003f08 (__TEXT,__text) external __ZN3awd7metrics36LocationAccessory_PerfRangeHistogram21InitAsDefaultInstanceEv
000000000008cd54 (__TEXT,__const) external __ZN3awd7metrics36LocationAccessory_PerfRangeHistogram21kRangeTypeFieldNumberE
000000000008cd58 (__TEXT,__const) external __ZN3awd7metrics36LocationAccessory_PerfRangeHistogram22kEpochCountFieldNumberE
00000000000622dc (__TEXT,__text) external __ZN3awd7metrics36LocationAccessory_PerfRangeHistogram27MergePartialFromCodedStreamEPN20wireless_diagnostics6google8protobuf2io16CodedInputStreamE
0000000000062562 (__TEXT,__text) external __ZN3awd7metrics36LocationAccessory_PerfRangeHistogram4SwapEPS1_
00000000000622c0 (__TEXT,__text) external __ZN3awd7metrics36LocationAccessory_PerfRangeHistogram5ClearEv
0000000000062532 (__TEXT,__text) external __ZN3awd7metrics36LocationAccessory_PerfRangeHistogram8CopyFromERKS1_
0000000000062152 (__TEXT,__text) external __ZN3awd7metrics36LocationAccessory_PerfRangeHistogram9MergeFromERKS1_
000000000008a7f6 (__TEXT,__text) non-external __ZN3awd7metrics36LocationAccessory_PerfRangeHistogram9MergeFromERKS1_.cold.1
0000000000062202 (__TEXT,__text) external __ZN3awd7metrics36LocationAccessory_PerfRangeHistogramC1ERKS1_
0000000000003778 (__TEXT,__text) external __ZN3awd7metrics36LocationAccessory_PerfRangeHistogramC1Ev
000000000006211a (__TEXT,__text) external __ZN3awd7metrics36LocationAccessory_PerfRangeHistogramC2ERKS1_
00000000000620f4 (__TEXT,__text) external __ZN3awd7metrics36LocationAccessory_PerfRangeHistogramC2Ev
000000000006223a (__TEXT,__text) external __ZN3awd7metrics36LocationAccessory_PerfRangeHistogramD0Ev
0000000000062226 (__TEXT,__text) external __ZN3awd7metrics36LocationAccessory_PerfRangeHistogramD1Ev
000000000006220c (__TEXT,__text) external __ZN3awd7metrics36LocationAccessory_PerfRangeHistogramD2Ev
000000000006121e (__TEXT,__text) external __ZN3awd7metrics37LocationAccessory_DeviceChargingStats10SharedCtorEv
0000000000061370 (__TEXT,__text) external __ZN3awd7metrics37LocationAccessory_DeviceChargingStats10SharedDtorEv
00000000000613b0 (__TEXT,__text) external __ZN3awd7metrics37LocationAccessory_DeviceChargingStats16default_instanceEv
000000000009d258 (__DATA_DIRTY,__common) external __ZN3awd7metrics37LocationAccessory_DeviceChargingStats17default_instance_E
000000000006177a (__TEXT,__text) external __ZN3awd7metrics37LocationAccessory_DeviceChargingStats21CheckTypeAndMergeFromERKN20wireless_diagnostics6google8protobuf11MessageLiteE
000000000008a7b0 (__TEXT,__text) non-external __ZN3awd7metrics37LocationAccessory_DeviceChargingStats21CheckTypeAndMergeFromERKN20wireless_diagnostics6google8protobuf11MessageLiteE.cold.1
0000000000003efc (__TEXT,__text) external __ZN3awd7metrics37LocationAccessory_DeviceChargingStats21InitAsDefaultInstanceEv
0000000000061454 (__TEXT,__text) external __ZN3awd7metrics37LocationAccessory_DeviceChargingStats27MergePartialFromCodedStreamEPN20wireless_diagnostics6google8protobuf2io16CodedInputStreamE
000000000008cd34 (__TEXT,__const) external __ZN3awd7metrics37LocationAccessory_DeviceChargingStats30kOnChargeEpochCountFieldNumberE
000000000008cd38 (__TEXT,__const) external __ZN3awd7metrics37LocationAccessory_DeviceChargingStats33kHistogramChargingTypeFieldNumberE
0000000000061914 (__TEXT,__text) external __ZN3awd7metrics37LocationAccessory_DeviceChargingStats4SwapEPS1_
000000000006140c (__TEXT,__text) external __ZN3awd7metrics37LocationAccessory_DeviceChargingStats5ClearEv
00000000000618e4 (__TEXT,__text) external __ZN3awd7metrics37LocationAccessory_DeviceChargingStats8CopyFromERKS1_
000000000006129a (__TEXT,__text) external __ZN3awd7metrics37LocationAccessory_DeviceChargingStats9MergeFromERKS1_
0000000000061334 (__TEXT,__text) external __ZN3awd7metrics37LocationAccessory_DeviceChargingStatsC1ERKS1_
0000000000003734 (__TEXT,__text) external __ZN3awd7metrics37LocationAccessory_DeviceChargingStatsC1Ev
0000000000061234 (__TEXT,__text) external __ZN3awd7metrics37LocationAccessory_DeviceChargingStatsC2ERKS1_
00000000000611f6 (__TEXT,__text) external __ZN3awd7metrics37LocationAccessory_DeviceChargingStatsC2Ev
0000000000061380 (__TEXT,__text) external __ZN3awd7metrics37LocationAccessory_DeviceChargingStatsD0Ev
0000000000061376 (__TEXT,__text) external __ZN3awd7metrics37LocationAccessory_DeviceChargingStatsD1Ev
000000000006133e (__TEXT,__text) external __ZN3awd7metrics37LocationAccessory_DeviceChargingStatsD2Ev
0000000000085094 (__TEXT,__text) external __ZN3awd7metrics37LocationPeerRangingMeasurementMetrics10SharedCtorEv
00000000000852c2 (__TEXT,__text) external __ZN3awd7metrics37LocationPeerRangingMeasurementMetrics10SharedDtorEv
0000000000085302 (__TEXT,__text) external __ZN3awd7metrics37LocationPeerRangingMeasurementMetrics16default_instanceEv
000000000009d3b0 (__DATA_DIRTY,__common) external __ZN3awd7metrics37LocationPeerRangingMeasurementMetrics17default_instance_E
0000000000085c2c (__TEXT,__text) external __ZN3awd7metrics37LocationPeerRangingMeasurementMetrics21CheckTypeAndMergeFromERKN20wireless_diagnostics6google8protobuf11MessageLiteE
000000000008b15c (__TEXT,__text) non-external __ZN3awd7metrics37LocationPeerRangingMeasurementMetrics21CheckTypeAndMergeFromERKN20wireless_diagnostics6google8protobuf11MessageLiteE.cold.1
0000000000084568 (__TEXT,__text) external __ZN3awd7metrics37LocationPeerRangingMeasurementMetrics21InitAsDefaultInstanceEv
0000000000085386 (__TEXT,__text) external __ZN3awd7metrics37LocationPeerRangingMeasurementMetrics27MergePartialFromCodedStreamEPN20wireless_diagnostics6google8protobuf2io16CodedInputStreamE
000000000008e804 (__TEXT,__const) external __ZN3awd7metrics37LocationPeerRangingMeasurementMetrics36kBinnedRangeEstimateCountFieldNumberE
000000000008e800 (__TEXT,__const) external __ZN3awd7metrics37LocationPeerRangingMeasurementMetrics36kBinnedRangeEstimateValidFieldNumberE
000000000008e7fc (__TEXT,__const) external __ZN3awd7metrics37LocationPeerRangingMeasurementMetrics39kBinnedRangeMeasurementCountFieldNumberE
0000000000085c9a (__TEXT,__text) external __ZN3awd7metrics37LocationPeerRangingMeasurementMetrics4SwapEPS1_
000000000008e808 (__TEXT,__const) external __ZN3awd7metrics37LocationPeerRangingMeasurementMetrics56kAverageTimeBetweenIndividualMeasurementsUsecFieldNumberE
0000000000085362 (__TEXT,__text) external __ZN3awd7metrics37LocationPeerRangingMeasurementMetrics5ClearEv
0000000000085c6a (__TEXT,__text) external __ZN3awd7metrics37LocationPeerRangingMeasurementMetrics8CopyFromERKS1_
0000000000085126 (__TEXT,__text) external __ZN3awd7metrics37LocationPeerRangingMeasurementMetrics9MergeFromERKS1_
000000000008525a (__TEXT,__text) external __ZN3awd7metrics37LocationPeerRangingMeasurementMetricsC1ERKS1_
000000000008444c (__TEXT,__text) external __ZN3awd7metrics37LocationPeerRangingMeasurementMetricsC1Ev
00000000000850a6 (__TEXT,__text) external __ZN3awd7metrics37LocationPeerRangingMeasurementMetricsC2ERKS1_
000000000008b11f (__TEXT,__text) non-external __ZN3awd7metrics37LocationPeerRangingMeasurementMetricsC2ERKS1_.cold.1
0000000000085068 (__TEXT,__text) external __ZN3awd7metrics37LocationPeerRangingMeasurementMetricsC2Ev
00000000000852d2 (__TEXT,__text) external __ZN3awd7metrics37LocationPeerRangingMeasurementMetricsD0Ev
00000000000852c8 (__TEXT,__text) external __ZN3awd7metrics37LocationPeerRangingMeasurementMetricsD1Ev
0000000000085264 (__TEXT,__text) external __ZN3awd7metrics37LocationPeerRangingMeasurementMetricsD2Ev
0000000000076f06 (__TEXT,__text) external __ZN3awd7metrics37LocationWifiAPLocationProviderSession10SharedCtorEv
00000000000770a0 (__TEXT,__text) external __ZN3awd7metrics37LocationWifiAPLocationProviderSession10SharedDtorEv
00000000000770e0 (__TEXT,__text) external __ZN3awd7metrics37LocationWifiAPLocationProviderSession16default_instanceEv
000000000009d318 (__DATA_DIRTY,__common) external __ZN3awd7metrics37LocationWifiAPLocationProviderSession17default_instance_E
000000000007776a (__TEXT,__text) external __ZN3awd7metrics37LocationWifiAPLocationProviderSession21CheckTypeAndMergeFromERKN20wireless_diagnostics6google8protobuf11MessageLiteE
000000000008ac0c (__TEXT,__text) non-external __ZN3awd7metrics37LocationWifiAPLocationProviderSession21CheckTypeAndMergeFromERKN20wireless_diagnostics6google8protobuf11MessageLiteE.cold.1
00000000000712be (__TEXT,__text) external __ZN3awd7metrics37LocationWifiAPLocationProviderSession21InitAsDefaultInstanceEv
000000000008e1ec (__TEXT,__const) external __ZN3awd7metrics37LocationWifiAPLocationProviderSession21kTileFilesFieldNumberE
000000000008e1e0 (__TEXT,__const) external __ZN3awd7metrics37LocationWifiAPLocationProviderSession21kTimestampFieldNumberE
000000000008e1e8 (__TEXT,__const) external __ZN3awd7metrics37LocationWifiAPLocationProviderSession23kSessionDaysFieldNumberE
000000000008e1e4 (__TEXT,__const) external __ZN3awd7metrics37LocationWifiAPLocationProviderSession24kDurationDaysFieldNumberE
00000000000771be (__TEXT,__text) external __ZN3awd7metrics37LocationWifiAPLocationProviderSession27MergePartialFromCodedStreamEPN20wireless_diagnostics6google8protobuf2io16CodedInputStreamE
0000000000077914 (__TEXT,__text) external __ZN3awd7metrics37LocationWifiAPLocationProviderSession4SwapEPS1_
0000000000077144 (__TEXT,__text) external __ZN3awd7metrics37LocationWifiAPLocationProviderSession5ClearEv
00000000000778e4 (__TEXT,__text) external __ZN3awd7metrics37LocationWifiAPLocationProviderSession8CopyFromERKS1_
0000000000076f98 (__TEXT,__text) external __ZN3awd7metrics37LocationWifiAPLocationProviderSession9MergeFromERKS1_
0000000000077058 (__TEXT,__text) external __ZN3awd7metrics37LocationWifiAPLocationProviderSessionC1ERKS1_
00000000000711e8 (__TEXT,__text) external __ZN3awd7metrics37LocationWifiAPLocationProviderSessionC1Ev
0000000000076f1e (__TEXT,__text) external __ZN3awd7metrics37LocationWifiAPLocationProviderSessionC2ERKS1_
0000000000076ed6 (__TEXT,__text) external __ZN3awd7metrics37LocationWifiAPLocationProviderSessionC2Ev
00000000000770b0 (__TEXT,__text) external __ZN3awd7metrics37LocationWifiAPLocationProviderSessionD0Ev
00000000000770a6 (__TEXT,__text) external __ZN3awd7metrics37LocationWifiAPLocationProviderSessionD1Ev
0000000000077062 (__TEXT,__text) external __ZN3awd7metrics37LocationWifiAPLocationProviderSessionD2Ev
000000000001dfdf (__TEXT,__text) external __ZN3awd7metrics37MotionFitnessSession_HRSource_IsValidEi
000000000006675e (__TEXT,__text) external __ZN3awd7metrics38LocationAccessory_NavDynamicsHistogram10SharedCtorEv
0000000000066872 (__TEXT,__text) external __ZN3awd7metrics38LocationAccessory_NavDynamicsHistogram10SharedDtorEv
00000000000668c6 (__TEXT,__text) external __ZN3awd7metrics38LocationAccessory_NavDynamicsHistogram16default_instanceEv
000000000009d2b0 (__DATA_DIRTY,__common) external __ZN3awd7metrics38LocationAccessory_NavDynamicsHistogram17default_instance_E
000000000008cdbc (__TEXT,__const) external __ZN3awd7metrics38LocationAccessory_NavDynamicsHistogram19kNavTypeFieldNumberE
0000000000066b46 (__TEXT,__text) external __ZN3awd7metrics38LocationAccessory_NavDynamicsHistogram21CheckTypeAndMergeFromERKN20wireless_diagnostics6google8protobuf11MessageLiteE
000000000008a9e0 (__TEXT,__text) non-external __ZN3awd7metrics38LocationAccessory_NavDynamicsHistogram21CheckTypeAndMergeFromERKN20wireless_diagnostics6google8protobuf11MessageLiteE.cold.1
0000000000003fcc (__TEXT,__text) external __ZN3awd7metrics38LocationAccessory_NavDynamicsHistogram21InitAsDefaultInstanceEv
000000000008cdc0 (__TEXT,__const) external __ZN3awd7metrics38LocationAccessory_NavDynamicsHistogram22kEpochCountFieldNumberE
000000000006692e (__TEXT,__text) external __ZN3awd7metrics38LocationAccessory_NavDynamicsHistogram27MergePartialFromCodedStreamEPN20wireless_diagnostics6google8protobuf2io16CodedInputStreamE
0000000000066bb4 (__TEXT,__text) external __ZN3awd7metrics38LocationAccessory_NavDynamicsHistogram4SwapEPS1_
0000000000066912 (__TEXT,__text) external __ZN3awd7metrics38LocationAccessory_NavDynamicsHistogram5ClearEv
0000000000066b84 (__TEXT,__text) external __ZN3awd7metrics38LocationAccessory_NavDynamicsHistogram8CopyFromERKS1_
00000000000667a4 (__TEXT,__text) external __ZN3awd7metrics38LocationAccessory_NavDynamicsHistogram9MergeFromERKS1_
000000000008a9bd (__TEXT,__text) non-external __ZN3awd7metrics38LocationAccessory_NavDynamicsHistogram9MergeFromERKS1_.cold.1
0000000000066854 (__TEXT,__text) external __ZN3awd7metrics38LocationAccessory_NavDynamicsHistogramC1ERKS1_
00000000000038ae (__TEXT,__text) external __ZN3awd7metrics38LocationAccessory_NavDynamicsHistogramC1Ev
000000000006676c (__TEXT,__text) external __ZN3awd7metrics38LocationAccessory_NavDynamicsHistogramC2ERKS1_
0000000000066746 (__TEXT,__text) external __ZN3awd7metrics38LocationAccessory_NavDynamicsHistogramC2Ev
000000000006688c (__TEXT,__text) external __ZN3awd7metrics38LocationAccessory_NavDynamicsHistogramD0Ev
0000000000066878 (__TEXT,__text) external __ZN3awd7metrics38LocationAccessory_NavDynamicsHistogramD1Ev
000000000006685e (__TEXT,__text) external __ZN3awd7metrics38LocationAccessory_NavDynamicsHistogramD2Ev
0000000000066c3c (__TEXT,__text) external __ZN3awd7metrics38LocationAccessory_PASCDRavenUsageStats10SharedCtorEv
0000000000066e06 (__TEXT,__text) external __ZN3awd7metrics38LocationAccessory_PASCDRavenUsageStats10SharedDtorEv
0000000000066e46 (__TEXT,__text) external __ZN3awd7metrics38LocationAccessory_PASCDRavenUsageStats16default_instanceEv
000000000009d2b8 (__DATA_DIRTY,__common) external __ZN3awd7metrics38LocationAccessory_PASCDRavenUsageStats17default_instance_E
00000000000676f4 (__TEXT,__text) external __ZN3awd7metrics38LocationAccessory_PASCDRavenUsageStats21CheckTypeAndMergeFromERKN20wireless_diagnostics6google8protobuf11MessageLiteE
000000000008aa03 (__TEXT,__text) non-external __ZN3awd7metrics38LocationAccessory_PASCDRavenUsageStats21CheckTypeAndMergeFromERKN20wireless_diagnostics6google8protobuf11MessageLiteE.cold.1
0000000000003fd2 (__TEXT,__text) external __ZN3awd7metrics38LocationAccessory_PASCDRavenUsageStats21InitAsDefaultInstanceEv
000000000008cddc (__TEXT,__const) external __ZN3awd7metrics38LocationAccessory_PASCDRavenUsageStats25kTotalRejectedFieldNumberE
0000000000066f24 (__TEXT,__text) external __ZN3awd7metrics38LocationAccessory_PASCDRavenUsageStats27MergePartialFromCodedStreamEPN20wireless_diagnostics6google8protobuf2io16CodedInputStreamE
000000000008cdd0 (__TEXT,__const) external __ZN3awd7metrics38LocationAccessory_PASCDRavenUsageStats28kUsedUspdCountPntFieldNumberE
000000000008cdcc (__TEXT,__const) external __ZN3awd7metrics38LocationAccessory_PASCDRavenUsageStats28kUsedZuptCountPntFieldNumberE
000000000008cdc4 (__TEXT,__const) external __ZN3awd7metrics38LocationAccessory_PASCDRavenUsageStats30kHistogramUsedSpeedFieldNumberE
000000000008cdc8 (__TEXT,__const) external __ZN3awd7metrics38LocationAccessory_PASCDRavenUsageStats34kHistogramRejectedSpeedFieldNumberE
000000000008cdd8 (__TEXT,__const) external __ZN3awd7metrics38LocationAccessory_PASCDRavenUsageStats36kUsedUspdCountConvergenceFieldNumberE
000000000008cdd4 (__TEXT,__const) external __ZN3awd7metrics38LocationAccessory_PASCDRavenUsageStats36kUsedZuptCountConvergenceFieldNumberE
0000000000067762 (__TEXT,__text) external __ZN3awd7metrics38LocationAccessory_PASCDRavenUsageStats4SwapEPS1_
0000000000066ea6 (__TEXT,__text) external __ZN3awd7metrics38LocationAccessory_PASCDRavenUsageStats5ClearEv
0000000000067732 (__TEXT,__text) external __ZN3awd7metrics38LocationAccessory_PASCDRavenUsageStats8CopyFromERKS1_
0000000000066cc4 (__TEXT,__text) external __ZN3awd7metrics38LocationAccessory_PASCDRavenUsageStats9MergeFromERKS1_
0000000000066dbe (__TEXT,__text) external __ZN3awd7metrics38LocationAccessory_PASCDRavenUsageStatsC1ERKS1_
00000000000038c6 (__TEXT,__text) external __ZN3awd7metrics38LocationAccessory_PASCDRavenUsageStatsC1Ev
0000000000066c4e (__TEXT,__text) external __ZN3awd7metrics38LocationAccessory_PASCDRavenUsageStatsC2ERKS1_
0000000000066c10 (__TEXT,__text) external __ZN3awd7metrics38LocationAccessory_PASCDRavenUsageStatsC2Ev
0000000000066e16 (__TEXT,__text) external __ZN3awd7metrics38LocationAccessory_PASCDRavenUsageStatsD0Ev
0000000000066e0c (__TEXT,__text) external __ZN3awd7metrics38LocationAccessory_PASCDRavenUsageStatsD1Ev
0000000000066dc8 (__TEXT,__text) external __ZN3awd7metrics38LocationAccessory_PASCDRavenUsageStatsD2Ev
000000000007acae (__TEXT,__text) external __ZN3awd7metrics38LocationMicroLocationClusteringByModel10SharedCtorEv
000000000007ae2e (__TEXT,__text) external __ZN3awd7metrics38LocationMicroLocationClusteringByModel10SharedDtorEv
000000000007ae6e (__TEXT,__text) external __ZN3awd7metrics38LocationMicroLocationClusteringByModel16default_instanceEv
000000000009d348 (__DATA_DIRTY,__common) external __ZN3awd7metrics38LocationMicroLocationClusteringByModel17default_instance_E
000000000008e3a0 (__TEXT,__const) external __ZN3awd7metrics38LocationMicroLocationClusteringByModel19kLoiTypeFieldNumberE
000000000007b326 (__TEXT,__text) external __ZN3awd7metrics38LocationMicroLocationClusteringByModel21CheckTypeAndMergeFromERKN20wireless_diagnostics6google8protobuf11MessageLiteE
000000000008ad6d (__TEXT,__text) non-external __ZN3awd7metrics38LocationMicroLocationClusteringByModel21CheckTypeAndMergeFromERKN20wireless_diagnostics6google8protobuf11MessageLiteE.cold.1
0000000000078e40 (__TEXT,__text) external __ZN3awd7metrics38LocationMicroLocationClusteringByModel21InitAsDefaultInstanceEv
000000000008e398 (__TEXT,__const) external __ZN3awd7metrics38LocationMicroLocationClusteringByModel21kModelTypeFieldNumberE
000000000008e39c (__TEXT,__const) external __ZN3awd7metrics38LocationMicroLocationClusteringByModel22kHistogramsFieldNumberE
000000000007af1a (__TEXT,__text) external __ZN3awd7metrics38LocationMicroLocationClusteringByModel27MergePartialFromCodedStreamEPN20wireless_diagnostics6google8protobuf2io16CodedInputStreamE
000000000007b394 (__TEXT,__text) external __ZN3awd7metrics38LocationMicroLocationClusteringByModel4SwapEPS1_
000000000007aecc (__TEXT,__text) external __ZN3awd7metrics38LocationMicroLocationClusteringByModel5ClearEv
000000000007b364 (__TEXT,__text) external __ZN3awd7metrics38LocationMicroLocationClusteringByModel8CopyFromERKS1_
000000000007ad28 (__TEXT,__text) external __ZN3awd7metrics38LocationMicroLocationClusteringByModel9MergeFromERKS1_
000000000008ad27 (__TEXT,__text) non-external __ZN3awd7metrics38LocationMicroLocationClusteringByModel9MergeFromERKS1_.cold.1
000000000008ad4a (__TEXT,__text) non-external __ZN3awd7metrics38LocationMicroLocationClusteringByModel9MergeFromERKS1_.cold.2
000000000007adf2 (__TEXT,__text) external __ZN3awd7metrics38LocationMicroLocationClusteringByModelC1ERKS1_
0000000000078b98 (__TEXT,__text) external __ZN3awd7metrics38LocationMicroLocationClusteringByModelC1Ev
000000000007acc0 (__TEXT,__text) external __ZN3awd7metrics38LocationMicroLocationClusteringByModelC2ERKS1_
000000000007ac84 (__TEXT,__text) external __ZN3awd7metrics38LocationMicroLocationClusteringByModelC2Ev
000000000007ae3e (__TEXT,__text) external __ZN3awd7metrics38LocationMicroLocationClusteringByModelD0Ev
000000000007ae34 (__TEXT,__text) external __ZN3awd7metrics38LocationMicroLocationClusteringByModelD1Ev
000000000007adfc (__TEXT,__text) external __ZN3awd7metrics38LocationMicroLocationClusteringByModelD2Ev
0000000000079fbc (__TEXT,__text) external __ZN3awd7metrics38LocationMicroLocationEventTypeAndCount10SharedCtorEv
000000000007a062 (__TEXT,__text) external __ZN3awd7metrics38LocationMicroLocationEventTypeAndCount10SharedDtorEv
000000000007956e (__TEXT,__text) external __ZN3awd7metrics38LocationMicroLocationEventTypeAndCount16default_instanceEv
000000000009d338 (__DATA_DIRTY,__common) external __ZN3awd7metrics38LocationMicroLocationEventTypeAndCount17default_instance_E
000000000008e388 (__TEXT,__const) external __ZN3awd7metrics38LocationMicroLocationEventTypeAndCount17kCountFieldNumberE
000000000007a462 (__TEXT,__text) external __ZN3awd7metrics38LocationMicroLocationEventTypeAndCount21CheckTypeAndMergeFromERKN20wireless_diagnostics6google8protobuf11MessageLiteE
000000000008ace1 (__TEXT,__text) non-external __ZN3awd7metrics38LocationMicroLocationEventTypeAndCount21CheckTypeAndMergeFromERKN20wireless_diagnostics6google8protobuf11MessageLiteE.cold.1
0000000000078e34 (__TEXT,__text) external __ZN3awd7metrics38LocationMicroLocationEventTypeAndCount21InitAsDefaultInstanceEv
000000000008e384 (__TEXT,__const) external __ZN3awd7metrics38LocationMicroLocationEventTypeAndCount21kEventNameFieldNumberE
000000000008e380 (__TEXT,__const) external __ZN3awd7metrics38LocationMicroLocationEventTypeAndCount21kEventTypeFieldNumberE
000000000007a15c (__TEXT,__text) external __ZN3awd7metrics38LocationMicroLocationEventTypeAndCount27MergePartialFromCodedStreamEPN20wireless_diagnostics6google8protobuf2io16CodedInputStreamE
000000000007a4d0 (__TEXT,__text) external __ZN3awd7metrics38LocationMicroLocationEventTypeAndCount4SwapEPS1_
0000000000079860 (__TEXT,__text) external __ZN3awd7metrics38LocationMicroLocationEventTypeAndCount5ClearEv
000000000007a4a0 (__TEXT,__text) external __ZN3awd7metrics38LocationMicroLocationEventTypeAndCount8CopyFromERKS1_
0000000000079dc4 (__TEXT,__text) external __ZN3awd7metrics38LocationMicroLocationEventTypeAndCount9MergeFromERKS1_
000000000008acbe (__TEXT,__text) non-external __ZN3awd7metrics38LocationMicroLocationEventTypeAndCount9MergeFromERKS1_.cold.1
000000000007a032 (__TEXT,__text) external __ZN3awd7metrics38LocationMicroLocationEventTypeAndCountC1ERKS1_
0000000000078b3c (__TEXT,__text) external __ZN3awd7metrics38LocationMicroLocationEventTypeAndCountC1Ev
0000000000079fde (__TEXT,__text) external __ZN3awd7metrics38LocationMicroLocationEventTypeAndCountC2ERKS1_
0000000000079f8a (__TEXT,__text) external __ZN3awd7metrics38LocationMicroLocationEventTypeAndCountC2Ev
000000000007a0d4 (__TEXT,__text) external __ZN3awd7metrics38LocationMicroLocationEventTypeAndCountD0Ev
000000000007a0ae (__TEXT,__text) external __ZN3awd7metrics38LocationMicroLocationEventTypeAndCountD1Ev
000000000007a03c (__TEXT,__text) external __ZN3awd7metrics38LocationMicroLocationEventTypeAndCountD2Ev
0000000000078fa0 (__TEXT,__text) external __ZN3awd7metrics38LocationMicroLocationModelType_IsValidEi
0000000000004028 (__TEXT,__text) external __ZN3awd7metrics38LocationSubHarvesterIdentifier_IsValidEi
0000000000078691 (__TEXT,__text) external __ZN3awd7metrics38protobuf_AddDesc_MicroLocation_2eprotoEv
0000000000000988 (__TEXT,__text) external __ZN3awd7metrics38protobuf_ShutdownFile_Location_2eprotoEv
0000000000015a29 (__TEXT,__text) external __ZN3awd7metrics39CompassSession_CalibrationLevel_IsValidEi
0000000000060d44 (__TEXT,__text) external __ZN3awd7metrics39LocationAccessory_ChargingTypeHistogram10SharedCtorEv
0000000000060e58 (__TEXT,__text) external __ZN3awd7metrics39LocationAccessory_ChargingTypeHistogram10SharedDtorEv
0000000000060eac (__TEXT,__text) external __ZN3awd7metrics39LocationAccessory_ChargingTypeHistogram16default_instanceEv
000000000009d250 (__DATA_DIRTY,__common) external __ZN3awd7metrics39LocationAccessory_ChargingTypeHistogram17default_instance_E
000000000006112c (__TEXT,__text) external __ZN3awd7metrics39LocationAccessory_ChargingTypeHistogram21CheckTypeAndMergeFromERKN20wireless_diagnostics6google8protobuf11MessageLiteE
000000000008a78d (__TEXT,__text) non-external __ZN3awd7metrics39LocationAccessory_ChargingTypeHistogram21CheckTypeAndMergeFromERKN20wireless_diagnostics6google8protobuf11MessageLiteE.cold.1
0000000000003ef6 (__TEXT,__text) external __ZN3awd7metrics39LocationAccessory_ChargingTypeHistogram21InitAsDefaultInstanceEv
000000000008cd30 (__TEXT,__const) external __ZN3awd7metrics39LocationAccessory_ChargingTypeHistogram22kEpochCountFieldNumberE
0000000000060f14 (__TEXT,__text) external __ZN3awd7metrics39LocationAccessory_ChargingTypeHistogram27MergePartialFromCodedStreamEPN20wireless_diagnostics6google8protobuf2io16CodedInputStreamE
000000000008cd2c (__TEXT,__const) external __ZN3awd7metrics39LocationAccessory_ChargingTypeHistogram31kBatteryChargingTypeFieldNumberE
000000000006119a (__TEXT,__text) external __ZN3awd7metrics39LocationAccessory_ChargingTypeHistogram4SwapEPS1_
0000000000060ef8 (__TEXT,__text) external __ZN3awd7metrics39LocationAccessory_ChargingTypeHistogram5ClearEv
000000000006116a (__TEXT,__text) external __ZN3awd7metrics39LocationAccessory_ChargingTypeHistogram8CopyFromERKS1_
0000000000060d8a (__TEXT,__text) external __ZN3awd7metrics39LocationAccessory_ChargingTypeHistogram9MergeFromERKS1_
000000000008a76a (__TEXT,__text) non-external __ZN3awd7metrics39LocationAccessory_ChargingTypeHistogram9MergeFromERKS1_.cold.1
0000000000060e3a (__TEXT,__text) external __ZN3awd7metrics39LocationAccessory_ChargingTypeHistogramC1ERKS1_
000000000000371c (__TEXT,__text) external __ZN3awd7metrics39LocationAccessory_ChargingTypeHistogramC1Ev
0000000000060d52 (__TEXT,__text) external __ZN3awd7metrics39LocationAccessory_ChargingTypeHistogramC2ERKS1_
0000000000060d2c (__TEXT,__text) external __ZN3awd7metrics39LocationAccessory_ChargingTypeHistogramC2Ev
0000000000060e72 (__TEXT,__text) external __ZN3awd7metrics39LocationAccessory_ChargingTypeHistogramD0Ev
0000000000060e5e (__TEXT,__text) external __ZN3awd7metrics39LocationAccessory_ChargingTypeHistogramD1Ev
0000000000060e44 (__TEXT,__text) external __ZN3awd7metrics39LocationAccessory_ChargingTypeHistogramD2Ev
00000000000644cc (__TEXT,__text) external __ZN3awd7metrics39LocationAccessory_LatencyRangeHistogram10SharedCtorEv
00000000000645e0 (__TEXT,__text) external __ZN3awd7metrics39LocationAccessory_LatencyRangeHistogram10SharedDtorEv
0000000000064634 (__TEXT,__text) external __ZN3awd7metrics39LocationAccessory_LatencyRangeHistogram16default_instanceEv
000000000009d288 (__DATA_DIRTY,__common) external __ZN3awd7metrics39LocationAccessory_LatencyRangeHistogram17default_instance_E
00000000000648b4 (__TEXT,__text) external __ZN3awd7metrics39LocationAccessory_LatencyRangeHistogram21CheckTypeAndMergeFromERKN20wireless_diagnostics6google8protobuf11MessageLiteE
000000000008a8eb (__TEXT,__text) non-external __ZN3awd7metrics39LocationAccessory_LatencyRangeHistogram21CheckTypeAndMergeFromERKN20wireless_diagnostics6google8protobuf11MessageLiteE.cold.1
0000000000003f6c (__TEXT,__text) external __ZN3awd7metrics39LocationAccessory_LatencyRangeHistogram21InitAsDefaultInstanceEv
000000000008cd88 (__TEXT,__const) external __ZN3awd7metrics39LocationAccessory_LatencyRangeHistogram21kRangeTypeFieldNumberE
000000000008cd8c (__TEXT,__const) external __ZN3awd7metrics39LocationAccessory_LatencyRangeHistogram22kEpochCountFieldNumberE
000000000006469c (__TEXT,__text) external __ZN3awd7metrics39LocationAccessory_LatencyRangeHistogram27MergePartialFromCodedStreamEPN20wireless_diagnostics6google8protobuf2io16CodedInputStreamE
0000000000064922 (__TEXT,__text) external __ZN3awd7metrics39LocationAccessory_LatencyRangeHistogram4SwapEPS1_
0000000000064680 (__TEXT,__text) external __ZN3awd7metrics39LocationAccessory_LatencyRangeHistogram5ClearEv
00000000000648f2 (__TEXT,__text) external __ZN3awd7metrics39LocationAccessory_LatencyRangeHistogram8CopyFromERKS1_
0000000000064512 (__TEXT,__text) external __ZN3awd7metrics39LocationAccessory_LatencyRangeHistogram9MergeFromERKS1_
000000000008a8c8 (__TEXT,__text) non-external __ZN3awd7metrics39LocationAccessory_LatencyRangeHistogram9MergeFromERKS1_.cold.1
00000000000645c2 (__TEXT,__text) external __ZN3awd7metrics39LocationAccessory_LatencyRangeHistogramC1ERKS1_
0000000000003804 (__TEXT,__text) external __ZN3awd7metrics39LocationAccessory_LatencyRangeHistogramC1Ev
00000000000644da (__TEXT,__text) external __ZN3awd7metrics39LocationAccessory_LatencyRangeHistogramC2ERKS1_
00000000000644b4 (__TEXT,__text) external __ZN3awd7metrics39LocationAccessory_LatencyRangeHistogramC2Ev
00000000000645fa (__TEXT,__text) external __ZN3awd7metrics39LocationAccessory_LatencyRangeHistogramD0Ev
00000000000645e6 (__TEXT,__text) external __ZN3awd7metrics39LocationAccessory_LatencyRangeHistogramD1Ev
00000000000645cc (__TEXT,__text) external __ZN3awd7metrics39LocationAccessory_LatencyRangeHistogramD2Ev
0000000000060ce3 (__TEXT,__text) external __ZN3awd7metrics39LocationAccessory_PerfRangeType_IsValidEi
00000000000638da (__TEXT,__text) external __ZN3awd7metrics39LocationAccessory_SpeedPerformanceStats10SharedCtorEv
0000000000063ad0 (__TEXT,__text) external __ZN3awd7metrics39LocationAccessory_SpeedPerformanceStats10SharedDtorEv
0000000000063b2a (__TEXT,__text) external __ZN3awd7metrics39LocationAccessory_SpeedPerformanceStats16default_instanceEv
000000000009d280 (__DATA_DIRTY,__common) external __ZN3awd7metrics39LocationAccessory_SpeedPerformanceStats17default_instance_E
000000000006428e (__TEXT,__text) external __ZN3awd7metrics39LocationAccessory_SpeedPerformanceStats21CheckTypeAndMergeFromERKN20wireless_diagnostics6google8protobuf11MessageLiteE
000000000008a8a5 (__TEXT,__text) non-external __ZN3awd7metrics39LocationAccessory_SpeedPerformanceStats21CheckTypeAndMergeFromERKN20wireless_diagnostics6google8protobuf11MessageLiteE.cold.1
0000000000003f40 (__TEXT,__text) external __ZN3awd7metrics39LocationAccessory_SpeedPerformanceStats21InitAsDefaultInstanceEv
000000000008cd80 (__TEXT,__const) external __ZN3awd7metrics39LocationAccessory_SpeedPerformanceStats21kStatsDiffFieldNumberE
000000000008cd78 (__TEXT,__const) external __ZN3awd7metrics39LocationAccessory_SpeedPerformanceStats25kHistogramDiffFieldNumberE
0000000000063c26 (__TEXT,__text) external __ZN3awd7metrics39LocationAccessory_SpeedPerformanceStats27MergePartialFromCodedStreamEPN20wireless_diagnostics6google8protobuf2io16CodedInputStreamE
000000000008cd84 (__TEXT,__const) external __ZN3awd7metrics39LocationAccessory_SpeedPerformanceStats29kInvalidEpochCountFieldNumberE
000000000008cd7c (__TEXT,__const) external __ZN3awd7metrics39LocationAccessory_SpeedPerformanceStats30kHistogramDeviceUncFieldNumberE
0000000000064428 (__TEXT,__text) external __ZN3awd7metrics39LocationAccessory_SpeedPerformanceStats4SwapEPS1_
0000000000063b88 (__TEXT,__text) external __ZN3awd7metrics39LocationAccessory_SpeedPerformanceStats5ClearEv
00000000000643f8 (__TEXT,__text) external __ZN3awd7metrics39LocationAccessory_SpeedPerformanceStats8CopyFromERKS1_
0000000000063964 (__TEXT,__text) external __ZN3awd7metrics39LocationAccessory_SpeedPerformanceStats9MergeFromERKS1_
0000000000063a70 (__TEXT,__text) external __ZN3awd7metrics39LocationAccessory_SpeedPerformanceStatsC1ERKS1_
00000000000037da (__TEXT,__text) external __ZN3awd7metrics39LocationAccessory_SpeedPerformanceStatsC1Ev
00000000000638ee (__TEXT,__text) external __ZN3awd7metrics39LocationAccessory_SpeedPerformanceStatsC2ERKS1_
00000000000638b0 (__TEXT,__text) external __ZN3awd7metrics39LocationAccessory_SpeedPerformanceStatsC2Ev
0000000000063afa (__TEXT,__text) external __ZN3awd7metrics39LocationAccessory_SpeedPerformanceStatsD0Ev
0000000000063af0 (__TEXT,__text) external __ZN3awd7metrics39LocationAccessory_SpeedPerformanceStatsD1Ev
0000000000063a7a (__TEXT,__text) external __ZN3awd7metrics39LocationAccessory_SpeedPerformanceStatsD2Ev
0000000000078f86 (__TEXT,__text) external __ZN3awd7metrics39LocationMicroLocationMetricType_IsValidEi
0000000000078fc8 (__TEXT,__text) external __ZN3awd7metrics39LocationMicroLocationSignificanceMetric10SharedCtorEv
00000000000790f0 (__TEXT,__text) external __ZN3awd7metrics39LocationMicroLocationSignificanceMetric10SharedDtorEv
0000000000079146 (__TEXT,__text) external __ZN3awd7metrics39LocationMicroLocationSignificanceMetric16default_instanceEv
000000000009d328 (__DATA_DIRTY,__common) external __ZN3awd7metrics39LocationMicroLocationSignificanceMetric17default_instance_E
0000000000079454 (__TEXT,__text) external __ZN3awd7metrics39LocationMicroLocationSignificanceMetric21CheckTypeAndMergeFromERKN20wireless_diagnostics6google8protobuf11MessageLiteE
000000000008ac55 (__TEXT,__text) non-external __ZN3awd7metrics39LocationMicroLocationSignificanceMetric21CheckTypeAndMergeFromERKN20wireless_diagnostics6google8protobuf11MessageLiteE.cold.1
0000000000078e02 (__TEXT,__text) external __ZN3awd7metrics39LocationMicroLocationSignificanceMetric21InitAsDefaultInstanceEv
000000000008e364 (__TEXT,__const) external __ZN3awd7metrics39LocationMicroLocationSignificanceMetric24kMinimumCountFieldNumberE
00000000000791b8 (__TEXT,__text) external __ZN3awd7metrics39LocationMicroLocationSignificanceMetric27MergePartialFromCodedStreamEPN20wireless_diagnostics6google8protobuf2io16CodedInputStreamE
000000000008e368 (__TEXT,__const) external __ZN3awd7metrics39LocationMicroLocationSignificanceMetric28kNumberOfClustersFieldNumberE
000000000008e360 (__TEXT,__const) external __ZN3awd7metrics39LocationMicroLocationSignificanceMetric31kPercentageThresholdFieldNumberE
00000000000794c2 (__TEXT,__text) external __ZN3awd7metrics39LocationMicroLocationSignificanceMetric4SwapEPS1_
0000000000079196 (__TEXT,__text) external __ZN3awd7metrics39LocationMicroLocationSignificanceMetric5ClearEv
0000000000079492 (__TEXT,__text) external __ZN3awd7metrics39LocationMicroLocationSignificanceMetric8CopyFromERKS1_
0000000000079016 (__TEXT,__text) external __ZN3awd7metrics39LocationMicroLocationSignificanceMetric9MergeFromERKS1_
00000000000790d2 (__TEXT,__text) external __ZN3awd7metrics39LocationMicroLocationSignificanceMetricC1ERKS1_
0000000000078b00 (__TEXT,__text) external __ZN3awd7metrics39LocationMicroLocationSignificanceMetricC1Ev
0000000000078fda (__TEXT,__text) external __ZN3awd7metrics39LocationMicroLocationSignificanceMetricC2ERKS1_
0000000000078fac (__TEXT,__text) external __ZN3awd7metrics39LocationMicroLocationSignificanceMetricC2Ev
000000000007910c (__TEXT,__text) external __ZN3awd7metrics39LocationMicroLocationSignificanceMetricD0Ev
00000000000790f8 (__TEXT,__text) external __ZN3awd7metrics39LocationMicroLocationSignificanceMetricD1Ev
00000000000790dc (__TEXT,__text) external __ZN3awd7metrics39LocationMicroLocationSignificanceMetricD2Ev
0000000000078f92 (__TEXT,__text) external __ZN3awd7metrics39MicroLocationRecordingEventType_IsValidEi
0000000000039a69 (__TEXT,__text) external __ZN3awd7metrics39MotionFitnessDaily_WearableType_IsValidEi
0000000000066150 (__TEXT,__text) external __ZN3awd7metrics40LocationAccessory_LocationAppRunningTime10SharedCtorEv
00000000000662cc (__TEXT,__text) external __ZN3awd7metrics40LocationAccessory_LocationAppRunningTime10SharedDtorEv
0000000000066380 (__TEXT,__text) external __ZN3awd7metrics40LocationAccessory_LocationAppRunningTime16default_instanceEv
000000000009d2a8 (__DATA_DIRTY,__common) external __ZN3awd7metrics40LocationAccessory_LocationAppRunningTime17default_instance_E
0000000000066678 (__TEXT,__text) external __ZN3awd7metrics40LocationAccessory_LocationAppRunningTime21CheckTypeAndMergeFromERKN20wireless_diagnostics6google8protobuf11MessageLiteE
000000000008a99a (__TEXT,__text) non-external __ZN3awd7metrics40LocationAccessory_LocationAppRunningTime21CheckTypeAndMergeFromERKN20wireless_diagnostics6google8protobuf11MessageLiteE.cold.1
0000000000003fc6 (__TEXT,__text) external __ZN3awd7metrics40LocationAccessory_LocationAppRunningTime21InitAsDefaultInstanceEv
000000000008cdb8 (__TEXT,__const) external __ZN3awd7metrics40LocationAccessory_LocationAppRunningTime22kEpochCountFieldNumberE
000000000008cdb4 (__TEXT,__const) external __ZN3awd7metrics40LocationAccessory_LocationAppRunningTime23kAppBundleIdFieldNumberE
0000000000066426 (__TEXT,__text) external __ZN3awd7metrics40LocationAccessory_LocationAppRunningTime27MergePartialFromCodedStreamEPN20wireless_diagnostics6google8protobuf2io16CodedInputStreamE
00000000000666e6 (__TEXT,__text) external __ZN3awd7metrics40LocationAccessory_LocationAppRunningTime4SwapEPS1_
00000000000663de (__TEXT,__text) external __ZN3awd7metrics40LocationAccessory_LocationAppRunningTime5ClearEv
00000000000666b6 (__TEXT,__text) external __ZN3awd7metrics40LocationAccessory_LocationAppRunningTime8CopyFromERKS1_
00000000000661bc (__TEXT,__text) external __ZN3awd7metrics40LocationAccessory_LocationAppRunningTime9MergeFromERKS1_
000000000006629c (__TEXT,__text) external __ZN3awd7metrics40LocationAccessory_LocationAppRunningTimeC1ERKS1_
0000000000003884 (__TEXT,__text) external __ZN3awd7metrics40LocationAccessory_LocationAppRunningTimeC1Ev
0000000000066170 (__TEXT,__text) external __ZN3awd7metrics40LocationAccessory_LocationAppRunningTimeC2ERKS1_
0000000000066126 (__TEXT,__text) external __ZN3awd7metrics40LocationAccessory_LocationAppRunningTimeC2Ev
000000000006633e (__TEXT,__text) external __ZN3awd7metrics40LocationAccessory_LocationAppRunningTimeD0Ev
0000000000066318 (__TEXT,__text) external __ZN3awd7metrics40LocationAccessory_LocationAppRunningTimeD1Ev
00000000000662a6 (__TEXT,__text) external __ZN3awd7metrics40LocationAccessory_LocationAppRunningTimeD2Ev
000000000007c78c (__TEXT,__text) external __ZN3awd7metrics40LocationMicroLocationUserEventStatistics10SharedCtorEv
000000000007c9c6 (__TEXT,__text) external __ZN3awd7metrics40LocationMicroLocationUserEventStatistics10SharedDtorEv
000000000007ca1a (__TEXT,__text) external __ZN3awd7metrics40LocationMicroLocationUserEventStatistics16default_instanceEv
000000000009d360 (__DATA_DIRTY,__common) external __ZN3awd7metrics40LocationMicroLocationUserEventStatistics17default_instance_E
000000000008e3d8 (__TEXT,__const) external __ZN3awd7metrics40LocationMicroLocationUserEventStatistics19kLoiTypeFieldNumberE
000000000007d312 (__TEXT,__text) external __ZN3awd7metrics40LocationMicroLocationUserEventStatistics21CheckTypeAndMergeFromERKN20wireless_diagnostics6google8protobuf11MessageLiteE
000000000008ae3f (__TEXT,__text) non-external __ZN3awd7metrics40LocationMicroLocationUserEventStatistics21CheckTypeAndMergeFromERKN20wireless_diagnostics6google8protobuf11MessageLiteE.cold.1
0000000000078e52 (__TEXT,__text) external __ZN3awd7metrics40LocationMicroLocationUserEventStatistics21InitAsDefaultInstanceEv
000000000008e3fc (__TEXT,__const) external __ZN3awd7metrics40LocationMicroLocationUserEventStatistics21kModelTypeFieldNumberE
000000000008e3d4 (__TEXT,__const) external __ZN3awd7metrics40LocationMicroLocationUserEventStatistics21kTimestampFieldNumberE
000000000007cad2 (__TEXT,__text) external __ZN3awd7metrics40LocationMicroLocationUserEventStatistics27MergePartialFromCodedStreamEPN20wireless_diagnostics6google8protobuf2io16CodedInputStreamE
000000000008e3dc (__TEXT,__const) external __ZN3awd7metrics40LocationMicroLocationUserEventStatistics31kNumberOfAppLaunchesFieldNumberE
000000000008e3f4 (__TEXT,__const) external __ZN3awd7metrics40LocationMicroLocationUserEventStatistics33kNumberBTConnectEventsFieldNumberE
000000000008e3f0 (__TEXT,__const) external __ZN3awd7metrics40LocationMicroLocationUserEventStatistics35kNumberOfSiriInvokationsFieldNumberE
000000000008e3e0 (__TEXT,__const) external __ZN3awd7metrics40LocationMicroLocationUserEventStatistics36kNumberOfHomeKitAppEventsFieldNumberE
000000000008e3e4 (__TEXT,__const) external __ZN3awd7metrics40LocationMicroLocationUserEventStatistics37kNumberOfHomeKitSiriEventsFieldNumberE
000000000008e3f8 (__TEXT,__const) external __ZN3awd7metrics40LocationMicroLocationUserEventStatistics39kNumberHeadphonePlugInEventsFieldNumberE
000000000008e3e8 (__TEXT,__const) external __ZN3awd7metrics40LocationMicroLocationUserEventStatistics40kNumberOfFirstWakeOfDayEventsFieldNumberE
000000000008e3ec (__TEXT,__const) external __ZN3awd7metrics40LocationMicroLocationUserEventStatistics47kNumberOfBatteryChargerConnectEventsFieldNumberE
000000000007d380 (__TEXT,__text) external __ZN3awd7metrics40LocationMicroLocationUserEventStatistics4SwapEPS1_
000000000007ca8a (__TEXT,__text) external __ZN3awd7metrics40LocationMicroLocationUserEventStatistics5ClearEv
000000000007d350 (__TEXT,__text) external __ZN3awd7metrics40LocationMicroLocationUserEventStatistics8CopyFromERKS1_
000000000007c81a (__TEXT,__text) external __ZN3awd7metrics40LocationMicroLocationUserEventStatistics9MergeFromERKS1_
000000000008adf9 (__TEXT,__text) non-external __ZN3awd7metrics40LocationMicroLocationUserEventStatistics9MergeFromERKS1_.cold.1
000000000008ae1c (__TEXT,__text) non-external __ZN3awd7metrics40LocationMicroLocationUserEventStatistics9MergeFromERKS1_.cold.2
000000000007c9a8 (__TEXT,__text) external __ZN3awd7metrics40LocationMicroLocationUserEventStatisticsC1ERKS1_
0000000000078c28 (__TEXT,__text) external __ZN3awd7metrics40LocationMicroLocationUserEventStatisticsC1Ev
000000000007c7be (__TEXT,__text) external __ZN3awd7metrics40LocationMicroLocationUserEventStatisticsC2ERKS1_
000000000007c750 (__TEXT,__text) external __ZN3awd7metrics40LocationMicroLocationUserEventStatisticsC2Ev
000000000007c9e0 (__TEXT,__text) external __ZN3awd7metrics40LocationMicroLocationUserEventStatisticsD0Ev
000000000007c9cc (__TEXT,__text) external __ZN3awd7metrics40LocationMicroLocationUserEventStatisticsD1Ev
000000000007c9b2 (__TEXT,__text) external __ZN3awd7metrics40LocationMicroLocationUserEventStatisticsD2Ev
00000000000863e6 (__TEXT,__text) external __ZN3awd7metrics40LocationPeerRangingEarlyTerminateMetrics10SharedCtorEv
0000000000086520 (__TEXT,__text) external __ZN3awd7metrics40LocationPeerRangingEarlyTerminateMetrics10SharedDtorEv
0000000000086574 (__TEXT,__text) external __ZN3awd7metrics40LocationPeerRangingEarlyTerminateMetrics16default_instanceEv
000000000009d3c0 (__DATA_DIRTY,__common) external __ZN3awd7metrics40LocationPeerRangingEarlyTerminateMetrics17default_instance_E
0000000000086854 (__TEXT,__text) external __ZN3awd7metrics40LocationPeerRangingEarlyTerminateMetrics21CheckTypeAndMergeFromERKN20wireless_diagnostics6google8protobuf11MessageLiteE
000000000008b1a2 (__TEXT,__text) non-external __ZN3awd7metrics40LocationPeerRangingEarlyTerminateMetrics21CheckTypeAndMergeFromERKN20wireless_diagnostics6google8protobuf11MessageLiteE.cold.1
0000000000084574 (__TEXT,__text) external __ZN3awd7metrics40LocationPeerRangingEarlyTerminateMetrics21InitAsDefaultInstanceEv
00000000000865ea (__TEXT,__text) external __ZN3awd7metrics40LocationPeerRangingEarlyTerminateMetrics27MergePartialFromCodedStreamEPN20wireless_diagnostics6google8protobuf2io16CodedInputStreamE
000000000008e81c (__TEXT,__const) external __ZN3awd7metrics40LocationPeerRangingEarlyTerminateMetrics32kEnableEarlyTerminateFieldNumberE
000000000008e824 (__TEXT,__const) external __ZN3awd7metrics40LocationPeerRangingEarlyTerminateMetrics39kAverageTimeToEarlyTerminateFieldNumberE
00000000000868c2 (__TEXT,__text) external __ZN3awd7metrics40LocationPeerRangingEarlyTerminateMetrics4SwapEPS1_
00000000000865cc (__TEXT,__text) external __ZN3awd7metrics40LocationPeerRangingEarlyTerminateMetrics5ClearEv
000000000008e820 (__TEXT,__const) external __ZN3awd7metrics40LocationPeerRangingEarlyTerminateMetrics61kAverageNumberOfMeasurementsToDetectEarlyTerminateFieldNumberE
0000000000086892 (__TEXT,__text) external __ZN3awd7metrics40LocationPeerRangingEarlyTerminateMetrics8CopyFromERKS1_
0000000000086444 (__TEXT,__text) external __ZN3awd7metrics40LocationPeerRangingEarlyTerminateMetrics9MergeFromERKS1_
0000000000086502 (__TEXT,__text) external __ZN3awd7metrics40LocationPeerRangingEarlyTerminateMetricsC1ERKS1_
000000000008449c (__TEXT,__text) external __ZN3awd7metrics40LocationPeerRangingEarlyTerminateMetricsC1Ev
0000000000086400 (__TEXT,__text) external __ZN3awd7metrics40LocationPeerRangingEarlyTerminateMetricsC2ERKS1_
00000000000863c2 (__TEXT,__text) external __ZN3awd7metrics40LocationPeerRangingEarlyTerminateMetricsC2Ev
000000000008653a (__TEXT,__text) external __ZN3awd7metrics40LocationPeerRangingEarlyTerminateMetricsD0Ev
0000000000086526 (__TEXT,__text) external __ZN3awd7metrics40LocationPeerRangingEarlyTerminateMetricsD1Ev
000000000008650c (__TEXT,__text) external __ZN3awd7metrics40LocationPeerRangingEarlyTerminateMetricsD2Ev
0000000000086e46 (__TEXT,__text) external __ZN3awd7metrics40LocationPeerRangingUnlockDecisionMetrics10SharedCtorEv
0000000000086fb6 (__TEXT,__text) external __ZN3awd7metrics40LocationPeerRangingUnlockDecisionMetrics10SharedDtorEv
0000000000086ff6 (__TEXT,__text) external __ZN3awd7metrics40LocationPeerRangingUnlockDecisionMetrics16default_instanceEv
000000000009d3d0 (__DATA_DIRTY,__common) external __ZN3awd7metrics40LocationPeerRangingUnlockDecisionMetrics17default_instance_E
0000000000087490 (__TEXT,__text) external __ZN3awd7metrics40LocationPeerRangingUnlockDecisionMetrics21CheckTypeAndMergeFromERKN20wireless_diagnostics6google8protobuf11MessageLiteE
000000000008b20b (__TEXT,__text) non-external __ZN3awd7metrics40LocationPeerRangingUnlockDecisionMetrics21CheckTypeAndMergeFromERKN20wireless_diagnostics6google8protobuf11MessageLiteE.cold.1
0000000000084580 (__TEXT,__text) external __ZN3awd7metrics40LocationPeerRangingUnlockDecisionMetrics21InitAsDefaultInstanceEv
000000000008e830 (__TEXT,__const) external __ZN3awd7metrics40LocationPeerRangingUnlockDecisionMetrics21kDecisionsFieldNumberE
00000000000870a0 (__TEXT,__text) external __ZN3awd7metrics40LocationPeerRangingUnlockDecisionMetrics27MergePartialFromCodedStreamEPN20wireless_diagnostics6google8protobuf2io16CodedInputStreamE
000000000008e834 (__TEXT,__const) external __ZN3awd7metrics40LocationPeerRangingUnlockDecisionMetrics31kAverageTimeToUnlockFieldNumberE
000000000008e838 (__TEXT,__const) external __ZN3awd7metrics40LocationPeerRangingUnlockDecisionMetrics37kAverageTimeToRemainLockedFieldNumberE
0000000000087630 (__TEXT,__text) external __ZN3awd7metrics40LocationPeerRangingUnlockDecisionMetrics4SwapEPS1_
0000000000087054 (__TEXT,__text) external __ZN3awd7metrics40LocationPeerRangingUnlockDecisionMetrics5ClearEv
0000000000087600 (__TEXT,__text) external __ZN3awd7metrics40LocationPeerRangingUnlockDecisionMetrics8CopyFromERKS1_
0000000000086ec4 (__TEXT,__text) external __ZN3awd7metrics40LocationPeerRangingUnlockDecisionMetrics9MergeFromERKS1_
0000000000086f7a (__TEXT,__text) external __ZN3awd7metrics40LocationPeerRangingUnlockDecisionMetricsC1ERKS1_
00000000000844de (__TEXT,__text) external __ZN3awd7metrics40LocationPeerRangingUnlockDecisionMetricsC1Ev
0000000000086e5c (__TEXT,__text) external __ZN3awd7metrics40LocationPeerRangingUnlockDecisionMetricsC2ERKS1_
0000000000086e1c (__TEXT,__text) external __ZN3awd7metrics40LocationPeerRangingUnlockDecisionMetricsC2Ev
0000000000086fc6 (__TEXT,__text) external __ZN3awd7metrics40LocationPeerRangingUnlockDecisionMetricsD0Ev
0000000000086fbc (__TEXT,__text) external __ZN3awd7metrics40LocationPeerRangingUnlockDecisionMetricsD1Ev
0000000000086f84 (__TEXT,__text) external __ZN3awd7metrics40LocationPeerRangingUnlockDecisionMetricsD2Ev
000000000001dfd3 (__TEXT,__text) external __ZN3awd7metrics40MotionFitnessSession_WorkoutType_IsValidEi
0000000000060d13 (__TEXT,__text) external __ZN3awd7metrics41LocationAccessory_NavDynamicsType_IsValidEi
00000000000633fe (__TEXT,__text) external __ZN3awd7metrics41LocationAccessory_SpeedPerfRangeHistogram10SharedCtorEv
0000000000063512 (__TEXT,__text) external __ZN3awd7metrics41LocationAccessory_SpeedPerfRangeHistogram10SharedDtorEv
0000000000063566 (__TEXT,__text) external __ZN3awd7metrics41LocationAccessory_SpeedPerfRangeHistogram16default_instanceEv
000000000009d278 (__DATA_DIRTY,__common) external __ZN3awd7metrics41LocationAccessory_SpeedPerfRangeHistogram17default_instance_E
00000000000637e6 (__TEXT,__text) external __ZN3awd7metrics41LocationAccessory_SpeedPerfRangeHistogram21CheckTypeAndMergeFromERKN20wireless_diagnostics6google8protobuf11MessageLiteE
000000000008a882 (__TEXT,__text) non-external __ZN3awd7metrics41LocationAccessory_SpeedPerfRangeHistogram21CheckTypeAndMergeFromERKN20wireless_diagnostics6google8protobuf11MessageLiteE.cold.1
0000000000003f3a (__TEXT,__text) external __ZN3awd7metrics41LocationAccessory_SpeedPerfRangeHistogram21InitAsDefaultInstanceEv
000000000008cd70 (__TEXT,__const) external __ZN3awd7metrics41LocationAccessory_SpeedPerfRangeHistogram21kRangeTypeFieldNumberE
000000000008cd74 (__TEXT,__const) external __ZN3awd7metrics41LocationAccessory_SpeedPerfRangeHistogram22kEpochCountFieldNumberE
00000000000635ce (__TEXT,__text) external __ZN3awd7metrics41LocationAccessory_SpeedPerfRangeHistogram27MergePartialFromCodedStreamEPN20wireless_diagnostics6google8protobuf2io16CodedInputStreamE
0000000000063854 (__TEXT,__text) external __ZN3awd7metrics41LocationAccessory_SpeedPerfRangeHistogram4SwapEPS1_
00000000000635b2 (__TEXT,__text) external __ZN3awd7metrics41LocationAccessory_SpeedPerfRangeHistogram5ClearEv
0000000000063824 (__TEXT,__text) external __ZN3awd7metrics41LocationAccessory_SpeedPerfRangeHistogram8CopyFromERKS1_
0000000000063444 (__TEXT,__text) external __ZN3awd7metrics41LocationAccessory_SpeedPerfRangeHistogram9MergeFromERKS1_
000000000008a85f (__TEXT,__text) non-external __ZN3awd7metrics41LocationAccessory_SpeedPerfRangeHistogram9MergeFromERKS1_.cold.1
00000000000634f4 (__TEXT,__text) external __ZN3awd7metrics41LocationAccessory_SpeedPerfRangeHistogramC1ERKS1_
00000000000037c2 (__TEXT,__text) external __ZN3awd7metrics41LocationAccessory_SpeedPerfRangeHistogramC1Ev
000000000006340c (__TEXT,__text) external __ZN3awd7metrics41LocationAccessory_SpeedPerfRangeHistogramC2ERKS1_
00000000000633e6 (__TEXT,__text) external __ZN3awd7metrics41LocationAccessory_SpeedPerfRangeHistogramC2Ev
000000000006352c (__TEXT,__text) external __ZN3awd7metrics41LocationAccessory_SpeedPerfRangeHistogramD0Ev
0000000000063518 (__TEXT,__text) external __ZN3awd7metrics41LocationAccessory_SpeedPerfRangeHistogramD1Ev
00000000000634fe (__TEXT,__text) external __ZN3awd7metrics41LocationAccessory_SpeedPerfRangeHistogramD2Ev
000000000004744e (__TEXT,__text) external __ZN3awd7metrics41LocationGPSSessionStatistics_ChecksumData10SharedCtorEv
00000000000475a4 (__TEXT,__text) external __ZN3awd7metrics41LocationGPSSessionStatistics_ChecksumData10SharedDtorEv
0000000000047658 (__TEXT,__text) external __ZN3awd7metrics41LocationGPSSessionStatistics_ChecksumData16default_instanceEv
000000000009d1a0 (__DATA_DIRTY,__common) external __ZN3awd7metrics41LocationGPSSessionStatistics_ChecksumData17default_instance_E
000000000008c6b8 (__TEXT,__const) external __ZN3awd7metrics41LocationGPSSessionStatistics_ChecksumData18kSha256FieldNumberE
0000000000047864 (__TEXT,__text) external __ZN3awd7metrics41LocationGPSSessionStatistics_ChecksumData21CheckTypeAndMergeFromERKN20wireless_diagnostics6google8protobuf11MessageLiteE
000000000008a215 (__TEXT,__text) non-external __ZN3awd7metrics41LocationGPSSessionStatistics_ChecksumData21CheckTypeAndMergeFromERKN20wireless_diagnostics6google8protobuf11MessageLiteE.cold.1
0000000000003c06 (__TEXT,__text) external __ZN3awd7metrics41LocationGPSSessionStatistics_ChecksumData21InitAsDefaultInstanceEv
00000000000476ec (__TEXT,__text) external __ZN3awd7metrics41LocationGPSSessionStatistics_ChecksumData27MergePartialFromCodedStreamEPN20wireless_diagnostics6google8protobuf2io16CodedInputStreamE
00000000000478d2 (__TEXT,__text) external __ZN3awd7metrics41LocationGPSSessionStatistics_ChecksumData4SwapEPS1_
00000000000476b0 (__TEXT,__text) external __ZN3awd7metrics41LocationGPSSessionStatistics_ChecksumData5ClearEv
00000000000478a2 (__TEXT,__text) external __ZN3awd7metrics41LocationGPSSessionStatistics_ChecksumData8CopyFromERKS1_
00000000000474ac (__TEXT,__text) external __ZN3awd7metrics41LocationGPSSessionStatistics_ChecksumData9MergeFromERKS1_
0000000000047574 (__TEXT,__text) external __ZN3awd7metrics41LocationGPSSessionStatistics_ChecksumDataC1ERKS1_
00000000000033d4 (__TEXT,__text) external __ZN3awd7metrics41LocationGPSSessionStatistics_ChecksumDataC1Ev
0000000000047468 (__TEXT,__text) external __ZN3awd7metrics41LocationGPSSessionStatistics_ChecksumDataC2ERKS1_
000000000004742a (__TEXT,__text) external __ZN3awd7metrics41LocationGPSSessionStatistics_ChecksumDataC2Ev
0000000000047616 (__TEXT,__text) external __ZN3awd7metrics41LocationGPSSessionStatistics_ChecksumDataD0Ev
00000000000475f0 (__TEXT,__text) external __ZN3awd7metrics41LocationGPSSessionStatistics_ChecksumDataD1Ev
000000000004757e (__TEXT,__text) external __ZN3awd7metrics41LocationGPSSessionStatistics_ChecksumDataD2Ev
000000000004a6fc (__TEXT,__text) external __ZN3awd7metrics41LocationGPSSessionStatistics_NSOnOffState10SharedCtorEv
000000000004a814 (__TEXT,__text) external __ZN3awd7metrics41LocationGPSSessionStatistics_NSOnOffState10SharedDtorEv
000000000004a868 (__TEXT,__text) external __ZN3awd7metrics41LocationGPSSessionStatistics_NSOnOffState16default_instanceEv
000000000009d1e0 (__DATA_DIRTY,__common) external __ZN3awd7metrics41LocationGPSSessionStatistics_NSOnOffState17default_instance_E
000000000008c764 (__TEXT,__const) external __ZN3awd7metrics41LocationGPSSessionStatistics_NSOnOffState17kCountFieldNumberE
000000000004aaee (__TEXT,__text) external __ZN3awd7metrics41LocationGPSSessionStatistics_NSOnOffState21CheckTypeAndMergeFromERKN20wireless_diagnostics6google8protobuf11MessageLiteE
000000000008a3b9 (__TEXT,__text) non-external __ZN3awd7metrics41LocationGPSSessionStatistics_NSOnOffState21CheckTypeAndMergeFromERKN20wireless_diagnostics6google8protobuf11MessageLiteE.cold.1
0000000000003c36 (__TEXT,__text) external __ZN3awd7metrics41LocationGPSSessionStatistics_NSOnOffState21InitAsDefaultInstanceEv
000000000008c760 (__TEXT,__const) external __ZN3awd7metrics41LocationGPSSessionStatistics_NSOnOffState24kNsOnOffStateFieldNumberE
000000000004a8dc (__TEXT,__text) external __ZN3awd7metrics41LocationGPSSessionStatistics_NSOnOffState27MergePartialFromCodedStreamEPN20wireless_diagnostics6google8protobuf2io16CodedInputStreamE
000000000004ab5c (__TEXT,__text) external __ZN3awd7metrics41LocationGPSSessionStatistics_NSOnOffState4SwapEPS1_
000000000004a8ba (__TEXT,__text) external __ZN3awd7metrics41LocationGPSSessionStatistics_NSOnOffState5ClearEv
000000000004ab2c (__TEXT,__text) external __ZN3awd7metrics41LocationGPSSessionStatistics_NSOnOffState8CopyFromERKS1_
000000000004a750 (__TEXT,__text) external __ZN3awd7metrics41LocationGPSSessionStatistics_NSOnOffState9MergeFromERKS1_
000000000004a7f6 (__TEXT,__text) external __ZN3awd7metrics41LocationGPSSessionStatistics_NSOnOffStateC1ERKS1_
00000000000034d8 (__TEXT,__text) external __ZN3awd7metrics41LocationGPSSessionStatistics_NSOnOffStateC1Ev
000000000004a710 (__TEXT,__text) external __ZN3awd7metrics41LocationGPSSessionStatistics_NSOnOffStateC2ERKS1_
000000000004a6de (__TEXT,__text) external __ZN3awd7metrics41LocationGPSSessionStatistics_NSOnOffStateC2Ev
000000000004a82e (__TEXT,__text) external __ZN3awd7metrics41LocationGPSSessionStatistics_NSOnOffStateD0Ev
000000000004a81a (__TEXT,__text) external __ZN3awd7metrics41LocationGPSSessionStatistics_NSOnOffStateD1Ev
000000000004a800 (__TEXT,__text) external __ZN3awd7metrics41LocationGPSSessionStatistics_NSOnOffStateD2Ev
000000000007edc4 (__TEXT,__text) external __ZN3awd7metrics41LocationMicroLocationClusteringStatistics10SharedCtorEv
000000000007f1c8 (__TEXT,__text) external __ZN3awd7metrics41LocationMicroLocationClusteringStatistics10SharedDtorEv
000000000007f2b8 (__TEXT,__text) external __ZN3awd7metrics41LocationMicroLocationClusteringStatistics16default_instanceEv
000000000009d380 (__DATA_DIRTY,__common) external __ZN3awd7metrics41LocationMicroLocationClusteringStatistics17default_instance_E
000000000008e43c (__TEXT,__const) external __ZN3awd7metrics41LocationMicroLocationClusteringStatistics19kLoiTypeFieldNumberE
000000000008015e (__TEXT,__text) external __ZN3awd7metrics41LocationMicroLocationClusteringStatistics21CheckTypeAndMergeFromERKN20wireless_diagnostics6google8protobuf11MessageLiteE
000000000008afe3 (__TEXT,__text) non-external __ZN3awd7metrics41LocationMicroLocationClusteringStatistics21CheckTypeAndMergeFromERKN20wireless_diagnostics6google8protobuf11MessageLiteE.cold.1
0000000000078e6a (__TEXT,__text) external __ZN3awd7metrics41LocationMicroLocationClusteringStatistics21InitAsDefaultInstanceEv
000000000008e45c (__TEXT,__const) external __ZN3awd7metrics41LocationMicroLocationClusteringStatistics21kModelTypeFieldNumberE
000000000008e438 (__TEXT,__const) external __ZN3awd7metrics41LocationMicroLocationClusteringStatistics21kTimestampFieldNumberE
000000000007f488 (__TEXT,__text) external __ZN3awd7metrics41LocationMicroLocationClusteringStatistics27MergePartialFromCodedStreamEPN20wireless_diagnostics6google8protobuf2io16CodedInputStreamE
000000000008e440 (__TEXT,__const) external __ZN3awd7metrics41LocationMicroLocationClusteringStatistics33kAppSignificanceMetricFieldNumberE
000000000008e444 (__TEXT,__const) external __ZN3awd7metrics41LocationMicroLocationClusteringStatistics39kBtConnectSignificanceMetricFieldNumberE
000000000008e454 (__TEXT,__const) external __ZN3awd7metrics41LocationMicroLocationClusteringStatistics40kHomeKitAppSignificanceMetricFieldNumberE
000000000008e458 (__TEXT,__const) external __ZN3awd7metrics41LocationMicroLocationClusteringStatistics41kHomeKitSiriSignificanceMetricFieldNumberE
000000000008e448 (__TEXT,__const) external __ZN3awd7metrics41LocationMicroLocationClusteringStatistics44kFirstWakeOfDaySignificanceMetricFieldNumberE
000000000008e44c (__TEXT,__const) external __ZN3awd7metrics41LocationMicroLocationClusteringStatistics45kHeadphonePluginSignificanceMetricFieldNumberE
00000000000801cc (__TEXT,__text) external __ZN3awd7metrics41LocationMicroLocationClusteringStatistics4SwapEPS1_
000000000008e450 (__TEXT,__const) external __ZN3awd7metrics41LocationMicroLocationClusteringStatistics50kBatteryChargeConnectSignificanceMetricFieldNumberE
000000000007f320 (__TEXT,__text) external __ZN3awd7metrics41LocationMicroLocationClusteringStatistics5ClearEv
000000000008019c (__TEXT,__text) external __ZN3awd7metrics41LocationMicroLocationClusteringStatistics8CopyFromERKS1_
000000000007ee44 (__TEXT,__text) external __ZN3awd7metrics41LocationMicroLocationClusteringStatistics9MergeFromERKS1_
000000000008af9d (__TEXT,__text) non-external __ZN3awd7metrics41LocationMicroLocationClusteringStatistics9MergeFromERKS1_.cold.1
000000000008afc0 (__TEXT,__text) non-external __ZN3awd7metrics41LocationMicroLocationClusteringStatistics9MergeFromERKS1_.cold.2
000000000007f198 (__TEXT,__text) external __ZN3awd7metrics41LocationMicroLocationClusteringStatisticsC1ERKS1_
0000000000078cf0 (__TEXT,__text) external __ZN3awd7metrics41LocationMicroLocationClusteringStatisticsC1Ev
000000000007edee (__TEXT,__text) external __ZN3awd7metrics41LocationMicroLocationClusteringStatisticsC2ERKS1_
000000000007ed90 (__TEXT,__text) external __ZN3awd7metrics41LocationMicroLocationClusteringStatisticsC2Ev
000000000007f276 (__TEXT,__text) external __ZN3awd7metrics41LocationMicroLocationClusteringStatisticsD0Ev
000000000007f250 (__TEXT,__text) external __ZN3awd7metrics41LocationMicroLocationClusteringStatisticsD1Ev
000000000007f1a2 (__TEXT,__text) external __ZN3awd7metrics41LocationMicroLocationClusteringStatisticsD2Ev
0000000000084598 (__TEXT,__text) external __ZN3awd7metrics41LocationPeerRangingDecisionReason_IsValidEi
000000000008497c (__TEXT,__text) external __ZN3awd7metrics41LocationPeerRangingEstimatorConfiguration10SharedCtorEv
0000000000084afa (__TEXT,__text) external __ZN3awd7metrics41LocationPeerRangingEstimatorConfiguration10SharedDtorEv
0000000000084b4e (__TEXT,__text) external __ZN3awd7metrics41LocationPeerRangingEstimatorConfiguration16default_instanceEv
000000000009d3a8 (__DATA_DIRTY,__common) external __ZN3awd7metrics41LocationPeerRangingEstimatorConfiguration17default_instance_E
0000000000084f6a (__TEXT,__text) external __ZN3awd7metrics41LocationPeerRangingEstimatorConfiguration21CheckTypeAndMergeFromERKN20wireless_diagnostics6google8protobuf11MessageLiteE
000000000008b0fc (__TEXT,__text) non-external __ZN3awd7metrics41LocationPeerRangingEstimatorConfiguration21CheckTypeAndMergeFromERKN20wireless_diagnostics6google8protobuf11MessageLiteE.cold.1
0000000000084562 (__TEXT,__text) external __ZN3awd7metrics41LocationPeerRangingEstimatorConfiguration21InitAsDefaultInstanceEv
0000000000084bd6 (__TEXT,__text) external __ZN3awd7metrics41LocationPeerRangingEstimatorConfiguration27MergePartialFromCodedStreamEPN20wireless_diagnostics6google8protobuf2io16CodedInputStreamE
000000000008e7ec (__TEXT,__const) external __ZN3awd7metrics41LocationPeerRangingEstimatorConfiguration27kEnablePrefilterFieldNumberE
000000000008e7f8 (__TEXT,__const) external __ZN3awd7metrics41LocationPeerRangingEstimatorConfiguration30kBubbleSizeInMetersFieldNumberE
000000000008e7f4 (__TEXT,__const) external __ZN3awd7metrics41LocationPeerRangingEstimatorConfiguration33kEnableFixedBubbleSizeFieldNumberE
000000000008e7f0 (__TEXT,__const) external __ZN3awd7metrics41LocationPeerRangingEstimatorConfiguration34kPrefilterRangeInMetersFieldNumberE
0000000000084fd8 (__TEXT,__text) external __ZN3awd7metrics41LocationPeerRangingEstimatorConfiguration4SwapEPS1_
000000000008e7e8 (__TEXT,__const) external __ZN3awd7metrics41LocationPeerRangingEstimatorConfiguration54kLocationPeerRangingUnlockDecisionAlgorithmFieldNumberE
0000000000084bae (__TEXT,__text) external __ZN3awd7metrics41LocationPeerRangingEstimatorConfiguration5ClearEv
0000000000084fa8 (__TEXT,__text) external __ZN3awd7metrics41LocationPeerRangingEstimatorConfiguration8CopyFromERKS1_
00000000000849ec (__TEXT,__text) external __ZN3awd7metrics41LocationPeerRangingEstimatorConfiguration9MergeFromERKS1_
000000000008b0d9 (__TEXT,__text) non-external __ZN3awd7metrics41LocationPeerRangingEstimatorConfiguration9MergeFromERKS1_.cold.1
0000000000084adc (__TEXT,__text) external __ZN3awd7metrics41LocationPeerRangingEstimatorConfigurationC1ERKS1_
0000000000084420 (__TEXT,__text) external __ZN3awd7metrics41LocationPeerRangingEstimatorConfigurationC1Ev
000000000008499e (__TEXT,__text) external __ZN3awd7metrics41LocationPeerRangingEstimatorConfigurationC2ERKS1_
0000000000084950 (__TEXT,__text) external __ZN3awd7metrics41LocationPeerRangingEstimatorConfigurationC2Ev
0000000000084b14 (__TEXT,__text) external __ZN3awd7metrics41LocationPeerRangingEstimatorConfigurationD0Ev
0000000000084b00 (__TEXT,__text) external __ZN3awd7metrics41LocationPeerRangingEstimatorConfigurationD1Ev
0000000000084ae6 (__TEXT,__text) external __ZN3awd7metrics41LocationPeerRangingEstimatorConfigurationD2Ev
0000000000060cfb (__TEXT,__text) external __ZN3awd7metrics42LocationAccessory_LatencyRangeType_IsValidEi
0000000000067cfc (__TEXT,__text) external __ZN3awd7metrics42LocationAccessory_PASCDSampleSizeHistogram10SharedCtorEv
0000000000067e06 (__TEXT,__text) external __ZN3awd7metrics42LocationAccessory_PASCDSampleSizeHistogram10SharedDtorEv
0000000000067e5a (__TEXT,__text) external __ZN3awd7metrics42LocationAccessory_PASCDSampleSizeHistogram16default_instanceEv
000000000009d2c8 (__DATA_DIRTY,__common) external __ZN3awd7metrics42LocationAccessory_PASCDSampleSizeHistogram17default_instance_E
00000000000680cc (__TEXT,__text) external __ZN3awd7metrics42LocationAccessory_PASCDSampleSizeHistogram21CheckTypeAndMergeFromERKN20wireless_diagnostics6google8protobuf11MessageLiteE
000000000008aa6c (__TEXT,__text) non-external __ZN3awd7metrics42LocationAccessory_PASCDSampleSizeHistogram21CheckTypeAndMergeFromERKN20wireless_diagnostics6google8protobuf11MessageLiteE.cold.1
0000000000003fde (__TEXT,__text) external __ZN3awd7metrics42LocationAccessory_PASCDSampleSizeHistogram21InitAsDefaultInstanceEv
000000000008cdec (__TEXT,__const) external __ZN3awd7metrics42LocationAccessory_PASCDSampleSizeHistogram22kEpochCountFieldNumberE
000000000008cde8 (__TEXT,__const) external __ZN3awd7metrics42LocationAccessory_PASCDSampleSizeHistogram23kSampleCountFieldNumberE
0000000000067ec2 (__TEXT,__text) external __ZN3awd7metrics42LocationAccessory_PASCDSampleSizeHistogram27MergePartialFromCodedStreamEPN20wireless_diagnostics6google8protobuf2io16CodedInputStreamE
000000000006813a (__TEXT,__text) external __ZN3awd7metrics42LocationAccessory_PASCDSampleSizeHistogram4SwapEPS1_
0000000000067ea6 (__TEXT,__text) external __ZN3awd7metrics42LocationAccessory_PASCDSampleSizeHistogram5ClearEv
000000000006810a (__TEXT,__text) external __ZN3awd7metrics42LocationAccessory_PASCDSampleSizeHistogram8CopyFromERKS1_
0000000000067d42 (__TEXT,__text) external __ZN3awd7metrics42LocationAccessory_PASCDSampleSizeHistogram9MergeFromERKS1_
0000000000067de8 (__TEXT,__text) external __ZN3awd7metrics42LocationAccessory_PASCDSampleSizeHistogramC1ERKS1_
000000000000390a (__TEXT,__text) external __ZN3awd7metrics42LocationAccessory_PASCDSampleSizeHistogramC1Ev
0000000000067d0a (__TEXT,__text) external __ZN3awd7metrics42LocationAccessory_PASCDSampleSizeHistogramC2ERKS1_
0000000000067ce4 (__TEXT,__text) external __ZN3awd7metrics42LocationAccessory_PASCDSampleSizeHistogramC2Ev
0000000000067e20 (__TEXT,__text) external __ZN3awd7metrics42LocationAccessory_PASCDSampleSizeHistogramD0Ev
0000000000067e0c (__TEXT,__text) external __ZN3awd7metrics42LocationAccessory_PASCDSampleSizeHistogramD1Ev
0000000000067df2 (__TEXT,__text) external __ZN3awd7metrics42LocationAccessory_PASCDSampleSizeHistogramD2Ev
000000000007bd30 (__TEXT,__text) external __ZN3awd7metrics42LocationMicroLocationMeasurementStatistics10SharedCtorEv
000000000007bf0a (__TEXT,__text) external __ZN3awd7metrics42LocationMicroLocationMeasurementStatistics10SharedDtorEv
000000000007bf5e (__TEXT,__text) external __ZN3awd7metrics42LocationMicroLocationMeasurementStatistics16default_instanceEv
000000000009d358 (__DATA_DIRTY,__common) external __ZN3awd7metrics42LocationMicroLocationMeasurementStatistics17default_instance_E
000000000008e3b8 (__TEXT,__const) external __ZN3awd7metrics42LocationMicroLocationMeasurementStatistics19kLoiTypeFieldNumberE
000000000007c61e (__TEXT,__text) external __ZN3awd7metrics42LocationMicroLocationMeasurementStatistics21CheckTypeAndMergeFromERKN20wireless_diagnostics6google8protobuf11MessageLiteE
000000000008add6 (__TEXT,__text) non-external __ZN3awd7metrics42LocationMicroLocationMeasurementStatistics21CheckTypeAndMergeFromERKN20wireless_diagnostics6google8protobuf11MessageLiteE.cold.1
0000000000078e4c (__TEXT,__text) external __ZN3awd7metrics42LocationMicroLocationMeasurementStatistics21InitAsDefaultInstanceEv
000000000008e3b4 (__TEXT,__const) external __ZN3awd7metrics42LocationMicroLocationMeasurementStatistics21kTimestampFieldNumberE
000000000007bffc (__TEXT,__text) external __ZN3awd7metrics42LocationMicroLocationMeasurementStatistics27MergePartialFromCodedStreamEPN20wireless_diagnostics6google8protobuf2io16CodedInputStreamE
000000000008e3bc (__TEXT,__const) external __ZN3awd7metrics42LocationMicroLocationMeasurementStatistics33kBinnedNumberOfWiFiApsFieldNumberE
000000000008e3c0 (__TEXT,__const) external __ZN3awd7metrics42LocationMicroLocationMeasurementStatistics35kBinnedNumberOfBTDevicesFieldNumberE
000000000007c68c (__TEXT,__text) external __ZN3awd7metrics42LocationMicroLocationMeasurementStatistics4SwapEPS1_
000000000008e3c8 (__TEXT,__const) external __ZN3awd7metrics42LocationMicroLocationMeasurementStatistics53kAgeOfNewestBTMeasurementLearningRecordingFieldNumberE
000000000008e3c4 (__TEXT,__const) external __ZN3awd7metrics42LocationMicroLocationMeasurementStatistics55kAgeOfNewestWiFiMeasurementLearningRecordingFieldNumberE
000000000008e3d0 (__TEXT,__const) external __ZN3awd7metrics42LocationMicroLocationMeasurementStatistics57kAgeOfNewestBTMeasurementLocalizationRecordingFieldNumberE
000000000008e3cc (__TEXT,__const) external __ZN3awd7metrics42LocationMicroLocationMeasurementStatistics59kAgeOfNewestWiFiMeasurementLocalizationRecordingFieldNumberE
000000000007bfca (__TEXT,__text) external __ZN3awd7metrics42LocationMicroLocationMeasurementStatistics5ClearEv
000000000007c65c (__TEXT,__text) external __ZN3awd7metrics42LocationMicroLocationMeasurementStatistics8CopyFromERKS1_
000000000007bdb6 (__TEXT,__text) external __ZN3awd7metrics42LocationMicroLocationMeasurementStatistics9MergeFromERKS1_
000000000008adb3 (__TEXT,__text) non-external __ZN3awd7metrics42LocationMicroLocationMeasurementStatistics9MergeFromERKS1_.cold.1
000000000007beec (__TEXT,__text) external __ZN3awd7metrics42LocationMicroLocationMeasurementStatisticsC1ERKS1_
0000000000078bf0 (__TEXT,__text) external __ZN3awd7metrics42LocationMicroLocationMeasurementStatisticsC1Ev
000000000007bd5e (__TEXT,__text) external __ZN3awd7metrics42LocationMicroLocationMeasurementStatisticsC2ERKS1_
000000000007bcf8 (__TEXT,__text) external __ZN3awd7metrics42LocationMicroLocationMeasurementStatisticsC2Ev
000000000007bf24 (__TEXT,__text) external __ZN3awd7metrics42LocationMicroLocationMeasurementStatisticsD0Ev
000000000007bf10 (__TEXT,__text) external __ZN3awd7metrics42LocationMicroLocationMeasurementStatisticsD1Ev
000000000007bef6 (__TEXT,__text) external __ZN3awd7metrics42LocationMicroLocationMeasurementStatisticsD2Ev
0000000000046f62 (__TEXT,__text) external __ZN3awd7metrics43LocationGPSSessionStatistics_PowerStateData10SharedCtorEv
0000000000047084 (__TEXT,__text) external __ZN3awd7metrics43LocationGPSSessionStatistics_PowerStateData10SharedDtorEv
00000000000470d8 (__TEXT,__text) external __ZN3awd7metrics43LocationGPSSessionStatistics_PowerStateData16default_instanceEv
000000000009d198 (__DATA_DIRTY,__common) external __ZN3awd7metrics43LocationGPSSessionStatistics_PowerStateData17default_instance_E
000000000008c6b4 (__TEXT,__const) external __ZN3awd7metrics43LocationGPSSessionStatistics_PowerStateData17kCountFieldNumberE
000000000004735c (__TEXT,__text) external __ZN3awd7metrics43LocationGPSSessionStatistics_PowerStateData21CheckTypeAndMergeFromERKN20wireless_diagnostics6google8protobuf11MessageLiteE
000000000008a1f2 (__TEXT,__text) non-external __ZN3awd7metrics43LocationGPSSessionStatistics_PowerStateData21CheckTypeAndMergeFromERKN20wireless_diagnostics6google8protobuf11MessageLiteE.cold.1
0000000000003c00 (__TEXT,__text) external __ZN3awd7metrics43LocationGPSSessionStatistics_PowerStateData21InitAsDefaultInstanceEv
000000000008c6b0 (__TEXT,__const) external __ZN3awd7metrics43LocationGPSSessionStatistics_PowerStateData22kPowerStateFieldNumberE
000000000004714c (__TEXT,__text) external __ZN3awd7metrics43LocationGPSSessionStatistics_PowerStateData27MergePartialFromCodedStreamEPN20wireless_diagnostics6google8protobuf2io16CodedInputStreamE
00000000000473ca (__TEXT,__text) external __ZN3awd7metrics43LocationGPSSessionStatistics_PowerStateData4SwapEPS1_
000000000004712a (__TEXT,__text) external __ZN3awd7metrics43LocationGPSSessionStatistics_PowerStateData5ClearEv
000000000004739a (__TEXT,__text) external __ZN3awd7metrics43LocationGPSSessionStatistics_PowerStateData8CopyFromERKS1_
0000000000046fb6 (__TEXT,__text) external __ZN3awd7metrics43LocationGPSSessionStatistics_PowerStateData9MergeFromERKS1_
000000000008a1cf (__TEXT,__text) non-external __ZN3awd7metrics43LocationGPSSessionStatistics_PowerStateData9MergeFromERKS1_.cold.1
0000000000047066 (__TEXT,__text) external __ZN3awd7metrics43LocationGPSSessionStatistics_PowerStateDataC1ERKS1_
00000000000033b6 (__TEXT,__text) external __ZN3awd7metrics43LocationGPSSessionStatistics_PowerStateDataC1Ev
0000000000046f76 (__TEXT,__text) external __ZN3awd7metrics43LocationGPSSessionStatistics_PowerStateDataC2ERKS1_
0000000000046f44 (__TEXT,__text) external __ZN3awd7metrics43LocationGPSSessionStatistics_PowerStateDataC2Ev
000000000004709e (__TEXT,__text) external __ZN3awd7metrics43LocationGPSSessionStatistics_PowerStateDataD0Ev
000000000004708a (__TEXT,__text) external __ZN3awd7metrics43LocationGPSSessionStatistics_PowerStateDataD1Ev
0000000000047070 (__TEXT,__text) external __ZN3awd7metrics43LocationGPSSessionStatistics_PowerStateDataD2Ev
000000000007dd5a (__TEXT,__text) external __ZN3awd7metrics43LocationMicroLocationLocalizationStatistics10SharedCtorEv
000000000007dee2 (__TEXT,__text) external __ZN3awd7metrics43LocationMicroLocationLocalizationStatistics10SharedDtorEv
000000000007df36 (__TEXT,__text) external __ZN3awd7metrics43LocationMicroLocationLocalizationStatistics16default_instanceEv
000000000009d370 (__DATA_DIRTY,__common) external __ZN3awd7metrics43LocationMicroLocationLocalizationStatistics17default_instance_E
000000000008e410 (__TEXT,__const) external __ZN3awd7metrics43LocationMicroLocationLocalizationStatistics19kLoiTypeFieldNumberE
000000000007e3ea (__TEXT,__text) external __ZN3awd7metrics43LocationMicroLocationLocalizationStatistics21CheckTypeAndMergeFromERKN20wireless_diagnostics6google8protobuf11MessageLiteE
000000000008aeee (__TEXT,__text) non-external __ZN3awd7metrics43LocationMicroLocationLocalizationStatistics21CheckTypeAndMergeFromERKN20wireless_diagnostics6google8protobuf11MessageLiteE.cold.1
0000000000078e5e (__TEXT,__text) external __ZN3awd7metrics43LocationMicroLocationLocalizationStatistics21InitAsDefaultInstanceEv
000000000008e40c (__TEXT,__const) external __ZN3awd7metrics43LocationMicroLocationLocalizationStatistics21kTimestampFieldNumberE
