00007ff80b0e71ef (__TEXT,__text) external __Unwind_Backtrace
00007ff80b0e700b (__TEXT,__text) external __Unwind_DeleteException
00007ff80b0e712e (__TEXT,__text) external __Unwind_FindEnclosingFunction
00007ff80b0e72af (__TEXT,__text) external __Unwind_Find_FDE
00007ff80b0e6f58 (__TEXT,__text) external __Unwind_ForcedUnwind
00007ff80b0e7387 (__TEXT,__text) external __Unwind_GetCFA
00007ff80b0e70bc (__TEXT,__text) external __Unwind_GetDataRelBase
00007ff80b0e7025 (__TEXT,__text) external __Unwind_GetGR
00007ff80b0e705e (__TEXT,__text) external __Unwind_GetIP
00007ff80b0e73bd (__TEXT,__text) external __Unwind_GetIPInfo
00007ff80b0e6fb7 (__TEXT,__text) external __Unwind_GetLanguageSpecificData
00007ff80b0e6fe1 (__TEXT,__text) external __Unwind_GetRegionStart
00007ff80b0e70f5 (__TEXT,__text) external __Unwind_GetTextRelBase
00007ff80b0e6b10 (__TEXT,__text) external __Unwind_RaiseException
00007ff80b0e6dbd (__TEXT,__text) external __Unwind_Resume
00007ff80b0e70a6 (__TEXT,__text) external __Unwind_Resume_or_Rethrow
00007ff80b0e7054 (__TEXT,__text) external __Unwind_SetGR
00007ff80b0e7094 (__TEXT,__text) external __Unwind_SetIP
00007ff80b0e2e12 (__TEXT,__text) non-external __ZN9libunwind10CFI_ParserINS_17LocalAddressSpaceEE20parseFDEInstructionsERS1_RKNS2_8FDE_InfoERKNS2_8CIE_InfoEmiPNS2_10PrologInfoE
00007ff80b0e45e4 (__TEXT,__text) non-external __ZN9libunwind10CFI_ParserINS_17LocalAddressSpaceEE7findFDEERS1_mmmmPNS2_8FDE_InfoEPNS2_8CIE_InfoE
00007ff80b0e427c (__TEXT,__text) non-external __ZN9libunwind10CFI_ParserINS_17LocalAddressSpaceEE8parseCIEERS1_mPNS2_8CIE_InfoE
00007ff80b0e2b50 (__TEXT,__text) non-external __ZN9libunwind10CFI_ParserINS_17LocalAddressSpaceEE9decodeFDEERS1_mPNS2_8FDE_InfoEPNS2_8CIE_InfoE
00007ff80b0e4c04 (__TEXT,__text) non-external __ZN9libunwind12UnwindCursorINS_17LocalAddressSpaceENS_16Registers_x86_64EE11getFloatRegEi
00007ff80b0e4c3e (__TEXT,__text) non-external __ZN9libunwind12UnwindCursorINS_17LocalAddressSpaceENS_16Registers_x86_64EE11setFloatRegEid
00007ff80b0e5524 (__TEXT,__text) non-external __ZN9libunwind12UnwindCursorINS_17LocalAddressSpaceENS_16Registers_x86_64EE13isSignalFrameEv
00007ff80b0e4bfc (__TEXT,__text) non-external __ZN9libunwind12UnwindCursorINS_17LocalAddressSpaceENS_16Registers_x86_64EE13validFloatRegEi
00007ff80b0e5530 (__TEXT,__text) non-external __ZN9libunwind12UnwindCursorINS_17LocalAddressSpaceENS_16Registers_x86_64EE15getFunctionNameEPcmPm
00007ff80b0e5594 (__TEXT,__text) non-external __ZN9libunwind12UnwindCursorINS_17LocalAddressSpaceENS_16Registers_x86_64EE15getRegisterNameEi
00007ff80b0e2d46 (__TEXT,__text) non-external __ZN9libunwind12UnwindCursorINS_17LocalAddressSpaceENS_16Registers_x86_64EE17getInfoFromFdeCieERKNS_10CFI_ParserIS1_E8FDE_InfoERKNS5_8CIE_InfoEmm
00007ff80b0e29de (__TEXT,__text) non-external __ZN9libunwind12UnwindCursorINS_17LocalAddressSpaceENS_16Registers_x86_64EE23getInfoFromDwarfSectionEmRKNS_18UnwindInfoSectionsEj
00007ff80b0e2596 (__TEXT,__text) non-external __ZN9libunwind12UnwindCursorINS_17LocalAddressSpaceENS_16Registers_x86_64EE24setInfoBasedOnIPRegisterEb
00007ff80b0e4c78 (__TEXT,__text) non-external __ZN9libunwind12UnwindCursorINS_17LocalAddressSpaceENS_16Registers_x86_64EE4stepEv
00007ff80b0e49d4 (__TEXT,__text) non-external __ZN9libunwind12UnwindCursorINS_17LocalAddressSpaceENS_16Registers_x86_64EE6getRegEi
00007ff80b0e5516 (__TEXT,__text) non-external __ZN9libunwind12UnwindCursorINS_17LocalAddressSpaceENS_16Registers_x86_64EE6jumptoEv
00007ff80b0e4ae8 (__TEXT,__text) non-external __ZN9libunwind12UnwindCursorINS_17LocalAddressSpaceENS_16Registers_x86_64EE6setRegEim
00007ff80b0e54b4 (__TEXT,__text) non-external __ZN9libunwind12UnwindCursorINS_17LocalAddressSpaceENS_16Registers_x86_64EE7getInfoEP15unw_proc_info_t
00007ff80b0e49c4 (__TEXT,__text) non-external __ZN9libunwind12UnwindCursorINS_17LocalAddressSpaceENS_16Registers_x86_64EE8validRegEi
00007ff80b0e49be (__TEXT,__text) non-external __ZN9libunwind12UnwindCursorINS_17LocalAddressSpaceENS_16Registers_x86_64EED0Ev
00007ff80b0e49b8 (__TEXT,__text) non-external __ZN9libunwind12UnwindCursorINS_17LocalAddressSpaceENS_16Registers_x86_64EED1Ev
00007ff8423059f0 (__DATA,__data) non-external __ZN9libunwind13DwarfFDECacheINS_17LocalAddressSpaceEE10_bufferEndE
00007ff8423059e8 (__DATA,__data) non-external __ZN9libunwind13DwarfFDECacheINS_17LocalAddressSpaceEE11_bufferUsedE
00007ff80b0e494a (__TEXT,__text) non-external __ZN9libunwind13DwarfFDECacheINS_17LocalAddressSpaceEE11removeAllInEm
00007ff842305a10 (__DATA,__bss) non-external __ZN9libunwind13DwarfFDECacheINS_17LocalAddressSpaceEE14_initialBufferE
00007ff80b0e4940 (__TEXT,__text) non-external __ZN9libunwind13DwarfFDECacheINS_17LocalAddressSpaceEE14dyldUnloadHookEPK11mach_headerl
00007ff842306210 (__DATA,__bss) non-external __ZN9libunwind13DwarfFDECacheINS_17LocalAddressSpaceEE25_registeredForDyldUnloadsE
00007ff80b0e4826 (__TEXT,__text) non-external __ZN9libunwind13DwarfFDECacheINS_17LocalAddressSpaceEE3addEmmmm
00007ff842305918 (__DATA,__data) non-external __ZN9libunwind13DwarfFDECacheINS_17LocalAddressSpaceEE5_lockE
00007ff8423059e0 (__DATA,__data) non-external __ZN9libunwind13DwarfFDECacheINS_17LocalAddressSpaceEE7_bufferE
00007ff80b0e2ae2 (__TEXT,__text) non-external __ZN9libunwind13DwarfFDECacheINS_17LocalAddressSpaceEE7findFDEEmm
00007ff80b0e58a0 (__TEXT,__text) non-external __ZN9libunwind17DwarfInstructionsINS_17LocalAddressSpaceENS_16Registers_x86_64EE16getSavedRegisterERS1_RKS2_mRKNS_10CFI_ParserIS1_E16RegisterLocationE
00007ff80b0e5a3c (__TEXT,__text) non-external __ZN9libunwind17DwarfInstructionsINS_17LocalAddressSpaceENS_16Registers_x86_64EE18evaluateExpressionEmRS1_RKS2_m
00007ff80b0e3fd4 (__TEXT,__text) non-external __ZN9libunwind17LocalAddressSpace11getEncodedPERmmhmPm
00007ff842305a00 (__DATA,__bss) non-external __ZN9libunwind17LocalAddressSpace17sThisAddressSpaceE
00007ff80b0e55b8 (__TEXT,__text) non-external __ZN9libunwind22CompactUnwinder_x86_64INS_17LocalAddressSpaceEE32stepWithCompactEncodingFramelessEjyRS1_RNS_16Registers_x86_64Eb
00007ff84083be70 (__DATA_CONST,__const) non-external __ZTVN9libunwind12UnwindCursorINS_17LocalAddressSpaceENS_16Registers_x86_64EEE
                 (undefined) weak external ____chkstk_darwin (from libsystem_pthread)
                 (undefined) external ___bzero (from libsystem_platform)
00007ff80b0e7450 (__TEXT,__text) non-external (was a private external) ___chkstk_darwin
00007ff80b0e7470 (__TEXT,__text) non-external (was a private external) ___chkstk_darwin_llvm_probe
00007ff80b0e740c (__TEXT,__text) external ___deregister_frame
00007ff80b0e7434 (__TEXT,__text) external ___deregister_frame_info
00007ff80b0e743c (__TEXT,__text) external ___deregister_frame_info_bases
00007ff80b0e2480 (__TEXT,__text) non-external (was a private external) ___libunwind_Registers_x86_64_jumpto
00007ff80b0e7402 (__TEXT,__text) external ___register_frame
00007ff80b0e741c (__TEXT,__text) external ___register_frame_info
00007ff80b0e7416 (__TEXT,__text) external ___register_frame_info_bases
00007ff80b0e7428 (__TEXT,__text) external ___register_frame_info_table
00007ff80b0e7422 (__TEXT,__text) external ___register_frame_info_table_bases
00007ff80b0e742e (__TEXT,__text) external ___register_frame_table
                 (undefined) external ___stack_chk_fail (from libsystem_c)
                 (undefined) external ___stack_chk_guard (from libsystem_c)
                 (undefined) external ___stderrp (from libsystem_c)
00007ff80b0e6acd (__TEXT,__text) external ___unw_add_dynamic_fde
00007ff80b0e24db (__TEXT,__text) non-external (was a private external) ___unw_getcontext
00007ff80b0e6b06 (__TEXT,__text) external ___unw_remove_dynamic_fde
                 (undefined) external __dyld_find_unwind_sections (from libdyld)
                 (undefined) external __dyld_register_func_for_remove_image (from libdyld)
                 (undefined) external _abort (from libsystem_c)
                 (undefined) external _dladdr (from libdyld)
                 (undefined) external _fflush (from libsystem_c)
                 (undefined) external _fprintf (from libsystem_c)
                 (undefined) external _free (from libsystem_malloc)
                 (undefined) external _fwrite (from libsystem_c)
                 (undefined) external _malloc (from libsystem_malloc)
                 (undefined) external _memcpy (from libsystem_c)
                 (undefined) external _pthread_rwlock_rdlock (from libsystem_pthread)
                 (undefined) external _pthread_rwlock_unlock (from libsystem_pthread)
                 (undefined) external _pthread_rwlock_wrlock (from libsystem_pthread)
                 (undefined) external _strlcpy (from libsystem_c)
00007ff80b0e6975 (__TEXT,__text) external _unw_get_fpreg
00007ff80b0e6a05 (__TEXT,__text) external _unw_get_proc_info
00007ff80b0e6a3b (__TEXT,__text) external _unw_get_proc_name
00007ff80b0e6890 (__TEXT,__text) external _unw_get_reg
00007ff80b0e24db (__TEXT,__text) external _unw_getcontext
00007ff80b0e2530 (__TEXT,__text) external _unw_init_local
00007ff80b0e6a53 (__TEXT,__text) external _unw_is_fpreg
00007ff80b0e6a70 (__TEXT,__text) external _unw_is_signal_frame
00007ff80b0e6a7f (__TEXT,__text) external _unw_iterate_dwarf_unwind_cache
00007ff842305910 (__DATA,__data) external _unw_local_addr_space
00007ff80b0e6a62 (__TEXT,__text) external _unw_regname
00007ff80b0e6a2a (__TEXT,__text) external _unw_resume
00007ff80b0e69b7 (__TEXT,__text) external _unw_set_fpreg
00007ff80b0e68d0 (__TEXT,__text) external _unw_set_reg
00007ff80b0e69fa (__TEXT,__text) external _unw_step
00007ff80b0e6c62 (__TEXT,__text) non-external _unwind_phase2
00007ff80b0e6e46 (__TEXT,__text) non-external _unwind_phase2_forced
