00000001c91244b0 (__TEXT,__text) external __Z20matchSequenceOfKindsPN5swift8Demangle4NodeENSt3__16vectorINS3_5tupleIJNS1_4KindEmEEENS3_9allocatorIS7_EEEE
00000001c915491c (__TEXT,__text) non-external __ZL11reportErrorjPKc
00000001c9154898 (__TEXT,__text) non-external __ZL13demangleFataljPKcPc
00000001c910898c (__TEXT,__text) non-external __ZL14swift_asprintfPPcPKcz
00000001c9154a08 (__TEXT,__text) non-external __ZL17demangle_asprintfPPcPKcz
00000001c912b9e8 (__TEXT,__text) non-external __ZL19printer_unreachablePKc
00000001c911b8b0 (__TEXT,__text) non-external __ZL33setParentForOpaqueReturnTypeNodesRN5swift8Demangle9DemanglerEPNS0_4NodeES4_
00000001c910844c (__TEXT,__text) non-external __ZL39swift_demangle_getDemangledName_OptionsPKcPcmN5swift8Demangle15DemangleOptionsE
00000001c9123f78 (__TEXT,__text) non-external __ZL9printNodeRN5swift8Demangle16DemanglerPrinterEPKNS0_4NodeEj
00000001c911b60c (__TEXT,__text) non-external __ZN12_GLOBAL__N_110isDeclNameEN5swift8Demangle4Node4KindE
00000001c912b968 (__TEXT,__text) non-external __ZN12_GLOBAL__N_111NodePrinter10getChildIfEPN5swift8Demangle4NodeENS3_4KindE
00000001c912a8dc (__TEXT,__text) non-external __ZN12_GLOBAL__N_111NodePrinter11printEntityEPN5swift8Demangle4NodeEjbNS0_12TypePrintingEbN4llvm9StringRefEiS7_
00000001c912d208 (__TEXT,__text) non-external __ZN12_GLOBAL__N_111NodePrinter13printChildrenEPKPN5swift8Demangle4NodeES6_jPKc
00000001c912b00c (__TEXT,__text) non-external __ZN12_GLOBAL__N_111NodePrinter13printChildrenEPN5swift8Demangle4NodeEjPKc
00000001c912d298 (__TEXT,__text) non-external __ZN12_GLOBAL__N_111NodePrinter15printEntityTypeEPN5swift8Demangle4NodeES4_S4_j
00000001c912c3d4 (__TEXT,__text) non-external __ZN12_GLOBAL__N_111NodePrinter15printWithParensEPN5swift8Demangle4NodeEj
00000001c912bcbc (__TEXT,__text) non-external __ZN12_GLOBAL__N_111NodePrinter17printBoundGenericEPN5swift8Demangle4NodeEj
00000001c912b370 (__TEXT,__text) non-external __ZN12_GLOBAL__N_111NodePrinter17printFunctionTypeEPN5swift8Demangle4NodeES4_j
00000001c912ca44 (__TEXT,__text) non-external __ZN12_GLOBAL__N_111NodePrinter20printAbstractStorageEPN5swift8Demangle4NodeEjbN4llvm9StringRefE
00000001c912cd84 (__TEXT,__text) non-external __ZN12_GLOBAL__N_111NodePrinter21printGenericSignatureEPN5swift8Demangle4NodeEj
00000001c912cacc (__TEXT,__text) non-external __ZN12_GLOBAL__N_111NodePrinter21printImplFunctionTypeEPN5swift8Demangle4NodeEj
00000001c912b760 (__TEXT,__text) non-external __ZN12_GLOBAL__N_111NodePrinter23printFunctionParametersEPN5swift8Demangle4NodeES4_jb
00000001c912dfdc (__TEXT,__text) non-external __ZN12_GLOBAL__N_111NodePrinter24printBoundGenericNoSugarEPN5swift8Demangle4NodeEj
00000001c912ba1c (__TEXT,__text) non-external __ZN12_GLOBAL__N_111NodePrinter25printSpecializationPrefixEPN5swift8Demangle4NodeEN4llvm9StringRefEjS6_
00000001c912d898 (__TEXT,__text) non-external __ZN12_GLOBAL__N_111NodePrinter36printFunctionSigSpecializationParamsEPN5swift8Demangle4NodeEj
00000001c9125758 (__TEXT,__text) non-external __ZN12_GLOBAL__N_111NodePrinter5printEPN5swift8Demangle4NodeEjb
00000001c912fcd4 (__TEXT,__text) non-external __ZN12_GLOBAL__N_112OldDemangler12demangleTypeEj
00000001c9131c9c (__TEXT,__text) non-external __ZN12_GLOBAL__N_112OldDemangler13demangleIndexERyj
00000001c913262c (__TEXT,__text) non-external __ZN12_GLOBAL__N_112OldDemangler13demangleTupleENS0_10IsVariadicEj
00000001c9133514 (__TEXT,__text) non-external __ZN12_GLOBAL__N_112OldDemangler14demangleEntityEj
00000001c912f444 (__TEXT,__text) non-external __ZN12_GLOBAL__N_112OldDemangler14demangleGlobalEj
00000001c9133320 (__TEXT,__text) non-external __ZN12_GLOBAL__N_112OldDemangler14demangleModuleEj
00000001c9134d04 (__TEXT,__text) non-external __ZN12_GLOBAL__N_112OldDemangler15createSwiftTypeEN5swift8Demangle4Node4KindEN4llvm9StringRefE
00000001c9132da0 (__TEXT,__text) non-external __ZN12_GLOBAL__N_112OldDemangler15demangleContextEj
00000001c9130e08 (__TEXT,__text) non-external __ZN12_GLOBAL__N_112OldDemangler15demangleNaturalERyj
00000001c9133178 (__TEXT,__text) non-external __ZN12_GLOBAL__N_112OldDemangler16demangleDeclNameEj
00000001c912fe1c (__TEXT,__text) non-external __ZN12_GLOBAL__N_112OldDemangler16demangleTypeImplEj
00000001c9133e20 (__TEXT,__text) non-external __ZN12_GLOBAL__N_112OldDemangler18demangleIdentifierEjN4llvm8OptionalIN5swift8Demangle4Node4KindEEE
00000001c9130d6c (__TEXT,__text) non-external __ZN12_GLOBAL__N_112OldDemangler19demangleBuiltinSizeERyj
00000001c9134230 (__TEXT,__text) non-external __ZN12_GLOBAL__N_112OldDemangler19demangleIndexAsNodeEjN5swift8Demangle4Node4KindE
00000001c913412c (__TEXT,__text) non-external __ZN12_GLOBAL__N_112OldDemangler19demangleNominalTypeEj
00000001c9130fdc (__TEXT,__text) non-external __ZN12_GLOBAL__N_112OldDemangler20demangleFunctionTypeEN5swift8Demangle4Node4KindEj
00000001c9131bb4 (__TEXT,__text) non-external __ZN12_GLOBAL__N_112OldDemangler20demangleProtocolListEj
00000001c9134618 (__TEXT,__text) non-external __ZN12_GLOBAL__N_112OldDemangler20demangleProtocolNameEj
00000001c9131d54 (__TEXT,__text) non-external __ZN12_GLOBAL__N_112OldDemangler21demangleArchetypeTypeEj
00000001c9131e7c (__TEXT,__text) non-external __ZN12_GLOBAL__N_112OldDemangler21demangleDependentTypeEj
00000001c9134e70 (__TEXT,__text) non-external __ZN12_GLOBAL__N_112OldDemangler22demangleImplConventionENS0_21ImplConventionContextEj
00000001c9130e98 (__TEXT,__text) non-external __ZN12_GLOBAL__N_112OldDemangler23demangleDeclarationNameEN5swift8Demangle4Node4KindEj
00000001c91342d8 (__TEXT,__text) non-external __ZN12_GLOBAL__N_112OldDemangler24demangleBoundGenericArgsEPN5swift8Demangle4NodeEj
00000001c9131378 (__TEXT,__text) non-external __ZN12_GLOBAL__N_112OldDemangler24demangleGenericSignatureEjb
00000001c91327dc (__TEXT,__text) non-external __ZN12_GLOBAL__N_112OldDemangler24demangleImplFunctionTypeEj
00000001c9134868 (__TEXT,__text) non-external __ZN12_GLOBAL__N_112OldDemangler24demangleProtocolNameImplEj
00000001c9135284 (__TEXT,__text) non-external __ZN12_GLOBAL__N_112OldDemangler24demangleValueWitnessKindEj
00000001c913466c (__TEXT,__text) non-external __ZN12_GLOBAL__N_112OldDemangler25demangleGenericParamIndexEj
00000001c9132164 (__TEXT,__text) non-external __ZN12_GLOBAL__N_112OldDemangler25demangleSubstitutionIndexEj
00000001c912fd28 (__TEXT,__text) non-external __ZN12_GLOBAL__N_112OldDemangler27demangleProtocolConformanceEj
00000001c9135580 (__TEXT,__text) non-external __ZN12_GLOBAL__N_112OldDemangler27demangleReabstractSignatureEPN5swift8Demangle4NodeEj
00000001c9132044 (__TEXT,__text) non-external __ZN12_GLOBAL__N_112OldDemangler28demangleAssociatedTypeSimpleEj
00000001c9131f5c (__TEXT,__text) non-external __ZN12_GLOBAL__N_112OldDemangler28getDependentGenericParamTypeEjj
00000001c91350e8 (__TEXT,__text) non-external __ZN12_GLOBAL__N_112OldDemangler29demangleImplParameterOrResultEN5swift8Demangle4Node4KindEj
00000001c91320c8 (__TEXT,__text) non-external __ZN12_GLOBAL__N_112OldDemangler30demangleAssociatedTypeCompoundEj
00000001c9131b4c (__TEXT,__text) non-external __ZN12_GLOBAL__N_112OldDemangler30demangleMetatypeRepresentationEj
00000001c9134b08 (__TEXT,__text) non-external __ZN12_GLOBAL__N_112OldDemangler31demangleDependentMemberTypeNameEPN5swift8Demangle4NodeEj
00000001c91344ec (__TEXT,__text) non-external __ZN12_GLOBAL__N_112OldDemangler32demangleProtocolNameGivenContextEPN5swift8Demangle4NodeEj
00000001c911b854 (__TEXT,__text) non-external __ZN12_GLOBAL__N_112isAnyGenericEN5swift8Demangle4Node4KindE
00000001c91187cc (__TEXT,__text) non-external __ZN12_GLOBAL__N_18isEntityEN5swift8Demangle4Node4KindE
00000001c914a418 (__TEXT,__text) non-external __ZN12_GLOBAL__N_19Remangler10manglePackEPN5swift8Demangle4NodeEj
00000001c914b204 (__TEXT,__text) non-external __ZN12_GLOBAL__N_19Remangler10mangleWeakEPN5swift8Demangle4NodeEj
00000001c9145874 (__TEXT,__text) non-external __ZN12_GLOBAL__N_19Remangler11mangleInOutEPN5swift8Demangle4NodeEj
00000001c91509a0 (__TEXT,__text) non-external __ZN12_GLOBAL__N_19Remangler11mangleIndexEy
00000001c9145f6c (__TEXT,__text) non-external __ZN12_GLOBAL__N_19Remangler11mangleMacroEPN5swift8Demangle4NodeEj
00000001c9149870 (__TEXT,__text) non-external __ZN12_GLOBAL__N_19Remangler11mangleOwnedEPN5swift8Demangle4NodeEj
00000001c914a214 (__TEXT,__text) non-external __ZN12_GLOBAL__N_19Remangler11mangleTupleEPN5swift8Demangle4NodeEj
00000001c913fbd0 (__TEXT,__text) non-external __ZN12_GLOBAL__N_19Remangler12mangleDidSetEPN5swift8Demangle4NodeEj
00000001c9142988 (__TEXT,__text) non-external __ZN12_GLOBAL__N_19Remangler12mangleGetterEPN5swift8Demangle4NodeEj
00000001c9142a04 (__TEXT,__text) non-external __ZN12_GLOBAL__N_19Remangler12mangleGlobalEPN5swift8Demangle4NodeEj
00000001c9146e74 (__TEXT,__text) non-external __ZN12_GLOBAL__N_19Remangler12mangleModuleEPN5swift8Demangle4NodeEj
00000001c9149e08 (__TEXT,__text) non-external __ZN12_GLOBAL__N_19Remangler12mangleSetterEPN5swift8Demangle4NodeEj
00000001c91496e8 (__TEXT,__text) non-external __ZN12_GLOBAL__N_19Remangler12mangleSharedEPN5swift8Demangle4NodeEj
00000001c9149fb4 (__TEXT,__text) non-external __ZN12_GLOBAL__N_19Remangler12mangleStaticEPN5swift8Demangle4NodeEj
00000001c914b2ac (__TEXT,__text) non-external __ZN12_GLOBAL__N_19Remangler13mangleUnownedEPN5swift8Demangle4NodeEj
00000001c914ba30 (__TEXT,__text) non-external __ZN12_GLOBAL__N_19Remangler13mangleWillSetEPN5swift8Demangle4NodeEj
00000001c913ff48 (__TEXT,__text) non-external __ZN12_GLOBAL__N_19Remangler14mangleEnumCaseEPN5swift8Demangle4NodeEj
00000001c9140c98 (__TEXT,__text) non-external __ZN12_GLOBAL__N_19Remangler14mangleFunctionEPN5swift8Demangle4NodeEj
00000001c9145b80 (__TEXT,__text) non-external __ZN12_GLOBAL__N_19Remangler14mangleIsolatedEPN5swift8Demangle4NodeEj
00000001c91464cc (__TEXT,__text) non-external __ZN12_GLOBAL__N_19Remangler14mangleMetatypeEPN5swift8Demangle4NodeEj
00000001c914a6a4 (__TEXT,__text) non-external __ZN12_GLOBAL__N_19Remangler14mangleTypeListEPN5swift8Demangle4NodeEj
00000001c913d444 (__TEXT,__text) non-external __ZN12_GLOBAL__N_19Remangler15mangleClangTypeEPN5swift8Demangle4NodeEj
00000001c914c760 (__TEXT,__text) non-external __ZN12_GLOBAL__N_19Remangler15mangleEmptyListEPN5swift8Demangle4NodeEj
00000001c914063c (__TEXT,__text) non-external __ZN12_GLOBAL__N_19Remangler15mangleExtensionEPN5swift8Demangle4NodeEj
00000001c914d550 (__TEXT,__text) non-external __ZN12_GLOBAL__N_19Remangler15mangleLabelListEPN5swift8Demangle4NodeEj
00000001c9146aa0 (__TEXT,__text) non-external __ZN12_GLOBAL__N_19Remangler15mangleMetaclassEPN5swift8Demangle4NodeEj
00000001c9147674 (__TEXT,__text) non-external __ZN12_GLOBAL__N_19Remangler15mangleObjCBlockEPN5swift8Demangle4NodeEj
00000001c914fc80 (__TEXT,__text) non-external __ZN12_GLOBAL__N_19Remangler15mangleUniquableEPN5swift8Demangle4NodeEj
00000001c914b354 (__TEXT,__text) non-external __ZN12_GLOBAL__N_19Remangler15mangleUnmanagedEPN5swift8Demangle4NodeEj
00000001c915049c (__TEXT,__text) non-external __ZN12_GLOBAL__N_19Remangler15trySubstitutionEPN5swift8Demangle4NodeERNS2_17SubstitutionEntryEb
00000001c9150234 (__TEXT,__text) non-external __ZN12_GLOBAL__N_19Remangler16mangleChildNodesEPN5swift8Demangle4NodeEj
00000001c914be04 (__TEXT,__text) non-external __ZN12_GLOBAL__N_19Remangler16mangleCurryThunkEPN5swift8Demangle4NodeEj
00000001c913fb18 (__TEXT,__text) non-external __ZN12_GLOBAL__N_19Remangler16mangleDestructorEPN5swift8Demangle4NodeEj
00000001c913fc4c (__TEXT,__text) non-external __ZN12_GLOBAL__N_19Remangler16mangleDirectnessEPN5swift8Demangle4NodeEj
00000001c9143014 (__TEXT,__text) non-external __ZN12_GLOBAL__N_19Remangler16mangleIdentifierEPN5swift8Demangle4NodeEj
00000001c914de08 (__TEXT,__text) non-external __ZN12_GLOBAL__N_19Remangler16mangleOpaqueTypeEPN5swift8Demangle4NodeEj
00000001c91499f8 (__TEXT,__text) non-external __ZN12_GLOBAL__N_19Remangler16mangleSILBoxTypeEPN5swift8Demangle4NodeEj
00000001c913d8e4 (__TEXT,__text) non-external __ZN12_GLOBAL__N_19Remangler17mangleDeallocatorEPN5swift8Demangle4NodeEj
00000001c913fea0 (__TEXT,__text) non-external __ZN12_GLOBAL__N_19Remangler17mangleDynamicSelfEPN5swift8Demangle4NodeEj
00000001c91409b4 (__TEXT,__text) non-external __ZN12_GLOBAL__N_19Remangler17mangleFieldOffsetEPN5swift8Demangle4NodeEj
00000001c91510b8 (__TEXT,__text) non-external __ZN12_GLOBAL__N_19Remangler17mangleGenericArgsEPN5swift8Demangle4NodeERcjb
00000001c9145a4c (__TEXT,__text) non-external __ZN12_GLOBAL__N_19Remangler17mangleInitializerEPN5swift8Demangle4NodeEj
00000001c914a5d8 (__TEXT,__text) non-external __ZN12_GLOBAL__N_19Remangler17manglePackElementEPN5swift8Demangle4NodeEj
00000001c914b978 (__TEXT,__text) non-external __ZN12_GLOBAL__N_19Remangler17mangleVTableThunkEPN5swift8Demangle4NodeEj
00000001c9142130 (__TEXT,__text) non-external __ZN12_GLOBAL__N_19Remangler18mangleFunctionTypeEPN5swift8Demangle4NodeEj
00000001c9142f98 (__TEXT,__text) non-external __ZN12_GLOBAL__N_19Remangler18mangleGlobalGetterEPN5swift8Demangle4NodeEj
00000001c9143228 (__TEXT,__text) non-external __ZN12_GLOBAL__N_19Remangler18mangleImplEscapingEPN5swift8Demangle4NodeEj
00000001c9145b04 (__TEXT,__text) non-external __ZN12_GLOBAL__N_19Remangler18mangleInitAccessorEPN5swift8Demangle4NodeEj
00000001c9149e84 (__TEXT,__text) non-external __ZN12_GLOBAL__N_19Remangler18mangleIsSerializedEPN5swift8Demangle4NodeEj
00000001c914f8cc (__TEXT,__text) non-external __ZN12_GLOBAL__N_19Remangler18mangleNoDerivativeEPN5swift8Demangle4NodeEj
00000001c914cb70 (__TEXT,__text) non-external __ZN12_GLOBAL__N_19Remangler18mangleOutlinedCopyEPN5swift8Demangle4NodeEj
00000001c9153a20 (__TEXT,__text) non-external __ZN12_GLOBAL__N_19Remangler18mangleProtocolListEPN5swift8Demangle4NodeES4_bj
00000001c91493e0 (__TEXT,__text) non-external __ZN12_GLOBAL__N_19Remangler18mangleReadAccessorEPN5swift8Demangle4NodeEj
00000001c914db50 (__TEXT,__text) non-external __ZN12_GLOBAL__N_19Remangler18mangleSugaredArrayEPN5swift8Demangle4NodeEj
00000001c914dd40 (__TEXT,__text) non-external __ZN12_GLOBAL__N_19Remangler18mangleSugaredParenEPN5swift8Demangle4NodeEj
00000001c914a964 (__TEXT,__text) non-external __ZN12_GLOBAL__N_19Remangler18mangleTypeManglingEPN5swift8Demangle4NodeEj
00000001c914aaf4 (__TEXT,__text) non-external __ZN12_GLOBAL__N_19Remangler18mangleTypeMetadataEPN5swift8Demangle4NodeEj
00000001c914b4f4 (__TEXT,__text) non-external __ZN12_GLOBAL__N_19Remangler18mangleValueWitnessEPN5swift8Demangle4NodeEj
00000001c913b97c (__TEXT,__text) non-external __ZN12_GLOBAL__N_19Remangler19mangleArgumentTupleEPN5swift8Demangle4NodeEj
00000001c914d3a4 (__TEXT,__text) non-external __ZN12_GLOBAL__N_19Remangler19mangleAssocTypePathEPN5swift8Demangle4NodeEj
00000001c914beac (__TEXT,__text) non-external __ZN12_GLOBAL__N_19Remangler19mangleDispatchThunkEPN5swift8Demangle4NodeEj
00000001c9143180 (__TEXT,__text) non-external __ZN12_GLOBAL__N_19Remangler19mangleIVarDestroyerEPN5swift8Demangle4NodeEj
00000001c91459fc (__TEXT,__text) non-external __ZN12_GLOBAL__N_19Remangler19mangleInfixOperatorEPN5swift8Demangle4NodeEj
00000001c9145d98 (__TEXT,__text) non-external __ZN12_GLOBAL__N_19Remangler19mangleLocalDeclNameEPN5swift8Demangle4NodeEj
00000001c914a520 (__TEXT,__text) non-external __ZN12_GLOBAL__N_19Remangler19manglePackExpansionEPN5swift8Demangle4NodeEj
00000001c914a470 (__TEXT,__text) non-external __ZN12_GLOBAL__N_19Remangler19mangleSILPackDirectEPN5swift8Demangle4NodeEj
00000001c9150088 (__TEXT,__text) non-external __ZN12_GLOBAL__N_19Remangler20mangleAnyConstructorEPN5swift8Demangle4NodeEcj
00000001c9151ce4 (__TEXT,__text) non-external __ZN12_GLOBAL__N_19Remangler20mangleAnyGenericTypeEPN5swift8Demangle4NodeEN4llvm9StringRefEj
00000001c9150e44 (__TEXT,__text) non-external __ZN12_GLOBAL__N_19Remangler20mangleAnyNominalTypeEPN5swift8Demangle4NodeEj
00000001c9152a98 (__TEXT,__text) non-external __ZN12_GLOBAL__N_19Remangler20mangleIdentifierImplEPN5swift8Demangle4NodeEb
00000001c9143358 (__TEXT,__text) non-external __ZN12_GLOBAL__N_19Remangler20mangleImplConventionEPN5swift8Demangle4NodeEj
00000001c9146df8 (__TEXT,__text) non-external __ZN12_GLOBAL__N_19Remangler20mangleModifyAccessorEPN5swift8Demangle4NodeEj
00000001c914cce0 (__TEXT,__text) non-external __ZN12_GLOBAL__N_19Remangler20mangleOutlinedRetainEPN5swift8Demangle4NodeEj
00000001c9147d74 (__TEXT,__text) non-external __ZN12_GLOBAL__N_19Remangler20manglePrefixOperatorEPN5swift8Demangle4NodeEj
00000001c914c9c0 (__TEXT,__text) non-external __ZN12_GLOBAL__N_19Remangler20mangleVariadicMarkerEPN5swift8Demangle4NodeEj
00000001c91526d4 (__TEXT,__text) non-external __ZN12_GLOBAL__N_19Remangler21mangleAbstractStorageEPN5swift8Demangle4NodeEN4llvm9StringRefEj
00000001c913c0c0 (__TEXT,__text) non-external __ZN12_GLOBAL__N_19Remangler21mangleAutoClosureTypeEPN5swift8Demangle4NodeEj
00000001c913c5e0 (__TEXT,__text) non-external __ZN12_GLOBAL__N_19Remangler21mangleBuiltinTypeNameEPN5swift8Demangle4NodeEj
00000001c9151f24 (__TEXT,__text) non-external __ZN12_GLOBAL__N_19Remangler21mangleConstrainedTypeEPN5swift8Demangle4NodeEj
00000001c9140518 (__TEXT,__text) non-external __ZN12_GLOBAL__N_19Remangler21mangleExplicitClosureEPN5swift8Demangle4NodeEj
00000001c91430d8 (__TEXT,__text) non-external __ZN12_GLOBAL__N_19Remangler21mangleIVarInitializerEPN5swift8Demangle4NodeEj
00000001c9145750 (__TEXT,__text) non-external __ZN12_GLOBAL__N_19Remangler21mangleImplicitClosureEPN5swift8Demangle4NodeEj
00000001c914cc28 (__TEXT,__text) non-external __ZN12_GLOBAL__N_19Remangler21mangleOutlinedConsumeEPN5swift8Demangle4NodeEj
00000001c914d130 (__TEXT,__text) non-external __ZN12_GLOBAL__N_19Remangler21mangleOutlinedDestroyEPN5swift8Demangle4NodeEj
00000001c914cd98 (__TEXT,__text) non-external __ZN12_GLOBAL__N_19Remangler21mangleOutlinedReleaseEPN5swift8Demangle4NodeEj
00000001c9147914 (__TEXT,__text) non-external __ZN12_GLOBAL__N_19Remangler21mangleOwningAddressorEPN5swift8Demangle4NodeEj
00000001c9147d24 (__TEXT,__text) non-external __ZN12_GLOBAL__N_19Remangler21manglePostfixOperatorEPN5swift8Demangle4NodeEj
00000001c9147dc4 (__TEXT,__text) non-external __ZN12_GLOBAL__N_19Remangler21manglePrivateDeclNameEPN5swift8Demangle4NodeEj
00000001c9148df0 (__TEXT,__text) non-external __ZN12_GLOBAL__N_19Remangler21mangleProtocolWitnessEPN5swift8Demangle4NodeEj
00000001c914a4c8 (__TEXT,__text) non-external __ZN12_GLOBAL__N_19Remangler21mangleSILPackIndirectEPN5swift8Demangle4NodeEj
00000001c9151e24 (__TEXT,__text) non-external __ZN12_GLOBAL__N_19Remangler21mangleSingleChildNodeEPN5swift8Demangle4NodeEj
00000001c914da88 (__TEXT,__text) non-external __ZN12_GLOBAL__N_19Remangler21mangleSugaredOptionalEPN5swift8Demangle4NodeEj
00000001c914b3fc (__TEXT,__text) non-external __ZN12_GLOBAL__N_19Remangler21mangleUnsafeAddressorEPN5swift8Demangle4NodeEj
00000001c913b4c4 (__TEXT,__text) non-external __ZN12_GLOBAL__N_19Remangler22mangleAnonymousContextEPN5swift8Demangle4NodeEj
00000001c913c198 (__TEXT,__text) non-external __ZN12_GLOBAL__N_19Remangler22mangleBoundGenericEnumEPN5swift8Demangle4NodeEj
00000001c913d27c (__TEXT,__text) non-external __ZN12_GLOBAL__N_19Remangler22mangleCFunctionPointerEPN5swift8Demangle4NodeEj
00000001c914fab4 (__TEXT,__text) non-external __ZN12_GLOBAL__N_19Remangler22mangleCompileTimeConstEPN5swift8Demangle4NodeEj
00000001c9140bf0 (__TEXT,__text) non-external __ZN12_GLOBAL__N_19Remangler22mangleFullTypeMetadataEPN5swift8Demangle4NodeEj
00000001c9143ddc (__TEXT,__text) non-external __ZN12_GLOBAL__N_19Remangler22mangleImplFunctionTypeEPN5swift8Demangle4NodeEj
00000001c914bf54 (__TEXT,__text) non-external __ZN12_GLOBAL__N_19Remangler22mangleMethodDescriptorEPN5swift8Demangle4NodeEj
00000001c914d6e4 (__TEXT,__text) non-external __ZN12_GLOBAL__N_19Remangler22mangleModuleDescriptorEPN5swift8Demangle4NodeEj
00000001c914e5ec (__TEXT,__text) non-external __ZN12_GLOBAL__N_19Remangler22mangleOpaqueReturnTypeEPN5swift8Demangle4NodeEj
00000001c914d1e8 (__TEXT,__text) non-external __ZN12_GLOBAL__N_19Remangler22mangleOutlinedVariableEPN5swift8Demangle4NodeEj
00000001c914a13c (__TEXT,__text) non-external __ZN12_GLOBAL__N_19Remangler22mangleThinFunctionTypeEPN5swift8Demangle4NodeEj
00000001c914c630 (__TEXT,__text) non-external __ZN12_GLOBAL__N_19Remangler22mangleThrowsAnnotationEPN5swift8Demangle4NodeEj
00000001c914a354 (__TEXT,__text) non-external __ZN12_GLOBAL__N_19Remangler22mangleTupleElementNameEPN5swift8Demangle4NodeEj
00000001c913bb44 (__TEXT,__text) non-external __ZN12_GLOBAL__N_19Remangler23mangleAssociatedTypeRefEPN5swift8Demangle4NodeEj
00000001c914783c (__TEXT,__text) non-external __ZN12_GLOBAL__N_19Remangler23mangleEscapingObjCBlockEPN5swift8Demangle4NodeEj
00000001c9146180 (__TEXT,__text) non-external __ZN12_GLOBAL__N_19Remangler23mangleMaterializeForSetEPN5swift8Demangle4NodeEj
00000001c914dc18 (__TEXT,__text) non-external __ZN12_GLOBAL__N_19Remangler23mangleSugaredDictionaryEPN5swift8Demangle4NodeEj
00000001c914b8d0 (__TEXT,__text) non-external __ZN12_GLOBAL__N_19Remangler23mangleValueWitnessTableEPN5swift8Demangle4NodeEj
00000001c9150d94 (__TEXT,__text) non-external __ZN12_GLOBAL__N_19Remangler24mangleChildNodesReversedEPN5swift8Demangle4NodeEj
00000001c914c890 (__TEXT,__text) non-external __ZN12_GLOBAL__N_19Remangler24mangleFirstElementMarkerEPN5swift8Demangle4NodeEj
00000001c91538ec (__TEXT,__text) non-external __ZN12_GLOBAL__N_19Remangler24mangleKeyPathThunkHelperEPN5swift8Demangle4NodeEN4llvm9StringRefEj
00000001c914e6a8 (__TEXT,__text) non-external __ZN12_GLOBAL__N_19Remangler24mangleOpaqueReturnTypeOfEPN5swift8Demangle4NodeEj
00000001c9147eb8 (__TEXT,__text) non-external __ZN12_GLOBAL__N_19Remangler24manglePropertyDescriptorEPN5swift8Demangle4NodeEj
00000001c91486bc (__TEXT,__text) non-external __ZN12_GLOBAL__N_19Remangler24mangleProtocolDescriptorEPN5swift8Demangle4NodeEj
00000001c91490a0 (__TEXT,__text) non-external __ZN12_GLOBAL__N_19Remangler24mangleReabstractionThunkEPN5swift8Demangle4NodeEj
00000001c914d804 (__TEXT,__text) non-external __ZN12_GLOBAL__N_19Remangler25mangleAnonymousDescriptorEPN5swift8Demangle4NodeEj
00000001c913f018 (__TEXT,__text) non-external __ZN12_GLOBAL__N_19Remangler25mangleDependentMemberTypeEPN5swift8Demangle4NodeEj
00000001c91403a8 (__TEXT,__text) non-external __ZN12_GLOBAL__N_19Remangler25mangleExistentialMetatypeEPN5swift8Demangle4NodeEj
00000001c914d774 (__TEXT,__text) non-external __ZN12_GLOBAL__N_19Remangler25mangleExtensionDescriptorEPN5swift8Demangle4NodeEj
00000001c91480d0 (__TEXT,__text) non-external __ZN12_GLOBAL__N_19Remangler25mangleProtocolConformanceEPN5swift8Demangle4NodeEj
00000001c914ee74 (__TEXT,__text) non-external __ZN12_GLOBAL__N_19Remangler26mangleAutoDiffFunctionKindEPN5swift8Demangle4NodeEj
00000001c913c3ac (__TEXT,__text) non-external __ZN12_GLOBAL__N_19Remangler26mangleBoundGenericFunctionEPN5swift8Demangle4NodeEj
00000001c913ee68 (__TEXT,__text) non-external __ZN12_GLOBAL__N_19Remangler26mangleDependentGenericTypeEPN5swift8Demangle4NodeEj
00000001c914bd4c (__TEXT,__text) non-external __ZN12_GLOBAL__N_19Remangler26mangleGenericTypeParamDeclEPN5swift8Demangle4NodeEj
00000001c9146b58 (__TEXT,__text) non-external __ZN12_GLOBAL__N_19Remangler26mangleMethodLookupFunctionEPN5swift8Demangle4NodeEj
00000001c91400c8 (__TEXT,__text) non-external __ZN12_GLOBAL__N_19Remangler26mangleNoEscapeFunctionTypeEPN5swift8Demangle4NodeEj
00000001c914e1fc (__TEXT,__text) non-external __ZN12_GLOBAL__N_19Remangler26mangleOpaqueTypeDescriptorEPN5swift8Demangle4NodeEj
00000001c9148ea8 (__TEXT,__text) non-external __ZN12_GLOBAL__N_19Remangler26mangleProtocolWitnessTableEPN5swift8Demangle4NodeEj
00000001c9149aa0 (__TEXT,__text) non-external __ZN12_GLOBAL__N_19Remangler26mangleSILBoxTypeWithLayoutEPN5swift8Demangle4NodeEj
00000001c915074c (__TEXT,__text) non-external __ZN12_GLOBAL__N_19Remangler26mangleStandardSubstitutionEPN5swift8Demangle4NodeE
00000001c914fe7c (__TEXT,__text) non-external __ZN12_GLOBAL__N_19Remangler27mangleMetatypeParamsRemovedEPN5swift8Demangle4NodeEj
00000001c9147104 (__TEXT,__text) non-external __ZN12_GLOBAL__N_19Remangler27mangleNativeOwningAddressorEPN5swift8Demangle4NodeEj
00000001c91472f4 (__TEXT,__text) non-external __ZN12_GLOBAL__N_19Remangler27mangleNominalTypeDescriptorEPN5swift8Demangle4NodeEj
00000001c914caf0 (__TEXT,__text) non-external __ZN12_GLOBAL__N_19Remangler27mangleOutlinedBridgedMethodEPN5swift8Demangle4NodeEj
00000001c9147a0c (__TEXT,__text) non-external __ZN12_GLOBAL__N_19Remangler27manglePartialApplyForwarderEPN5swift8Demangle4NodeEj
00000001c9148a04 (__TEXT,__text) non-external __ZN12_GLOBAL__N_19Remangler27mangleProtocolListWithClassEPN5swift8Demangle4NodeEj
00000001c914945c (__TEXT,__text) non-external __ZN12_GLOBAL__N_19Remangler27mangleRelatedEntityDeclNameEPN5swift8Demangle4NodeEj
00000001c914af9c (__TEXT,__text) non-external __ZN12_GLOBAL__N_19Remangler27mangleTypeMetadataLazyCacheEPN5swift8Demangle4NodeEj
00000001c914b054 (__TEXT,__text) non-external __ZN12_GLOBAL__N_19Remangler27mangleUncurriedFunctionTypeEPN5swift8Demangle4NodeEj
00000001c91503e0 (__TEXT,__text) non-external __ZN12_GLOBAL__N_19Remangler28mangleAnyProtocolConformanceEPN5swift8Demangle4NodeEj
00000001c91422e0 (__TEXT,__text) non-external __ZN12_GLOBAL__N_19Remangler28mangleConstrainedExistentialEPN5swift8Demangle4NodeEj
00000001c914386c (__TEXT,__text) non-external __ZN12_GLOBAL__N_19Remangler28mangleImplFunctionConventionEPN5swift8Demangle4NodeEj
00000001c9146714 (__TEXT,__text) non-external __ZN12_GLOBAL__N_19Remangler28mangleMetatypeRepresentationEPN5swift8Demangle4NodeEj
00000001c91471fc (__TEXT,__text) non-external __ZN12_GLOBAL__N_19Remangler28mangleNativePinningAddressorEPN5swift8Demangle4NodeEj
00000001c9146ca8 (__TEXT,__text) non-external __ZN12_GLOBAL__N_19Remangler28mangleObjCResilientClassStubEPN5swift8Demangle4NodeEj
00000001c914d078 (__TEXT,__text) non-external __ZN12_GLOBAL__N_19Remangler28mangleOutlinedAssignWithCopyEPN5swift8Demangle4NodeEj
00000001c914cfc0 (__TEXT,__text) non-external __ZN12_GLOBAL__N_19Remangler28mangleOutlinedAssignWithTakeEPN5swift8Demangle4NodeEj
00000001c914d248 (__TEXT,__text) non-external __ZN12_GLOBAL__N_19Remangler28mangleOutlinedReadOnlyObjectEPN5swift8Demangle4NodeEj
00000001c9147990 (__TEXT,__text) non-external __ZN12_GLOBAL__N_19Remangler28mangleOwningMutableAddressorEPN5swift8Demangle4NodeEj
00000001c9149554 (__TEXT,__text) non-external __ZN12_GLOBAL__N_19Remangler28mangleRetroactiveConformanceEPN5swift8Demangle4NodeEj
00000001c914b478 (__TEXT,__text) non-external __ZN12_GLOBAL__N_19Remangler28mangleUnsafeMutableAddressorEPN5swift8Demangle4NodeEj
00000001c913d4a4 (__TEXT,__text) non-external __ZN12_GLOBAL__N_19Remangler29mangleClassMetadataBaseOffsetEPN5swift8Demangle4NodeEj
00000001c913fff0 (__TEXT,__text) non-external __ZN12_GLOBAL__N_19Remangler29mangleEscapingAutoClosureTypeEPN5swift8Demangle4NodeEj
00000001c91401a0 (__TEXT,__text) non-external __ZN12_GLOBAL__N_19Remangler29mangleGlobalActorFunctionTypeEPN5swift8Demangle4NodeEj
00000001c914eb48 (__TEXT,__text) non-external __ZN12_GLOBAL__N_19Remangler29mangleGlobalVariableOnceTokenEPN5swift8Demangle4NodeEj
00000001c914c578 (__TEXT,__text) non-external __ZN12_GLOBAL__N_19Remangler30mangleAssociatedTypeDescriptorEPN5swift8Demangle4NodeEj
00000001c913c008 (__TEXT,__text) non-external __ZN12_GLOBAL__N_19Remangler30mangleBaseWitnessTableAccessorEPN5swift8Demangle4NodeEj
00000001c914f48c (__TEXT,__text) non-external __ZN12_GLOBAL__N_19Remangler30mangleDifferentiabilityWitnessEPN5swift8Demangle4NodeEj
00000001c9146024 (__TEXT,__text) non-external __ZN12_GLOBAL__N_19Remangler30mangleMacroExpansionUniqueNameEPN5swift8Demangle4NodeEj
00000001c91487d0 (__TEXT,__text) non-external __ZN12_GLOBAL__N_19Remangler30mangleProtocolDescriptorRecordEPN5swift8Demangle4NodeEj
00000001c9149178 (__TEXT,__text) non-external __ZN12_GLOBAL__N_19Remangler30mangleReabstractionThunkHelperEPN5swift8Demangle4NodeEj
00000001c914c428 (__TEXT,__text) non-external __ZN12_GLOBAL__N_19Remangler31mangleBaseConformanceDescriptorEPN5swift8Demangle4NodeEj
00000001c913e054 (__TEXT,__text) non-external __ZN12_GLOBAL__N_19Remangler31mangleDependentGenericParamTypeEPN5swift8Demangle4NodeEj
00000001c913e9e4 (__TEXT,__text) non-external __ZN12_GLOBAL__N_19Remangler31mangleDependentGenericSignatureEPN5swift8Demangle4NodeEj
00000001c91527ec (__TEXT,__text) non-external __ZN12_GLOBAL__N_19Remangler31mangleGenericSpecializationNodeEPN5swift8Demangle4NodeEPKcj
00000001c9143580 (__TEXT,__text) non-external __ZN12_GLOBAL__N_19Remangler31mangleImplDifferentiabilityKindEPN5swift8Demangle4NodeEj
00000001c9147ae4 (__TEXT,__text) non-external __ZN12_GLOBAL__N_19Remangler31manglePartialApplyObjCForwarderEPN5swift8Demangle4NodeEj
00000001c9148aa8 (__TEXT,__text) non-external __ZN12_GLOBAL__N_19Remangler31mangleProtocolListWithAnyObjectEPN5swift8Demangle4NodeEj
00000001c914ffac (__TEXT,__text) non-external __ZN12_GLOBAL__N_19Remangler31mangleRuntimeAttributeGeneratorEPN5swift8Demangle4NodeEj
00000001c913b6e8 (__TEXT,__text) non-external __ZN12_GLOBAL__N_19Remangler32mangleAnyProtocolConformanceListEPN5swift8Demangle4NodeEj
00000001c913d99c (__TEXT,__text) non-external __ZN12_GLOBAL__N_19Remangler32mangleDefaultArgumentInitializerEPN5swift8Demangle4NodeEj
00000001c913dbe0 (__TEXT,__text) non-external __ZN12_GLOBAL__N_19Remangler32mangleDependentAssociatedTypeRefEPN5swift8Demangle4NodeEj
00000001c91522f8 (__TEXT,__text) non-external __ZN12_GLOBAL__N_19Remangler32mangleDependentGenericParamIndexEPN5swift8Demangle4NodeEPKcc
00000001c9140258 (__TEXT,__text) non-external __ZN12_GLOBAL__N_19Remangler32mangleDifferentiableFunctionTypeEPN5swift8Demangle4NodeEj
00000001c9140a94 (__TEXT,__text) non-external __ZN12_GLOBAL__N_19Remangler32mangleFreestandingMacroExpansionEPN5swift8Demangle4NodeEj
00000001c9146d50 (__TEXT,__text) non-external __ZN12_GLOBAL__N_19Remangler32mangleFullObjCResilientClassStubEPN5swift8Demangle4NodeEj
00000001c91428e0 (__TEXT,__text) non-external __ZN12_GLOBAL__N_19Remangler32mangleGenericTypeMetadataPatternEPN5swift8Demangle4NodeEj
00000001c914ec00 (__TEXT,__text) non-external __ZN12_GLOBAL__N_19Remangler32mangleGlobalVariableOnceDeclListEPN5swift8Demangle4NodeEj
00000001c914ea90 (__TEXT,__text) non-external __ZN12_GLOBAL__N_19Remangler32mangleGlobalVariableOnceFunctionEPN5swift8Demangle4NodeEj
00000001c914e898 (__TEXT,__text) non-external __ZN12_GLOBAL__N_19Remangler32mangleMetadataInstantiationCacheEPN5swift8Demangle4NodeEj
00000001c9146c00 (__TEXT,__text) non-external __ZN12_GLOBAL__N_19Remangler32mangleObjCMetadataUpdateFunctionEPN5swift8Demangle4NodeEj
00000001c914e2a4 (__TEXT,__text) non-external __ZN12_GLOBAL__N_19Remangler32mangleOpaqueTypeDescriptorRecordEPN5swift8Demangle4NodeEj
00000001c914cf08 (__TEXT,__text) non-external __ZN12_GLOBAL__N_19Remangler32mangleOutlinedInitializeWithCopyEPN5swift8Demangle4NodeEj
00000001c914ce50 (__TEXT,__text) non-external __ZN12_GLOBAL__N_19Remangler32mangleOutlinedInitializeWithTakeEPN5swift8Demangle4NodeEj
00000001c9147bbc (__TEXT,__text) non-external __ZN12_GLOBAL__N_19Remangler32manglePeerAttachedMacroExpansionEPN5swift8Demangle4NodeEj
00000001c914ab9c (__TEXT,__text) non-external __ZN12_GLOBAL__N_19Remangler32mangleTypeMetadataAccessFunctionEPN5swift8Demangle4NodeEj
00000001c913d54c (__TEXT,__text) non-external __ZN12_GLOBAL__N_19Remangler33mangleConcreteProtocolConformanceEPN5swift8Demangle4NodeEj
00000001c91426e8 (__TEXT,__text) non-external __ZN12_GLOBAL__N_19Remangler33mangleGenericProtocolWitnessTableEPN5swift8Demangle4NodeEj
00000001c914739c (__TEXT,__text) non-external __ZN12_GLOBAL__N_19Remangler33mangleNominalTypeDescriptorRecordEPN5swift8Demangle4NodeEj
00000001c9148ff8 (__TEXT,__text) non-external __ZN12_GLOBAL__N_19Remangler33mangleProtocolWitnessTablePatternEPN5swift8Demangle4NodeEj
00000001c914aee4 (__TEXT,__text) non-external __ZN12_GLOBAL__N_19Remangler33mangleTypeMetadataDemanglingCacheEPN5swift8Demangle4NodeEj
00000001c914fb5c (__TEXT,__text) non-external __ZN12_GLOBAL__N_19Remangler34mangleExtendedExistentialTypeShapeEPN5swift8Demangle4NodeEj
00000001c9142594 (__TEXT,__text) non-external __ZN12_GLOBAL__N_19Remangler34mangleGenericPartialSpecializationEPN5swift8Demangle4NodeEj
00000001c91461fc (__TEXT,__text) non-external __ZN12_GLOBAL__N_19Remangler34mangleMemberAttachedMacroExpansionEPN5swift8Demangle4NodeEj
00000001c9147180 (__TEXT,__text) non-external __ZN12_GLOBAL__N_19Remangler34mangleNativeOwningMutableAddressorEPN5swift8Demangle4NodeEj
00000001c914e34c (__TEXT,__text) non-external __ZN12_GLOBAL__N_19Remangler34mangleOpaqueTypeDescriptorAccessorEPN5swift8Demangle4NodeEj
00000001c9148f50 (__TEXT,__text) non-external __ZN12_GLOBAL__N_19Remangler34mangleProtocolWitnessTableAccessorEPN5swift8Demangle4NodeEj
00000001c914d978 (__TEXT,__text) non-external __ZN12_GLOBAL__N_19Remangler35mangleAssociatedTypeGenericParamRefEPN5swift8Demangle4NodeEj
00000001c9153ef4 (__TEXT,__text) non-external __ZN12_GLOBAL__N_19Remangler35mangleAutoDiffFunctionOrSimpleThunkEPN5swift8Demangle4NodeEN4llvm9StringRefEj
00000001c914f0a0 (__TEXT,__text) non-external __ZN12_GLOBAL__N_19Remangler35mangleAutoDiffSubsetParametersThunkEPN5swift8Demangle4NodeEj
00000001c9147278 (__TEXT,__text) non-external __ZN12_GLOBAL__N_19Remangler35mangleNativePinningMutableAddressorEPN5swift8Demangle4NodeEj
00000001c91488e4 (__TEXT,__text) non-external __ZN12_GLOBAL__N_19Remangler35mangleProtocolConformanceDescriptorEPN5swift8Demangle4NodeEj
00000001c9142838 (__TEXT,__text) non-external __ZN12_GLOBAL__N_19Remangler35mangleResilientProtocolWitnessTableEPN5swift8Demangle4NodeEj
00000001c913bde8 (__TEXT,__text) non-external __ZN12_GLOBAL__N_19Remangler36mangleAccessorAttachedMacroExpansionEPN5swift8Demangle4NodeEj
00000001c913bc78 (__TEXT,__text) non-external __ZN12_GLOBAL__N_19Remangler36mangleAssociatedTypeMetadataAccessorEPN5swift8Demangle4NodeEj
00000001c913d82c (__TEXT,__text) non-external __ZN12_GLOBAL__N_19Remangler36mangleCoroutineContinuationPrototypeEPN5swift8Demangle4NodeEj
00000001c913da7c (__TEXT,__text) non-external __ZN12_GLOBAL__N_19Remangler36mangleDependentAssociatedConformanceEPN5swift8Demangle4NodeEj
00000001c9147444 (__TEXT,__text) non-external __ZN12_GLOBAL__N_19Remangler36mangleObjCAsyncCompletionHandlerImplEPN5swift8Demangle4NodeEj
00000001c9148c34 (__TEXT,__text) non-external __ZN12_GLOBAL__N_19Remangler36mangleProtocolSelfConformanceWitnessEPN5swift8Demangle4NodeEj
00000001c914ac44 (__TEXT,__text) non-external __ZN12_GLOBAL__N_19Remangler36mangleTypeMetadataCompletionFunctionEPN5swift8Demangle4NodeEj
00000001c914acec (__TEXT,__text) non-external __ZN12_GLOBAL__N_19Remangler36mangleTypeMetadataInstantiationCacheEPN5swift8Demangle4NodeEj
00000001c914c110 (__TEXT,__text) non-external __ZN12_GLOBAL__N_19Remangler37mangleAssociatedConformanceDescriptorEPN5swift8Demangle4NodeEj
00000001c914f974 (__TEXT,__text) non-external __ZN12_GLOBAL__N_19Remangler37mangleAsyncAwaitResumePartialFunctionEPN5swift8Demangle4NodeEj
00000001c913e8e8 (__TEXT,__text) non-external __ZN12_GLOBAL__N_19Remangler37mangleDependentGenericParamPackMarkerEPN5swift8Demangle4NodeEj
00000001c914084c (__TEXT,__text) non-external __ZN12_GLOBAL__N_19Remangler37mangleExtensionAttachedMacroExpansionEPN5swift8Demangle4NodeEj
00000001c9140fbc (__TEXT,__text) non-external __ZN12_GLOBAL__N_19Remangler37mangleFunctionSignatureSpecializationEPN5swift8Demangle4NodeEj
00000001c914e49c (__TEXT,__text) non-external __ZN12_GLOBAL__N_19Remangler37mangleOpaqueTypeDescriptorAccessorKeyEPN5swift8Demangle4NodeEj
00000001c914e544 (__TEXT,__text) non-external __ZN12_GLOBAL__N_19Remangler37mangleOpaqueTypeDescriptorAccessorVarEPN5swift8Demangle4NodeEj
00000001c914fd10 (__TEXT,__text) non-external __ZN12_GLOBAL__N_19Remangler37mangleSymbolicExtendedExistentialTypeEPN5swift8Demangle4NodeEj
00000001c913f4b0 (__TEXT,__text) non-external __ZN12_GLOBAL__N_19Remangler38mangleDependentProtocolConformanceRootEPN5swift8Demangle4NodeEj
00000001c9145c28 (__TEXT,__text) non-external __ZN12_GLOBAL__N_19Remangler38mangleLazyProtocolWitnessTableAccessorEPN5swift8Demangle4NodeEj
00000001c914e3f4 (__TEXT,__text) non-external __ZN12_GLOBAL__N_19Remangler38mangleOpaqueTypeDescriptorAccessorImplEPN5swift8Demangle4NodeEj
00000001c9149250 (__TEXT,__text) non-external __ZN12_GLOBAL__N_19Remangler38mangleReabstractionThunkHelperWithSelfEPN5swift8Demangle4NodeEj
00000001c914fa14 (__TEXT,__text) non-external __ZN12_GLOBAL__N_19Remangler39mangleAsyncSuspendResumePartialFunctionEPN5swift8Demangle4NodeEj
00000001c913d6c4 (__TEXT,__text) non-external __ZN12_GLOBAL__N_19Remangler39mangleConformanceAttachedMacroExpansionEPN5swift8Demangle4NodeEj
00000001c913e57c (__TEXT,__text) non-external __ZN12_GLOBAL__N_19Remangler39mangleDependentGenericLayoutRequirementEPN5swift8Demangle4NodeEj
00000001c9147f60 (__TEXT,__text) non-external __ZN12_GLOBAL__N_19Remangler39manglePropertyWrapperBackingInitializerEPN5swift8Demangle4NodeEj
00000001c9148b20 (__TEXT,__text) non-external __ZN12_GLOBAL__N_19Remangler39mangleProtocolSelfConformanceDescriptorEPN5swift8Demangle4NodeEj
00000001c914bb54 (__TEXT,__text) non-external __ZN12_GLOBAL__N_19Remangler39mangleReflectionMetadataFieldDescriptorEPN5swift8Demangle4NodeEj
00000001c914ad94 (__TEXT,__text) non-external __ZN12_GLOBAL__N_19Remangler39mangleTypeMetadataInstantiationFunctionEPN5swift8Demangle4NodeEj
00000001c913bf50 (__TEXT,__text) non-external __ZN12_GLOBAL__N_19Remangler40mangleAssociatedTypeWitnessTableAccessorEPN5swift8Demangle4NodeEj
00000001c914834c (__TEXT,__text) non-external __ZN12_GLOBAL__N_19Remangler40mangleProtocolConformanceRefInTypeModuleEPN5swift8Demangle4NodeEj
00000001c914bffc (__TEXT,__text) non-external __ZN12_GLOBAL__N_19Remangler40mangleProtocolRequirementsBaseDescriptorEPN5swift8Demangle4NodeEj
00000001c913e2c4 (__TEXT,__text) non-external __ZN12_GLOBAL__N_19Remangler41mangleDependentGenericSameTypeRequirementEPN5swift8Demangle4NodeEj
00000001c9148974 (__TEXT,__text) non-external __ZN12_GLOBAL__N_19Remangler41mangleProtocolConformanceDescriptorRecordEPN5swift8Demangle4NodeEj
00000001c9148574 (__TEXT,__text) non-external __ZN12_GLOBAL__N_19Remangler41mangleProtocolConformanceRefInOtherModuleEPN5swift8Demangle4NodeEj
00000001c9148cdc (__TEXT,__text) non-external __ZN12_GLOBAL__N_19Remangler41mangleProtocolSelfConformanceWitnessTableEPN5swift8Demangle4NodeEj
00000001c914baac (__TEXT,__text) non-external __ZN12_GLOBAL__N_19Remangler41mangleReflectionMetadataBuiltinDescriptorEPN5swift8Demangle4NodeEj
00000001c914e738 (__TEXT,__text) non-external __ZN12_GLOBAL__N_19Remangler42mangleCanonicalSpecializedGenericMetaclassEPN5swift8Demangle4NodeEj
00000001c914c29c (__TEXT,__text) non-external __ZN12_GLOBAL__N_19Remangler42mangleDefaultAssociatedConformanceAccessorEPN5swift8Demangle4NodeEj
00000001c913e43c (__TEXT,__text) non-external __ZN12_GLOBAL__N_19Remangler42mangleDependentGenericSameShapeRequirementEPN5swift8Demangle4NodeEj
00000001c91415f8 (__TEXT,__text) non-external __ZN12_GLOBAL__N_19Remangler42mangleFunctionSignatureSpecializationParamEPN5swift8Demangle4NodeEj
00000001c91436b0 (__TEXT,__text) non-external __ZN12_GLOBAL__N_19Remangler42mangleImplParameterResultDifferentiabilityEPN5swift8Demangle4NodeEj
00000001c91423bc (__TEXT,__text) non-external __ZN12_GLOBAL__N_19Remangler43mangleConstrainedExistentialRequirementListEPN5swift8Demangle4NodeEj
00000001c913bd30 (__TEXT,__text) non-external __ZN12_GLOBAL__N_19Remangler43mangleDefaultAssociatedTypeMetadataAccessorEPN5swift8Demangle4NodeEj
00000001c913f6c0 (__TEXT,__text) non-external __ZN12_GLOBAL__N_19Remangler43mangleDependentProtocolConformanceInheritedEPN5swift8Demangle4NodeEj
00000001c9145ce0 (__TEXT,__text) non-external __ZN12_GLOBAL__N_19Remangler43mangleLazyProtocolWitnessTableCacheVariableEPN5swift8Demangle4NodeEj
00000001c9146364 (__TEXT,__text) non-external __ZN12_GLOBAL__N_19Remangler43mangleMemberAttributeAttachedMacroExpansionEPN5swift8Demangle4NodeEj
00000001c9148018 (__TEXT,__text) non-external __ZN12_GLOBAL__N_19Remangler43manglePropertyWrapperInitFromProjectedValueEPN5swift8Demangle4NodeEj
00000001c914bbfc (__TEXT,__text) non-external __ZN12_GLOBAL__N_19Remangler43mangleReflectionMetadataAssocTypeDescriptorEPN5swift8Demangle4NodeEj
00000001c913dd28 (__TEXT,__text) non-external __ZN12_GLOBAL__N_19Remangler44mangleDependentGenericConformanceRequirementEPN5swift8Demangle4NodeEj
00000001c913f8a4 (__TEXT,__text) non-external __ZN12_GLOBAL__N_19Remangler44mangleDependentProtocolConformanceAssociatedEPN5swift8Demangle4NodeEj
00000001c9148460 (__TEXT,__text) non-external __ZN12_GLOBAL__N_19Remangler44mangleProtocolConformanceRefInProtocolModuleEPN5swift8Demangle4NodeEj
00000001c914bca4 (__TEXT,__text) non-external __ZN12_GLOBAL__N_19Remangler44mangleReflectionMetadataSuperclassDescriptorEPN5swift8Demangle4NodeEj
00000001c9149328 (__TEXT,__text) non-external __ZN12_GLOBAL__N_19Remangler45mangleReabstractionThunkHelperWithGlobalActorEPN5swift8Demangle4NodeEj
00000001c914efa4 (__TEXT,__text) non-external __ZN12_GLOBAL__N_19Remangler46mangleAutoDiffSelfReorderingReabstractionThunkEPN5swift8Demangle4NodeEj
00000001c91475bc (__TEXT,__text) non-external __ZN12_GLOBAL__N_19Remangler46manglePredefinedObjCAsyncCompletionHandlerImplEPN5swift8Demangle4NodeEj
00000001c914ae3c (__TEXT,__text) non-external __ZN12_GLOBAL__N_19Remangler46mangleTypeMetadataSingletonInitializationCacheEPN5swift8Demangle4NodeEj
00000001c914e940 (__TEXT,__text) non-external __ZN12_GLOBAL__N_19Remangler48mangleNoncanonicalSpecializedGenericTypeMetadataEPN5swift8Demangle4NodeEj
00000001c914e9e8 (__TEXT,__text) non-external __ZN12_GLOBAL__N_19Remangler53mangleNoncanonicalSpecializedGenericTypeMetadataCacheEPN5swift8Demangle4NodeEj
00000001c9142790 (__TEXT,__text) non-external __ZN12_GLOBAL__N_19Remangler54mangleGenericProtocolWitnessTableInstantiationFunctionEPN5swift8Demangle4NodeEj
00000001c914edcc (__TEXT,__text) non-external __ZN12_GLOBAL__N_19Remangler56mangleCanonicalPrespecializedGenericTypeCachingOnceTokenEPN5swift8Demangle4NodeEj
00000001c914e7f0 (__TEXT,__text) non-external __ZN12_GLOBAL__N_19Remangler59mangleCanonicalSpecializedGenericTypeMetadataAccessFunctionEPN5swift8Demangle4NodeEj
00000001c9136e80 (__TEXT,__text) non-external __ZN12_GLOBAL__N_19Remangler6mangleEPN5swift8Demangle4NodeEj
00000001c912b0b8 (__TEXT,__text) non-external __ZN12_GLOBAL__N_1lsERN5swift8Demangle16DemanglerPrinterERKNS_12QuotedStringE
00000001c9154768 (__TEXT,__text) non-external __ZN4llvm12function_refIFPN5swift8Demangle4NodeENS2_21SymbolicReferenceKindEPKvEE11callback_fnIZNS2_10mangleNodeES4_E3$_0EES4_lS5_S7_
00000001c9151eb4 (__TEXT,__text) non-external (was a private external) __ZN4llvm9StringRef13consume_frontES0_
00000001c9123054 (__TEXT,__text) external __ZN5swift6Mangle10isNonAsciiEN4llvm9StringRefE
00000001c9152b98 (__TEXT,__text) non-external __ZN5swift6Mangle16mangleIdentifierIN12_GLOBAL__N_19RemanglerEEEvRT_N4llvm9StringRefE
00000001c912330c (__TEXT,__text) external __ZN5swift6Mangle17translateOperatorEN4llvm9StringRefE
00000001c9150adc (__TEXT,__text) non-external __ZN5swift6Mangle19SubstitutionMerging13tryMergeSubstIN12_GLOBAL__N_19RemanglerEEEbRT_N4llvm9StringRefEb
00000001c9123364 (__TEXT,__text) external __ZN5swift6Mangle20getStandardTypeSubstEN4llvm9StringRefEb
00000001c9123088 (__TEXT,__text) external __ZN5swift6Mangle21needsPunycodeEncodingEN4llvm9StringRefE
00000001c91230e0 (__TEXT,__text) external __ZN5swift6Mangle21translateOperatorCharEc
00000001c910b6c0 (__TEXT,__text) external __ZN5swift8Demangle10CharVector6appendEN4llvm9StringRefERNS0_11NodeFactoryE
00000001c910b7f8 (__TEXT,__text) external __ZN5swift8Demangle10CharVector6appendEiRNS0_11NodeFactoryE
00000001c910b934 (__TEXT,__text) external __ZN5swift8Demangle10CharVector6appendEyRNS0_11NodeFactoryE
00000001c9108ad0 (__TEXT,__text) external __ZN5swift8Demangle10failAssertEPKcjPNS0_4NodeES2_
00000001c910a1a0 (__TEXT,__text) external __ZN5swift8Demangle10isProtocolEN4llvm9StringRefE
00000001c9136bc0 (__TEXT,__text) external __ZN5swift8Demangle10mangleNodeEPNS0_4NodeE
00000001c9136bf4 (__TEXT,__text) external __ZN5swift8Demangle10mangleNodeEPNS0_4NodeEN4llvm12function_refIFS2_NS0_21SymbolicReferenceKindEPKvEEE
00000001c913a51c (__TEXT,__text) external __ZN5swift8Demangle10mangleNodeEPNS0_4NodeEN4llvm12function_refIFS2_NS0_21SymbolicReferenceKindEPKvEEERNS0_11NodeFactoryE
00000001c910abc0 (__TEXT,__text) external __ZN5swift8Demangle11NodeFactory10createNodeENS0_4Node4KindE
00000001c910ac5c (__TEXT,__text) non-external (was a private external) __ZN5swift8Demangle11NodeFactory10createNodeENS0_4Node4KindEN4llvm9StringRefE
00000001c910b604 (__TEXT,__text) external __ZN5swift8Demangle11NodeFactory10createNodeENS0_4Node4KindEPKc
00000001c910b550 (__TEXT,__text) external __ZN5swift8Demangle11NodeFactory10createNodeENS0_4Node4KindERKNS0_10CharVectorE
00000001c910b3f4 (__TEXT,__text) external __ZN5swift8Demangle11NodeFactory10createNodeENS0_4Node4KindEy
00000001c910b2ac (__TEXT,__text) external __ZN5swift8Demangle11NodeFactory13popCheckpointENS1_10CheckpointE
00000001c910b49c (__TEXT,__text) external __ZN5swift8Demangle11NodeFactory27createNodeWithAllocatedTextENS0_4Node4KindEN4llvm9StringRefE
00000001c910b24c (__TEXT,__text) external __ZN5swift8Demangle11NodeFactory5clearEv
00000001c910b21c (__TEXT,__text) external __ZN5swift8Demangle11NodeFactory9freeSlabsEPNS1_4SlabE
00000001c91219fc (__TEXT,__text) non-external (was a private external) __ZN5swift8Demangle11NodeFactoryD0Ev
00000001c9121998 (__TEXT,__text) non-external (was a private external) __ZN5swift8Demangle11NodeFactoryD1Ev
00000001c910976c (__TEXT,__text) external __ZN5swift8Demangle12isObjCSymbolEN4llvm9StringRefE
00000001c912542c (__TEXT,__text) external __ZN5swift8Demangle12nodeToStringEPNS0_4NodeERKNS0_15DemangleOptionsE
00000001c9136b44 (__TEXT,__text) external __ZN5swift8Demangle13RemanglerBase15addSubstitutionERKNS0_17SubstitutionEntryE
00000001c9136a28 (__TEXT,__text) external __ZN5swift8Demangle13RemanglerBase16findSubstitutionERKNS0_17SubstitutionEntryE
00000001c913a734 (__TEXT,__text) external __ZN5swift8Demangle13isSpecializedEPNS0_4NodeE
00000001c91096a0 (__TEXT,__text) external __ZN5swift8Demangle13isSwiftSymbolEN4llvm9StringRefE
00000001c9109708 (__TEXT,__text) external __ZN5swift8Demangle13isSwiftSymbolEPKc
00000001c91090a8 (__TEXT,__text) external __ZN5swift8Demangle14isFunctionAttrENS0_4Node4KindE
00000001c91256d0 (__TEXT,__text) non-external (was a private external) __ZN5swift8Demangle15DemangleOptionsD1Ev
00000001c913ad08 (__TEXT,__text) external __ZN5swift8Demangle16getUnspecializedEPNS0_4NodeERNS0_11NodeFactoryE
00000001c9136680 (__TEXT,__text) external __ZN5swift8Demangle17SubstitutionEntry16identifierEqualsEPNS0_4NodeES3_
00000001c91367c8 (__TEXT,__text) external __ZN5swift8Demangle17SubstitutionEntry8deepHashEPNS0_4NodeE
00000001c9123f00 (__TEXT,__text) external __ZN5swift8Demangle17getNodeKindStringENS0_4Node4KindE
00000001c9123f28 (__TEXT,__text) external __ZN5swift8Demangle19getNodeTreeAsStringEPNS0_4NodeE
00000001c9124594 (__TEXT,__text) external __ZN5swift8Demangle19keyPathSourceStringEPKcm
00000001c9122f18 (__TEXT,__text) external __ZN5swift8Demangle20demangleTypeAsStringEPKcmRKNS0_15DemangleOptionsE
00000001c91243f4 (__TEXT,__text) external __ZN5swift8Demangle20genericParameterNameEyy
00000001c9122ddc (__TEXT,__text) external __ZN5swift8Demangle22demangleSymbolAsStringEPKcmRKNS0_15DemangleOptionsE
00000001c912e3f0 (__TEXT,__text) external __ZN5swift8Demangle23demangleOldSymbolAsNodeEN4llvm9StringRefERNS0_11NodeFactoryE
00000001c91097dc (__TEXT,__text) external __ZN5swift8Demangle23dropSwiftManglingPrefixEN4llvm9StringRefE
00000001c9109590 (__TEXT,__text) external __ZN5swift8Demangle23getManglingPrefixLengthEN4llvm9StringRefE
00000001c911d534 (__TEXT,__text) external __ZN5swift8Demangle23nodeConsumesGenericArgsEPNS0_4NodeE
00000001c91096e4 (__TEXT,__text) external __ZN5swift8Demangle25isOldFunctionTypeManglingEN4llvm9StringRefE
00000001c9109544 (__TEXT,__text) external __ZN5swift8Demangle32makeSymbolicMangledNameStringRefEPKc
00000001c910a67c (__TEXT,__text) external __ZN5swift8Demangle34mangledNameForTypeMetadataAccessorEN4llvm9StringRefES2_NS0_4Node4KindE
00000001c910b164 (__TEXT,__text) external __ZN5swift8Demangle4Node10findByKindENS1_4KindEi
00000001c910b080 (__TEXT,__text) external __ZN5swift8Demangle4Node13removeChildAtEj
00000001c910b0f8 (__TEXT,__text) external __ZN5swift8Demangle4Node15reverseChildrenEm
00000001c91240d8 (__TEXT,__text) external __ZN5swift8Demangle4Node4dumpEv
00000001c910ad80 (__TEXT,__text) external __ZN5swift8Demangle4Node8addChildEPS1_RNS0_11NodeFactoryE
00000001c91547a8 (__TEXT,__text) external __ZN5swift8Demangle4warnEjPKcz
00000001c9154770 (__TEXT,__text) external __ZN5swift8Demangle5fatalEjPKcz
00000001c91547d4 (__TEXT,__text) external __ZN5swift8Demangle5warnvEjPKcPc
00000001c915368c (__TEXT,__text) non-external (was a private external) __ZN5swift8Demangle6VectorINS_6Mangle15WordReplacementEE9push_backERKS3_RNS0_11NodeFactoryE
00000001c91537bc (__TEXT,__text) non-external (was a private external) __ZN5swift8Demangle6VectorINS_6Mangle16SubstitutionWordEE9push_backERKS3_RNS0_11NodeFactoryE
00000001c911cd64 (__TEXT,__text) non-external (was a private external) __ZN5swift8Demangle6VectorIPNS0_4NodeEE9push_backERKS3_RNS0_11NodeFactoryE
00000001c911b4f0 (__TEXT,__text) non-external (was a private external) __ZN5swift8Demangle6VectorIcE9push_backERKcRNS0_11NodeFactoryE
00000001c9154790 (__TEXT,__text) external __ZN5swift8Demangle6fatalvEjPKcPc
00000001c9109f3c (__TEXT,__text) external __ZN5swift8Demangle6isEnumEN4llvm9StringRefE
00000001c9122bb0 (__TEXT,__text) external __ZN5swift8Demangle7Context13getModuleNameEN4llvm9StringRefE
00000001c9122358 (__TEXT,__text) external __ZN5swift8Demangle7Context13isThunkSymbolEN4llvm9StringRefE
00000001c9122674 (__TEXT,__text) external __ZN5swift8Demangle7Context14getThunkTargetEN4llvm9StringRefE
00000001c9121ec8 (__TEXT,__text) external __ZN5swift8Demangle7Context18demangleTypeAsNodeEN4llvm9StringRefE
00000001c9121dcc (__TEXT,__text) external __ZN5swift8Demangle7Context20demangleSymbolAsNodeEN4llvm9StringRefE
00000001c912217c (__TEXT,__text) external __ZN5swift8Demangle7Context20demangleTypeAsStringEN4llvm9StringRefERKNS0_15DemangleOptionsE
00000001c9121f68 (__TEXT,__text) external __ZN5swift8Demangle7Context22demangleSymbolAsStringEN4llvm9StringRefERKNS0_15DemangleOptionsE
00000001c9122a1c (__TEXT,__text) external __ZN5swift8Demangle7Context25hasSwiftCallingConventionEN4llvm9StringRefE
00000001c9121da4 (__TEXT,__text) external __ZN5swift8Demangle7Context5clearEv
00000001c9121c3c (__TEXT,__text) external __ZN5swift8Demangle7ContextC1Ev
00000001c9121b74 (__TEXT,__text) external __ZN5swift8Demangle7ContextC2Ev
00000001c9121d54 (__TEXT,__text) external __ZN5swift8Demangle7ContextD1Ev
00000001c9121d04 (__TEXT,__text) external __ZN5swift8Demangle7ContextD2Ev
00000001c9109818 (__TEXT,__text) external __ZN5swift8Demangle7isAliasEN4llvm9StringRefE
00000001c9109cdc (__TEXT,__text) external __ZN5swift8Demangle7isClassEN4llvm9StringRefE
00000001c910a418 (__TEXT,__text) external __ZN5swift8Demangle8isStructEN4llvm9StringRefE
00000001c910ddd4 (__TEXT,__text) external __ZN5swift8Demangle9Demangler10changeKindEPNS0_4NodeENS2_4KindE
00000001c910da40 (__TEXT,__text) external __ZN5swift8Demangle9Demangler10createTypeEPNS0_4NodeE
00000001c911b6b4 (__TEXT,__text) external __ZN5swift8Demangle9Demangler10popContextEv
00000001c911c05c (__TEXT,__text) external __ZN5swift8Demangle9Demangler10popSILPackEv
00000001c9110644 (__TEXT,__text) external __ZN5swift8Demangle9Demangler11popProtocolEv
00000001c911c2fc (__TEXT,__text) external __ZN5swift8Demangle9Demangler11popTypeListEv
00000001c9109a74 (__TEXT,__text) external __ZN5swift8Demangle9Demangler12demangleTypeEN4llvm9StringRefENSt3__18functionIFPNS0_4NodeENS0_21SymbolicReferenceKindENS0_10DirectnessEiPKvEEE
00000001c911a8dc (__TEXT,__text) external __ZN5swift8Demangle9Demangler13demangleIndexEv
00000001c9121520 (__TEXT,__text) external __ZN5swift8Demangle9Demangler14demangleEntityENS0_4Node4KindE
00000001c910bec8 (__TEXT,__text) external __ZN5swift8Demangle9Demangler14demangleSymbolEN4llvm9StringRefENSt3__18functionIFPNS0_4NodeENS0_21SymbolicReferenceKindENS0_10DirectnessEiPKvEEE
00000001c911ab58 (__TEXT,__text) external __ZN5swift8Demangle9Demangler15createSwiftTypeENS0_4Node4KindEPKc
00000001c910d984 (__TEXT,__text) external __ZN5swift8Demangle9Demangler15createWithChildENS0_4Node4KindEPS2_
00000001c911a868 (__TEXT,__text) external __ZN5swift8Demangle9Demangler15demangleNaturalEv
00000001c9116390 (__TEXT,__text) external __ZN5swift8Demangle9Demangler15demangleWitnessEv
00000001c91187e0 (__TEXT,__text) external __ZN5swift8Demangle9Demangler15popFunctionTypeENS0_4Node4KindEb
00000001c910bd3c (__TEXT,__text) external __ZN5swift8Demangle9Demangler16DemangleInitRAIIC1ERS1_N4llvm9StringRefENSt3__18functionIFPNS0_4NodeENS0_21SymbolicReferenceKindENS0_10DirectnessEiPKvEEE
00000001c910bacc (__TEXT,__text) external __ZN5swift8Demangle9Demangler16DemangleInitRAIIC2ERS1_N4llvm9StringRefENSt3__18functionIFPNS0_4NodeENS0_21SymbolicReferenceKindENS0_10DirectnessEiPKvEEE
00000001c910bec4 (__TEXT,__text) external __ZN5swift8Demangle9Demangler16DemangleInitRAIID1Ev
00000001c910bd40 (__TEXT,__text) external __ZN5swift8Demangle9Demangler16DemangleInitRAIID2Ev
00000001c9121120 (__TEXT,__text) external __ZN5swift8Demangle9Demangler16demangleAccessorEPNS0_4NodeE
00000001c9112624 (__TEXT,__text) external __ZN5swift8Demangle9Demangler16demangleMetatypeEv
00000001c910c2e4 (__TEXT,__text) external __ZN5swift8Demangle9Demangler16demangleOperatorEv
00000001c911a28c (__TEXT,__text) external __ZN5swift8Demangle9Demangler16demangleVariableEv
00000001c911e56c (__TEXT,__text) external __ZN5swift8Demangle9Demangler16popAssocTypeNameEv
00000001c911de30 (__TEXT,__text) external __ZN5swift8Demangle9Demangler16popAssocTypePathEv
00000001c9113b88 (__TEXT,__text) external __ZN5swift8Demangle9Demangler17demangleArchetypeEv
00000001c911bab4 (__TEXT,__text) external __ZN5swift8Demangle9Demangler17demangleClangTypeEv
00000001c91190b8 (__TEXT,__text) external __ZN5swift8Demangle9Demangler17demangleSubscriptEv
00000001c910c204 (__TEXT,__text) external __ZN5swift8Demangle9Demangler17parseAndPushNodesEv
00000001c911bc90 (__TEXT,__text) external __ZN5swift8Demangle9Demangler17popFunctionParamsENS0_4Node4KindE
00000001c910dafc (__TEXT,__text) external __ZN5swift8Demangle9Demangler18createWithChildrenENS0_4Node4KindEPS2_S4_
00000001c910dbd4 (__TEXT,__text) external __ZN5swift8Demangle9Demangler18createWithChildrenENS0_4Node4KindEPS2_S4_S4_
00000001c910dcc4 (__TEXT,__text) external __ZN5swift8Demangle9Demangler18createWithChildrenENS0_4Node4KindEPS2_S4_S4_S4_
00000001c9110b3c (__TEXT,__text) external __ZN5swift8Demangle9Demangler18demangleIdentifierEv
00000001c910ef98 (__TEXT,__text) external __ZN5swift8Demangle9Demangler18popTypeAndGetChildEv
00000001c910f2cc (__TEXT,__text) external __ZN5swift8Demangle9Demangler19demangleBuiltinTypeEv
00000001c911a0f4 (__TEXT,__text) external __ZN5swift8Demangle9Demangler19demangleGenericTypeEv
00000001c911a990 (__TEXT,__text) external __ZN5swift8Demangle9Demangler19demangleIndexAsNodeEv
00000001c911fa5c (__TEXT,__text) external __ZN5swift8Demangle9Demangler19demangleIndexSubsetEv
00000001c911763c (__TEXT,__text) external __ZN5swift8Demangle9Demangler19demangleSpecialTypeEv
00000001c9120f38 (__TEXT,__text) external __ZN5swift8Demangle9Demangler20demangleProtocolListEv
00000001c910e008 (__TEXT,__text) external __ZN5swift8Demangle9Demangler20demangleTypeManglingEv
00000001c911a2cc (__TEXT,__text) external __ZN5swift8Demangle9Demangler20demangleValueWitnessEv
00000001c911cbc0 (__TEXT,__text) external __ZN5swift8Demangle9Demangler21demangleBoundGenericsERNS0_6VectorIPNS0_4NodeEEERS4_
00000001c911fe40 (__TEXT,__text) external __ZN5swift8Demangle9Demangler21demangleFuncSpecParamENS0_4Node4KindE
00000001c910ff9c (__TEXT,__text) external __ZN5swift8Demangle9Demangler21demanglePlainFunctionEv
00000001c9120508 (__TEXT,__text) external __ZN5swift8Demangle9Demangler22addFuncSpecParamNumberEPNS0_4NodeENS0_34FunctionSigSpecializationParamKindE
00000001c910fba0 (__TEXT,__text) external __ZN5swift8Demangle9Demangler22demangleAnyGenericTypeENS0_4Node4KindE
00000001c9118a60 (__TEXT,__text) external __ZN5swift8Demangle9Demangler22demangleFunctionEntityEv
00000001c912164c (__TEXT,__text) external __ZN5swift8Demangle9Demangler22demangleMacroExpansionEv
00000001c911e83c (__TEXT,__text) external __ZN5swift8Demangle9Demangler22demangleSpecAttributesENS0_4Node4KindE
00000001c910ea40 (__TEXT,__text) external __ZN5swift8Demangle9Demangler22demangleTypeAnnotationEv
00000001c910e114 (__TEXT,__text) external __ZN5swift8Demangle9Demangler22popFunctionParamLabelsEPNS0_4NodeE
00000001c91108a0 (__TEXT,__text) external __ZN5swift8Demangle9Demangler22popProtocolConformanceEv
00000001c911aad4 (__TEXT,__text) external __ZN5swift8Demangle9Demangler22pushMultiSubstitutionsEim
00000001c9112204 (__TEXT,__text) external __ZN5swift8Demangle9Demangler23demangleLocalIdentifierEv
00000001c911b7a0 (__TEXT,__text) external __ZN5swift8Demangle9Demangler23popTypeAndGetAnyGenericEv
00000001c911ce94 (__TEXT,__text) external __ZN5swift8Demangle9Demangler24demangleBoundGenericArgsEPNS0_4NodeERKNS0_6VectorIS3_EEm
00000001c91101f0 (__TEXT,__text) external __ZN5swift8Demangle9Demangler24demangleBoundGenericTypeEv
00000001c910fd88 (__TEXT,__text) external __ZN5swift8Demangle9Demangler24demangleExtensionContextEv
00000001c9119268 (__TEXT,__text) external __ZN5swift8Demangle9Demangler24demangleGenericSignatureEb
00000001c9111264 (__TEXT,__text) external __ZN5swift8Demangle9Demangler24demangleImplFunctionTypeEv
00000001c9119948 (__TEXT,__text) external __ZN5swift8Demangle9Demangler24demangleProtocolListTypeEv
00000001c9119a08 (__TEXT,__text) external __ZN5swift8Demangle9Demangler25demangleGenericParamIndexEv
00000001c910e8b8 (__TEXT,__text) external __ZN5swift8Demangle9Demangler25demangleSymbolicReferenceEh
00000001c911c60c (__TEXT,__text) external __ZN5swift8Demangle9Demangler25popAnyProtocolConformanceEv
00000001c911ad50 (__TEXT,__text) external __ZN5swift8Demangle9Demangler26createStandardSubstitutionEcb
00000001c9114788 (__TEXT,__text) external __ZN5swift8Demangle9Demangler26demangleGenericRequirementEv
00000001c910f0e8 (__TEXT,__text) external __ZN5swift8Demangle9Demangler26demangleMultiSubstitutionsEv
00000001c9119610 (__TEXT,__text) external __ZN5swift8Demangle9Demangler26demangleOperatorIdentifierEv
00000001c911ca64 (__TEXT,__text) external __ZN5swift8Demangle9Demangler26popRetroactiveConformancesEv
00000001c911efd4 (__TEXT,__text) external __ZN5swift8Demangle9Demangler27demangleBridgedMethodParamsEv
00000001c911d5b4 (__TEXT,__text) external __ZN5swift8Demangle9Demangler27demangleImplParamConventionENS0_4Node4KindE
00000001c911df80 (__TEXT,__text) external __ZN5swift8Demangle9Demangler28demangleAssociatedTypeSimpleEPNS0_4NodeE
00000001c911f95c (__TEXT,__text) external __ZN5swift8Demangle9Demangler28demangleAutoDiffFunctionKindEv
00000001c911d738 (__TEXT,__text) external __ZN5swift8Demangle9Demangler28demangleImplResultConventionENS0_4Node4KindE
00000001c9115078 (__TEXT,__text) external __ZN5swift8Demangle9Demangler28demangleStandardSubstitutionEv
00000001c911a6ac (__TEXT,__text) external __ZN5swift8Demangle9Demangler28getDependentGenericParamTypeEii
00000001c911e6d4 (__TEXT,__text) external __ZN5swift8Demangle9Demangler29demangleGenericSpecializationENS0_4Node4KindE
00000001c911543c (__TEXT,__text) external __ZN5swift8Demangle9Demangler29demangleThunkOrSpecializationEv
00000001c911c480 (__TEXT,__text) external __ZN5swift8Demangle9Demangler29popAnyProtocolConformanceListEv
00000001c911e184 (__TEXT,__text) external __ZN5swift8Demangle9Demangler30demangleAssociatedTypeCompoundEPNS0_4NodeE
00000001c911eb0c (__TEXT,__text) external __ZN5swift8Demangle9Demangler30demangleFunctionSpecializationEv
00000001c9120bcc (__TEXT,__text) external __ZN5swift8Demangle9Demangler30demangleMetatypeRepresentationEv
00000001c9118fb0 (__TEXT,__text) external __ZN5swift8Demangle9Demangler30demangleRetroactiveConformanceEv
00000001c911c778 (__TEXT,__text) external __ZN5swift8Demangle9Demangler31popDependentProtocolConformanceEv
00000001c911fb4c (__TEXT,__text) external __ZN5swift8Demangle9Demangler32demangleDifferentiabilityWitnessEv
00000001c9120788 (__TEXT,__text) external __ZN5swift8Demangle9Demangler32demangleExtendedExistentialShapeEc
00000001c911da38 (__TEXT,__text) external __ZN5swift8Demangle9Demangler32demanglePrivateContextDescriptorEv
00000001c911c7b0 (__TEXT,__text) external __ZN5swift8Demangle9Demangler33demangleDependentConformanceIndexEv
00000001c911c970 (__TEXT,__text) external __ZN5swift8Demangle9Demangler33popDependentAssociatedConformanceEv
00000001c910eff0 (__TEXT,__text) external __ZN5swift8Demangle9Demangler34demangleDifferentiableFunctionTypeEv
00000001c9110498 (__TEXT,__text) external __ZN5swift8Demangle9Demangler35demangleConcreteProtocolConformanceEv
00000001c911f6b0 (__TEXT,__text) external __ZN5swift8Demangle9Demangler37demangleAutoDiffFunctionOrSimpleThunkENS0_4Node4KindE
00000001c911f134 (__TEXT,__text) external __ZN5swift8Demangle9Demangler37demangleAutoDiffSubsetParametersThunkEv
00000001c9120928 (__TEXT,__text) external __ZN5swift8Demangle9Demangler39demangleSymbolicExtendedExistentialTypeEv
00000001c9110548 (__TEXT,__text) external __ZN5swift8Demangle9Demangler40demangleDependentProtocolConformanceRootEv
00000001c911c654 (__TEXT,__text) external __ZN5swift8Demangle9Demangler41demangleRetroactiveProtocolConformanceRefEv
00000001c911d954 (__TEXT,__text) external __ZN5swift8Demangle9Demangler44demangleImplParameterResultDifferentiabilityEv
00000001c9120dcc (__TEXT,__text) external __ZN5swift8Demangle9Demangler45demangleConstrainedExistentialRequirementListEv
00000001c91105c4 (__TEXT,__text) external __ZN5swift8Demangle9Demangler45demangleDependentProtocolConformanceInheritedEv
00000001c9110418 (__TEXT,__text) external __ZN5swift8Demangle9Demangler46demangleDependentProtocolConformanceAssociatedEv
00000001c911f42c (__TEXT,__text) external __ZN5swift8Demangle9Demangler48demangleAutoDiffSelfReorderingReabstractionThunkEv
00000001c9124150 (__TEXT,__text) external __ZN5swift8Demangle9Demangler4dumpEv
00000001c910ba70 (__TEXT,__text) external __ZN5swift8Demangle9Demangler5clearEv
00000001c910c284 (__TEXT,__text) non-external (was a private external) __ZN5swift8Demangle9Demangler7popNodeIPFbNS0_4Node4KindEEEEPS3_T_
00000001c911be58 (__TEXT,__text) external __ZN5swift8Demangle9Demangler7popPackEv
00000001c910d93c (__TEXT,__text) external __ZN5swift8Demangle9Demangler8addChildEPNS0_4NodeES3_
00000001c9119d68 (__TEXT,__text) external __ZN5swift8Demangle9Demangler8popTupleEv
00000001c911b66c (__TEXT,__text) external __ZN5swift8Demangle9Demangler9popModuleEv
00000001c9121a70 (__TEXT,__text) non-external (was a private external) __ZN5swift8Demangle9DemanglerD0Ev
00000001c9109bf8 (__TEXT,__text) non-external (was a private external) __ZN5swift8Demangle9DemanglerD1Ev
00000001c9108b3c (__TEXT,__text) external __ZN5swift8Demangle9isContextENS0_4Node4KindE
00000001c9135698 (__TEXT,__text) external __ZN5swift8Punycode14decodePunycodeEN4llvm9StringRefERNSt3__16vectorIjNS3_9allocatorIjEEEE
00000001c9135e00 (__TEXT,__text) external __ZN5swift8Punycode14encodePunycodeERKNSt3__16vectorIjNS1_9allocatorIjEEEERNS1_12basic_stringIcNS1_11char_traitsIcEENS3_IcEEEE
00000001c913616c (__TEXT,__text) external __ZN5swift8Punycode18decodePunycodeUTF8EN4llvm9StringRefERNSt3__112basic_stringIcNS3_11char_traitsIcEENS3_9allocatorIcEEEE
00000001c91362f0 (__TEXT,__text) external __ZN5swift8Punycode18encodePunycodeUTF8EN4llvm9StringRefERNSt3__112basic_stringIcNS3_11char_traitsIcEENS3_9allocatorIcEEEEb
00000001c912b2dc (__TEXT,__text) non-external (was a private external) __ZNK4llvm9StringRef3strEv
00000001c910b298 (__TEXT,__text) external __ZNK5swift8Demangle11NodeFactory14pushCheckpointEv
00000001c91368f4 (__TEXT,__text) external __ZNK5swift8Demangle17SubstitutionEntry10deepEqualsEPNS0_4NodeES3_
00000001c912b72c (__TEXT,__text) non-external (was a private external) __ZNK5swift8Demangle4Node13getFirstChildEv
00000001c910afec (__TEXT,__text) external __ZNK5swift8Demangle4Node14getNumChildrenEv
00000001c910b048 (__TEXT,__text) external __ZNK5swift8Demangle4Node3endEv
00000001c910b020 (__TEXT,__text) external __ZNK5swift8Demangle4Node5beginEv
00000001c9124550 (__TEXT,__text) non-external (was a private external) __ZNK5swift8Demangle4Node8getChildEm
00000001c91088a0 (__TEXT,__text) non-external (was a private external) __ZNKSt3__110__function6__funcIPFNS_12basic_stringIcNS_11char_traitsIcEENS_9allocatorIcEEEEyyENS5_IS9_EES8_E7__cloneEPNS0_6__baseIS8_EE
00000001c9108858 (__TEXT,__text) non-external (was a private external) __ZNKSt3__110__function6__funcIPFNS_12basic_stringIcNS_11char_traitsIcEENS_9allocatorIcEEEEyyENS5_IS9_EES8_E7__cloneEv
00000001c912d1b0 (__TEXT,__text) non-external (was a private external) __ZNKSt3__18functionIFNS_12basic_stringIcNS_11char_traitsIcEENS_9allocatorIcEEEEyyEEclEyy
00000001c91502c4 (__TEXT,__text) non-external (was a private external) __ZNR5swift8Demangle15RemanglerBufferlsEc
00000001c9124354 (__TEXT,__text) external __ZNR5swift8Demangle16DemanglerPrinter8writeHexEy
00000001c912bc68 (__TEXT,__text) non-external (was a private external) __ZNR5swift8Demangle16DemanglerPrinterlsEj
00000001c91243a4 (__TEXT,__text) external __ZNR5swift8Demangle16DemanglerPrinterlsEx
00000001c9124304 (__TEXT,__text) external __ZNR5swift8Demangle16DemanglerPrinterlsEy
00000001c91088c8 (__TEXT,__text) non-external (was a private external) __ZNSt3__110__function6__funcIPFNS_12basic_stringIcNS_11char_traitsIcEENS_9allocatorIcEEEEyyENS5_IS9_EES8_E18destroy_deallocateEv
00000001c91088c4 (__TEXT,__text) non-external (was a private external) __ZNSt3__110__function6__funcIPFNS_12basic_stringIcNS_11char_traitsIcEENS_9allocatorIcEEEEyyENS5_IS9_EES8_E7destroyEv
00000001c9108854 (__TEXT,__text) non-external (was a private external) __ZNSt3__110__function6__funcIPFNS_12basic_stringIcNS_11char_traitsIcEENS_9allocatorIcEEEEyyENS5_IS9_EES8_ED0Ev
00000001c9108850 (__TEXT,__text) non-external (was a private external) __ZNSt3__110__function6__funcIPFNS_12basic_stringIcNS_11char_traitsIcEENS_9allocatorIcEEEEyyENS5_IS9_EES8_ED1Ev
00000001c91088cc (__TEXT,__text) non-external (was a private external) __ZNSt3__110__function6__funcIPFNS_12basic_stringIcNS_11char_traitsIcEENS_9allocatorIcEEEEyyENS5_IS9_EES8_EclEOySC_
00000001c9154608 (__TEXT,__text) non-external (was a private external) __ZNSt3__112__hash_tableINS_17__hash_value_typeIN5swift8Demangle17SubstitutionEntryEjEENS_22__unordered_map_hasherIS4_S5_NS4_6HasherENS_8equal_toIS4_EELb1EEENS_21__unordered_map_equalIS4_S5_S9_S7_Lb1EEENS_9allocatorIS5_EEE11__do_rehashILb1EEEvm
00000001c915430c (__TEXT,__text) non-external (was a private external) __ZNSt3__112__hash_tableINS_17__hash_value_typeIN5swift8Demangle17SubstitutionEntryEjEENS_22__unordered_map_hasherIS4_S5_NS4_6HasherENS_8equal_toIS4_EELb1EEENS_21__unordered_map_equalIS4_S5_S9_S7_Lb1EEENS_9allocatorIS5_EEE25__emplace_unique_key_argsIS4_JNS_4pairIKS4_jEEEEENSH_INS_15__hash_iteratorIPNS_11__hash_nodeIS5_PvEEEEbEERKT_DpOT0_
00000001c91541e0 (__TEXT,__text) non-external (was a private external) __ZNSt3__112__hash_tableINS_17__hash_value_typeIN5swift8Demangle17SubstitutionEntryEjEENS_22__unordered_map_hasherIS4_S5_NS4_6HasherENS_8equal_toIS4_EELb1EEENS_21__unordered_map_equalIS4_S5_S9_S7_Lb1EEENS_9allocatorIS5_EEE4findIS4_EENS_15__hash_iteratorIPNS_11__hash_nodeIS5_PvEEEERKT_
                 (undefined) external __ZNSt3__112__next_primeEm (from libc++)
                 (undefined) external __ZNSt3__112basic_stringIcNS_11char_traitsIcEENS_9allocatorIcEEE6appendEPKc (from libc++)
                 (undefined) external __ZNSt3__112basic_stringIcNS_11char_traitsIcEENS_9allocatorIcEEE6appendEPKcm (from libc++)
                 (undefined) external __ZNSt3__112basic_stringIcNS_11char_traitsIcEENS_9allocatorIcEEE6insertEmPKc (from libc++)
                 (undefined) external __ZNSt3__112basic_stringIcNS_11char_traitsIcEENS_9allocatorIcEEE6insertEmPKcm (from libc++)
                 (undefined) external __ZNSt3__112basic_stringIcNS_11char_traitsIcEENS_9allocatorIcEEE7reserveEm (from libc++)
                 (undefined) external __ZNSt3__112basic_stringIcNS_11char_traitsIcEENS_9allocatorIcEEE9push_backEc (from libc++)
                 (undefined) external __ZNSt3__112basic_stringIcNS_11char_traitsIcEENS_9allocatorIcEEEC1ERKS5_ (from libc++)
00000001c912533c (__TEXT,__text) non-external (was a private external) __ZNSt3__112basic_stringIcNS_11char_traitsIcEENS_9allocatorIcEEEC1IN4llvm9StringRefEvEERKT_
00000001c912e268 (__TEXT,__text) non-external (was a private external) __ZNSt3__125__throw_bad_function_callB7v160006Ev
00000001c912e278 (__TEXT,__text) non-external (was a private external) __ZNSt3__16vectorINS_12basic_stringIcNS_11char_traitsIcEENS_9allocatorIcEEEENS4_IS6_EEE21__push_back_slow_pathIS6_EEvOT_
00000001c911eecc (__TEXT,__text) non-external (was a private external) __ZNSt3__16vectorIPN5swift8Demangle4NodeENS_9allocatorIS4_EEE9push_backB7v160006ERKS4_
00000001c9135ab8 (__TEXT,__text) non-external (was a private external) __ZNSt3__16vectorIjNS_9allocatorIjEEE6insertENS_11__wrap_iterIPKjEERS5_
00000001c91253d0 (__TEXT,__text) non-external (was a private external) __ZNSt3__1plB7v160006IcNS_11char_traitsIcEENS_9allocatorIcEEEENS_12basic_stringIT_T0_T1_EERKS9_OS9_
00000001c9121b64 (__TEXT,__text) non-external (was a private external) __ZSt28__throw_bad_array_new_lengthB7v160006v
00000001df873738 (__AUTH_CONST,__const) external __ZTVN5swift8Demangle11NodeFactoryE
00000001df873760 (__AUTH_CONST,__const) external __ZTVN5swift8Demangle9DemanglerE
00000001d7d6cec0 (__AUTH,__const_weak) non-external (was a private external) __ZTVNSt3__110__function6__funcIPFNS_12basic_stringIcNS_11char_traitsIcEENS_9allocatorIcEEEEyyENS5_IS9_EES8_EE
00000001c912d53c (__TEXT,__text) non-external __ZZN12_GLOBAL__N_111NodePrinter17printFunctionTypeEPN5swift8Demangle4NodeES4_jENKUlPKcE_clES6_
00000001c912e138 (__TEXT,__text) non-external __ZZN12_GLOBAL__N_111NodePrinter21printImplFunctionTypeEPN5swift8Demangle4NodeEjENKUlZNS0_21printImplFunctionTypeES4_jE5StateE_clES5_
00000001c912d640 (__TEXT,__text) non-external __ZZN12_GLOBAL__N_111NodePrinter23printFunctionParametersEPN5swift8Demangle4NodeES4_jbENKUlS4_E_clES4_
00000001c9159425 (__TEXT,__cstring) non-external __ZZN12_GLOBAL__N_112OldDemangler18demangleIdentifierEjN4llvm8OptionalIN5swift8Demangle4Node4KindEEEE13op_char_table
00000001c91349d8 (__TEXT,__text) non-external __ZZN12_GLOBAL__N_112OldDemangler21demangleArchetypeTypeEjENKUlPN5swift8Demangle4NodeEE_clES4_
00000001c91597f0 (__TEXT,__const) non-external __ZZN12_GLOBAL__N_1lsERN5swift8Demangle16DemanglerPrinterERKNS_12QuotedStringEE8Hexdigit
00000001c9155244 (__TEXT,__cstring) non-external __ZZN5swift8Demangle9Demangler26demangleOperatorIdentifierEvE13op_char_table
                 (undefined) weak external __ZdlPv (from libc++)
                 (undefined) weak external __Znwm (from libc++)
                 (undefined) external ___stderrp (from libSystem)
00000001c91088dc (__TEXT,__text) external __swift_mangleSimpleClass
00000001c9108a20 (__TEXT,__text) external __swift_mangleSimpleProtocol
                 (undefined) external _abort (from libSystem)
                 (undefined) external _fflush (from libSystem)
00000001c910884c (__TEXT,__text) external _fnd_get_demangled_name
                 (undefined) external _fprintf (from libSystem)
                 (undefined) external _fputc (from libSystem)
                 (undefined) external _fputs (from libSystem)
                 (undefined) external _free (from libSystem)
00000001d68a0588 (__DATA,__crash_info) non-external (was a private external) _gCRAnnotations
                 (undefined) external _malloc (from libSystem)
                 (undefined) external _malloc_size (from libSystem)
                 (undefined) external _memchr (from libSystem)
                 (undefined) external _memcmp (from libSystem)
                 (undefined) external _memcpy (from libSystem)
                 (undefined) external _memmove (from libSystem)
                 (undefined) external _snprintf (from libSystem)
                 (undefined) external _strdup (from libSystem)
                 (undefined) external _strlen (from libSystem)
                 (undefined) external _strncpy (from libSystem)
00000001c91082a8 (__TEXT,__text) external _swift_demangle_getDemangledName
00000001c9108734 (__TEXT,__text) external _swift_demangle_getModuleName
00000001c9108594 (__TEXT,__text) external _swift_demangle_getSimplifiedDemangledName
00000001c91087e8 (__TEXT,__text) external _swift_demangle_hasSwiftCallingConvention
                 (undefined) external _vsnprintf (from libSystem)
