00007ff91f635c20 (__TEXT,__text) non-external -[AudioDSPManager .cxx_construct]
00007ff91f635c12 (__TEXT,__text) non-external -[AudioDSPManager .cxx_destruct]
00007ff91f63569c (__TEXT,__text) non-external -[AudioDSPManager createProcessor:withHost:]
00007ff91f635855 (__TEXT,__text) non-external -[AudioDSPManager getFactoryPropertySet]
00007ff91f635b34 (__TEXT,__text) non-external -[AudioDSPManager getHostedDSPPropertyAtAddress:withQualifierData:]
00007ff91f63585e (__TEXT,__text) non-external -[AudioDSPManager getHostedDSPPropertyInfoArray]
00007ff91f635af6 (__TEXT,__text) non-external -[AudioDSPManager hasHostedDSPPropertyAtAddress:]
00007ff91f635438 (__TEXT,__text) non-external -[AudioDSPManager init]
00007ff91f635b07 (__TEXT,__text) non-external -[AudioDSPManager setHostedDSPPropertyAtAddress:withData:error:]
00007ff91f635b2c (__TEXT,__text) non-external -[AudioDSPManager setHostedDSPPropertyAtAddress:withData:withQualifier:error:]
00007ff91f67023f (__TEXT,__text) non-external -[DSPProcessor .cxx_construct]
00007ff91f670153 (__TEXT,__text) non-external -[DSPProcessor .cxx_destruct]
00007ff91f66ef59 (__TEXT,__text) non-external -[DSPProcessor adaptToConfigurationChange:withCallbacks:error:]
00007ff91f66de4d (__TEXT,__text) non-external -[DSPProcessor dealloc]
00007ff91f66df60 (__TEXT,__text) non-external -[DSPProcessor doNegotiateConfigurationChange:simulate:error:]
00007ff91f66ff9e (__TEXT,__text) non-external -[DSPProcessor dumpDiagnosticsWithNSObject:name:]
00007ff91f66fe14 (__TEXT,__text) non-external -[DSPProcessor getHostedDSPPropertyAtAddress:withQualifierData:]
00007ff91f66fab6 (__TEXT,__text) non-external -[DSPProcessor getHostedDSPPropertyInfoArray]
00007ff91f66faad (__TEXT,__text) non-external -[DSPProcessor getProcessorPropertySet]
00007ff91f66fb8d (__TEXT,__text) non-external -[DSPProcessor hasHostedDSPPropertyAtAddress:]
00007ff91f66da3c (__TEXT,__text) non-external -[DSPProcessor initWithHostDescription:hostCallback:systemConfiguration:]
00007ff91f66df39 (__TEXT,__text) non-external -[DSPProcessor negotiateConfigurationChange:error:]
00007ff91f66ff92 (__TEXT,__text) non-external -[DSPProcessor registerExternalNotification:]
00007ff91f66fc06 (__TEXT,__text) non-external -[DSPProcessor setHostedDSPPropertyAtAddress:withData:error:]
00007ff91f66fc2b (__TEXT,__text) non-external -[DSPProcessor setHostedDSPPropertyAtAddress:withData:withQualifier:error:]
00007ff91f66df0f (__TEXT,__text) non-external -[DSPProcessor simulateConfigurationChange:error:]
00007ff91f66ff98 (__TEXT,__text) non-external -[DSPProcessor unregisterExternalNotification]
00007ff91f66ec89 (__TEXT,__text) non-external -[DSPProcessor validateAdaptConfigurationChangeRequest:]
00007ff91f67ec00 (__TEXT,__gcc_except_tab) non-external GCC_except_table1
00007ff91f681f28 (__TEXT,__gcc_except_tab) non-external GCC_except_table1000
00007ff91f681f98 (__TEXT,__gcc_except_tab) non-external GCC_except_table1001
00007ff91f681fc8 (__TEXT,__gcc_except_tab) non-external GCC_except_table1002
00007ff91f681ff8 (__TEXT,__gcc_except_tab) non-external GCC_except_table1003
00007ff91f68202c (__TEXT,__gcc_except_tab) non-external GCC_except_table1004
00007ff91f68209c (__TEXT,__gcc_except_tab) non-external GCC_except_table1007
00007ff91f6820c4 (__TEXT,__gcc_except_tab) non-external GCC_except_table1008
00007ff91f67ef58 (__TEXT,__gcc_except_tab) non-external GCC_except_table101
00007ff91f6820dc (__TEXT,__gcc_except_tab) non-external GCC_except_table1012
00007ff91f6820fc (__TEXT,__gcc_except_tab) non-external GCC_except_table1013
00007ff91f68211c (__TEXT,__gcc_except_tab) non-external GCC_except_table1014
00007ff91f682128 (__TEXT,__gcc_except_tab) non-external GCC_except_table1016
00007ff91f6821a0 (__TEXT,__gcc_except_tab) non-external GCC_except_table1017
00007ff91f67ef6c (__TEXT,__gcc_except_tab) non-external GCC_except_table102
00007ff91f6821b8 (__TEXT,__gcc_except_tab) non-external GCC_except_table1026
00007ff91f68281c (__TEXT,__gcc_except_tab) non-external GCC_except_table1028
00007ff91f682868 (__TEXT,__gcc_except_tab) non-external GCC_except_table1029
00007ff91f682a18 (__TEXT,__gcc_except_tab) non-external GCC_except_table1037
00007ff91f682a2c (__TEXT,__gcc_except_tab) non-external GCC_except_table1048
00007ff91f682a5c (__TEXT,__gcc_except_tab) non-external GCC_except_table1049
00007ff91f682a9c (__TEXT,__gcc_except_tab) non-external GCC_except_table1050
00007ff91f682ab4 (__TEXT,__gcc_except_tab) non-external GCC_except_table1051
00007ff91f682bac (__TEXT,__gcc_except_tab) non-external GCC_except_table1052
00007ff91f682c0c (__TEXT,__gcc_except_tab) non-external GCC_except_table1056
00007ff91f682c28 (__TEXT,__gcc_except_tab) non-external GCC_except_table1057
00007ff91f682c5c (__TEXT,__gcc_except_tab) non-external GCC_except_table1061
00007ff91f682cd4 (__TEXT,__gcc_except_tab) non-external GCC_except_table1062
00007ff91f682cf4 (__TEXT,__gcc_except_tab) non-external GCC_except_table1065
00007ff91f682e64 (__TEXT,__gcc_except_tab) non-external GCC_except_table1067
00007ff91f682fcc (__TEXT,__gcc_except_tab) non-external GCC_except_table1069
00007ff91f683030 (__TEXT,__gcc_except_tab) non-external GCC_except_table1072
00007ff91f6830c0 (__TEXT,__gcc_except_tab) non-external GCC_except_table1073
00007ff91f683144 (__TEXT,__gcc_except_tab) non-external GCC_except_table1076
00007ff91f683178 (__TEXT,__gcc_except_tab) non-external GCC_except_table1078
00007ff91f67ef84 (__TEXT,__gcc_except_tab) non-external GCC_except_table108
00007ff91f683188 (__TEXT,__gcc_except_tab) non-external GCC_except_table1085
00007ff91f6831b8 (__TEXT,__gcc_except_tab) non-external GCC_except_table1086
00007ff91f683228 (__TEXT,__gcc_except_tab) non-external GCC_except_table1094
00007ff91f683254 (__TEXT,__gcc_except_tab) non-external GCC_except_table1095
00007ff91f683280 (__TEXT,__gcc_except_tab) non-external GCC_except_table1096
00007ff91f6832ac (__TEXT,__gcc_except_tab) non-external GCC_except_table1098
00007ff91f67ec1c (__TEXT,__gcc_except_tab) non-external GCC_except_table11
00007ff91f6832c0 (__TEXT,__gcc_except_tab) non-external GCC_except_table1102
00007ff91f67efac (__TEXT,__gcc_except_tab) non-external GCC_except_table111
00007ff91f6832d0 (__TEXT,__gcc_except_tab) non-external GCC_except_table1110
00007ff91f6832e0 (__TEXT,__gcc_except_tab) non-external GCC_except_table1114
00007ff91f683320 (__TEXT,__gcc_except_tab) non-external GCC_except_table1115
00007ff91f68333c (__TEXT,__gcc_except_tab) non-external GCC_except_table1116
00007ff91f67efbc (__TEXT,__gcc_except_tab) non-external GCC_except_table112
00007ff91f67efe0 (__TEXT,__gcc_except_tab) non-external GCC_except_table113
00007ff91f67eff0 (__TEXT,__gcc_except_tab) non-external GCC_except_table115
00007ff91f6833d8 (__TEXT,__gcc_except_tab) non-external GCC_except_table1166
00007ff91f683498 (__TEXT,__gcc_except_tab) non-external GCC_except_table1170
00007ff91f6834b8 (__TEXT,__gcc_except_tab) non-external GCC_except_table1177
00007ff91f683578 (__TEXT,__gcc_except_tab) non-external GCC_except_table1186
00007ff91f67f004 (__TEXT,__gcc_except_tab) non-external GCC_except_table119
00007ff91f683638 (__TEXT,__gcc_except_tab) non-external GCC_except_table1195
00007ff91f6836f8 (__TEXT,__gcc_except_tab) non-external GCC_except_table1204
00007ff91f6837b8 (__TEXT,__gcc_except_tab) non-external GCC_except_table1213
00007ff91f683878 (__TEXT,__gcc_except_tab) non-external GCC_except_table1222
00007ff91f67f014 (__TEXT,__gcc_except_tab) non-external GCC_except_table123
00007ff91f68393c (__TEXT,__gcc_except_tab) non-external GCC_except_table1231
00007ff91f67f0dc (__TEXT,__gcc_except_tab) non-external GCC_except_table124
00007ff91f683a00 (__TEXT,__gcc_except_tab) non-external GCC_except_table1240
00007ff91f683ac4 (__TEXT,__gcc_except_tab) non-external GCC_except_table1249
00007ff91f67f334 (__TEXT,__gcc_except_tab) non-external GCC_except_table125
00007ff91f683b88 (__TEXT,__gcc_except_tab) non-external GCC_except_table1252
00007ff91f683ba0 (__TEXT,__gcc_except_tab) non-external GCC_except_table1255
00007ff91f683bb8 (__TEXT,__gcc_except_tab) non-external GCC_except_table1256
00007ff91f683bc8 (__TEXT,__gcc_except_tab) non-external GCC_except_table1257
00007ff91f683bf0 (__TEXT,__gcc_except_tab) non-external GCC_except_table1258
00007ff91f683c08 (__TEXT,__gcc_except_tab) non-external GCC_except_table1259
00007ff91f67f348 (__TEXT,__gcc_except_tab) non-external GCC_except_table126
00007ff91f683cdc (__TEXT,__gcc_except_tab) non-external GCC_except_table1260
00007ff91f683cf0 (__TEXT,__gcc_except_tab) non-external GCC_except_table1261
00007ff91f683d08 (__TEXT,__gcc_except_tab) non-external GCC_except_table1262
00007ff91f683d14 (__TEXT,__gcc_except_tab) non-external GCC_except_table1266
00007ff91f683d2c (__TEXT,__gcc_except_tab) non-external GCC_except_table1267
00007ff91f67f370 (__TEXT,__gcc_except_tab) non-external GCC_except_table127
00007ff91f683d3c (__TEXT,__gcc_except_tab) non-external GCC_except_table1278
00007ff91f67f388 (__TEXT,__gcc_except_tab) non-external GCC_except_table128
00007ff91f683d7c (__TEXT,__gcc_except_tab) non-external GCC_except_table1280
00007ff91f683d8c (__TEXT,__gcc_except_tab) non-external GCC_except_table1291
00007ff91f683d9c (__TEXT,__gcc_except_tab) non-external GCC_except_table1293
00007ff91f683dc0 (__TEXT,__gcc_except_tab) non-external GCC_except_table1294
00007ff91f683dd0 (__TEXT,__gcc_except_tab) non-external GCC_except_table1296
00007ff91f683de8 (__TEXT,__gcc_except_tab) non-external GCC_except_table1301
00007ff91f683e08 (__TEXT,__gcc_except_tab) non-external GCC_except_table1302
00007ff91f683e18 (__TEXT,__gcc_except_tab) non-external GCC_except_table1303
00007ff91f683e94 (__TEXT,__gcc_except_tab) non-external GCC_except_table1308
00007ff91f683ea4 (__TEXT,__gcc_except_tab) non-external GCC_except_table1315
00007ff91f683eb4 (__TEXT,__gcc_except_tab) non-external GCC_except_table1318
00007ff91f683ec4 (__TEXT,__gcc_except_tab) non-external GCC_except_table1325
00007ff91f684018 (__TEXT,__gcc_except_tab) non-external GCC_except_table1326
00007ff91f68405c (__TEXT,__gcc_except_tab) non-external GCC_except_table1327
00007ff91f684070 (__TEXT,__gcc_except_tab) non-external GCC_except_table1329
00007ff91f684098 (__TEXT,__gcc_except_tab) non-external GCC_except_table1330
00007ff91f6840a8 (__TEXT,__gcc_except_tab) non-external GCC_except_table1331
00007ff91f6840e0 (__TEXT,__gcc_except_tab) non-external GCC_except_table1332
00007ff91f684110 (__TEXT,__gcc_except_tab) non-external GCC_except_table1333
00007ff91f67f398 (__TEXT,__gcc_except_tab) non-external GCC_except_table139
00007ff91f67ec34 (__TEXT,__gcc_except_tab) non-external GCC_except_table14
00007ff91f67f3a8 (__TEXT,__gcc_except_tab) non-external GCC_except_table140
00007ff91f67f3b8 (__TEXT,__gcc_except_tab) non-external GCC_except_table143
00007ff91f67f3c8 (__TEXT,__gcc_except_tab) non-external GCC_except_table145
00007ff91f67f3e0 (__TEXT,__gcc_except_tab) non-external GCC_except_table146
00007ff91f67ec44 (__TEXT,__gcc_except_tab) non-external GCC_except_table15
00007ff91f67f3f0 (__TEXT,__gcc_except_tab) non-external GCC_except_table153
00007ff91f67f428 (__TEXT,__gcc_except_tab) non-external GCC_except_table156
00007ff91f67f448 (__TEXT,__gcc_except_tab) non-external GCC_except_table157
00007ff91f67f458 (__TEXT,__gcc_except_tab) non-external GCC_except_table158
00007ff91f67f488 (__TEXT,__gcc_except_tab) non-external GCC_except_table163
00007ff91f67f4c8 (__TEXT,__gcc_except_tab) non-external GCC_except_table175
00007ff91f67f4dc (__TEXT,__gcc_except_tab) non-external GCC_except_table176
00007ff91f67f52c (__TEXT,__gcc_except_tab) non-external GCC_except_table186
00007ff91f67f564 (__TEXT,__gcc_except_tab) non-external GCC_except_table187
00007ff91f67f580 (__TEXT,__gcc_except_tab) non-external GCC_except_table192
00007ff91f67f590 (__TEXT,__gcc_except_tab) non-external GCC_except_table193
00007ff91f67f5c4 (__TEXT,__gcc_except_tab) non-external GCC_except_table199
00007ff91f67f61c (__TEXT,__gcc_except_tab) non-external GCC_except_table204
00007ff91f67f63c (__TEXT,__gcc_except_tab) non-external GCC_except_table209
00007ff91f67f65c (__TEXT,__gcc_except_tab) non-external GCC_except_table226
00007ff91f67f73c (__TEXT,__gcc_except_tab) non-external GCC_except_table227
00007ff91f67f808 (__TEXT,__gcc_except_tab) non-external GCC_except_table228
00007ff91f67f834 (__TEXT,__gcc_except_tab) non-external GCC_except_table229
00007ff91f67f8a0 (__TEXT,__gcc_except_tab) non-external GCC_except_table231
00007ff91f67f8e4 (__TEXT,__gcc_except_tab) non-external GCC_except_table235
00007ff91f67f908 (__TEXT,__gcc_except_tab) non-external GCC_except_table237
00007ff91f67f918 (__TEXT,__gcc_except_tab) non-external GCC_except_table238
00007ff91f67f924 (__TEXT,__gcc_except_tab) non-external GCC_except_table239
00007ff91f67f938 (__TEXT,__gcc_except_tab) non-external GCC_except_table241
00007ff91f67f9c8 (__TEXT,__gcc_except_tab) non-external GCC_except_table242
00007ff91f67f9e0 (__TEXT,__gcc_except_tab) non-external GCC_except_table247
00007ff91f67fa00 (__TEXT,__gcc_except_tab) non-external GCC_except_table251
00007ff91f67fa24 (__TEXT,__gcc_except_tab) non-external GCC_except_table257
00007ff91f67fa34 (__TEXT,__gcc_except_tab) non-external GCC_except_table260
00007ff91f67fa4c (__TEXT,__gcc_except_tab) non-external GCC_except_table261
00007ff91f67fd18 (__TEXT,__gcc_except_tab) non-external GCC_except_table263
00007ff91f67ec68 (__TEXT,__gcc_except_tab) non-external GCC_except_table27
00007ff91f67fd28 (__TEXT,__gcc_except_tab) non-external GCC_except_table270
00007ff91f67fd3c (__TEXT,__gcc_except_tab) non-external GCC_except_table271
00007ff91f67fd4c (__TEXT,__gcc_except_tab) non-external GCC_except_table276
00007ff91f67ec0c (__TEXT,__gcc_except_tab) non-external GCC_except_table3
00007ff91f67fd60 (__TEXT,__gcc_except_tab) non-external GCC_except_table304
00007ff91f67fd70 (__TEXT,__gcc_except_tab) non-external GCC_except_table305
00007ff91f67fd80 (__TEXT,__gcc_except_tab) non-external GCC_except_table306
00007ff91f67fd90 (__TEXT,__gcc_except_tab) non-external GCC_except_table307
00007ff91f67fda0 (__TEXT,__gcc_except_tab) non-external GCC_except_table319
00007ff91f67ff28 (__TEXT,__gcc_except_tab) non-external GCC_except_table321
00007ff91f67ff88 (__TEXT,__gcc_except_tab) non-external GCC_except_table323
00007ff91f67ff98 (__TEXT,__gcc_except_tab) non-external GCC_except_table325
00007ff91f67ffc4 (__TEXT,__gcc_except_tab) non-external GCC_except_table326
00007ff91f67fff0 (__TEXT,__gcc_except_tab) non-external GCC_except_table327
00007ff91f680000 (__TEXT,__gcc_except_tab) non-external GCC_except_table332
00007ff91f680034 (__TEXT,__gcc_except_tab) non-external GCC_except_table333
00007ff91f680084 (__TEXT,__gcc_except_tab) non-external GCC_except_table334
00007ff91f6800ac (__TEXT,__gcc_except_tab) non-external GCC_except_table335
00007ff91f6800c8 (__TEXT,__gcc_except_tab) non-external GCC_except_table336
00007ff91f67eca0 (__TEXT,__gcc_except_tab) non-external GCC_except_table34
00007ff91f6800dc (__TEXT,__gcc_except_tab) non-external GCC_except_table352
00007ff91f680104 (__TEXT,__gcc_except_tab) non-external GCC_except_table356
00007ff91f67ecb0 (__TEXT,__gcc_except_tab) non-external GCC_except_table36
00007ff91f680118 (__TEXT,__gcc_except_tab) non-external GCC_except_table373
00007ff91f67ecc0 (__TEXT,__gcc_except_tab) non-external GCC_except_table38
00007ff91f680124 (__TEXT,__gcc_except_tab) non-external GCC_except_table384
00007ff91f67ecd0 (__TEXT,__gcc_except_tab) non-external GCC_except_table39
00007ff91f67ece0 (__TEXT,__gcc_except_tab) non-external GCC_except_table41
00007ff91f67ed14 (__TEXT,__gcc_except_tab) non-external GCC_except_table42
00007ff91f680138 (__TEXT,__gcc_except_tab) non-external GCC_except_table426
00007ff91f680148 (__TEXT,__gcc_except_tab) non-external GCC_except_table433
00007ff91f680158 (__TEXT,__gcc_except_tab) non-external GCC_except_table435
00007ff91f680168 (__TEXT,__gcc_except_tab) non-external GCC_except_table436
00007ff91f680178 (__TEXT,__gcc_except_tab) non-external GCC_except_table444
00007ff91f680190 (__TEXT,__gcc_except_tab) non-external GCC_except_table445
00007ff91f6801a0 (__TEXT,__gcc_except_tab) non-external GCC_except_table446
00007ff91f6801bc (__TEXT,__gcc_except_tab) non-external GCC_except_table449
00007ff91f6801d4 (__TEXT,__gcc_except_tab) non-external GCC_except_table450
00007ff91f6801e4 (__TEXT,__gcc_except_tab) non-external GCC_except_table454
00007ff91f6801fc (__TEXT,__gcc_except_tab) non-external GCC_except_table455
00007ff91f68020c (__TEXT,__gcc_except_tab) non-external GCC_except_table460
00007ff91f68021c (__TEXT,__gcc_except_tab) non-external GCC_except_table462
00007ff91f68022c (__TEXT,__gcc_except_tab) non-external GCC_except_table464
00007ff91f68023c (__TEXT,__gcc_except_tab) non-external GCC_except_table467
00007ff91f68024c (__TEXT,__gcc_except_tab) non-external GCC_except_table469
00007ff91f67ed24 (__TEXT,__gcc_except_tab) non-external GCC_except_table47
00007ff91f680260 (__TEXT,__gcc_except_tab) non-external GCC_except_table473
00007ff91f680278 (__TEXT,__gcc_except_tab) non-external GCC_except_table474
00007ff91f680288 (__TEXT,__gcc_except_tab) non-external GCC_except_table478
00007ff91f6802a0 (__TEXT,__gcc_except_tab) non-external GCC_except_table479
00007ff91f6802b0 (__TEXT,__gcc_except_tab) non-external GCC_except_table482
00007ff91f6802c8 (__TEXT,__gcc_except_tab) non-external GCC_except_table483
00007ff91f6802d8 (__TEXT,__gcc_except_tab) non-external GCC_except_table487
00007ff91f6802f4 (__TEXT,__gcc_except_tab) non-external GCC_except_table488
00007ff91f680304 (__TEXT,__gcc_except_tab) non-external GCC_except_table489
00007ff91f6804d8 (__TEXT,__gcc_except_tab) non-external GCC_except_table517
00007ff91f6804f4 (__TEXT,__gcc_except_tab) non-external GCC_except_table518
00007ff91f680508 (__TEXT,__gcc_except_tab) non-external GCC_except_table522
00007ff91f680518 (__TEXT,__gcc_except_tab) non-external GCC_except_table523
00007ff91f67ed3c (__TEXT,__gcc_except_tab) non-external GCC_except_table53
00007ff91f67ed4c (__TEXT,__gcc_except_tab) non-external GCC_except_table54
00007ff91f67ed74 (__TEXT,__gcc_except_tab) non-external GCC_except_table55
00007ff91f67eda0 (__TEXT,__gcc_except_tab) non-external GCC_except_table56
00007ff91f680528 (__TEXT,__gcc_except_tab) non-external GCC_except_table566
00007ff91f680534 (__TEXT,__gcc_except_tab) non-external GCC_except_table567
00007ff91f680548 (__TEXT,__gcc_except_tab) non-external GCC_except_table570
00007ff91f680558 (__TEXT,__gcc_except_tab) non-external GCC_except_table577
00007ff91f680568 (__TEXT,__gcc_except_tab) non-external GCC_except_table587
00007ff91f680578 (__TEXT,__gcc_except_tab) non-external GCC_except_table588
00007ff91f6805c0 (__TEXT,__gcc_except_tab) non-external GCC_except_table589
00007ff91f67edbc (__TEXT,__gcc_except_tab) non-external GCC_except_table59
00007ff91f6805d4 (__TEXT,__gcc_except_tab) non-external GCC_except_table590
00007ff91f680608 (__TEXT,__gcc_except_tab) non-external GCC_except_table591
00007ff91f68063c (__TEXT,__gcc_except_tab) non-external GCC_except_table592
00007ff91f68066c (__TEXT,__gcc_except_tab) non-external GCC_except_table593
00007ff91f6806a0 (__TEXT,__gcc_except_tab) non-external GCC_except_table594
00007ff91f6806b8 (__TEXT,__gcc_except_tab) non-external GCC_except_table596
00007ff91f6806e8 (__TEXT,__gcc_except_tab) non-external GCC_except_table597
00007ff91f680718 (__TEXT,__gcc_except_tab) non-external GCC_except_table598
00007ff91f680730 (__TEXT,__gcc_except_tab) non-external GCC_except_table600
00007ff91f680768 (__TEXT,__gcc_except_tab) non-external GCC_except_table601
00007ff91f680798 (__TEXT,__gcc_except_tab) non-external GCC_except_table602
00007ff91f6807c8 (__TEXT,__gcc_except_tab) non-external GCC_except_table603
00007ff91f680808 (__TEXT,__gcc_except_tab) non-external GCC_except_table604
00007ff91f680840 (__TEXT,__gcc_except_tab) non-external GCC_except_table605
00007ff91f680870 (__TEXT,__gcc_except_tab) non-external GCC_except_table611
00007ff91f67ee10 (__TEXT,__gcc_except_tab) non-external GCC_except_table62
00007ff91f68089c (__TEXT,__gcc_except_tab) non-external GCC_except_table620
00007ff91f6808bc (__TEXT,__gcc_except_tab) non-external GCC_except_table621
00007ff91f68091c (__TEXT,__gcc_except_tab) non-external GCC_except_table622
00007ff91f680974 (__TEXT,__gcc_except_tab) non-external GCC_except_table632
00007ff91f68098c (__TEXT,__gcc_except_tab) non-external GCC_except_table633
00007ff91f67ee20 (__TEXT,__gcc_except_tab) non-external GCC_except_table64
00007ff91f68099c (__TEXT,__gcc_except_tab) non-external GCC_except_table653
00007ff91f6809b4 (__TEXT,__gcc_except_tab) non-external GCC_except_table654
00007ff91f6809c4 (__TEXT,__gcc_except_tab) non-external GCC_except_table667
00007ff91f680a78 (__TEXT,__gcc_except_tab) non-external GCC_except_table668
00007ff91f680aa0 (__TEXT,__gcc_except_tab) non-external GCC_except_table671
00007ff91f680ab0 (__TEXT,__gcc_except_tab) non-external GCC_except_table672
00007ff91f680ac0 (__TEXT,__gcc_except_tab) non-external GCC_except_table673
00007ff91f680b00 (__TEXT,__gcc_except_tab) non-external GCC_except_table674
00007ff91f680b74 (__TEXT,__gcc_except_tab) non-external GCC_except_table676
00007ff91f680b84 (__TEXT,__gcc_except_tab) non-external GCC_except_table677
00007ff91f680b94 (__TEXT,__gcc_except_tab) non-external GCC_except_table678
00007ff91f680ba4 (__TEXT,__gcc_except_tab) non-external GCC_except_table679
00007ff91f680bb4 (__TEXT,__gcc_except_tab) non-external GCC_except_table681
00007ff91f680bc4 (__TEXT,__gcc_except_tab) non-external GCC_except_table682
00007ff91f680bd4 (__TEXT,__gcc_except_tab) non-external GCC_except_table683
00007ff91f680be4 (__TEXT,__gcc_except_tab) non-external GCC_except_table685
00007ff91f680bf8 (__TEXT,__gcc_except_tab) non-external GCC_except_table686
00007ff91f680c10 (__TEXT,__gcc_except_tab) non-external GCC_except_table689
00007ff91f680c38 (__TEXT,__gcc_except_tab) non-external GCC_except_table690
00007ff91f680d28 (__TEXT,__gcc_except_tab) non-external GCC_except_table691
00007ff91f680d58 (__TEXT,__gcc_except_tab) non-external GCC_except_table692
00007ff91f680d78 (__TEXT,__gcc_except_tab) non-external GCC_except_table693
00007ff91f680d84 (__TEXT,__gcc_except_tab) non-external GCC_except_table694
00007ff91f680dc0 (__TEXT,__gcc_except_tab) non-external GCC_except_table695
00007ff91f680dd0 (__TEXT,__gcc_except_tab) non-external GCC_except_table697
00007ff91f680de4 (__TEXT,__gcc_except_tab) non-external GCC_except_table698
00007ff91f680df0 (__TEXT,__gcc_except_tab) non-external GCC_except_table699
00007ff91f680dfc (__TEXT,__gcc_except_tab) non-external GCC_except_table700
00007ff91f681038 (__TEXT,__gcc_except_tab) non-external GCC_except_table701
00007ff91f681044 (__TEXT,__gcc_except_tab) non-external GCC_except_table702
00007ff91f681054 (__TEXT,__gcc_except_tab) non-external GCC_except_table704
00007ff91f681064 (__TEXT,__gcc_except_tab) non-external GCC_except_table705
00007ff91f681074 (__TEXT,__gcc_except_tab) non-external GCC_except_table706
00007ff91f681084 (__TEXT,__gcc_except_tab) non-external GCC_except_table707
00007ff91f6810a0 (__TEXT,__gcc_except_tab) non-external GCC_except_table708
00007ff91f6810bc (__TEXT,__gcc_except_tab) non-external GCC_except_table709
00007ff91f6810e0 (__TEXT,__gcc_except_tab) non-external GCC_except_table713
00007ff91f681108 (__TEXT,__gcc_except_tab) non-external GCC_except_table714
00007ff91f681148 (__TEXT,__gcc_except_tab) non-external GCC_except_table716
00007ff91f681160 (__TEXT,__gcc_except_tab) non-external GCC_except_table722
00007ff91f681190 (__TEXT,__gcc_except_tab) non-external GCC_except_table727
00007ff91f6811ac (__TEXT,__gcc_except_tab) non-external GCC_except_table728
00007ff91f6811f8 (__TEXT,__gcc_except_tab) non-external GCC_except_table729
00007ff91f681224 (__TEXT,__gcc_except_tab) non-external GCC_except_table730
00007ff91f681234 (__TEXT,__gcc_except_tab) non-external GCC_except_table731
00007ff91f68124c (__TEXT,__gcc_except_tab) non-external GCC_except_table747
00007ff91f68128c (__TEXT,__gcc_except_tab) non-external GCC_except_table752
00007ff91f6812e8 (__TEXT,__gcc_except_tab) non-external GCC_except_table754
00007ff91f681344 (__TEXT,__gcc_except_tab) non-external GCC_except_table756
00007ff91f6813a0 (__TEXT,__gcc_except_tab) non-external GCC_except_table758
00007ff91f67ee30 (__TEXT,__gcc_except_tab) non-external GCC_except_table76
00007ff91f6813fc (__TEXT,__gcc_except_tab) non-external GCC_except_table760
00007ff91f681458 (__TEXT,__gcc_except_tab) non-external GCC_except_table762
00007ff91f6814b4 (__TEXT,__gcc_except_tab) non-external GCC_except_table764
00007ff91f681510 (__TEXT,__gcc_except_tab) non-external GCC_except_table766
00007ff91f68156c (__TEXT,__gcc_except_tab) non-external GCC_except_table768
00007ff91f67ee58 (__TEXT,__gcc_except_tab) non-external GCC_except_table77
00007ff91f6815c8 (__TEXT,__gcc_except_tab) non-external GCC_except_table770
00007ff91f681624 (__TEXT,__gcc_except_tab) non-external GCC_except_table771
00007ff91f681634 (__TEXT,__gcc_except_tab) non-external GCC_except_table772
00007ff91f681644 (__TEXT,__gcc_except_tab) non-external GCC_except_table775
00007ff91f68167c (__TEXT,__gcc_except_tab) non-external GCC_except_table776
00007ff91f6816b4 (__TEXT,__gcc_except_tab) non-external GCC_except_table787
00007ff91f6816c4 (__TEXT,__gcc_except_tab) non-external GCC_except_table791
00007ff91f6816d4 (__TEXT,__gcc_except_tab) non-external GCC_except_table796
00007ff91f6816f0 (__TEXT,__gcc_except_tab) non-external GCC_except_table797
00007ff91f68174c (__TEXT,__gcc_except_tab) non-external GCC_except_table798
00007ff91f67ee9c (__TEXT,__gcc_except_tab) non-external GCC_except_table80
00007ff91f6817a8 (__TEXT,__gcc_except_tab) non-external GCC_except_table803
00007ff91f6817e8 (__TEXT,__gcc_except_tab) non-external GCC_except_table807
00007ff91f6817f8 (__TEXT,__gcc_except_tab) non-external GCC_except_table808
00007ff91f681808 (__TEXT,__gcc_except_tab) non-external GCC_except_table809
00007ff91f681848 (__TEXT,__gcc_except_tab) non-external GCC_except_table810
00007ff91f68187c (__TEXT,__gcc_except_tab) non-external GCC_except_table820
00007ff91f68188c (__TEXT,__gcc_except_tab) non-external GCC_except_table824
00007ff91f68189c (__TEXT,__gcc_except_tab) non-external GCC_except_table830
00007ff91f6818ac (__TEXT,__gcc_except_tab) non-external GCC_except_table834
00007ff91f6818bc (__TEXT,__gcc_except_tab) non-external GCC_except_table842
00007ff91f6818cc (__TEXT,__gcc_except_tab) non-external GCC_except_table846
00007ff91f6818dc (__TEXT,__gcc_except_tab) non-external GCC_except_table850
00007ff91f6818ec (__TEXT,__gcc_except_tab) non-external GCC_except_table858
00007ff91f6818fc (__TEXT,__gcc_except_tab) non-external GCC_except_table862
00007ff91f68190c (__TEXT,__gcc_except_tab) non-external GCC_except_table866
00007ff91f68191c (__TEXT,__gcc_except_tab) non-external GCC_except_table871
00007ff91f68192c (__TEXT,__gcc_except_tab) non-external GCC_except_table877
00007ff91f681938 (__TEXT,__gcc_except_tab) non-external GCC_except_table878
00007ff91f681948 (__TEXT,__gcc_except_tab) non-external GCC_except_table895
00007ff91f681968 (__TEXT,__gcc_except_tab) non-external GCC_except_table897
00007ff91f681978 (__TEXT,__gcc_except_tab) non-external GCC_except_table898
00007ff91f68199c (__TEXT,__gcc_except_tab) non-external GCC_except_table899
00007ff91f6819d4 (__TEXT,__gcc_except_tab) non-external GCC_except_table902
00007ff91f6819e4 (__TEXT,__gcc_except_tab) non-external GCC_except_table903
00007ff91f6819f4 (__TEXT,__gcc_except_tab) non-external GCC_except_table907
00007ff91f681a04 (__TEXT,__gcc_except_tab) non-external GCC_except_table908
00007ff91f681a18 (__TEXT,__gcc_except_tab) non-external GCC_except_table909
00007ff91f681a2c (__TEXT,__gcc_except_tab) non-external GCC_except_table910
00007ff91f67eeac (__TEXT,__gcc_except_tab) non-external GCC_except_table92
00007ff91f681a3c (__TEXT,__gcc_except_tab) non-external GCC_except_table926
00007ff91f67eec0 (__TEXT,__gcc_except_tab) non-external GCC_except_table93
00007ff91f681a4c (__TEXT,__gcc_except_tab) non-external GCC_except_table934
00007ff91f681a5c (__TEXT,__gcc_except_tab) non-external GCC_except_table938
00007ff91f681a6c (__TEXT,__gcc_except_tab) non-external GCC_except_table939
00007ff91f67eed4 (__TEXT,__gcc_except_tab) non-external GCC_except_table94
00007ff91f681b30 (__TEXT,__gcc_except_tab) non-external GCC_except_table940
00007ff91f681b48 (__TEXT,__gcc_except_tab) non-external GCC_except_table945
00007ff91f681b64 (__TEXT,__gcc_except_tab) non-external GCC_except_table947
00007ff91f681c04 (__TEXT,__gcc_except_tab) non-external GCC_except_table962
00007ff91f681c2c (__TEXT,__gcc_except_tab) non-external GCC_except_table967
00007ff91f681c54 (__TEXT,__gcc_except_tab) non-external GCC_except_table968
00007ff91f681c7c (__TEXT,__gcc_except_tab) non-external GCC_except_table969
00007ff91f681ca4 (__TEXT,__gcc_except_tab) non-external GCC_except_table970
00007ff91f67eee4 (__TEXT,__gcc_except_tab) non-external GCC_except_table98
00007ff91f681ccc (__TEXT,__gcc_except_tab) non-external GCC_except_table980
00007ff91f681cf4 (__TEXT,__gcc_except_tab) non-external GCC_except_table981
00007ff91f681d1c (__TEXT,__gcc_except_tab) non-external GCC_except_table985
00007ff91f681d44 (__TEXT,__gcc_except_tab) non-external GCC_except_table987
00007ff91f681d6c (__TEXT,__gcc_except_tab) non-external GCC_except_table988
00007ff91f681d7c (__TEXT,__gcc_except_tab) non-external GCC_except_table989
00007ff91f681d94 (__TEXT,__gcc_except_tab) non-external GCC_except_table994
00007ff91f681ea8 (__TEXT,__gcc_except_tab) non-external GCC_except_table995
00007ff91f681ec0 (__TEXT,__gcc_except_tab) non-external GCC_except_table997
00007ff91f681ed8 (__TEXT,__gcc_except_tab) non-external GCC_except_table998
                 (undefined) external _AudioConverterConvertComplexBuffer (from AudioToolboxCore)
                 (undefined) external _AudioConverterDispose (from AudioToolboxCore)
                 (undefined) external _AudioConverterNew (from AudioToolboxCore)
00007ff91f684240 (__TEXT,__const) non-external (was a private external) _AudioDSPManagerVersionNumber
00007ff91f684200 (__TEXT,__const) non-external (was a private external) _AudioDSPManagerVersionString
                 (undefined) external _CFArrayCreate (from CoreFoundation)
                 (undefined) external _CFArrayGetCount (from CoreFoundation)
                 (undefined) external _CFArrayGetTypeID (from CoreFoundation)
                 (undefined) external _CFArrayGetValueAtIndex (from CoreFoundation)
                 (undefined) external _CFBooleanGetTypeID (from CoreFoundation)
                 (undefined) external _CFBooleanGetValue (from CoreFoundation)
                 (undefined) external _CFDataCreate (from CoreFoundation)
                 (undefined) external _CFDataGetBytePtr (from CoreFoundation)
                 (undefined) external _CFDataGetLength (from CoreFoundation)
                 (undefined) external _CFDataGetTypeID (from CoreFoundation)
                 (undefined) external _CFDictionaryContainsKey (from CoreFoundation)
                 (undefined) external _CFDictionaryCreate (from CoreFoundation)
                 (undefined) external _CFDictionaryGetCount (from CoreFoundation)
                 (undefined) external _CFDictionaryGetKeysAndValues (from CoreFoundation)
                 (undefined) external _CFDictionaryGetTypeID (from CoreFoundation)
                 (undefined) external _CFDictionaryGetValue (from CoreFoundation)
                 (undefined) external _CFGetTypeID (from CoreFoundation)
                 (undefined) external _CFNumberCreate (from CoreFoundation)
                 (undefined) external _CFNumberGetType (from CoreFoundation)
                 (undefined) external _CFNumberGetTypeID (from CoreFoundation)
                 (undefined) external _CFNumberGetValue (from CoreFoundation)
                 (undefined) external _CFPropertyListCreateWithData (from CoreFoundation)
                 (undefined) external _CFRelease (from CoreFoundation)
                 (undefined) external _CFRetain (from CoreFoundation)
                 (undefined) external _CFStringCreateFromExternalRepresentation (from CoreFoundation)
                 (undefined) external _CFStringCreateWithBytes (from CoreFoundation)
                 (undefined) external _CFStringGetBytes (from CoreFoundation)
                 (undefined) external _CFStringGetCStringPtr (from CoreFoundation)
                 (undefined) external _CFStringGetLength (from CoreFoundation)
                 (undefined) external _CFStringGetTypeID (from CoreFoundation)
00007ff91f63738f (__TEXT,__text) external _CreateAudioDSPManager
                 (undefined) external _ExtendedAudioBufferList_CreateWithFormat (from AudioToolboxCore)
                 (undefined) external _ExtendedAudioBufferList_Destroy (from AudioToolboxCore)
                 (undefined) external _ExtendedAudioBufferList_Prepare (from AudioToolboxCore)
                 (undefined) external _IOIteratorNext (from IOKit)
                 (undefined) external _IOMainPort (from IOKit)
                 (undefined) external _IOObjectRelease (from IOKit)
                 (undefined) external _IORegistryEntrySearchCFProperty (from IOKit)
                 (undefined) external _IOServiceGetMatchingServices (from IOKit)
                 (undefined) external _IOServiceMatching (from IOKit)
                 (undefined) external _MGGetSInt32Answer (from libMobileGestalt)
                 (undefined) external _MGIsQuestionValid (from libMobileGestalt)
                 (undefined) external _NSLocalizedDescriptionKey (from Foundation)
00007ff944475910 (__DATA,__objc_data) non-external _OBJC_CLASS_$_AudioDSPManager
00007ff944475960 (__DATA,__objc_data) non-external _OBJC_CLASS_$_DSPProcessor
                 (undefined) external _OBJC_CLASS_$_NSArray (from CoreFoundation)
                 (undefined) external _OBJC_CLASS_$_NSDate (from CoreFoundation)
                 (undefined) external _OBJC_CLASS_$_NSDateFormatter (from Foundation)
                 (undefined) external _OBJC_CLASS_$_NSDictionary (from CoreFoundation)
                 (undefined) external _OBJC_CLASS_$_NSError (from Foundation)
                 (undefined) external _OBJC_CLASS_$_NSFileManager (from Foundation)
                 (undefined) external _OBJC_CLASS_$_NSJSONSerialization (from Foundation)
                 (undefined) external _OBJC_CLASS_$_NSMutableArray (from CoreFoundation)
                 (undefined) external _OBJC_CLASS_$_NSMutableDictionary (from CoreFoundation)
                 (undefined) external _OBJC_CLASS_$_NSNumber (from Foundation)
                 (undefined) external _OBJC_CLASS_$_NSObject (from libobjc)
                 (undefined) external _OBJC_CLASS_$_NSPropertyListSerialization (from Foundation)
                 (undefined) external _OBJC_CLASS_$_NSString (from Foundation)
                 (undefined) external _OBJC_CLASS_$_NSUserDefaults (from CoreFoundation)
                 (undefined) external _OBJC_EHTYPE_$_NSException (from CoreFoundation)
00007ff9444758b0 (__DATA,__objc_ivar) non-external _OBJC_IVAR_$_AudioDSPManager._config
00007ff944475900 (__DATA,__objc_ivar) non-external _OBJC_IVAR_$_DSPProcessor._activeChangeRequest
00007ff9444758f0 (__DATA,__objc_ivar) non-external _OBJC_IVAR_$_DSPProcessor._activeDeviceConfigChanges
00007ff9444758e0 (__DATA,__objc_ivar) non-external _OBJC_IVAR_$_DSPProcessor._customPropertyManager
00007ff9444758d0 (__DATA,__objc_ivar) non-external _OBJC_IVAR_$_DSPProcessor._graphBuilder
00007ff944475908 (__DATA,__objc_ivar) non-external _OBJC_IVAR_$_DSPProcessor._hasRegisteredUIOrientation
00007ff9444758c0 (__DATA,__objc_ivar) non-external _OBJC_IVAR_$_DSPProcessor._hostCallback
00007ff9444758b8 (__DATA,__objc_ivar) non-external _OBJC_IVAR_$_DSPProcessor._hostDescription
00007ff9444758d8 (__DATA,__objc_ivar) non-external _OBJC_IVAR_$_DSPProcessor._nodeManager
00007ff9444758f8 (__DATA,__objc_ivar) non-external _OBJC_IVAR_$_DSPProcessor._pendingChangeRequest
00007ff9444758e8 (__DATA,__objc_ivar) non-external _OBJC_IVAR_$_DSPProcessor._pendingDeviceConfigChanges
00007ff9444758c8 (__DATA,__objc_ivar) non-external _OBJC_IVAR_$_DSPProcessor._systemConfiguration
00007ff944475938 (__DATA,__objc_data) non-external _OBJC_METACLASS_$_AudioDSPManager
00007ff944475988 (__DATA,__objc_data) non-external _OBJC_METACLASS_$_DSPProcessor
                 (undefined) external _OBJC_METACLASS_$_NSObject (from libobjc)
                 (undefined) external __Block_object_assign (from libSystem)
                 (undefined) external __Block_object_dispose (from libSystem)
00007ff91f67e249 (__TEXT,__text) non-external __GLOBAL__sub_I_CustomPropertyManager.cpp
00007ff91f67db3a (__TEXT,__text) non-external __GLOBAL__sub_I_DSPGraphKernel.mm
00007ff91f67e237 (__TEXT,__text) non-external __GLOBAL__sub_I_DSPProcessor.mm
                 (undefined) external __NSConcreteGlobalBlock (from libSystem)
                 (undefined) external __NSConcreteStackBlock (from libSystem)
00007ff91f67eaa0 (__TEXT,__objc_methlist) non-external __OBJC_$_INSTANCE_METHODS_AudioDSPManager
00007ff91f67eb20 (__TEXT,__objc_methlist) non-external __OBJC_$_INSTANCE_METHODS_DSPProcessor
00007ff943343f28 (__DATA_CONST,__objc_const) non-external __OBJC_$_INSTANCE_VARIABLES_AudioDSPManager
00007ff9433440e8 (__DATA_CONST,__objc_const) non-external __OBJC_$_INSTANCE_VARIABLES_DSPProcessor
00007ff943343f50 (__DATA_CONST,__objc_const) non-external __OBJC_$_PROP_LIST_AudioDSPManager
00007ff943344250 (__DATA_CONST,__objc_const) non-external __OBJC_$_PROP_LIST_DSPProcessor
00007ff943343cd8 (__DATA_CONST,__objc_const) non-external __OBJC_$_PROP_LIST_NSObject
00007ff943343dd8 (__DATA_CONST,__objc_const) non-external __OBJC_$_PROTOCOL_INSTANCE_METHODS_HAL_DSP_Factory
00007ff943343ff8 (__DATA_CONST,__objc_const) non-external __OBJC_$_PROTOCOL_INSTANCE_METHODS_HAL_DSP_IOProcessor
00007ff943343e38 (__DATA_CONST,__objc_const) non-external __OBJC_$_PROTOCOL_INSTANCE_METHODS_HAL_DSP_PropertySet
00007ff943343ae8 (__DATA_CONST,__objc_const) non-external __OBJC_$_PROTOCOL_INSTANCE_METHODS_NSObject
00007ff943343cb8 (__DATA_CONST,__objc_const) non-external __OBJC_$_PROTOCOL_INSTANCE_METHODS_OPT_NSObject
00007ff943343e10 (__DATA_CONST,__objc_const) non-external __OBJC_$_PROTOCOL_METHOD_TYPES_HAL_DSP_Factory
00007ff943344060 (__DATA_CONST,__objc_const) non-external __OBJC_$_PROTOCOL_METHOD_TYPES_HAL_DSP_IOProcessor
00007ff943343ea0 (__DATA_CONST,__objc_const) non-external __OBJC_$_PROTOCOL_METHOD_TYPES_HAL_DSP_PropertySet
00007ff943343d20 (__DATA_CONST,__objc_const) non-external __OBJC_$_PROTOCOL_METHOD_TYPES_NSObject
00007ff943343dc0 (__DATA_CONST,__objc_const) non-external __OBJC_$_PROTOCOL_REFS_HAL_DSP_Factory
00007ff943343fe0 (__DATA_CONST,__objc_const) non-external __OBJC_$_PROTOCOL_REFS_HAL_DSP_IOProcessor
00007ff943343e20 (__DATA_CONST,__objc_const) non-external __OBJC_$_PROTOCOL_REFS_HAL_DSP_PropertySet
00007ff943343ec0 (__DATA_CONST,__objc_const) non-external __OBJC_CLASS_PROTOCOLS_$_AudioDSPManager
00007ff943344080 (__DATA_CONST,__objc_const) non-external __OBJC_CLASS_PROTOCOLS_$_DSPProcessor
00007ff943343f98 (__DATA_CONST,__objc_const) non-external __OBJC_CLASS_RO_$_AudioDSPManager
00007ff943344298 (__DATA_CONST,__objc_const) non-external __OBJC_CLASS_RO_$_DSPProcessor
00007ff943343ac0 (__DATA_CONST,__objc_protolist) non-external (was a private external) __OBJC_LABEL_PROTOCOL_$_HAL_DSP_Factory
00007ff943343ad0 (__DATA_CONST,__objc_protolist) non-external (was a private external) __OBJC_LABEL_PROTOCOL_$_HAL_DSP_IOProcessor
00007ff943343ad8 (__DATA_CONST,__objc_protolist) non-external (was a private external) __OBJC_LABEL_PROTOCOL_$_HAL_DSP_PropertySet
00007ff943343ac8 (__DATA_CONST,__objc_protolist) non-external (was a private external) __OBJC_LABEL_PROTOCOL_$_NSObject
00007ff943343ee0 (__DATA_CONST,__objc_const) non-external __OBJC_METACLASS_RO_$_AudioDSPManager
00007ff9433440a0 (__DATA_CONST,__objc_const) non-external __OBJC_METACLASS_RO_$_DSPProcessor
00007ff9444759b0 (__DATA,__data) non-external (was a private external) __OBJC_PROTOCOL_$_HAL_DSP_Factory
00007ff944475a70 (__DATA,__data) non-external (was a private external) __OBJC_PROTOCOL_$_HAL_DSP_IOProcessor
00007ff944475ad0 (__DATA,__data) non-external (was a private external) __OBJC_PROTOCOL_$_HAL_DSP_PropertySet
00007ff944475a10 (__DATA,__data) non-external (was a private external) __OBJC_PROTOCOL_$_NSObject
                 (undefined) external __Unwind_Resume (from libSystem)
00007ff91f6267e3 (__TEXT,__text) non-external __Z18get_adm_log_objectv
00007ff94354d0f0 (__DATA_DIRTY,__bss) non-external __ZGVN5boost16exception_detail37exception_ptr_static_exception_objectINS0_10bad_alloc_EE1eE
00007ff94354d110 (__DATA_DIRTY,__bss) non-external __ZGVN5boost16exception_detail37exception_ptr_static_exception_objectINS0_14bad_exception_EE1eE
00007ff944477c40 (__DATA,__bss) non-external __ZGVZ49-[DSPProcessor dumpDiagnosticsWithNSObject:name:]E18isDebugDumpEnabled
00007ff944477c10 (__DATA,__bss) non-external __ZGVZN12_GLOBAL__N_115getControllerEKEyPKcE14sControllerEKs
00007ff944477bd0 (__DATA,__bss) non-external __ZGVZN3adm2vp6detailL27getDefaultVoiceProcessorSPIEvE18gVoiceProcessorSPI
00007ff94354d130 (__DATA_DIRTY,__bss) non-external __ZGVZN5boost16exception_detail27get_static_exception_objectINS0_10bad_alloc_EEENS_13exception_ptrEvE2ep
00007ff94354d150 (__DATA_DIRTY,__bss) non-external __ZGVZN5boost16exception_detail27get_static_exception_objectINS0_14bad_exception_EEENS_13exception_ptrEvE2ep
00007ff91f68f1f0 (__TEXT,__dlopen_cstrs) non-external __ZL20audit_stringAudioDSP
00007ff91f68f250 (__TEXT,__dlopen_cstrs) non-external __ZL24audit_stringAudioCapture
00007ff944475b80 (__DATA,__cf_except_bt) non-external __ZL28__last_exception_backtrace__
00007ff91f64d1ae (__TEXT,__text) non-external __ZL31consume_exception_and_terminateRKSt9exceptionPKc
00007ff91f6705d4 (__TEXT,__text) non-external __ZL31logConfigChangeRequestBasicInfoRKN3adm26ConfigurationChangeRequestE
00007ff944477c30 (__DATA,__bss) non-external __ZL33__last_exception_backtrace_lock__
00007ff91f653bb7 (__TEXT,__text) non-external __ZN10applesauce2CF10convert_asINSt3__112basic_stringIcNS2_11char_traitsIcEENS2_9allocatorIcEEEELi0EEENS2_8optionalIT_EEPK10__CFString
00007ff91f6538e3 (__TEXT,__text) non-external __ZN10applesauce2CF10convert_asINSt3__16vectorINS0_13DictionaryRefENS2_9allocatorIS4_EEEELi0EEENS2_8optionalIT_EEPK9__CFArray
00007ff91f653ec3 (__TEXT,__text) non-external __ZN10applesauce2CF10convert_asIjLi0EEENSt3__18optionalIT_EEPK10__CFNumber
00007ff91f650e24 (__TEXT,__text) non-external __ZN10applesauce2CF10convert_toINSt3__112basic_stringIcNS2_11char_traitsIcEENS2_9allocatorIcEEEELi0EEET_PK10__CFString
00007ff91f67d464 (__TEXT,__text) non-external __ZN10applesauce2CF11TypeRefPairD1Ev
00007ff91f6541dc (__TEXT,__text) non-external __ZN10applesauce2CF12make_DataRefERKNSt3__112basic_stringIcNS1_11char_traitsIcEENS1_9allocatorIcEEEENS0_20IsFileSystemPathTypeE
00007ff91f653cf0 (__TEXT,__text) non-external __ZN10applesauce2CF13DictionaryRefC1EPK14__CFDictionary
00007ff91f63e098 (__TEXT,__text) non-external __ZN10applesauce2CF13DictionaryRefD1Ev
00007ff91f6545b9 (__TEXT,__text) non-external __ZN10applesauce2CF13convert_errorEv
00007ff91f653cde (__TEXT,__text) non-external __ZN10applesauce2CF15construct_errorEv
00007ff91f6543ce (__TEXT,__text) non-external __ZN10applesauce2CF18make_DictionaryRefERKNS0_7DataRefE
00007ff91f652ef2 (__TEXT,__text) non-external __ZN10applesauce2CF22DictionaryRef_iteratorINS0_7TypeRefES2_EC2EPK14__CFDictionary
00007ff91f652e22 (__TEXT,__text) non-external __ZN10applesauce2CF22DictionaryRef_iteratorINS0_9StringRefENS0_13DictionaryRefEEC2EPK14__CFDictionary
00007ff91f66c745 (__TEXT,__text) non-external __ZN10applesauce2CF5at_orIjRA14_KcEENSt3__111conditionalIXsr18converts_to_stringIT_EE5valueENS5_12basic_stringIcNS5_11char_traitsIcEENS5_9allocatorIcEEEEu7__decayIS7_EE4typeEPK14__CFDictionaryOT0_OS7_
00007ff91f67053c (__TEXT,__text) non-external __ZN10applesauce2CF7DataRefC1EPK8__CFData
00007ff91f65448c (__TEXT,__text) non-external __ZN10applesauce2CF7DataRefD1Ev
00007ff91f67d524 (__TEXT,__text) non-external __ZN10applesauce2CF7TypeRefC1ERKNSt3__112basic_stringIcNS2_11char_traitsIcEENS2_9allocatorIcEEEE
00007ff91f67d5cc (__TEXT,__text) non-external __ZN10applesauce2CF7TypeRefD1Ev
00007ff91f652e8b (__TEXT,__text) non-external __ZN10applesauce2CF7details11find_at_keyINSt3__112basic_stringIcNS3_11char_traitsIcEENS3_9allocatorIcEEEERKPKcEET_PK14__CFDictionaryOT0_NS1_15counterpart_tagE
00007ff91f67d19b (__TEXT,__text) non-external __ZN10applesauce2CF7details20make_CFDictionaryRefERKSt16initializer_listINS0_11TypeRefPairEE
00007ff91f653562 (__TEXT,__text) non-external __ZN10applesauce2CF7details23find_at_key_or_optionalINSt3__16vectorINS3_12basic_stringIcNS3_11char_traitsIcEENS3_9allocatorIcEEEENS8_ISA_EEEERKPKcEENS3_8optionalIT_EEPK14__CFDictionaryOT0_NS1_15counterpart_tagE
00007ff91f653846 (__TEXT,__text) non-external __ZN10applesauce2CF7details6at_keyIRKPKcEEPKvPK14__CFDictionaryOT_NS1_15counterpart_tagE
00007ff91f650d8c (__TEXT,__text) non-external __ZN10applesauce2CF9StringRefC1EPK10__CFString
00007ff91f62a906 (__TEXT,__text) non-external __ZN10applesauce2CF9StringRefC1ERKNSt3__112basic_stringIcNS2_11char_traitsIcEENS2_9allocatorIcEEEE
00007ff91f62afb2 (__TEXT,__text) non-external __ZN10applesauce2CF9StringRefD1Ev
00007ff91f653eb2 (__TEXT,__text) non-external __ZN10applesauce2CF9not_foundEv
00007ff91f6304b0 (__TEXT,__text) non-external __ZN10applesauce9backtrace10snapshot_NILi64EEC1Ev
00007ff91f632099 (__TEXT,__text) non-external __ZN10applesauce9backtrace6detail20symbolicate_snapshotERKNSt3__16vectorIPvNS2_9allocatorIS4_EEEEi
00007ff91f666a44 (__TEXT,__text) non-external __ZN12_GLOBAL__N_112mergeConfigsERN3adm19DeviceConfigurationERKS1_
00007ff91f66d312 (__TEXT,__text) non-external __ZN12_GLOBAL__N_113ErrorCategoryD0Ev
00007ff91f66d308 (__TEXT,__text) non-external __ZN12_GLOBAL__N_113ErrorCategoryD1Ev
00007ff91f65ff5e (__TEXT,__text) non-external __ZN12_GLOBAL__N_114findStreamByIDERKN3adm26ConfigurationChangeRequestERKNSt3__112basic_stringIcNS4_11char_traitsIcEENS4_9allocatorIcEEEE
00007ff943341cf8 (__DATA_CONST,__const) non-external __ZN12_GLOBAL__N_114kErrorCategoryE
00007ff91f658a93 (__TEXT,__text) non-external __ZN12_GLOBAL__N_115getControllerEKEyPKc
00007ff91f63d3f3 (__TEXT,__text) non-external __ZN12_GLOBAL__N_116flattenSemanticsERKNSt3__13setINS0_12basic_stringIcNS0_11char_traitsIcEENS0_9allocatorIcEEEENS0_4lessIS7_EENS5_IS7_EEEE
00007ff91f6618dc (__TEXT,__text) non-external __ZN12_GLOBAL__N_118getDeviceDirectionERKN3adm17DeviceDescriptionE
00007ff91f63d6c0 (__TEXT,__text) non-external __ZN12_GLOBAL__N_118isHighLatencyRouteEPKN3adm17DeviceDescriptionES3_
00007ff943341808 (__DATA_CONST,__const) non-external __ZN12_GLOBAL__N_119kBuiltInSpeakerUIDsE
00007ff91f660364 (__TEXT,__text) non-external __ZN12_GLOBAL__N_119validateStreamUsageERKN3adm26ConfigurationChangeRequestEb
00007ff943342e00 (__DATA_CONST,__const) non-external __ZN12_GLOBAL__N_120kPublishedPropertiesE
00007ff91f66acbf (__TEXT,__text) non-external __ZN12_GLOBAL__N_121getASBDFormatFromDictEP12NSDictionary
00007ff943341818 (__DATA_CONST,__const) non-external __ZN12_GLOBAL__N_122kBuiltInMicrophoneUIDsE
00007ff943342d58 (__DATA_CONST,__const) non-external __ZN12_GLOBAL__N_123kPropertyInfo_VAD_StateE
00007ff91f66af44 (__TEXT,__text) non-external __ZN12_GLOBAL__N_124getChannelLayoutFromDictEP12NSDictionary
00007ff943342dc8 (__DATA_CONST,__const) non-external __ZN12_GLOBAL__N_127kPropertyInfo_DSPGraphParamE
00007ff943342d90 (__DATA_CONST,__const) non-external __ZN12_GLOBAL__N_127kPropertyInfo_UIOrientationE
                 (undefined) external __ZN26AUProcessingBlock_DSPGraphC1ERKNSt3__110shared_ptrIN8DSPGraph5GraphEEE (from AudioToolboxCore)
00007ff91f64915c (__TEXT,__text) non-external __ZN2CA12AudioBuffers7PrepareEjj
00007ff91f648ff2 (__TEXT,__text) non-external __ZN2CA12AudioBuffersC1ERK27AudioStreamBasicDescriptionj
00007ff91f6512f3 (__TEXT,__text) non-external __ZN3adm12_GLOBAL__N_119AddDSPConfigurationERNS_19SystemConfigurationERKN10applesauce2CF13DictionaryRefERKNSt3__14__fs10filesystem4pathESD_b
00007ff943340af8 (__DATA_CONST,__const) non-external __ZN3adm12_GLOBAL__N_123kVPPlatformInfoFilePathE
00007ff91f650fab (__TEXT,__text) non-external __ZN3adm12_GLOBAL__N_19LoadPlistERKNSt3__14__fs10filesystem4pathE
00007ff91f65fe16 (__TEXT,__text) non-external __ZN3adm13config_policy16isExclaveUseCaseERKNSt3__13setINS1_12basic_stringIcNS1_11char_traitsIcEENS1_9allocatorIcEEEENS1_4lessIS8_EENS6_IS8_EEEE
00007ff91f66015c (__TEXT,__text) non-external __ZN3adm13config_policy19getActiveStreamInfoERKNS_26ConfigurationChangeRequestE
00007ff91f6617f2 (__TEXT,__text) non-external __ZN3adm13config_policy20getDeviceDescriptionERKNS_26ConfigurationChangeRequestENS_14AudioDirectionE
00007ff91f65ff08 (__TEXT,__text) non-external __ZN3adm13config_policy20getPrimaryStreamInfoERKNS_26ConfigurationChangeRequestE
00007ff91f6617aa (__TEXT,__text) non-external __ZN3adm13config_policy22isBuiltInSpeakerDeviceERKNS_17DeviceDescriptionE
00007ff91f66599b (__TEXT,__text) non-external __ZN3adm13config_policy23getDeviceConfigurationsERKNS_26ConfigurationChangeRequestERKNSt3__18optionalINS4_6vectorINS_19DeviceConfigurationENS4_9allocatorIS7_EEEEEE
00007ff91f66d472 (__TEXT,__text) non-external __ZN3adm13config_policy25getIOContextConfigurationERKNS_26ConfigurationChangeRequestE
00007ff91f66166e (__TEXT,__text) non-external __ZN3adm13config_policy25isBuiltInMicrophoneDeviceERKNS_17DeviceDescriptionE
00007ff91f64db53 (__TEXT,__text) non-external __ZN3adm13log_exceptionERKSt9exception
00007ff91f671718 (__TEXT,__text) non-external __ZN3adm17NegotiateResponseD1Ev
00007ff91f62a9ae (__TEXT,__text) non-external __ZN3adm19SystemConfigurationC2ERKS0_
00007ff91f62aec4 (__TEXT,__text) non-external __ZN3adm19SystemConfigurationD2Ev
00007ff91f62b928 (__TEXT,__text) non-external __ZN3adm20ConfigurationContextD1Ev
00007ff91f67b978 (__TEXT,__text) non-external __ZN3adm21CustomPropertyManager12attachToNodeERKNSt3__110shared_ptrINS_5graph7DSPNodeEEERKNS1_3setINS1_12basic_stringIcNS1_11char_traitsIcEENS1_9allocatorIcEEEENS1_4lessISE_EENSC_ISE_EEEE
00007ff91f67d5e4 (__TEXT,__text) non-external __ZN3adm21CustomPropertyManager17getCustomPropertyERK26AudioObjectPropertyAddressN10applesauce2CF7DataRefE
00007ff91f67d8f0 (__TEXT,__text) non-external __ZN3adm21CustomPropertyManager17setCustomPropertyERK26AudioObjectPropertyAddressN10applesauce2CF7DataRefES6_
00007ff944477c50 (__DATA,__bss) non-external __ZN3adm21CustomPropertyManager18kParameterMappingsE
00007ff91f67c7c2 (__TEXT,__text) non-external __ZN3adm21CustomPropertyManager21getCustomPropertyListEv
00007ff91f67b652 (__TEXT,__text) non-external __ZN3adm21CustomPropertyManager22onGraphParameterUpdateERKNS0_16ParameterMappingEf
00007ff91f67b4ae (__TEXT,__text) non-external __ZN3adm21CustomPropertyManagerC1ENSt3__18functionIFvN2CA15PropertyAddressEEEE
00007ff91f66d7c4 (__TEXT,__text) non-external __ZN3adm22IOContextConfigurationD1Ev
00007ff91f64f737 (__TEXT,__text) non-external __ZN3adm23LoadSystemConfigurationEv
00007ff91f671178 (__TEXT,__text) non-external __ZN3adm26ConfigurationChangeRequestD1Ev
00007ff91f64995e (__TEXT,__text) non-external __ZN3adm26DSPGraphBasicConfiguration22AUPresetOverrideConfigD1Ev
00007ff91f62c87c (__TEXT,__text) non-external __ZN3adm26DSPGraphBasicConfigurationC2ERKS0_
00007ff91f640d76 (__TEXT,__text) non-external __ZN3adm2vp11to_json_strINSt3__110error_codeEEENS2_12basic_stringIcNS2_11char_traitsIcEENS2_9allocatorIcEEEERKT_
00007ff91f661cb6 (__TEXT,__text) non-external __ZN3adm2vp13ErrorCategoryD0Ev
00007ff91f661cac (__TEXT,__text) non-external __ZN3adm2vp13ErrorCategoryD1Ev
00007ff91f6545d4 (__TEXT,__text) non-external __ZN3adm2vp16SPIErrorCategoryD0Ev
00007ff91f6545ca (__TEXT,__text) non-external __ZN3adm2vp16SPIErrorCategoryD1Ev
00007ff91f63da66 (__TEXT,__text) non-external __ZN3adm2vp19UplinkConfigurationD2Ev
00007ff91f6308a4 (__TEXT,__text) non-external __ZN3adm2vp21DownlinkConfigurationD1Ev
00007ff91f63085c (__TEXT,__text) non-external __ZN3adm2vp25DownlinkNodeConfigurationD1Ev
00007ff91f654794 (__TEXT,__text) non-external __ZN3adm2vp3SPID1Ev
00007ff91f661b1a (__TEXT,__text) non-external __ZN3adm2vp6detail19ProxyImplementationINS0_19UplinkConfigurationEE11setPropertyEjPKvm
00007ff91f6619da (__TEXT,__text) non-external __ZN3adm2vp6detail19ProxyImplementationINS0_19UplinkConfigurationEE12setParameterEjf
00007ff91f661970 (__TEXT,__text) non-external __ZN3adm2vp6detail19ProxyImplementationINS0_19UplinkConfigurationEED0Ev
00007ff91f66196a (__TEXT,__text) non-external __ZN3adm2vp6detail19ProxyImplementationINS0_19UplinkConfigurationEED1Ev
00007ff91f662372 (__TEXT,__text) non-external __ZN3adm2vp6detail19ProxyImplementationINS0_21DownlinkConfigurationEE11setPropertyEjPKvm
00007ff91f662232 (__TEXT,__text) non-external __ZN3adm2vp6detail19ProxyImplementationINS0_21DownlinkConfigurationEE12setParameterEjf
00007ff91f6621c8 (__TEXT,__text) non-external __ZN3adm2vp6detail19ProxyImplementationINS0_21DownlinkConfigurationEED0Ev
00007ff91f6621c2 (__TEXT,__text) non-external __ZN3adm2vp6detail19ProxyImplementationINS0_21DownlinkConfigurationEED1Ev
00007ff91f6627f8 (__TEXT,__text) non-external __ZN3adm2vp6detail25UplinkProxyImplementation39getExpectedOutputSamplesForInputSamplesEyRy
00007ff91f662690 (__TEXT,__text) non-external __ZN3adm2vp6detail25UplinkProxyImplementation39getRequiredInputSamplesForOutputSamplesEy
00007ff91f662486 (__TEXT,__text) non-external __ZN3adm2vp6detail25UplinkProxyImplementation8clientIOEjRKN4AMCP15Proc_Cycle_InfoEmPNS3_11Proc_StreamEmS8_
00007ff91f662426 (__TEXT,__text) non-external __ZN3adm2vp6detail25UplinkProxyImplementationD0Ev
00007ff91f6623d4 (__TEXT,__text) non-external __ZN3adm2vp6detail25UplinkProxyImplementationD1Ev
00007ff91f641578 (__TEXT,__text) non-external __ZN3adm2vp6detail26ProxyFactoryImplementation15configureUplinkEv
00007ff91f641fb2 (__TEXT,__text) non-external __ZN3adm2vp6detail26ProxyFactoryImplementation17configureDownlinkEv
00007ff91f63e2f8 (__TEXT,__text) non-external __ZN3adm2vp6detail26ProxyFactoryImplementation17doCreateProxyListINS0_19UplinkConfigurationEEEN5caulk8expectedINS2_8DispatchIT_E9ProxyListENSt3__110error_codeEEERKNS0_17ImmutableDispatchIS8_E4TypeE
00007ff91f6409ba (__TEXT,__text) non-external __ZN3adm2vp6detail26ProxyFactoryImplementation32createAndConfigureVoiceProcessorEv
00007ff91f6412f4 (__TEXT,__text) non-external __ZN3adm2vp6detail26ProxyFactoryImplementation34reConfigureOrDestroyVoiceProcessorEv
00007ff91f662aea (__TEXT,__text) non-external __ZN3adm2vp6detail27DownlinkProxyImplementation39getExpectedOutputSamplesForInputSamplesEyRy
00007ff91f662acc (__TEXT,__text) non-external __ZN3adm2vp6detail27DownlinkProxyImplementation39getRequiredInputSamplesForOutputSamplesEy
00007ff91f6628c8 (__TEXT,__text) non-external __ZN3adm2vp6detail27DownlinkProxyImplementation8clientIOEjRKN4AMCP15Proc_Cycle_InfoEmPNS3_11Proc_StreamEmS8_
00007ff91f662868 (__TEXT,__text) non-external __ZN3adm2vp6detail27DownlinkProxyImplementationD0Ev
00007ff91f662816 (__TEXT,__text) non-external __ZN3adm2vp6detail27DownlinkProxyImplementationD1Ev
00007ff91f64e996 (__TEXT,__text) non-external __ZN3adm2vp7convertERKNS0_22ImmutableConfigurationINS0_21DownlinkConfigurationEEE
00007ff91f662d54 (__TEXT,__text) non-external __ZN3adm2vp9InterfaceD0Ev
00007ff91f662d4e (__TEXT,__text) non-external __ZN3adm2vp9InterfaceD1Ev
00007ff91f642438 (__TEXT,__text) non-external __ZN3adm2vp9SPIClient9configureENSt3__110shared_ptrINS0_3SPIEEE
00007ff91f65f906 (__TEXT,__text) non-external __ZN3adm31consume_exception_and_terminateEPK11NSException
00007ff91f64d954 (__TEXT,__text) non-external __ZN3adm31consume_exception_and_terminateERKN8DSPGraph9ExceptionE
00007ff91f64d194 (__TEXT,__text) non-external __ZN3adm31consume_exception_and_terminateERKSt9exception
00007ff91f64db3c (__TEXT,__text) non-external __ZN3adm39consume_unknown_exception_and_terminateEv
00007ff91f649a42 (__TEXT,__text) non-external __ZN3adm3dsp12GraphBuilderD0Ev
00007ff91f649a3c (__TEXT,__text) non-external __ZN3adm3dsp12GraphBuilderD1Ev
00007ff91f6657f6 (__TEXT,__text) non-external __ZN3adm3dsp12GraphBuilderD2Ev
00007ff91f64ebe6 (__TEXT,__text) non-external __ZN3adm3dsp19GraphMacroGenerator31generateBusSemanticFormatMacrosERKNSt3__112basic_stringIcNS2_11char_traitsIcEENS2_9allocatorIcEEEERKN2CA17StreamDescriptionENS2_8optionalIjEE
00007ff91f662d64 (__TEXT,__text) non-external __ZN3adm3dsp2v112GraphBuilderD0Ev
00007ff91f662d5a (__TEXT,__text) non-external __ZN3adm3dsp2v112GraphBuilderD1Ev
00007ff91f664313 (__TEXT,__text) non-external __ZN3adm3dsp2v112_GLOBAL__N_115exception_guardEPKcN5caulk12function_refIFvvEEE
00007ff91f664a59 (__TEXT,__text) non-external __ZN3adm3dsp2v112_GLOBAL__N_115exception_guardEPKcN5caulk12function_refIFvvEEERKNSt3__112basic_stringIcNS9_11char_traitsIcEENS9_9allocatorIcEEEE
00007ff91f6656c1 (__TEXT,__text) non-external __ZN3adm3dsp2v112_GLOBAL__N_19loadPlistERKNSt3__14__fs10filesystem4pathE
00007ff91f64b548 (__TEXT,__text) non-external __ZN3adm3dsp2v15Graph11setPropertyEjNSt3__14spanIKSt4byteLm18446744073709551615EEE
00007ff91f64abb6 (__TEXT,__text) non-external __ZN3adm3dsp2v15Graph12setParameterEjf
00007ff91f64bb0e (__TEXT,__text) non-external __ZN3adm3dsp2v15Graph13connectToAUPBERKNSt3__18optionalINS3_12basic_stringIcNS3_11char_traitsIcEENS3_9allocatorIcEEEEEE
00007ff91f649dc6 (__TEXT,__text) non-external __ZN3adm3dsp2v15Graph26getRequiredInputFrameCountEj
00007ff91f64a024 (__TEXT,__text) non-external __ZN3adm3dsp2v15Graph27getExpectedOutputFrameCountEj
00007ff91f64a282 (__TEXT,__text) non-external __ZN3adm3dsp2v15Graph5resetEv
00007ff91f64c840 (__TEXT,__text) non-external __ZN3adm3dsp2v15Graph6createENSt3__110unique_ptrIN8DSPGraph5GraphENS3_14default_deleteIS6_EEEENS0_15BlockSizePolicyE
00007ff91f64a4ac (__TEXT,__text) non-external __ZN3adm3dsp2v15Graph7processENSt3__14spanIKNS0_11ProcessDataELm18446744073709551615EEENS4_IS5_Lm18446744073709551615EEEj
00007ff91f649a82 (__TEXT,__text) non-external __ZN3adm3dsp2v15GraphD0Ev
00007ff91f649a48 (__TEXT,__text) non-external __ZN3adm3dsp2v15GraphD1Ev
00007ff91f643aea (__TEXT,__text) non-external __ZN3adm4util8RTLogger3logIJEEEvNS0_10RTLogLevelEPKcDpOT_
00007ff91f65d2b4 (__TEXT,__text) non-external __ZN3adm4util8RTLogger3logIJRK30audiodsputility_processerror_sPKcEEEvNS0_10RTLogLevelES7_DpOT_
00007ff91f64588e (__TEXT,__text) non-external __ZN3adm4util8RTLogger3logIJRKjRjEEEvNS0_10RTLogLevelEPKcDpOT_
00007ff91f643b28 (__TEXT,__text) non-external __ZN3adm4util8RTLogger3logIJRiEEEvNS0_10RTLogLevelEPKcDpOT_
00007ff91f64548a (__TEXT,__text) non-external __ZN3adm4util8RTLogger3logIJRjEEEvNS0_10RTLogLevelEPKcDpOT_
00007ff91f65c868 (__TEXT,__text) non-external __ZN3adm4util8RTLogger3logIJRjRK32audiodsputility_parametererror_sPKcEEEvNS0_10RTLogLevelES8_DpOT_
00007ff91f65b8b2 (__TEXT,__text) non-external __ZN3adm4util8RTLogger3logIJRjRfEEEvNS0_10RTLogLevelEPKcDpOT_
00007ff91f65b9a8 (__TEXT,__text) non-external __ZN3adm4util8RTLogger3logIJRjRfR10tb_error_tEEEvNS0_10RTLogLevelEPKcDpOT_
00007ff91f65ba8a (__TEXT,__text) non-external __ZN3adm4util8RTLogger3logIJRjRfRK32audiodsputility_parametererror_sPKcEEEvNS0_10RTLogLevelES9_DpOT_
00007ff91f65815c (__TEXT,__text) non-external __ZN3adm4util8RTLogger3logIJRmEEEvNS0_10RTLogLevelEPKcDpOT_
00007ff91f643bd8 (__TEXT,__text) non-external __ZN3adm4util8RTLogger3logIJRmRjRKjEEEvNS0_10RTLogLevelEPKcDpOT_
00007ff91f65806e (__TEXT,__text) non-external __ZN3adm4util8RTLogger3logIJRmmmEEEvNS0_10RTLogLevelEPKcDpOT_
00007ff91f6444c6 (__TEXT,__text) non-external __ZN3adm4util8RTLogger5doLogIJRPKcEEEvNS0_10RTLogLevelES4_DpOT_
00007ff9433426f0 (__DATA_CONST,__const) non-external __ZN3adm5graph11HandlerNameILNS0_11HandlerTypeE0EEE
00007ff9433428a0 (__DATA_CONST,__const) non-external __ZN3adm5graph11HandlerNameILNS0_11HandlerTypeE1EEE
00007ff943342938 (__DATA_CONST,__const) non-external __ZN3adm5graph11HandlerNameILNS0_11HandlerTypeE2EEE
00007ff9433429c0 (__DATA_CONST,__const) non-external __ZN3adm5graph11HandlerNameILNS0_11HandlerTypeE3EEE
00007ff943342a48 (__DATA_CONST,__const) non-external __ZN3adm5graph11HandlerNameILNS0_11HandlerTypeE4EEE
00007ff943342ad0 (__DATA_CONST,__const) non-external __ZN3adm5graph11HandlerNameILNS0_11HandlerTypeE5EEE
00007ff943342b58 (__DATA_CONST,__const) non-external __ZN3adm5graph11HandlerNameILNS0_11HandlerTypeE6EEE
00007ff943342bf0 (__DATA_CONST,__const) non-external __ZN3adm5graph11HandlerNameILNS0_11HandlerTypeE7EEE
00007ff943342c88 (__DATA_CONST,__const) non-external __ZN3adm5graph11HandlerNameILNS0_11HandlerTypeE8EEE
00007ff943342d20 (__DATA_CONST,__const) non-external __ZN3adm5graph11HandlerNameILNS0_11HandlerTypeE9EEE
00007ff91f6336e8 (__TEXT,__text) non-external __ZN3adm5graph11NodeManager10createNodeERKNS0_15NodeDescriptionERKNSt3__16vectorINS0_19TerminalDescriptionENS5_9allocatorIS7_EEEERKNS0_21DSPGraphConfigurationE
00007ff91f6343e8 (__TEXT,__text) non-external __ZN3adm5graph11NodeManager10createNodeERKNS0_15NodeDescriptionERKNSt3__16vectorINS0_19TerminalDescriptionENS5_9allocatorIS7_EEEERKNS0_24ExclaveNodeConfigurationE
00007ff91f63267a (__TEXT,__text) non-external __ZN3adm5graph11NodeManager10createNodeERKNS0_15NodeDescriptionERKNSt3__16vectorINS0_19TerminalDescriptionENS5_9allocatorIS7_EEEERKNS_2vp19UplinkConfigurationE
00007ff91f62d38e (__TEXT,__text) non-external __ZN3adm5graph11NodeManager13configureNodeINS_2vp19UplinkConfigurationEEEvNSt3__110shared_ptrINS0_7DSPNodeEEERKT_
00007ff91f62ccfe (__TEXT,__text) non-external __ZN3adm5graph11NodeManagerC1ERKNS_19SystemConfigurationE
00007ff91f627a5e (__TEXT,__text) non-external __ZN3adm5graph11SemanticSetC1ESt16initializer_listINS0_12SemanticTypeEE
00007ff91f637cc6 (__TEXT,__text) non-external __ZN3adm5graph12GraphBuilder10buildGraphERKNS_26ConfigurationChangeRequestE
00007ff91f637c1c (__TEXT,__text) non-external __ZN3adm5graph12GraphBuilderC1ERKNS_19SystemConfigurationERKNS_15HostDescriptionE
00007ff91f670b42 (__TEXT,__text) non-external __ZN3adm5graph12NodeHandlersD2Ev
00007ff91f632fdc (__TEXT,__text) non-external __ZN3adm5graph12_GLOBAL__N_113ErrorCategoryD0Ev
00007ff91f632fd2 (__TEXT,__text) non-external __ZN3adm5graph12_GLOBAL__N_113ErrorCategoryD1Ev
00007ff91f6492b8 (__TEXT,__text) non-external __ZN3adm5graph13ExclaveKernel10doClientIOEjRKN4AMCP15Proc_Cycle_InfoEmPNS2_11Proc_StreamEmS7_
00007ff91f6493f4 (__TEXT,__text) non-external __ZN3adm5graph13ExclaveKernel11setPropertyEjN3gsl4spanIKhLln1EEE
00007ff91f649380 (__TEXT,__text) non-external __ZN3adm5graph13ExclaveKernel12setParameterEjf
00007ff91f6492ea (__TEXT,__text) non-external __ZN3adm5graph13ExclaveKernel15doEndProcessingEj
00007ff91f64929e (__TEXT,__text) non-external __ZN3adm5graph13ExclaveKernel17doBeginProcessingEj
00007ff91f6491dc (__TEXT,__text) non-external __ZN3adm5graph13ExclaveKernelD0Ev
00007ff91f6491b8 (__TEXT,__text) non-external __ZN3adm5graph13ExclaveKernelD1Ev
00007ff91f643038 (__TEXT,__text) non-external __ZN3adm5graph14DSPGraphKernel11setPropertyEjN3gsl4spanIKhLln1EEE
00007ff91f642e4e (__TEXT,__text) non-external __ZN3adm5graph14DSPGraphKernel12doGetLatencyEv
00007ff91f642f24 (__TEXT,__text) non-external __ZN3adm5graph14DSPGraphKernel12setParameterEjf
00007ff91f642dc6 (__TEXT,__text) non-external __ZN3adm5graph14DSPGraphKernel27registerWithProcessingBlockERKNSt3__112basic_stringIcNS2_11char_traitsIcEENS2_9allocatorIcEEEE
00007ff91f6464bc (__TEXT,__text) non-external __ZN3adm5graph14DSPGraphKernel9configureEv
00007ff91f64605c (__TEXT,__text) non-external __ZN3adm5graph14DSPGraphKernelC2EONS0_27DSPGraphKernelConfigurationE
00007ff91f642dc0 (__TEXT,__text) non-external __ZN3adm5graph14DSPGraphKernelD0Ev
00007ff91f642dba (__TEXT,__text) non-external __ZN3adm5graph14DSPGraphKernelD1Ev
00007ff91f643802 (__TEXT,__text) non-external __ZN3adm5graph14DSPGraphKernelD2Ev
00007ff91f67afb4 (__TEXT,__text) non-external __ZN3adm5graph19KernelConfigurationD1Ev
00007ff91f63d4ee (__TEXT,__text) non-external __ZN3adm5graph19TerminalDescriptionD1Ev
00007ff91f65f274 (__TEXT,__text) non-external __ZN3adm5graph20VoiceProcessorKernel11setPropertyEjN3gsl4spanIKhLln1EEE
00007ff91f65f0c6 (__TEXT,__text) non-external __ZN3adm5graph20VoiceProcessorKernel12setParameterEjf
00007ff91f6495be (__TEXT,__text) non-external __ZN3adm5graph26ExclaveKernelConfigurationD2Ev
00007ff91f65e5cc (__TEXT,__text) non-external __ZN3adm5graph26VoiceProcessorUplinkKernel10doClientIOEjRKN4AMCP15Proc_Cycle_InfoEmPNS2_11Proc_StreamEmS7_
00007ff91f65f3d0 (__TEXT,__text) non-external __ZN3adm5graph26VoiceProcessorUplinkKernel12getInterfaceEv
00007ff91f65ea36 (__TEXT,__text) non-external __ZN3adm5graph26VoiceProcessorUplinkKernel29createPreProcessingConvertersERKNS0_19KernelConfigurationEj
00007ff91f65ec94 (__TEXT,__text) non-external __ZN3adm5graph26VoiceProcessorUplinkKernel30createPostProcessingConvertersERKNS0_19KernelConfigurationEj
00007ff91f65e9a6 (__TEXT,__text) non-external __ZN3adm5graph26VoiceProcessorUplinkKernel41doGetRequiredInputSamplesForOutputSamplesEy
00007ff91f65e56e (__TEXT,__text) non-external __ZN3adm5graph26VoiceProcessorUplinkKernelD0Ev
00007ff91f65e532 (__TEXT,__text) non-external __ZN3adm5graph26VoiceProcessorUplinkKernelD1Ev
00007ff91f643876 (__TEXT,__text) non-external __ZN3adm5graph27DSPGraphKernelConfigurationD2Ev
00007ff91f64343a (__TEXT,__text) non-external __ZN3adm5graph28FixedBlockSizeDSPGraphKernel10doClientIOEjRKN4AMCP15Proc_Cycle_InfoEmPNS2_11Proc_StreamEmS7_
00007ff91f6433c6 (__TEXT,__text) non-external __ZN3adm5graph28FixedBlockSizeDSPGraphKernelD0Ev
00007ff91f6433bc (__TEXT,__text) non-external __ZN3adm5graph28FixedBlockSizeDSPGraphKernelD1Ev
00007ff91f65e468 (__TEXT,__text) non-external __ZN3adm5graph29ExclaveDSPControllerClientMTDD0Ev
00007ff91f65e45e (__TEXT,__text) non-external __ZN3adm5graph29ExclaveDSPControllerClientMTDD1Ev
00007ff91f65a03c (__TEXT,__text) non-external __ZN3adm5graph30ExclaveDSPControllerClientImpl10ioStartingEv
00007ff91f65b1ea (__TEXT,__text) non-external __ZN3adm5graph30ExclaveDSPControllerClientImpl12setParameterEjf
00007ff91f65a22e (__TEXT,__text) non-external __ZN3adm5graph30ExclaveDSPControllerClientImpl7processERKN4AMCP11Proc_StreamE
00007ff91f6597e6 (__TEXT,__text) non-external __ZN3adm5graph30ExclaveDSPControllerClientImpl9configureERKN2CA17StreamDescriptionES5_S5_jNS_8exclaves17MicRefLatencyTypeEjj
00007ff91f65a804 (__TEXT,__text) non-external __ZN3adm5graph30ExclaveDSPControllerClientImpl9ioStoppedEv
00007ff91f659488 (__TEXT,__text) non-external __ZN3adm5graph30ExclaveDSPControllerClientImplC2ENSt3__18weak_ptrI36audiodspcontroller_audiodspcontrol_sEESt16initializer_listIjES7_NS_8exclaves7UseCaseE
00007ff91f65e1b4 (__TEXT,__text) non-external __ZN3adm5graph30ExclaveDSPControllerClientImplD0Ev
00007ff91f65e1aa (__TEXT,__text) non-external __ZN3adm5graph30ExclaveDSPControllerClientImplD1Ev
00007ff91f65dcec (__TEXT,__text) non-external __ZN3adm5graph30ExclaveDSPControllerClientImplD2Ev
00007ff91f65e438 (__TEXT,__text) non-external __ZN3adm5graph30ExclaveDSPControllerClientSiriD0Ev
00007ff91f65e42e (__TEXT,__text) non-external __ZN3adm5graph30ExclaveDSPControllerClientSiriD1Ev
00007ff91f6449b6 (__TEXT,__text) non-external __ZN3adm5graph31VariableBlockSizeDSPGraphKernel10doClientIOEjRKN4AMCP15Proc_Cycle_InfoEmPNS2_11Proc_StreamEmS7_
00007ff91f645308 (__TEXT,__text) non-external __ZN3adm5graph31VariableBlockSizeDSPGraphKernel27setUpScratchAudioBufferListEPK15AudioBufferListPS2_j
00007ff91f6450da (__TEXT,__text) non-external __ZN3adm5graph31VariableBlockSizeDSPGraphKernel41doGetExpectedOutputSamplesForInputSamplesEyRy
00007ff91f645074 (__TEXT,__text) non-external __ZN3adm5graph31VariableBlockSizeDSPGraphKernel41doGetRequiredInputSamplesForOutputSamplesEy
00007ff91f6448fa (__TEXT,__text) non-external __ZN3adm5graph31VariableBlockSizeDSPGraphKernelD0Ev
00007ff91f64489e (__TEXT,__text) non-external __ZN3adm5graph31VariableBlockSizeDSPGraphKernelD1Ev
00007ff91f67b0b0 (__TEXT,__text) non-external __ZN3adm5graph33VoiceProcessorKernelConfigurationINS_2vp5ProxyINS2_19UplinkConfigurationENS2_6detail25UplinkProxyImplementationEEEED1Ev
00007ff91f6597c0 (__TEXT,__text) non-external __ZN3adm5graph39ExclaveDSPControllerClientSoundAnalysisD0Ev
00007ff91f6597b6 (__TEXT,__text) non-external __ZN3adm5graph39ExclaveDSPControllerClientSoundAnalysisD1Ev
00007ff91f679e4c (__TEXT,__text) non-external __ZN3adm5graph4Node12vendTerminalERKNS0_19TerminalDescriptionE
00007ff91f672180 (__TEXT,__text) non-external __ZN3adm5graph4NodeD0Ev
00007ff91f672176 (__TEXT,__text) non-external __ZN3adm5graph4NodeD1Ev
00007ff91f6335b6 (__TEXT,__text) non-external __ZN3adm5graph4NodeD2Ev
00007ff91f65579c (__TEXT,__text) non-external __ZN3adm5graph6Kernel10doClientIOEjRKN4AMCP15Proc_Cycle_InfoEmPNS2_11Proc_StreamEmS7_
00007ff91f655bec (__TEXT,__text) non-external __ZN3adm5graph6Kernel10doEndCycleEjRKN4AMCP15Proc_Cycle_InfoE
00007ff91f65534c (__TEXT,__text) non-external __ZN3adm5graph6Kernel12doBeginCycleEjRKN4AMCP15Proc_Cycle_InfoE
00007ff91f6568dc (__TEXT,__text) non-external __ZN3adm5graph6Kernel12doGetLatencyEv
00007ff91f65603c (__TEXT,__text) non-external __ZN3adm5graph6Kernel15doEndProcessingEj
00007ff91f654aac (__TEXT,__text) non-external __ZN3adm5graph6Kernel16doRegisterClientEj
00007ff91f654efc (__TEXT,__text) non-external __ZN3adm5graph6Kernel17doBeginProcessingEj
00007ff91f65648c (__TEXT,__text) non-external __ZN3adm5graph6Kernel18doUnregisterClientEj
00007ff91f654a9e (__TEXT,__text) non-external __ZN3adm5graph6Kernel27registerWithProcessingBlockERKNSt3__112basic_stringIcNS2_11char_traitsIcEENS2_9allocatorIcEEEE
00007ff91f65717c (__TEXT,__text) non-external __ZN3adm5graph6Kernel41doGetExpectedOutputSamplesForInputSamplesEyRy
00007ff91f656d2c (__TEXT,__text) non-external __ZN3adm5graph6Kernel41doGetRequiredInputSamplesForOutputSamplesEy
00007ff91f654a98 (__TEXT,__text) non-external __ZN3adm5graph6KernelD0Ev
00007ff91f654a92 (__TEXT,__text) non-external __ZN3adm5graph6KernelD1Ev
00007ff91f63ddbe (__TEXT,__text) non-external __ZN3adm5graph6detail18KernelPropertyTypeIN2CA13ChannelLayoutEED0Ev
00007ff91f63dd98 (__TEXT,__text) non-external __ZN3adm5graph6detail18KernelPropertyTypeIN2CA13ChannelLayoutEED1Ev
00007ff91f6279ba (__TEXT,__text) non-external __ZN3adm5graph6detailL16getSemanticIndexENS0_12SemanticTypeE
00007ff94333f420 (__DATA_CONST,__const) non-external __ZN3adm5graph6detailL18gSemanticInfoTableE
00007ff91f632dd0 (__TEXT,__text) non-external __ZN3adm5graph7DSPNode6createERKNS0_15NodeDescriptionE
00007ff91f67b13c (__TEXT,__text) non-external __ZN3adm5graph7DSPNode6getDSPEv
00007ff91f63329c (__TEXT,__text) non-external __ZN3adm5graph7DSPNodeD0Ev
00007ff91f6331c4 (__TEXT,__text) non-external __ZN3adm5graph7DSPNodeD1Ev
00007ff91f6373fe (__TEXT,__text) non-external __ZN3adm5graph7isValidERKNS0_19KernelConfigurationE
00007ff91f637565 (__TEXT,__text) non-external __ZN3adm5graph7isValidERKNS0_27DSPGraphKernelConfigurationE
00007ff91f672b00 (__TEXT,__text) non-external __ZN3adm5graph8HostNode17kernelDidEndCycleEjRKN4AMCP15Proc_Cycle_InfoE
00007ff91f6729b6 (__TEXT,__text) non-external __ZN3adm5graph8HostNode20kernelWillBeginCycleEjRKN4AMCP15Proc_Cycle_InfoE
00007ff91f672b62 (__TEXT,__text) non-external __ZN3adm5graph8HostNode22kernelDidEndProcessingEj
00007ff91f672a8c (__TEXT,__text) non-external __ZN3adm5graph8HostNode24kernelDidPerformClientIOEjRKN4AMCP15Proc_Cycle_InfoEmPNS2_11Proc_StreamEmS7_
00007ff91f672906 (__TEXT,__text) non-external __ZN3adm5graph8HostNode24kernelWillRegisterClientEj
00007ff91f672bba (__TEXT,__text) non-external __ZN3adm5graph8HostNode25kernelDidUnregisterClientEj
00007ff91f67295e (__TEXT,__text) non-external __ZN3adm5graph8HostNode25kernelWillBeginProcessingEj
00007ff91f672a18 (__TEXT,__text) non-external __ZN3adm5graph8HostNode25kernelWillPerformClientIOEjRKN4AMCP15Proc_Cycle_InfoEmPNS2_11Proc_StreamEmS7_
00007ff91f672332 (__TEXT,__text) non-external __ZN3adm5graph8HostNodeD0Ev
00007ff91f67225a (__TEXT,__text) non-external __ZN3adm5graph8HostNodeD1Ev
00007ff91f673992 (__TEXT,__text) non-external __ZN3adm5graph8demangleERKSt9type_info
00007ff91f684c28 (__TEXT,__const) non-external __ZN3adm5graph9DSPKernel19kMaxBufferFrameSizeE
00007ff91f657dda (__TEXT,__text) non-external __ZN3adm5graph9DSPKernel23doClientIOPreProcessingEPKN4AMCP11Proc_StreamEm
00007ff91f657f1e (__TEXT,__text) non-external __ZN3adm5graph9DSPKernel24doClientIOPostProcessingEPN4AMCP11Proc_StreamEm
00007ff91f657688 (__TEXT,__text) non-external __ZN3adm5graph9DSPKernel29createPreProcessingConvertersERKNS0_19KernelConfigurationEj
00007ff91f657a30 (__TEXT,__text) non-external __ZN3adm5graph9DSPKernel30createPostProcessingConvertersERKNS0_19KernelConfigurationEj
00007ff91f6463ca (__TEXT,__text) non-external __ZN3adm5graph9DSPKernelC2Ev
00007ff91f657682 (__TEXT,__text) non-external __ZN3adm5graph9DSPKernelD0Ev
00007ff91f65767c (__TEXT,__text) non-external __ZN3adm5graph9DSPKernelD1Ev
00007ff91f64395e (__TEXT,__text) non-external __ZN3adm5graph9DSPKernelD2Ev
00007ff91f6378e2 (__TEXT,__text) non-external __ZN3adm5grapheqERKNS0_27DSPGraphKernelConfigurationES3_
00007ff91f626998 (__TEXT,__text) non-external __ZN3adm7utility14getPortSubTypeEjjjRKNSt3__112basic_stringIcNS1_11char_traitsIcEENS1_9allocatorIcEEEE
00007ff91f6719ef (__TEXT,__text) non-external __ZN3adm7utility16getTemporaryPathEv
00007ff91f66c9bc (__TEXT,__text) non-external __ZN3adm7utility19convertToDictionaryERKNS_13AdaptResponseE
00007ff91f66ca58 (__TEXT,__text) non-external __ZN3adm7utility19convertToDictionaryERKNS_17NegotiateResponseE
00007ff91f671c37 (__TEXT,__text) non-external __ZN3adm7utility19writeNSObjectToDiskEP11objc_objectP8NSString
00007ff91f643a9c (__TEXT,__text) non-external __ZN3adm7utility20synchronized_pointerINS_5graph19KernelHostInterfaceEED2Ev
00007ff91f67af86 (__TEXT,__text) non-external __ZN3adm7utility20synchronized_pointerINS_5graph19KernelHostInterfaceEEaSEPS3_
00007ff91f66c803 (__TEXT,__text) non-external __ZN3adm7utility21convertFromDictionaryEP12NSDictionaryRNS_15HostDescriptionE
00007ff91f666c19 (__TEXT,__text) non-external __ZN3adm7utility21convertFromDictionaryEP12NSDictionaryRNS_26ConfigurationChangeRequestE
00007ff91f671b92 (__TEXT,__text) non-external __ZN3adm7utility31readDefaultsDebugDumpEnablementEv
00007ff91f62683f (__TEXT,__text) non-external __ZN3adm8exclaves7utility10convert_toI43audiodsptypes_audiostreambasicdescription_sN2CA17StreamDescriptionEJEEET_RKT0_DpOT1_
00007ff91f6268cb (__TEXT,__text) non-external __ZN3adm8exclaves7utility10convert_toINSt3__18optionalIfEE32audiodsputility_parametervalue_sJEEET_RKT0_DpOT1_
00007ff91f631fe0 (__TEXT,__text) non-external __ZN5boost10error_infoIN10applesauce10exceptions13tag_backtraceENS1_9backtrace10snapshot_NILi64EEEED0Ev
00007ff91f631fba (__TEXT,__text) non-external __ZN5boost10error_infoIN10applesauce10exceptions13tag_backtraceENS1_9backtrace10snapshot_NILi64EEEED1Ev
00007ff91f630dec (__TEXT,__text) non-external __ZN5boost10shared_ptrINS_10error_infoIN10applesauce10exceptions13tag_backtraceENS2_9backtrace10snapshot_NILi64EEEEEEC2IS8_EEPT_
00007ff91f64ca2a (__TEXT,__text) non-external __ZN5boost13exception_ptrD1Ev
00007ff91f64d11c (__TEXT,__text) non-external __ZN5boost16exception_detail10bad_alloc_D0Ev
00007ff91f64d0ee (__TEXT,__text) non-external __ZN5boost16exception_detail10bad_alloc_D1Ev
00007ff91f630de6 (__TEXT,__text) non-external __ZN5boost16exception_detail10clone_baseD0Ev
00007ff91f630de0 (__TEXT,__text) non-external __ZN5boost16exception_detail10clone_baseD1Ev
00007ff91f64d084 (__TEXT,__text) non-external __ZN5boost16exception_detail10clone_implINS0_10bad_alloc_EEC1ERKS3_
00007ff91f64ce5c (__TEXT,__text) non-external __ZN5boost16exception_detail10clone_implINS0_10bad_alloc_EED0Ev
00007ff91f64ce2e (__TEXT,__text) non-external __ZN5boost16exception_detail10clone_implINS0_10bad_alloc_EED1Ev
00007ff91f64ccd6 (__TEXT,__text) non-external __ZN5boost16exception_detail10clone_implINS0_14bad_exception_EEC1ERKS3_
00007ff91f64caae (__TEXT,__text) non-external __ZN5boost16exception_detail10clone_implINS0_14bad_exception_EED0Ev
00007ff91f64ca80 (__TEXT,__text) non-external __ZN5boost16exception_detail10clone_implINS0_14bad_exception_EED1Ev
00007ff91f6303dc (__TEXT,__text) non-external __ZN5boost16exception_detail10clone_implINS0_19error_info_injectorINSt3__112system_errorEEEEC1ERKS5_
00007ff91f630740 (__TEXT,__text) non-external __ZN5boost16exception_detail10clone_implINS0_19error_info_injectorINSt3__112system_errorEEEEC1ERKS6_
00007ff91f630ace (__TEXT,__text) non-external __ZN5boost16exception_detail10clone_implINS0_19error_info_injectorINSt3__112system_errorEEEED0Ev
00007ff91f6307da (__TEXT,__text) non-external __ZN5boost16exception_detail10clone_implINS0_19error_info_injectorINSt3__112system_errorEEEED1Ev
00007ff91f67a702 (__TEXT,__text) non-external __ZN5boost16exception_detail10clone_implINS0_19error_info_injectorISt13runtime_errorEEEC1ERKS4_
00007ff91f67a8ee (__TEXT,__text) non-external __ZN5boost16exception_detail10clone_implINS0_19error_info_injectorISt13runtime_errorEEEC1ERKS5_
00007ff91f67a9ae (__TEXT,__text) non-external __ZN5boost16exception_detail10clone_implINS0_19error_info_injectorISt13runtime_errorEEED0Ev
00007ff91f67a972 (__TEXT,__text) non-external __ZN5boost16exception_detail10clone_implINS0_19error_info_injectorISt13runtime_errorEEED1Ev
00007ff91f630610 (__TEXT,__text) non-external __ZN5boost16exception_detail11set_info_rvINS_10error_infoIN10applesauce10exceptions13tag_backtraceENS3_9backtrace10snapshot_NILi64EEEEEE3setINS0_10clone_implINS0_19error_info_injectorINSt3__112system_errorEEEEEEERKT_SK_OS9_
00007ff91f67a7be (__TEXT,__text) non-external __ZN5boost16exception_detail11set_info_rvINS_10error_infoIN10applesauce10exceptions13tag_backtraceENS3_9backtrace10snapshot_NILi64EEEEEE3setINS0_10clone_implINS0_19error_info_injectorISt13runtime_errorEEEEEERKT_SJ_OS9_
00007ff91f630a9c (__TEXT,__text) non-external __ZN5boost16exception_detail12refcount_ptrINS0_20error_info_containerEED2Ev
00007ff91f64cd6e (__TEXT,__text) non-external __ZN5boost16exception_detail14bad_exception_D0Ev
00007ff91f64cd40 (__TEXT,__text) non-external __ZN5boost16exception_detail14bad_exception_D1Ev
00007ff91f632602 (__TEXT,__text) non-external __ZN5boost16exception_detail19error_info_injectorINSt3__112system_errorEED0Ev
00007ff91f6325d6 (__TEXT,__text) non-external __ZN5boost16exception_detail19error_info_injectorINSt3__112system_errorEED1Ev
00007ff91f67ac02 (__TEXT,__text) non-external __ZN5boost16exception_detail19error_info_injectorISt13runtime_errorED0Ev
00007ff91f67abd6 (__TEXT,__text) non-external __ZN5boost16exception_detail19error_info_injectorISt13runtime_errorED1Ev
00007ff91f630d0f (__TEXT,__text) non-external __ZN5boost16exception_detail20copy_boost_exceptionEPNS_9exceptionEPKS1_
00007ff91f631162 (__TEXT,__text) non-external __ZN5boost16exception_detail25error_info_container_impl3setERKNS_10shared_ptrINS0_15error_info_baseEEERKNS0_10type_info_E
00007ff94354d0e0 (__DATA_DIRTY,__bss) non-external __ZN5boost16exception_detail37exception_ptr_static_exception_objectINS0_10bad_alloc_EE1eE
00007ff94354d100 (__DATA_DIRTY,__bss) non-external __ZN5boost16exception_detail37exception_ptr_static_exception_objectINS0_14bad_exception_EE1eE
00007ff91f63205c (__TEXT,__text) non-external __ZN5boost4core21scoped_demangled_nameC2EPKc
00007ff91f630e84 (__TEXT,__text) non-external __ZN5boost6detail12shared_countD2Ev
00007ff91f631618 (__TEXT,__text) non-external __ZN5boost6detail15sp_counted_base7destroyEv
00007ff91f631b60 (__TEXT,__text) non-external __ZN5boost6detail17sp_counted_impl_pINS_10error_infoIN10applesauce10exceptions13tag_backtraceENS3_9backtrace10snapshot_NILi64EEEEEE11get_deleterERKSt9type_info
00007ff91f631b68 (__TEXT,__text) non-external __ZN5boost6detail17sp_counted_impl_pINS_10error_infoIN10applesauce10exceptions13tag_backtraceENS3_9backtrace10snapshot_NILi64EEEEEE17get_local_deleterERKSt9type_info
00007ff91f631b70 (__TEXT,__text) non-external __ZN5boost6detail17sp_counted_impl_pINS_10error_infoIN10applesauce10exceptions13tag_backtraceENS3_9backtrace10snapshot_NILi64EEEEEE19get_untyped_deleterEv
00007ff91f631b4a (__TEXT,__text) non-external __ZN5boost6detail17sp_counted_impl_pINS_10error_infoIN10applesauce10exceptions13tag_backtraceENS3_9backtrace10snapshot_NILi64EEEEEE7disposeEv
00007ff91f631b36 (__TEXT,__text) non-external __ZN5boost6detail17sp_counted_impl_pINS_10error_infoIN10applesauce10exceptions13tag_backtraceENS3_9backtrace10snapshot_NILi64EEEEEED0Ev
00007ff91f631b30 (__TEXT,__text) non-external __ZN5boost6detail17sp_counted_impl_pINS_10error_infoIN10applesauce10exceptions13tag_backtraceENS3_9backtrace10snapshot_NILi64EEEEEED1Ev
00007ff91f64ce16 (__TEXT,__text) non-external __ZN5boost6detail17sp_counted_impl_pINS_16exception_detail10clone_implINS2_10bad_alloc_EEEE11get_deleterERKSt9type_info
00007ff91f64ce1e (__TEXT,__text) non-external __ZN5boost6detail17sp_counted_impl_pINS_16exception_detail10clone_implINS2_10bad_alloc_EEEE17get_local_deleterERKSt9type_info
00007ff91f64ce26 (__TEXT,__text) non-external __ZN5boost6detail17sp_counted_impl_pINS_16exception_detail10clone_implINS2_10bad_alloc_EEEE19get_untyped_deleterEv
00007ff91f64ce00 (__TEXT,__text) non-external __ZN5boost6detail17sp_counted_impl_pINS_16exception_detail10clone_implINS2_10bad_alloc_EEEE7disposeEv
00007ff91f64cdec (__TEXT,__text) non-external __ZN5boost6detail17sp_counted_impl_pINS_16exception_detail10clone_implINS2_10bad_alloc_EEEED0Ev
00007ff91f64cde6 (__TEXT,__text) non-external __ZN5boost6detail17sp_counted_impl_pINS_16exception_detail10clone_implINS2_10bad_alloc_EEEED1Ev
00007ff91f64ca68 (__TEXT,__text) non-external __ZN5boost6detail17sp_counted_impl_pINS_16exception_detail10clone_implINS2_14bad_exception_EEEE11get_deleterERKSt9type_info
00007ff91f64ca70 (__TEXT,__text) non-external __ZN5boost6detail17sp_counted_impl_pINS_16exception_detail10clone_implINS2_14bad_exception_EEEE17get_local_deleterERKSt9type_info
00007ff91f64ca78 (__TEXT,__text) non-external __ZN5boost6detail17sp_counted_impl_pINS_16exception_detail10clone_implINS2_14bad_exception_EEEE19get_untyped_deleterEv
00007ff91f64ca52 (__TEXT,__text) non-external __ZN5boost6detail17sp_counted_impl_pINS_16exception_detail10clone_implINS2_14bad_exception_EEEE7disposeEv
00007ff91f64ca3e (__TEXT,__text) non-external __ZN5boost6detail17sp_counted_impl_pINS_16exception_detail10clone_implINS2_14bad_exception_EEEED0Ev
00007ff91f64ca38 (__TEXT,__text) non-external __ZN5boost6detail17sp_counted_impl_pINS_16exception_detail10clone_implINS2_14bad_exception_EEEED1Ev
00007ff91f63162a (__TEXT,__text) non-external __ZN5boost6detail17sp_counted_impl_pINS_16exception_detail15error_info_baseEE11get_deleterERKSt9type_info
00007ff91f631632 (__TEXT,__text) non-external __ZN5boost6detail17sp_counted_impl_pINS_16exception_detail15error_info_baseEE17get_local_deleterERKSt9type_info
00007ff91f63163a (__TEXT,__text) non-external __ZN5boost6detail17sp_counted_impl_pINS_16exception_detail15error_info_baseEE19get_untyped_deleterEv
00007ff91f631602 (__TEXT,__text) non-external __ZN5boost6detail17sp_counted_impl_pINS_16exception_detail15error_info_baseEE7disposeEv
00007ff91f6315ee (__TEXT,__text) non-external __ZN5boost6detail17sp_counted_impl_pINS_16exception_detail15error_info_baseEED0Ev
00007ff91f6315e8 (__TEXT,__text) non-external __ZN5boost6detail17sp_counted_impl_pINS_16exception_detail15error_info_baseEED1Ev
00007ff91f67b93e (__TEXT,__text) non-external __ZN5caulk10concurrent7details15rt_message_callIZN3adm21CustomPropertyManager22onGraphParameterUpdateERKNS4_16ParameterMappingEfE3$_0JEE10rt_cleanupD1Ev
00007ff91f67b7be (__TEXT,__text) non-external __ZN5caulk10concurrent7details15rt_message_callIZN3adm21CustomPropertyManager22onGraphParameterUpdateERKNS4_16ParameterMappingEfE3$_0JEE7performEv
00007ff91f67b798 (__TEXT,__text) non-external __ZN5caulk10concurrent7details15rt_message_callIZN3adm21CustomPropertyManager22onGraphParameterUpdateERKNS4_16ParameterMappingEfE3$_0JEED0Ev
00007ff91f67b78e (__TEXT,__text) non-external __ZN5caulk10concurrent7details15rt_message_callIZN3adm21CustomPropertyManager22onGraphParameterUpdateERKNS4_16ParameterMappingEfE3$_0JEED1Ev
00007ff91f65d254 (__TEXT,__text) non-external __ZN5caulk10concurrent7details15rt_message_callIZN3adm4util8RTLogger5doLogIJPKNS3_5graph30ExclaveDSPControllerClientImplERjEEEvNS4_10RTLogLevelEPKcDpOT_EUlvE_JEE10rt_cleanupD2Ev
00007ff91f65cfa2 (__TEXT,__text) non-external __ZN5caulk10concurrent7details15rt_message_callIZN3adm4util8RTLogger5doLogIJPKNS3_5graph30ExclaveDSPControllerClientImplERjEEEvNS4_10RTLogLevelEPKcDpOT_EUlvE_JEE7performEv
00007ff91f65cf7c (__TEXT,__text) non-external __ZN5caulk10concurrent7details15rt_message_callIZN3adm4util8RTLogger5doLogIJPKNS3_5graph30ExclaveDSPControllerClientImplERjEEEvNS4_10RTLogLevelEPKcDpOT_EUlvE_JEED0Ev
00007ff91f65cf72 (__TEXT,__text) non-external __ZN5caulk10concurrent7details15rt_message_callIZN3adm4util8RTLogger5doLogIJPKNS3_5graph30ExclaveDSPControllerClientImplERjEEEvNS4_10RTLogLevelEPKcDpOT_EUlvE_JEED1Ev
00007ff91f65dc8c (__TEXT,__text) non-external __ZN5caulk10concurrent7details15rt_message_callIZN3adm4util8RTLogger5doLogIJPNS3_5graph30ExclaveDSPControllerClientImplEEEEvNS4_10RTLogLevelEPKcDpOT_EUlvE_JEE10rt_cleanupD2Ev
00007ff91f65d9da (__TEXT,__text) non-external __ZN5caulk10concurrent7details15rt_message_callIZN3adm4util8RTLogger5doLogIJPNS3_5graph30ExclaveDSPControllerClientImplEEEEvNS4_10RTLogLevelEPKcDpOT_EUlvE_JEE7performEv
00007ff91f65d9b4 (__TEXT,__text) non-external __ZN5caulk10concurrent7details15rt_message_callIZN3adm4util8RTLogger5doLogIJPNS3_5graph30ExclaveDSPControllerClientImplEEEEvNS4_10RTLogLevelEPKcDpOT_EUlvE_JEED0Ev
00007ff91f65d9aa (__TEXT,__text) non-external __ZN5caulk10concurrent7details15rt_message_callIZN3adm4util8RTLogger5doLogIJPNS3_5graph30ExclaveDSPControllerClientImplEEEEvNS4_10RTLogLevelEPKcDpOT_EUlvE_JEED1Ev
00007ff91f65c7f4 (__TEXT,__text) non-external __ZN5caulk10concurrent7details15rt_message_callIZN3adm4util8RTLogger5doLogIJPNS3_5graph30ExclaveDSPControllerClientImplERjRfEEEvNS4_10RTLogLevelEPKcDpOT_EUlvE_JEE10rt_cleanupD2Ev
00007ff91f65c53a (__TEXT,__text) non-external __ZN5caulk10concurrent7details15rt_message_callIZN3adm4util8RTLogger5doLogIJPNS3_5graph30ExclaveDSPControllerClientImplERjRfEEEvNS4_10RTLogLevelEPKcDpOT_EUlvE_JEE7performEv
00007ff91f65c514 (__TEXT,__text) non-external __ZN5caulk10concurrent7details15rt_message_callIZN3adm4util8RTLogger5doLogIJPNS3_5graph30ExclaveDSPControllerClientImplERjRfEEEvNS4_10RTLogLevelEPKcDpOT_EUlvE_JEED0Ev
00007ff91f65c50a (__TEXT,__text) non-external __ZN5caulk10concurrent7details15rt_message_callIZN3adm4util8RTLogger5doLogIJPNS3_5graph30ExclaveDSPControllerClientImplERjRfEEEvNS4_10RTLogLevelEPKcDpOT_EUlvE_JEED1Ev
00007ff91f65d970 (__TEXT,__text) non-external __ZN5caulk10concurrent7details15rt_message_callIZN3adm4util8RTLogger5doLogIJR10tb_error_tEEEvNS4_10RTLogLevelEPKcDpOT_EUlvE_JEE10rt_cleanupD2Ev
00007ff91f65d6c2 (__TEXT,__text) non-external __ZN5caulk10concurrent7details15rt_message_callIZN3adm4util8RTLogger5doLogIJR10tb_error_tEEEvNS4_10RTLogLevelEPKcDpOT_EUlvE_JEE7performEv
00007ff91f65d69c (__TEXT,__text) non-external __ZN5caulk10concurrent7details15rt_message_callIZN3adm4util8RTLogger5doLogIJR10tb_error_tEEEvNS4_10RTLogLevelEPKcDpOT_EUlvE_JEED0Ev
00007ff91f65d692 (__TEXT,__text) non-external __ZN5caulk10concurrent7details15rt_message_callIZN3adm4util8RTLogger5doLogIJR10tb_error_tEEEvNS4_10RTLogLevelEPKcDpOT_EUlvE_JEED1Ev
00007ff91f65d658 (__TEXT,__text) non-external __ZN5caulk10concurrent7details15rt_message_callIZN3adm4util8RTLogger5doLogIJRK30audiodsputility_processerror_sPKcEEEvNS4_10RTLogLevelESB_DpOT_EUlvE_JEE10rt_cleanupD2Ev
00007ff91f65d3a2 (__TEXT,__text) non-external __ZN5caulk10concurrent7details15rt_message_callIZN3adm4util8RTLogger5doLogIJRK30audiodsputility_processerror_sPKcEEEvNS4_10RTLogLevelESB_DpOT_EUlvE_JEE7performEv
00007ff91f65d37c (__TEXT,__text) non-external __ZN5caulk10concurrent7details15rt_message_callIZN3adm4util8RTLogger5doLogIJRK30audiodsputility_processerror_sPKcEEEvNS4_10RTLogLevelESB_DpOT_EUlvE_JEED0Ev
00007ff91f65d372 (__TEXT,__text) non-external __ZN5caulk10concurrent7details15rt_message_callIZN3adm4util8RTLogger5doLogIJRK30audiodsputility_processerror_sPKcEEEvNS4_10RTLogLevelESB_DpOT_EUlvE_JEED1Ev
00007ff91f645fc8 (__TEXT,__text) non-external __ZN5caulk10concurrent7details15rt_message_callIZN3adm4util8RTLogger5doLogIJRKjRjEEEvNS4_10RTLogLevelEPKcDpOT_EUlvE_JEE10rt_cleanupD2Ev
00007ff91f645cda (__TEXT,__text) non-external __ZN5caulk10concurrent7details15rt_message_callIZN3adm4util8RTLogger5doLogIJRKjRjEEEvNS4_10RTLogLevelEPKcDpOT_EUlvE_JEE7performEv
00007ff91f645cb4 (__TEXT,__text) non-external __ZN5caulk10concurrent7details15rt_message_callIZN3adm4util8RTLogger5doLogIJRKjRjEEEvNS4_10RTLogLevelEPKcDpOT_EUlvE_JEED0Ev
00007ff91f645caa (__TEXT,__text) non-external __ZN5caulk10concurrent7details15rt_message_callIZN3adm4util8RTLogger5doLogIJRKjRjEEEvNS4_10RTLogLevelEPKcDpOT_EUlvE_JEED1Ev
00007ff91f644864 (__TEXT,__text) non-external __ZN5caulk10concurrent7details15rt_message_callIZN3adm4util8RTLogger5doLogIJRPKcEEEvNS4_10RTLogLevelES8_DpOT_EUlvE_JEE10rt_cleanupD2Ev
00007ff91f644578 (__TEXT,__text) non-external __ZN5caulk10concurrent7details15rt_message_callIZN3adm4util8RTLogger5doLogIJRPKcEEEvNS4_10RTLogLevelES8_DpOT_EUlvE_JEE7performEv
00007ff91f644552 (__TEXT,__text) non-external __ZN5caulk10concurrent7details15rt_message_callIZN3adm4util8RTLogger5doLogIJRPKcEEEvNS4_10RTLogLevelES8_DpOT_EUlvE_JEED0Ev
00007ff91f644548 (__TEXT,__text) non-external __ZN5caulk10concurrent7details15rt_message_callIZN3adm4util8RTLogger5doLogIJRPKcEEEvNS4_10RTLogLevelES8_DpOT_EUlvE_JEED1Ev
00007ff91f64448c (__TEXT,__text) non-external __ZN5caulk10concurrent7details15rt_message_callIZN3adm4util8RTLogger5doLogIJRiEEEvNS4_10RTLogLevelEPKcDpOT_EUlvE_JEE10rt_cleanupD2Ev
00007ff91f6441a2 (__TEXT,__text) non-external __ZN5caulk10concurrent7details15rt_message_callIZN3adm4util8RTLogger5doLogIJRiEEEvNS4_10RTLogLevelEPKcDpOT_EUlvE_JEE7performEv
00007ff91f64417c (__TEXT,__text) non-external __ZN5caulk10concurrent7details15rt_message_callIZN3adm4util8RTLogger5doLogIJRiEEEvNS4_10RTLogLevelEPKcDpOT_EUlvE_JEED0Ev
00007ff91f644172 (__TEXT,__text) non-external __ZN5caulk10concurrent7details15rt_message_callIZN3adm4util8RTLogger5doLogIJRiEEEvNS4_10RTLogLevelEPKcDpOT_EUlvE_JEED1Ev
00007ff91f645854 (__TEXT,__text) non-external __ZN5caulk10concurrent7details15rt_message_callIZN3adm4util8RTLogger5doLogIJRjEEEvNS4_10RTLogLevelEPKcDpOT_EUlvE_JEE10rt_cleanupD2Ev
00007ff91f64556a (__TEXT,__text) non-external __ZN5caulk10concurrent7details15rt_message_callIZN3adm4util8RTLogger5doLogIJRjEEEvNS4_10RTLogLevelEPKcDpOT_EUlvE_JEE7performEv
00007ff91f645544 (__TEXT,__text) non-external __ZN5caulk10concurrent7details15rt_message_callIZN3adm4util8RTLogger5doLogIJRjEEEvNS4_10RTLogLevelEPKcDpOT_EUlvE_JEED0Ev
00007ff91f64553a (__TEXT,__text) non-external __ZN5caulk10concurrent7details15rt_message_callIZN3adm4util8RTLogger5doLogIJRjEEEvNS4_10RTLogLevelEPKcDpOT_EUlvE_JEED1Ev
00007ff91f65cf38 (__TEXT,__text) non-external __ZN5caulk10concurrent7details15rt_message_callIZN3adm4util8RTLogger5doLogIJRjR10tb_error_tEEEvNS4_10RTLogLevelEPKcDpOT_EUlvE_JEE10rt_cleanupD2Ev
00007ff91f65cc86 (__TEXT,__text) non-external __ZN5caulk10concurrent7details15rt_message_callIZN3adm4util8RTLogger5doLogIJRjR10tb_error_tEEEvNS4_10RTLogLevelEPKcDpOT_EUlvE_JEE7performEv
00007ff91f65cc60 (__TEXT,__text) non-external __ZN5caulk10concurrent7details15rt_message_callIZN3adm4util8RTLogger5doLogIJRjR10tb_error_tEEEvNS4_10RTLogLevelEPKcDpOT_EUlvE_JEED0Ev
00007ff91f65cc56 (__TEXT,__text) non-external __ZN5caulk10concurrent7details15rt_message_callIZN3adm4util8RTLogger5doLogIJRjR10tb_error_tEEEvNS4_10RTLogLevelEPKcDpOT_EUlvE_JEED1Ev
00007ff91f65cc1c (__TEXT,__text) non-external __ZN5caulk10concurrent7details15rt_message_callIZN3adm4util8RTLogger5doLogIJRjRK32audiodsputility_parametererror_sPKcEEEvNS4_10RTLogLevelESC_DpOT_EUlvE_JEE10rt_cleanupD2Ev
00007ff91f65c966 (__TEXT,__text) non-external __ZN5caulk10concurrent7details15rt_message_callIZN3adm4util8RTLogger5doLogIJRjRK32audiodsputility_parametererror_sPKcEEEvNS4_10RTLogLevelESC_DpOT_EUlvE_JEE7performEv
00007ff91f65c940 (__TEXT,__text) non-external __ZN5caulk10concurrent7details15rt_message_callIZN3adm4util8RTLogger5doLogIJRjRK32audiodsputility_parametererror_sPKcEEEvNS4_10RTLogLevelESC_DpOT_EUlvE_JEED0Ev
00007ff91f65c936 (__TEXT,__text) non-external __ZN5caulk10concurrent7details15rt_message_callIZN3adm4util8RTLogger5doLogIJRjRK32audiodsputility_parametererror_sPKcEEEvNS4_10RTLogLevelESC_DpOT_EUlvE_JEED1Ev
00007ff91f65c4d0 (__TEXT,__text) non-external __ZN5caulk10concurrent7details15rt_message_callIZN3adm4util8RTLogger5doLogIJRjRfEEEvNS4_10RTLogLevelEPKcDpOT_EUlvE_JEE10rt_cleanupD2Ev
00007ff91f65c21c (__TEXT,__text) non-external __ZN5caulk10concurrent7details15rt_message_callIZN3adm4util8RTLogger5doLogIJRjRfEEEvNS4_10RTLogLevelEPKcDpOT_EUlvE_JEE7performEv
00007ff91f65c1f6 (__TEXT,__text) non-external __ZN5caulk10concurrent7details15rt_message_callIZN3adm4util8RTLogger5doLogIJRjRfEEEvNS4_10RTLogLevelEPKcDpOT_EUlvE_JEED0Ev
00007ff91f65c1ec (__TEXT,__text) non-external __ZN5caulk10concurrent7details15rt_message_callIZN3adm4util8RTLogger5doLogIJRjRfEEEvNS4_10RTLogLevelEPKcDpOT_EUlvE_JEED1Ev
00007ff91f65c188 (__TEXT,__text) non-external __ZN5caulk10concurrent7details15rt_message_callIZN3adm4util8RTLogger5doLogIJRjRfR10tb_error_tEEEvNS4_10RTLogLevelEPKcDpOT_EUlvE_JEE10rt_cleanupD2Ev
00007ff91f65bed2 (__TEXT,__text) non-external __ZN5caulk10concurrent7details15rt_message_callIZN3adm4util8RTLogger5doLogIJRjRfR10tb_error_tEEEvNS4_10RTLogLevelEPKcDpOT_EUlvE_JEE7performEv
00007ff91f65beac (__TEXT,__text) non-external __ZN5caulk10concurrent7details15rt_message_callIZN3adm4util8RTLogger5doLogIJRjRfR10tb_error_tEEEvNS4_10RTLogLevelEPKcDpOT_EUlvE_JEED0Ev
00007ff91f65bea2 (__TEXT,__text) non-external __ZN5caulk10concurrent7details15rt_message_callIZN3adm4util8RTLogger5doLogIJRjRfR10tb_error_tEEEvNS4_10RTLogLevelEPKcDpOT_EUlvE_JEED1Ev
00007ff91f65be68 (__TEXT,__text) non-external __ZN5caulk10concurrent7details15rt_message_callIZN3adm4util8RTLogger5doLogIJRjRfRK32audiodsputility_parametererror_sPKcEEEvNS4_10RTLogLevelESD_DpOT_EUlvE_JEE10rt_cleanupD2Ev
00007ff91f65bbac (__TEXT,__text) non-external __ZN5caulk10concurrent7details15rt_message_callIZN3adm4util8RTLogger5doLogIJRjRfRK32audiodsputility_parametererror_sPKcEEEvNS4_10RTLogLevelESD_DpOT_EUlvE_JEE7performEv
00007ff91f65bb86 (__TEXT,__text) non-external __ZN5caulk10concurrent7details15rt_message_callIZN3adm4util8RTLogger5doLogIJRjRfRK32audiodsputility_parametererror_sPKcEEEvNS4_10RTLogLevelESD_DpOT_EUlvE_JEED0Ev
00007ff91f65bb7c (__TEXT,__text) non-external __ZN5caulk10concurrent7details15rt_message_callIZN3adm4util8RTLogger5doLogIJRjRfRK32audiodsputility_parametererror_sPKcEEEvNS4_10RTLogLevelESD_DpOT_EUlvE_JEED1Ev
00007ff91f645c70 (__TEXT,__text) non-external __ZN5caulk10concurrent7details15rt_message_callIZN3adm4util8RTLogger5doLogIJRjS7_RKjEEEvNS4_10RTLogLevelEPKcDpOT_EUlvE_JEE10rt_cleanupD2Ev
00007ff91f64597e (__TEXT,__text) non-external __ZN5caulk10concurrent7details15rt_message_callIZN3adm4util8RTLogger5doLogIJRjS7_RKjEEEvNS4_10RTLogLevelEPKcDpOT_EUlvE_JEE7performEv
00007ff91f645958 (__TEXT,__text) non-external __ZN5caulk10concurrent7details15rt_message_callIZN3adm4util8RTLogger5doLogIJRjS7_RKjEEEvNS4_10RTLogLevelEPKcDpOT_EUlvE_JEED0Ev
00007ff91f64594e (__TEXT,__text) non-external __ZN5caulk10concurrent7details15rt_message_callIZN3adm4util8RTLogger5doLogIJRjS7_RKjEEEvNS4_10RTLogLevelEPKcDpOT_EUlvE_JEED1Ev
00007ff91f6584ec (__TEXT,__text) non-external __ZN5caulk10concurrent7details15rt_message_callIZN3adm4util8RTLogger5doLogIJRmEEEvNS4_10RTLogLevelEPKcDpOT_EUlvE_JEE10rt_cleanupD2Ev
00007ff91f65823c (__TEXT,__text) non-external __ZN5caulk10concurrent7details15rt_message_callIZN3adm4util8RTLogger5doLogIJRmEEEvNS4_10RTLogLevelEPKcDpOT_EUlvE_JEE7performEv
00007ff91f658216 (__TEXT,__text) non-external __ZN5caulk10concurrent7details15rt_message_callIZN3adm4util8RTLogger5doLogIJRmEEEvNS4_10RTLogLevelEPKcDpOT_EUlvE_JEED0Ev
00007ff91f65820c (__TEXT,__text) non-external __ZN5caulk10concurrent7details15rt_message_callIZN3adm4util8RTLogger5doLogIJRmEEEvNS4_10RTLogLevelEPKcDpOT_EUlvE_JEED1Ev
00007ff91f643ff8 (__TEXT,__text) non-external __ZN5caulk10concurrent7details15rt_message_callIZN3adm4util8RTLogger5doLogIJRmRjRKjEEEvNS4_10RTLogLevelEPKcDpOT_EUlvE_JEE10rt_cleanupD2Ev
00007ff91f643d04 (__TEXT,__text) non-external __ZN5caulk10concurrent7details15rt_message_callIZN3adm4util8RTLogger5doLogIJRmRjRKjEEEvNS4_10RTLogLevelEPKcDpOT_EUlvE_JEE7performEv
00007ff91f643cde (__TEXT,__text) non-external __ZN5caulk10concurrent7details15rt_message_callIZN3adm4util8RTLogger5doLogIJRmRjRKjEEEvNS4_10RTLogLevelEPKcDpOT_EUlvE_JEED0Ev
00007ff91f643cd4 (__TEXT,__text) non-external __ZN5caulk10concurrent7details15rt_message_callIZN3adm4util8RTLogger5doLogIJRmRjRKjEEEvNS4_10RTLogLevelEPKcDpOT_EUlvE_JEED1Ev
00007ff91f658810 (__TEXT,__text) non-external __ZN5caulk10concurrent7details15rt_message_callIZN3adm4util8RTLogger5doLogIJRmmmEEEvNS4_10RTLogLevelEPKcDpOT_EUlvE_JEE10rt_cleanupD2Ev
00007ff91f658556 (__TEXT,__text) non-external __ZN5caulk10concurrent7details15rt_message_callIZN3adm4util8RTLogger5doLogIJRmmmEEEvNS4_10RTLogLevelEPKcDpOT_EUlvE_JEE7performEv
00007ff91f658530 (__TEXT,__text) non-external __ZN5caulk10concurrent7details15rt_message_callIZN3adm4util8RTLogger5doLogIJRmmmEEEvNS4_10RTLogLevelEPKcDpOT_EUlvE_JEED0Ev
00007ff91f658526 (__TEXT,__text) non-external __ZN5caulk10concurrent7details15rt_message_callIZN3adm4util8RTLogger5doLogIJRmmmEEEvNS4_10RTLogLevelEPKcDpOT_EUlvE_JEED1Ev
00007ff91f65f8cc (__TEXT,__text) non-external __ZN5caulk10concurrent7details15rt_message_callIZN3adm4util8RTLogger5doLogIJiEEEvNS4_10RTLogLevelEPKcDpOT_EUlvE_JEE10rt_cleanupD2Ev
00007ff91f65f61c (__TEXT,__text) non-external __ZN5caulk10concurrent7details15rt_message_callIZN3adm4util8RTLogger5doLogIJiEEEvNS4_10RTLogLevelEPKcDpOT_EUlvE_JEE7performEv
00007ff91f65f5f6 (__TEXT,__text) non-external __ZN5caulk10concurrent7details15rt_message_callIZN3adm4util8RTLogger5doLogIJiEEEvNS4_10RTLogLevelEPKcDpOT_EUlvE_JEED0Ev
00007ff91f65f5ec (__TEXT,__text) non-external __ZN5caulk10concurrent7details15rt_message_callIZN3adm4util8RTLogger5doLogIJiEEEvNS4_10RTLogLevelEPKcDpOT_EUlvE_JEED1Ev
                 (undefined) external __ZN5caulk10concurrent7messageD2Ev (from caulk)
                 (undefined) external __ZN5caulk10concurrent9messenger23shared_logging_priorityEv (from caulk)
                 (undefined) external __ZN5caulk10concurrent9messenger7enqueueERNS0_7messageE (from caulk)
                 (undefined) external __ZN5caulk10concurrent9messengerC1ENS1_15thread_strategyERKNS_6thread10attributesE (from caulk)
                 (undefined) external __ZN5caulk10concurrent9messengerC1ERKN10applesauce8dispatch2v15queueE (from caulk)
                 (undefined) external __ZN5caulk10concurrent9messengerD1Ev (from caulk)
00007ff91f644032 (__TEXT,__text) non-external __ZN5caulk11make_stringEPKcz
00007ff91f66555a (__TEXT,__text) non-external __ZN5caulk12function_refIFvvEE15functor_invokerIZNK3adm3dsp2v112GraphBuilder18doSetPropertyValueERN8DSPGraph5GraphEjNSt3__14spanIKSt4byteLm18446744073709551615EEEE3$_0EEvRKNS_7details15erased_callableIS1_EE
00007ff91f66557e (__TEXT,__text) non-external __ZN5caulk12function_refIFvvEE15functor_invokerIZNK3adm3dsp2v112GraphBuilder19doSetParameterValueERN8DSPGraph5GraphEjfE3$_0EEvRKNS_7details15erased_callableIS1_EE
00007ff91f6641b2 (__TEXT,__text) non-external __ZN5caulk12function_refIFvvEE15functor_invokerIZNK3adm3dsp2v112GraphBuilder5buildERKNS5_19GraphMacroGeneratorEE3$_0EEvRKNS_7details15erased_callableIS1_EE
00007ff91f664356 (__TEXT,__text) non-external __ZN5caulk12function_refIFvvEE15functor_invokerIZNK3adm3dsp2v112GraphBuilder5buildERKNS5_19GraphMacroGeneratorEE3$_1EEvRKNS_7details15erased_callableIS1_EE
00007ff91f6644ae (__TEXT,__text) non-external __ZN5caulk12function_refIFvvEE15functor_invokerIZNK3adm3dsp2v112GraphBuilder5buildERKNS5_19GraphMacroGeneratorEE3$_2EEvRKNS_7details15erased_callableIS1_EE
00007ff91f664802 (__TEXT,__text) non-external __ZN5caulk12function_refIFvvEE15functor_invokerIZNK3adm3dsp2v112GraphBuilder5buildERKNS5_19GraphMacroGeneratorEE3$_3EEvRKNS_7details15erased_callableIS1_EE
00007ff91f664816 (__TEXT,__text) non-external __ZN5caulk12function_refIFvvEE15functor_invokerIZNK3adm3dsp2v112GraphBuilder5buildERKNS5_19GraphMacroGeneratorEE3$_4EEvRKNS_7details15erased_callableIS1_EE
00007ff91f664c2e (__TEXT,__text) non-external __ZN5caulk12function_refIFvvEE15functor_invokerIZNK3adm3dsp2v112GraphBuilder5buildERKNS5_19GraphMacroGeneratorEE3$_5EEvRKNS_7details15erased_callableIS1_EE
00007ff91f664d1a (__TEXT,__text) non-external __ZN5caulk12function_refIFvvEE15functor_invokerIZNK3adm3dsp2v112GraphBuilder5buildERKNS5_19GraphMacroGeneratorEE3$_6EEvRKNS_7details15erased_callableIS1_EE
00007ff91f664e32 (__TEXT,__text) non-external __ZN5caulk12function_refIFvvEE15functor_invokerIZNK3adm3dsp2v112GraphBuilder5buildERKNS5_19GraphMacroGeneratorEE3$_7EEvRKNS_7details15erased_callableIS1_EE
00007ff91f665076 (__TEXT,__text) non-external __ZN5caulk12function_refIFvvEE15functor_invokerIZNK3adm3dsp2v112GraphBuilder5buildERKNS5_19GraphMacroGeneratorEE3$_8EEvRKNS_7details15erased_callableIS1_EE
00007ff91f6650de (__TEXT,__text) non-external __ZN5caulk12function_refIFvvEE15functor_invokerIZNK3adm3dsp2v112GraphBuilder5buildERKNS5_19GraphMacroGeneratorEE3$_9EEvRKNS_7details15erased_callableIS1_EE
00007ff91f665146 (__TEXT,__text) non-external __ZN5caulk12function_refIFvvEE15functor_invokerIZNK3adm3dsp2v112GraphBuilder5buildERKNS5_19GraphMacroGeneratorEE4$_10EEvRKNS_7details15erased_callableIS1_EE
00007ff91f665384 (__TEXT,__text) non-external __ZN5caulk12function_refIFvvEE15functor_invokerIZNK3adm3dsp2v112GraphBuilder5buildERKNS5_19GraphMacroGeneratorEE4$_11EEvRKNS_7details15erased_callableIS1_EE
00007ff91f6654c4 (__TEXT,__text) non-external __ZN5caulk12function_refIFvvEE15functor_invokerIZNK3adm3dsp2v112GraphBuilder5buildERKNS5_19GraphMacroGeneratorEE4$_12EEvRKNS_7details15erased_callableIS1_EE
00007ff91f6654de (__TEXT,__text) non-external __ZN5caulk12function_refIFvvEE15functor_invokerIZNK3adm3dsp2v112GraphBuilder5buildERKNS5_19GraphMacroGeneratorEE4$_13EEvRKNS_7details15erased_callableIS1_EE
00007ff91f66d7c4 (__TEXT,__text) non-external __ZN5caulk17__expected_detail7destroyIN3adm22IOContextConfigurationELPv0EEEvRT_
00007ff91f670d05 (__TEXT,__text) non-external __ZN5caulk17__expected_detail7destroyIN3adm5graph16GraphDescriptionELPv0EEEvRT_
00007ff91f6308ee (__TEXT,__text) non-external __ZN5caulk19bad_expected_accessINSt3__110error_codeEED0Ev
00007ff91f6308e4 (__TEXT,__text) non-external __ZN5caulk19bad_expected_accessINSt3__110error_codeEED1Ev
00007ff91f64c034 (__TEXT,__text) non-external __ZN5caulk19bad_expected_accessIiED0Ev
00007ff91f64c02a (__TEXT,__text) non-external __ZN5caulk19bad_expected_accessIiED1Ev
00007ff91f65e162 (__TEXT,__text) non-external __ZN5caulk4mach9mach_portD2Ev
                 (undefined) external __ZN5caulk5alloc22realtime_safe_resourceE (from caulk)
00007ff91f645289 (__TEXT,__text) non-external __ZN5caulk7numeric16exceptional_castIjyEET_T0_
00007ff91f63d880 (__TEXT,__text) non-external __ZN5caulk8expectedIN3adm5graph16GraphDescriptionENSt3__110error_codeEEC2EOS3_
                 (undefined) external __ZN8DSPGraph10ABIVersionEv (from AudioToolboxCore)
                 (undefined) external __ZN8DSPGraph11Interpreter11compileFileEPKcRKNSt3__113unordered_mapINS3_12basic_stringIcNS3_11char_traitsIcEENS3_9allocatorIcEEEESA_NS3_4hashISA_EENS3_8equal_toISA_EENS8_INS3_4pairIKSA_SA_EEEEEERKNS3_6vectorISA_NS8_ISA_EEEE (from AudioToolboxCore)
                 (undefined) external __ZN8DSPGraph11Interpreter11compileTextEPKcRKNSt3__113unordered_mapINS3_12basic_stringIcNS3_11char_traitsIcEENS3_9allocatorIcEEEESA_NS3_4hashISA_EENS3_8equal_toISA_EENS8_INS3_4pairIKSA_SA_EEEEEERKNS3_6vectorISA_NS8_ISA_EEEE (from AudioToolboxCore)
00007ff91f665766 (__TEXT,__text) non-external __ZN8DSPGraph11InterpreterC2Ev
                 (undefined) external __ZN8DSPGraph11InterpreterD1Ev (from AudioToolboxCore)
                 (undefined) external __ZN8DSPGraph14NewBoxRegistryC1Ev (from AudioToolboxCore)
                 (undefined) external __ZN8DSPGraph14ThrowExceptionEiRKNSt3__112basic_stringIcNS0_11char_traitsIcEENS0_9allocatorIcEEEEiS8_S8_ (from AudioToolboxCore)
                 (undefined) external __ZN8DSPGraph3Box20selfLatencyInSecondsEv (from AudioToolboxCore)
                 (undefined) external __ZN8DSPGraph3Box21totalLatencyInSamplesEv (from AudioToolboxCore)
                 (undefined) external __ZN8DSPGraph3Box21totalLatencyInSecondsEv (from AudioToolboxCore)
                 (undefined) external __ZN8DSPGraph5Graph10setAUStripEPK14__CFDictionary (from AudioToolboxCore)
                 (undefined) external __ZN8DSPGraph5Graph13setSRCQualityEj (from AudioToolboxCore)
                 (undefined) external __ZN8DSPGraph5Graph15processMultipleEPNS_11GraphIODataES2_ (from AudioToolboxCore)
                 (undefined) external __ZN8DSPGraph5Graph15setSRCAlgorithmEj (from AudioToolboxCore)
                 (undefined) external __ZN8DSPGraph5Graph16setPropertyStripEPK14__CFDictionary (from AudioToolboxCore)
                 (undefined) external __ZN8DSPGraph5Graph16setPropertyStripEPK14__CFDictionaryPK10__CFString (from AudioToolboxCore)
                 (undefined) external __ZN8DSPGraph5Graph16setSliceDurationEjjNS0_11SlicePolicyE (from AudioToolboxCore)
                 (undefined) external __ZN8DSPGraph5Graph18setSRCMinimumPhaseEb (from AudioToolboxCore)
                 (undefined) external __ZN8DSPGraph5Graph19initializeWithFlagsEj (from AudioToolboxCore)
                 (undefined) external __ZN8DSPGraph5Graph3boxERKNSt3__112basic_stringIcNS1_11char_traitsIcEENS1_9allocatorIcEEEE (from AudioToolboxCore)
                 (undefined) external __ZN8DSPGraph5Graph5resetEv (from AudioToolboxCore)
                 (undefined) external __ZN8DSPGraph5Graph9configureEv (from AudioToolboxCore)
                 (undefined) external __ZN8DSPGraph5Graph9preflightEPNS_11GraphIODataES2_jjb (from AudioToolboxCore)
                 (undefined) external __ZN8DSPGraph9strprintfEPKcz (from AudioToolboxCore)
00007ff91f626cd8 (__TEXT,__text) non-external __ZN8nlohmann10basic_jsonINSt3__13mapENS1_6vectorENS1_12basic_stringIcNS1_11char_traitsIcEENS1_9allocatorIcEEEEbxydS7_NS_14adl_serializerENS3_IhNS7_IhEEEEE10json_value7destroyENS_6detail7value_tE
00007ff91f6411d6 (__TEXT,__text) non-external __ZN8nlohmann10basic_jsonINSt3__13mapENS1_6vectorENS1_12basic_stringIcNS1_11char_traitsIcEENS1_9allocatorIcEEEEbxydS7_NS_14adl_serializerENS3_IhNS7_IhEEEEE6createIS9_JRKPKcEEEPT_DpOT0_
00007ff91f627e60 (__TEXT,__text) non-external __ZN8nlohmann10basic_jsonINSt3__13mapENS1_6vectorENS1_12basic_stringIcNS1_11char_traitsIcEENS1_9allocatorIcEEEEbxydS7_NS_14adl_serializerENS3_IhNS7_IhEEEEE6createIS9_JRKS9_EEEPT_DpOT0_
00007ff91f64e180 (__TEXT,__text) non-external __ZN8nlohmann10basic_jsonINSt3__13mapENS1_6vectorENS1_12basic_stringIcNS1_11char_traitsIcEENS1_9allocatorIcEEEEbxydS7_NS_14adl_serializerENS3_IhNS7_IhEEEEE9push_backESt16initializer_listINS_6detail8json_refISD_EEE
00007ff91f627b08 (__TEXT,__text) non-external __ZN8nlohmann10basic_jsonINSt3__13mapENS1_6vectorENS1_12basic_stringIcNS1_11char_traitsIcEENS1_9allocatorIcEEEEbxydS7_NS_14adl_serializerENS3_IhNS7_IhEEEEEC2ERKSD_
00007ff91f62835c (__TEXT,__text) non-external __ZN8nlohmann10basic_jsonINSt3__13mapENS1_6vectorENS1_12basic_stringIcNS1_11char_traitsIcEENS1_9allocatorIcEEEEbxydS7_NS_14adl_serializerENS3_IhNS7_IhEEEEEC2ESt16initializer_listINS_6detail8json_refISD_EEEbNSF_7value_tE
00007ff91f64e770 (__TEXT,__text) non-external __ZN8nlohmann10basic_jsonINSt3__13mapENS1_6vectorENS1_12basic_stringIcNS1_11char_traitsIcEENS1_9allocatorIcEEEEbxydS7_NS_14adl_serializerENS3_IhNS7_IhEEEEEC2IRA10_KcA10_cLi0EEEOT_
00007ff91f64e6a8 (__TEXT,__text) non-external __ZN8nlohmann10basic_jsonINSt3__13mapENS1_6vectorENS1_12basic_stringIcNS1_11char_traitsIcEENS1_9allocatorIcEEEEbxydS7_NS_14adl_serializerENS3_IhNS7_IhEEEEEC2IRA11_KcA11_cLi0EEEOT_
00007ff91f6282f8 (__TEXT,__text) non-external __ZN8nlohmann10basic_jsonINSt3__13mapENS1_6vectorENS1_12basic_stringIcNS1_11char_traitsIcEENS1_9allocatorIcEEEEbxydS7_NS_14adl_serializerENS3_IhNS7_IhEEEEEC2IRA12_KcA12_cLi0EEEOT_
00007ff91f64e8ce (__TEXT,__text) non-external __ZN8nlohmann10basic_jsonINSt3__13mapENS1_6vectorENS1_12basic_stringIcNS1_11char_traitsIcEENS1_9allocatorIcEEEEbxydS7_NS_14adl_serializerENS3_IhNS7_IhEEEEEC2IRA13_KcA13_cLi0EEEOT_
00007ff91f6575c4 (__TEXT,__text) non-external __ZN8nlohmann10basic_jsonINSt3__13mapENS1_6vectorENS1_12basic_stringIcNS1_11char_traitsIcEENS1_9allocatorIcEEEEbxydS7_NS_14adl_serializerENS3_IhNS7_IhEEEEEC2IRA148_KcA148_cLi0EEEOT_
00007ff91f64e932 (__TEXT,__text) non-external __ZN8nlohmann10basic_jsonINSt3__13mapENS1_6vectorENS1_12basic_stringIcNS1_11char_traitsIcEENS1_9allocatorIcEEEEbxydS7_NS_14adl_serializerENS3_IhNS7_IhEEEEEC2IRA17_KcA17_cLi0EEEOT_
00007ff91f64e70c (__TEXT,__text) non-external __ZN8nlohmann10basic_jsonINSt3__13mapENS1_6vectorENS1_12basic_stringIcNS1_11char_traitsIcEENS1_9allocatorIcEEEEbxydS7_NS_14adl_serializerENS3_IhNS7_IhEEEEEC2IRA19_KcA19_cLi0EEEOT_
00007ff91f64dbe2 (__TEXT,__text) non-external __ZN8nlohmann10basic_jsonINSt3__13mapENS1_6vectorENS1_12basic_stringIcNS1_11char_traitsIcEENS1_9allocatorIcEEEEbxydS7_NS_14adl_serializerENS3_IhNS7_IhEEEEEC2IRA5_KcA5_cLi0EEEOT_
00007ff91f64e7cc (__TEXT,__text) non-external __ZN8nlohmann10basic_jsonINSt3__13mapENS1_6vectorENS1_12basic_stringIcNS1_11char_traitsIcEENS1_9allocatorIcEEEEbxydS7_NS_14adl_serializerENS3_IhNS7_IhEEEEEC2IRA6_KcA6_cLi0EEEOT_
00007ff91f64dc46 (__TEXT,__text) non-external __ZN8nlohmann10basic_jsonINSt3__13mapENS1_6vectorENS1_12basic_stringIcNS1_11char_traitsIcEENS1_9allocatorIcEEEEbxydS7_NS_14adl_serializerENS3_IhNS7_IhEEEEEC2IRA7_KcA7_cLi0EEEOT_
00007ff91f64e86a (__TEXT,__text) non-external __ZN8nlohmann10basic_jsonINSt3__13mapENS1_6vectorENS1_12basic_stringIcNS1_11char_traitsIcEENS1_9allocatorIcEEEEbxydS7_NS_14adl_serializerENS3_IhNS7_IhEEEEEC2IRA8_KcA8_cLi0EEEOT_
00007ff91f657620 (__TEXT,__text) non-external __ZN8nlohmann10basic_jsonINSt3__13mapENS1_6vectorENS1_12basic_stringIcNS1_11char_traitsIcEENS1_9allocatorIcEEEEbxydS7_NS_14adl_serializerENS3_IhNS7_IhEEEEEC2IRA9_KcA9_cLi0EEEOT_
00007ff91f67395c (__TEXT,__text) non-external __ZN8nlohmann10basic_jsonINSt3__13mapENS1_6vectorENS1_12basic_stringIcNS1_11char_traitsIcEENS1_9allocatorIcEEEEbxydS7_NS_14adl_serializerENS3_IhNS7_IhEEEEEC2IRKPKcSG_Li0EEEOT_
00007ff91f626bcc (__TEXT,__text) non-external __ZN8nlohmann10basic_jsonINSt3__13mapENS1_6vectorENS1_12basic_stringIcNS1_11char_traitsIcEENS1_9allocatorIcEEEEbxydS7_NS_14adl_serializerENS3_IhNS7_IhEEEEEC2IS9_S9_Li0EEEOT_
00007ff91f627ae4 (__TEXT,__text) non-external __ZN8nlohmann10basic_jsonINSt3__13mapENS1_6vectorENS1_12basic_stringIcNS1_11char_traitsIcEENS1_9allocatorIcEEEEbxydS7_NS_14adl_serializerENS3_IhNS7_IhEEEEED1Ev
00007ff91f640fd8 (__TEXT,__text) non-external __ZN8nlohmann10basic_jsonINSt3__13mapENS1_6vectorENS1_12basic_stringIcNS1_11char_traitsIcEENS1_9allocatorIcEEEEbxydS7_NS_14adl_serializerENS3_IhNS7_IhEEEEEixIKcEERSD_PT_
00007ff91f629f84 (__TEXT,__text) non-external __ZN8nlohmann6detail10serializerINS_10basic_jsonINSt3__13mapENS3_6vectorENS3_12basic_stringIcNS3_11char_traitsIcEENS3_9allocatorIcEEEEbxydS9_NS_14adl_serializerENS5_IhNS9_IhEEEEEEE12dump_escapedERKSB_b
00007ff91f62a508 (__TEXT,__text) non-external __ZN8nlohmann6detail10serializerINS_10basic_jsonINSt3__13mapENS3_6vectorENS3_12basic_stringIcNS3_11char_traitsIcEENS3_9allocatorIcEEEEbxydS9_NS_14adl_serializerENS5_IhNS9_IhEEEEEEE12dump_integerIhLi0EEEvT_
00007ff91f628860 (__TEXT,__text) non-external __ZN8nlohmann6detail10serializerINS_10basic_jsonINSt3__13mapENS3_6vectorENS3_12basic_stringIcNS3_11char_traitsIcEENS3_9allocatorIcEEEEbxydS9_NS_14adl_serializerENS5_IhNS9_IhEEEEEEE4dumpERKSF_bbjj
00007ff91f629f56 (__TEXT,__text) non-external __ZN8nlohmann6detail10serializerINS_10basic_jsonINSt3__13mapENS3_6vectorENS3_12basic_stringIcNS3_11char_traitsIcEENS3_9allocatorIcEEEEbxydS9_NS_14adl_serializerENS5_IhNS9_IhEEEEEEED2Ev
00007ff91f62751c (__TEXT,__text) non-external __ZN8nlohmann6detail10type_error6createEiRKNSt3__112basic_stringIcNS2_11char_traitsIcEENS2_9allocatorIcEEEE
00007ff91f627868 (__TEXT,__text) non-external __ZN8nlohmann6detail10type_errorD0Ev
00007ff91f6277ca (__TEXT,__text) non-external __ZN8nlohmann6detail10type_errorD1Ev
00007ff91f62a826 (__TEXT,__text) non-external __ZN8nlohmann6detail21output_string_adapterIcNSt3__112basic_stringIcNS2_11char_traitsIcEENS2_9allocatorIcEEEEE15write_characterEc
00007ff91f62a834 (__TEXT,__text) non-external __ZN8nlohmann6detail21output_string_adapterIcNSt3__112basic_stringIcNS2_11char_traitsIcEENS2_9allocatorIcEEEEE16write_charactersEPKcm
00007ff91f62a848 (__TEXT,__text) non-external __ZN8nlohmann6detail21output_string_adapterIcNSt3__112basic_stringIcNS2_11char_traitsIcEENS2_9allocatorIcEEEEED0Ev
00007ff91f62a842 (__TEXT,__text) non-external __ZN8nlohmann6detail21output_string_adapterIcNSt3__112basic_stringIcNS2_11char_traitsIcEENS2_9allocatorIcEEEEED1Ev
00007ff91f627ae4 (__TEXT,__text) non-external __ZN8nlohmann6detail8json_refINS_10basic_jsonINSt3__13mapENS3_6vectorENS3_12basic_stringIcNS3_11char_traitsIcEENS3_9allocatorIcEEEEbxydS9_NS_14adl_serializerENS5_IhNS9_IhEEEEEEED1Ev
00007ff91f62a629 (__TEXT,__text) non-external __ZN8nlohmann6detail9dtoa_impl12grisu2_roundEPciyyyy
00007ff91f62a588 (__TEXT,__text) non-external __ZN8nlohmann6detail9dtoa_impl5diyfp3mulERKS2_S4_
00007ff91f62a5e0 (__TEXT,__text) non-external __ZN8nlohmann6detail9dtoa_impl5diyfp3subERKS2_S4_
00007ff91f62a742 (__TEXT,__text) non-external __ZN8nlohmann6detail9dtoa_impl5diyfp9normalizeES2_
00007ff91f62781e (__TEXT,__text) non-external __ZN8nlohmann6detail9exceptionD0Ev
00007ff91f6277f4 (__TEXT,__text) non-external __ZN8nlohmann6detail9exceptionD1Ev
00007ff91f66d338 (__TEXT,__text) non-external __ZNK12_GLOBAL__N_113ErrorCategory4nameEv
00007ff91f66d346 (__TEXT,__text) non-external __ZNK12_GLOBAL__N_113ErrorCategory7messageEi
00007ff91f67d794 (__TEXT,__text) non-external __ZNK3adm21CustomPropertyManager20findParameterMappingERK26AudioObjectPropertyAddressN10applesauce2CF7DataRefE
00007ff91f661cdc (__TEXT,__text) non-external __ZNK3adm2vp13ErrorCategory4nameEv
00007ff91f661cea (__TEXT,__text) non-external __ZNK3adm2vp13ErrorCategory7messageEi
00007ff91f6545fa (__TEXT,__text) non-external __ZNK3adm2vp16SPIErrorCategory4nameEv
00007ff91f654608 (__TEXT,__text) non-external __ZNK3adm2vp16SPIErrorCategory7messageEi
00007ff91f6427ce (__TEXT,__text) non-external __ZNK3adm2vp22ImmutableConfigurationINS0_19UplinkConfigurationEE20getNodeConfigurationENS0_23UplinkNodeConfiguration4TypeE
00007ff91f64293a (__TEXT,__text) non-external __ZNK3adm2vp26ImmutableNodeConfigurationINS0_19UplinkConfigurationEE3hasINS0_23UplinkNodeConfiguration10OutputTypeEEEbT_
00007ff91f6428dc (__TEXT,__text) non-external __ZNK3adm2vp26ImmutableNodeConfigurationINS0_19UplinkConfigurationEE3hasINS0_23UplinkNodeConfiguration9InputTypeEEEbT_
00007ff91f642998 (__TEXT,__text) non-external __ZNK3adm2vp26ImmutableNodeConfigurationINS0_19UplinkConfigurationEE9getFormatINS0_23UplinkNodeConfiguration9InputTypeEEEPKN2CA17StreamDescriptionET_
00007ff91f6428dc (__TEXT,__text) non-external __ZNK3adm2vp26ImmutableNodeConfigurationINS0_21DownlinkConfigurationEE3hasINS0_25DownlinkNodeConfiguration9InputTypeEEEbT_
00007ff91f64236e (__TEXT,__text) non-external __ZNK3adm2vp3SPI4callIF19VoiceProcessorErrorPvPK35VoiceProcessorDownlinkConfigurationEJPS5_EEEN5caulk8expectedIvNSt3__110error_codeEEEDpOT0_
00007ff91f662cb2 (__TEXT,__text) non-external __ZNK3adm2vp5ProxyINS0_19UplinkConfigurationENS0_6detail25UplinkProxyImplementationEE16getConfigurationEv
00007ff91f661aa6 (__TEXT,__text) non-external __ZNK3adm2vp6detail19ProxyImplementationINS0_19UplinkConfigurationEE11getPropertyEjPvRm
00007ff91f661976 (__TEXT,__text) non-external __ZNK3adm2vp6detail19ProxyImplementationINS0_19UplinkConfigurationEE12getParameterEj
00007ff91f661a30 (__TEXT,__text) non-external __ZNK3adm2vp6detail19ProxyImplementationINS0_19UplinkConfigurationEE15getPropertyInfoEj
00007ff91f6622fe (__TEXT,__text) non-external __ZNK3adm2vp6detail19ProxyImplementationINS0_21DownlinkConfigurationEE11getPropertyEjPvRm
00007ff91f6621ce (__TEXT,__text) non-external __ZNK3adm2vp6detail19ProxyImplementationINS0_21DownlinkConfigurationEE12getParameterEj
00007ff91f662288 (__TEXT,__text) non-external __ZNK3adm2vp6detail19ProxyImplementationINS0_21DownlinkConfigurationEE15getPropertyInfoEj
00007ff91f662c78 (__TEXT,__text) non-external __ZNK3adm2vp9SPIClient12isConfiguredEv
00007ff91f661b7c (__TEXT,__text) non-external __ZNK3adm2vp9SPIClient4callIF19VoiceProcessorErrorPv24VoiceProcessorPropertyIDPKvjEJS5_RS7_jEEEN5caulk8expectedIvNSt3__110error_codeEEEDpOT0_
00007ff91f661e40 (__TEXT,__text) non-external __ZNK3adm2vp9SPIClient4callIF19VoiceProcessorErrorPv24VoiceProcessorPropertyIDPjS6_EJS5_S6_S6_EEEN5caulk8expectedIvNSt3__110error_codeEEEDpOT0_
00007ff91f661d10 (__TEXT,__text) non-external __ZNK3adm2vp9SPIClient4callIF19VoiceProcessorErrorPv24VoiceProcessorPropertyIDS4_PjEJS5_RS4_S6_EEEN5caulk8expectedIvNSt3__110error_codeEEEDpOT0_
00007ff91f66209a (__TEXT,__text) non-external __ZNK3adm2vp9SPIClient4callIF19VoiceProcessorErrorPv25VoiceProcessorParameterIDPfEJS5_S6_EEEN5caulk8expectedIvNSt3__110error_codeEEEDpOT0_
00007ff91f661f70 (__TEXT,__text) non-external __ZNK3adm2vp9SPIClient4callIF19VoiceProcessorErrorPv25VoiceProcessorParameterIDfEJS5_RfEEEN5caulk8expectedIvNSt3__110error_codeEEEDpOT0_
00007ff91f64f386 (__TEXT,__text) non-external __ZNK3adm3dsp19GraphMacroGeneratorclEv
00007ff91f662d8a (__TEXT,__text) non-external __ZNK3adm3dsp2v112GraphBuilder5buildERKNS0_19GraphMacroGeneratorE
00007ff91f64b302 (__TEXT,__text) non-external __ZNK3adm3dsp2v15Graph11getPropertyEjRNSt3__14spanISt4byteLm18446744073709551615EEE
00007ff91f64af4c (__TEXT,__text) non-external __ZNK3adm3dsp2v15Graph11hasPropertyEjNSt3__18optionalINS0_9DirectionEEE
00007ff91f649ad8 (__TEXT,__text) non-external __ZNK3adm3dsp2v15Graph12getBlockSizeEv
00007ff91f64a988 (__TEXT,__text) non-external __ZNK3adm3dsp2v15Graph12getParameterEj
00007ff91f64a874 (__TEXT,__text) non-external __ZNK3adm3dsp2v15Graph12hasParameterEjNSt3__18optionalINS0_9DirectionEEE
00007ff91f64ade2 (__TEXT,__text) non-external __ZNK3adm3dsp2v15Graph14getPropertyIDsENS0_9DirectionE
00007ff91f64a70a (__TEXT,__text) non-external __ZNK3adm3dsp2v15Graph15getParameterIDsENS0_9DirectionE
00007ff91f64b060 (__TEXT,__text) non-external __ZNK3adm3dsp2v15Graph15getPropertyInfoEj
00007ff91f649d02 (__TEXT,__text) non-external __ZNK3adm3dsp2v15Graph15getTerminalNameEjNS0_9DirectionE
00007ff91f649ae8 (__TEXT,__text) non-external __ZNK3adm3dsp2v15Graph16getTerminalCountENS0_9DirectionE
00007ff91f649b14 (__TEXT,__text) non-external __ZNK3adm3dsp2v15Graph17getTerminalFormatEjNS0_9DirectionE
00007ff91f649ace (__TEXT,__text) non-external __ZNK3adm3dsp2v15Graph18getBlockSizePolicyEv
00007ff91f64b778 (__TEXT,__text) non-external __ZNK3adm3dsp2v15Graph19getLatencyInSamplesEv
00007ff91f64bde0 (__TEXT,__text) non-external __ZNK3adm3dsp2v15Graph5visitERNS_5graph18ABHelperDSPVisitorE
00007ff91f627aa6 (__TEXT,__text) non-external __ZNK3adm5graph11SemanticSet8containsENS0_12SemanticTypeE
00007ff91f633002 (__TEXT,__text) non-external __ZNK3adm5graph12_GLOBAL__N_113ErrorCategory4nameEv
00007ff91f633010 (__TEXT,__text) non-external __ZNK3adm5graph12_GLOBAL__N_113ErrorCategory7messageEi
00007ff91f6493e6 (__TEXT,__text) non-external __ZNK3adm5graph13ExclaveKernel11getPropertyEjN3gsl4spanIhLln1EEERm
00007ff91f6493d6 (__TEXT,__text) non-external __ZNK3adm5graph13ExclaveKernel11hasPropertyEj
00007ff91f64934c (__TEXT,__text) non-external __ZNK3adm5graph13ExclaveKernel12getParameterEj
00007ff91f6492fc (__TEXT,__text) non-external __ZNK3adm5graph13ExclaveKernel12hasParameterEj
00007ff91f6493fa (__TEXT,__text) non-external __ZNK3adm5graph13ExclaveKernel15getPropertyInfoEj
00007ff91f649404 (__TEXT,__text) non-external __ZNK3adm5graph13ExclaveKernel15getPropertySizeEj
00007ff91f6493de (__TEXT,__text) non-external __ZNK3adm5graph13ExclaveKernel18isPropertyWritableEj
00007ff91f64940c (__TEXT,__text) non-external __ZNK3adm5graph13ExclaveKernel19getInputPropertyIDsEv
00007ff91f649336 (__TEXT,__text) non-external __ZNK3adm5graph13ExclaveKernel19isParameterWritableEj
00007ff91f649396 (__TEXT,__text) non-external __ZNK3adm5graph13ExclaveKernel20getInputParameterIDsEv
00007ff91f649424 (__TEXT,__text) non-external __ZNK3adm5graph13ExclaveKernel20getOutputPropertyIDsEv
00007ff91f6493b6 (__TEXT,__text) non-external __ZNK3adm5graph13ExclaveKernel21getOutputParameterIDsEv
00007ff91f6492b0 (__TEXT,__text) non-external __ZNK3adm5graph13ExclaveKernel23supportsClientIOHandlerEv
00007ff91f6492e2 (__TEXT,__text) non-external __ZNK3adm5graph13ExclaveKernel28supportsEndProcessingHandlerEv
00007ff91f649296 (__TEXT,__text) non-external __ZNK3adm5graph13ExclaveKernel30supportsBeginProcessingHandlerEv
00007ff91f64943c (__TEXT,__text) non-external __ZNK3adm5graph13ExclaveKernel5visitERNS0_18ABHelperDSPVisitorE
00007ff91f649212 (__TEXT,__text) non-external __ZNK3adm5graph13ExclaveKerneleqERKNS0_6KernelE
00007ff91f642fe2 (__TEXT,__text) non-external __ZNK3adm5graph14DSPGraphKernel11getPropertyEjN3gsl4spanIhLln1EEERm
00007ff91f642f8e (__TEXT,__text) non-external __ZNK3adm5graph14DSPGraphKernel11hasPropertyEj
00007ff91f642ef0 (__TEXT,__text) non-external __ZNK3adm5graph14DSPGraphKernel12getParameterEj
00007ff91f642eb8 (__TEXT,__text) non-external __ZNK3adm5graph14DSPGraphKernel12hasParameterEj
00007ff91f643060 (__TEXT,__text) non-external __ZNK3adm5graph14DSPGraphKernel15getPropertyInfoEj
00007ff91f64309c (__TEXT,__text) non-external __ZNK3adm5graph14DSPGraphKernel15getPropertySizeEj
00007ff91f642fa8 (__TEXT,__text) non-external __ZNK3adm5graph14DSPGraphKernel18isPropertyWritableEj
00007ff91f6430d4 (__TEXT,__text) non-external __ZNK3adm5graph14DSPGraphKernel19getInputPropertyIDsEv
00007ff91f642ed0 (__TEXT,__text) non-external __ZNK3adm5graph14DSPGraphKernel19isParameterWritableEj
00007ff91f642f46 (__TEXT,__text) non-external __ZNK3adm5graph14DSPGraphKernel20getInputParameterIDsEv
00007ff91f6430f6 (__TEXT,__text) non-external __ZNK3adm5graph14DSPGraphKernel20getOutputPropertyIDsEv
00007ff91f642f68 (__TEXT,__text) non-external __ZNK3adm5graph14DSPGraphKernel21getOutputParameterIDsEv
00007ff91f642e3e (__TEXT,__text) non-external __ZNK3adm5graph14DSPGraphKernel23supportsClientIOHandlerEv
00007ff91f642e46 (__TEXT,__text) non-external __ZNK3adm5graph14DSPGraphKernel25supportsGetLatencyHandlerEv
00007ff91f64311c (__TEXT,__text) non-external __ZNK3adm5graph14DSPGraphKernel5visitERNS0_18ABHelperDSPVisitorE
00007ff91f637a0a (__TEXT,__text) non-external __ZNK3adm5graph19KernelConfigurationeqERKS1_
00007ff91f62798a (__TEXT,__text) non-external __ZNK3adm5graph19SemanticSetIteratordeEv
00007ff91f65f1cc (__TEXT,__text) non-external __ZNK3adm5graph20VoiceProcessorKernel11getPropertyEjN3gsl4spanIhLln1EEERm
00007ff91f65f17e (__TEXT,__text) non-external __ZNK3adm5graph20VoiceProcessorKernel11hasPropertyEj
00007ff91f65f044 (__TEXT,__text) non-external __ZNK3adm5graph20VoiceProcessorKernel12getParameterEj
00007ff91f65f034 (__TEXT,__text) non-external __ZNK3adm5graph20VoiceProcessorKernel12hasParameterEj
00007ff91f65f30a (__TEXT,__text) non-external __ZNK3adm5graph20VoiceProcessorKernel15getPropertyInfoEj
00007ff91f65f38e (__TEXT,__text) non-external __ZNK3adm5graph20VoiceProcessorKernel15getPropertySizeEj
00007ff91f65f1b4 (__TEXT,__text) non-external __ZNK3adm5graph20VoiceProcessorKernel18isPropertyWritableEj
00007ff91f65f398 (__TEXT,__text) non-external __ZNK3adm5graph20VoiceProcessorKernel19getInputPropertyIDsEv
00007ff91f65f03c (__TEXT,__text) non-external __ZNK3adm5graph20VoiceProcessorKernel19isParameterWritableEj
00007ff91f65f14e (__TEXT,__text) non-external __ZNK3adm5graph20VoiceProcessorKernel20getInputParameterIDsEv
00007ff91f65f3b0 (__TEXT,__text) non-external __ZNK3adm5graph20VoiceProcessorKernel20getOutputPropertyIDsEv
00007ff91f65f166 (__TEXT,__text) non-external __ZNK3adm5graph20VoiceProcessorKernel21getOutputParameterIDsEv
00007ff91f65e5c4 (__TEXT,__text) non-external __ZNK3adm5graph20VoiceProcessorKernel23supportsClientIOHandlerEv
00007ff91f65f3c8 (__TEXT,__text) non-external __ZNK3adm5graph20VoiceProcessorKernel5visitERNS0_18ABHelperDSPVisitorE
00007ff91f65e5bc (__TEXT,__text) non-external __ZNK3adm5graph20VoiceProcessorKerneleqERKNS0_6KernelE
00007ff91f65f3f8 (__TEXT,__text) non-external __ZNK3adm5graph26VoiceProcessorUplinkKernel12getInterfaceEv
00007ff91f65e980 (__TEXT,__text) non-external __ZNK3adm5graph26VoiceProcessorUplinkKernel54supportsGetRequiredInputSamplesForOutputSamplesHandlerEv
00007ff91f643788 (__TEXT,__text) non-external __ZNK3adm5graph28FixedBlockSizeDSPGraphKernel16getSliceDurationEv
00007ff91f6433ec (__TEXT,__text) non-external __ZNK3adm5graph28FixedBlockSizeDSPGraphKerneleqERKNS0_6KernelE
00007ff91f65aae6 (__TEXT,__text) non-external __ZNK3adm5graph30ExclaveDSPControllerClientImpl12getParameterEj
00007ff91f65a9f6 (__TEXT,__text) non-external __ZNK3adm5graph30ExclaveDSPControllerClientImpl17hasInputParameterEj
00007ff91f65aa2a (__TEXT,__text) non-external __ZNK3adm5graph30ExclaveDSPControllerClientImpl18hasOutputParameterEj
00007ff91f65aa5e (__TEXT,__text) non-external __ZNK3adm5graph30ExclaveDSPControllerClientImpl20getInputParameterIDsEv
00007ff91f65aaa2 (__TEXT,__text) non-external __ZNK3adm5graph30ExclaveDSPControllerClientImpl21getOutputParameterIDsEv
00007ff91f64512e (__TEXT,__text) non-external __ZNK3adm5graph31VariableBlockSizeDSPGraphKernel16getSliceDurationEv
00007ff91f6450b2 (__TEXT,__text) non-external __ZNK3adm5graph31VariableBlockSizeDSPGraphKernel54supportsGetExpectedOutputSamplesForInputSamplesHandlerEv
00007ff91f64504c (__TEXT,__text) non-external __ZNK3adm5graph31VariableBlockSizeDSPGraphKernel54supportsGetRequiredInputSamplesForOutputSamplesHandlerEv
00007ff91f644968 (__TEXT,__text) non-external __ZNK3adm5graph31VariableBlockSizeDSPGraphKerneleqERKNS0_6KernelE
00007ff91f679c78 (__TEXT,__text) non-external __ZNK3adm5graph4Node13getIOFormats_ENS0_17TerminalDirectionE
00007ff91f67ac7a (__TEXT,__text) non-external __ZNK3adm5graph4Node14createHandlersEv
00007ff91f67971e (__TEXT,__text) non-external __ZNK3adm5graph4Node14getDescriptionEv
00007ff91f67947c (__TEXT,__text) non-external __ZNK3adm5graph4Node17getInputSemanticsEv
00007ff91f6795dc (__TEXT,__text) non-external __ZNK3adm5graph4Node18getOutputSemanticsEv
00007ff91f6721dc (__TEXT,__text) non-external __ZNK3adm5graph4Node22createClientIOHandler_Ev
00007ff91f6721ee (__TEXT,__text) non-external __ZNK3adm5graph4Node22createEndCycleHandler_Ev
00007ff91f6797a8 (__TEXT,__text) non-external __ZNK3adm5graph4Node23getTerminalDescriptionsEv
00007ff91f6721ca (__TEXT,__text) non-external __ZNK3adm5graph4Node24createBeginCycleHandler_Ev
00007ff91f672224 (__TEXT,__text) non-external __ZNK3adm5graph4Node24createGetLatencyHandler_Ev
00007ff91f672200 (__TEXT,__text) non-external __ZNK3adm5graph4Node27createEndProcessingHandler_Ev
00007ff91f6721a6 (__TEXT,__text) non-external __ZNK3adm5graph4Node28createRegisterClientHandler_Ev
00007ff91f6721b8 (__TEXT,__text) non-external __ZNK3adm5graph4Node29createBeginProcessingHandler_Ev
00007ff91f672212 (__TEXT,__text) non-external __ZNK3adm5graph4Node30createUnregisterClientHandler_Ev
00007ff91f672248 (__TEXT,__text) non-external __ZNK3adm5graph4Node53createGetExpectedOutputSamplesForInputSamplesHandler_Ev
00007ff91f672236 (__TEXT,__text) non-external __ZNK3adm5graph4Node53createGetRequiredInputSamplesForOutputSamplesHandler_Ev
00007ff91f655794 (__TEXT,__text) non-external __ZNK3adm5graph6Kernel23supportsClientIOHandlerEv
00007ff91f655be4 (__TEXT,__text) non-external __ZNK3adm5graph6Kernel23supportsEndCycleHandlerEv
00007ff91f655344 (__TEXT,__text) non-external __ZNK3adm5graph6Kernel25supportsBeginCycleHandlerEv
00007ff91f6568d4 (__TEXT,__text) non-external __ZNK3adm5graph6Kernel25supportsGetLatencyHandlerEv
00007ff91f656034 (__TEXT,__text) non-external __ZNK3adm5graph6Kernel28supportsEndProcessingHandlerEv
00007ff91f654aa4 (__TEXT,__text) non-external __ZNK3adm5graph6Kernel29supportsRegisterClientHandlerEv
00007ff91f654ef4 (__TEXT,__text) non-external __ZNK3adm5graph6Kernel30supportsBeginProcessingHandlerEv
00007ff91f656484 (__TEXT,__text) non-external __ZNK3adm5graph6Kernel31supportsUnregisterClientHandlerEv
00007ff91f657174 (__TEXT,__text) non-external __ZNK3adm5graph6Kernel54supportsGetExpectedOutputSamplesForInputSamplesHandlerEv
00007ff91f656d24 (__TEXT,__text) non-external __ZNK3adm5graph6Kernel54supportsGetRequiredInputSamplesForOutputSamplesHandlerEv
00007ff91f63de60 (__TEXT,__text) non-external __ZNK3adm5graph6detail18KernelPropertyTypeIN2CA13ChannelLayoutEE11getTypeInfoEv
00007ff91f63ddfc (__TEXT,__text) non-external __ZNK3adm5graph6detail18KernelPropertyTypeIN2CA13ChannelLayoutEE5getIDEv
00007ff91f63de14 (__TEXT,__text) non-external __ZNK3adm5graph6detail18KernelPropertyTypeIN2CA13ChannelLayoutEE7getDataEv
00007ff91f63de06 (__TEXT,__text) non-external __ZNK3adm5graph6detail18KernelPropertyTypeIN2CA13ChannelLayoutEE7getSizeEv
00007ff91f63de1e (__TEXT,__text) non-external __ZNK3adm5graph6detail18KernelPropertyTypeIN2CA13ChannelLayoutEE8getEntryEv
00007ff91f6725ae (__TEXT,__text) non-external __ZNK3adm5graph8HostNode22createClientIOHandler_Ev
00007ff91f672646 (__TEXT,__text) non-external __ZNK3adm5graph8HostNode22createEndCycleHandler_Ev
00007ff91f672528 (__TEXT,__text) non-external __ZNK3adm5graph8HostNode24createBeginCycleHandler_Ev
00007ff91f6727da (__TEXT,__text) non-external __ZNK3adm5graph8HostNode24createGetLatencyHandler_Ev
00007ff91f6726cc (__TEXT,__text) non-external __ZNK3adm5graph8HostNode27createEndProcessingHandler_Ev
00007ff91f67241c (__TEXT,__text) non-external __ZNK3adm5graph8HostNode28createRegisterClientHandler_Ev
00007ff91f6724a2 (__TEXT,__text) non-external __ZNK3adm5graph8HostNode29createBeginProcessingHandler_Ev
00007ff91f672752 (__TEXT,__text) non-external __ZNK3adm5graph8HostNode30createUnregisterClientHandler_Ev
00007ff91f6728a2 (__TEXT,__text) non-external __ZNK3adm5graph8HostNode53createGetExpectedOutputSamplesForInputSamplesHandler_Ev
00007ff91f67283e (__TEXT,__text) non-external __ZNK3adm5graph8HostNode53createGetRequiredInputSamplesForOutputSamplesHandler_Ev
00007ff91f626a68 (__TEXT,__text) non-external __ZNK3adm5graph8SemanticcvNSt3__112basic_stringIcNS2_11char_traitsIcEENS2_9allocatorIcEEEEEv
00007ff91f631b78 (__TEXT,__text) non-external __ZNK5boost10error_infoIN10applesauce10exceptions13tag_backtraceENS1_9backtrace10snapshot_NILi64EEEE17name_value_stringEv
00007ff91f631ef8 (__TEXT,__text) non-external __ZNK5boost10error_infoIN10applesauce10exceptions13tag_backtraceENS1_9backtrace10snapshot_NILi64EEEE5cloneEv
00007ff91f64ce9a (__TEXT,__text) non-external __ZNK5boost16exception_detail10clone_implINS0_10bad_alloc_EE5cloneEv
00007ff91f64cf84 (__TEXT,__text) non-external __ZNK5boost16exception_detail10clone_implINS0_10bad_alloc_EE7rethrowEv
00007ff91f64caec (__TEXT,__text) non-external __ZNK5boost16exception_detail10clone_implINS0_14bad_exception_EE5cloneEv
00007ff91f64cbd6 (__TEXT,__text) non-external __ZNK5boost16exception_detail10clone_implINS0_14bad_exception_EE7rethrowEv
00007ff91f630b0c (__TEXT,__text) non-external __ZNK5boost16exception_detail10clone_implINS0_19error_info_injectorINSt3__112system_errorEEEE5cloneEv
00007ff91f630c20 (__TEXT,__text) non-external __ZNK5boost16exception_detail10clone_implINS0_19error_info_injectorINSt3__112system_errorEEEE7rethrowEv
00007ff91f67a9ec (__TEXT,__text) non-external __ZNK5boost16exception_detail10clone_implINS0_19error_info_injectorISt13runtime_errorEEE5cloneEv
00007ff91f67aae6 (__TEXT,__text) non-external __ZNK5boost16exception_detail10clone_implINS0_19error_info_injectorISt13runtime_errorEEE7rethrowEv
00007ff91f630ec0 (__TEXT,__text) non-external __ZNK5boost16exception_detail25error_info_container_impl22diagnostic_informationEPKc
00007ff91f6310be (__TEXT,__text) non-external __ZNK5boost16exception_detail25error_info_container_impl3getERKNS0_10type_info_E
00007ff91f6312c8 (__TEXT,__text) non-external __ZNK5boost16exception_detail25error_info_container_impl5cloneEv
00007ff91f63126a (__TEXT,__text) non-external __ZNK5boost16exception_detail25error_info_container_impl7add_refEv
00007ff91f631274 (__TEXT,__text) non-external __ZNK5boost16exception_detail25error_info_container_impl7releaseEv
00007ff91f630914 (__TEXT,__text) non-external __ZNK5caulk19bad_expected_accessINSt3__110error_codeEE4whatEv
00007ff91f64c05a (__TEXT,__text) non-external __ZNK5caulk19bad_expected_accessIiE4whatEv
                 (undefined) external __ZNK8DSPGraph5Graph10numOutputsEv (from AudioToolboxCore)
                 (undefined) external __ZNK8DSPGraph5Graph2inEj (from AudioToolboxCore)
                 (undefined) external __ZNK8DSPGraph5Graph3outEj (from AudioToolboxCore)
                 (undefined) external __ZNK8DSPGraph5Graph9numInputsEv (from AudioToolboxCore)
                 (undefined) external __ZNK8DSPGraph9Exception5printERNSt3__113basic_ostreamIcNS1_11char_traitsIcEEEENS_11PrintDetailEj (from AudioToolboxCore)
00007ff91f626c26 (__TEXT,__text) non-external __ZNK8nlohmann10basic_jsonINSt3__13mapENS1_6vectorENS1_12basic_stringIcNS1_11char_traitsIcEENS1_9allocatorIcEEEEbxydS7_NS_14adl_serializerENS3_IhNS7_IhEEEEE16assert_invariantEv
00007ff91f62865a (__TEXT,__text) non-external __ZNK8nlohmann10basic_jsonINSt3__13mapENS1_6vectorENS1_12basic_stringIcNS1_11char_traitsIcEENS1_9allocatorIcEEEEbxydS7_NS_14adl_serializerENS3_IhNS7_IhEEEEE4dumpEicbNS_6detail15error_handler_tE
00007ff91f64dca2 (__TEXT,__text) non-external __ZNK8nlohmann6detail10to_json_fnclINS_10basic_jsonINSt3__13mapENS4_6vectorENS4_12basic_stringIcNS4_11char_traitsIcEENS4_9allocatorIcEEEEbxydSA_NS_14adl_serializerENS6_IhNSA_IhEEEEEERKN2CA17StreamDescriptionEEEDTcmcl7to_jsonfp_clsr3stdE7forwardIT0_Efp0_EEcvv_EERT_OSL_
00007ff91f62a8ba (__TEXT,__text) non-external __ZNK8nlohmann6detail8json_refINS_10basic_jsonINSt3__13mapENS3_6vectorENS3_12basic_stringIcNS3_11char_traitsIcEENS3_9allocatorIcEEEEbxydS9_NS_14adl_serializerENS5_IhNS9_IhEEEEEEE15moved_or_copiedEv
00007ff91f62785a (__TEXT,__text) non-external __ZNK8nlohmann6detail9exception4whatEv
00007ff91f63d4b8 (__TEXT,__text) non-external __ZNKRSt3__18optionalINS_12basic_stringIcNS_11char_traitsIcEENS_9allocatorIcEEEEE8value_orB8ne180100IRA1_KcEES6_OT_
00007ff91f63d4b8 (__TEXT,__text) non-external __ZNKRSt3__18optionalINS_12basic_stringIcNS_11char_traitsIcEENS_9allocatorIcEEEEE8value_orB8ne180100IRA8_KcEES6_OT_
                 (undefined) external __ZNKSt13bad_exception4whatEv (from libc++)
                 (undefined) external __ZNKSt13runtime_error4whatEv (from libc++)
00007ff91f637bcc (__TEXT,__text) non-external __ZNKSt3__110__equal_toclB8ne180100IN2CA17StreamDescriptionES3_EEbRKT_RKT0_
00007ff91f632c8a (__TEXT,__text) non-external __ZNKSt3__110__equal_toclB8ne180100IN3adm5graph19TerminalDescriptionES4_EEbRKT_RKT0_
00007ff91f62c0ea (__TEXT,__text) non-external __ZNKSt3__110__equal_toclB8ne180100INS_12basic_stringIcNS_11char_traitsIcEENS_9allocatorIcEEEES7_EEbRKT_RKT0_
00007ff91f6545ac (__TEXT,__text) non-external __ZNKSt3__110__function6__funcIPFiP7__sFILEENS_9allocatorIS5_EES4_E11target_typeEv
00007ff91f654590 (__TEXT,__text) non-external __ZNKSt3__110__function6__funcIPFiP7__sFILEENS_9allocatorIS5_EES4_E6targetERKSt9type_info
00007ff91f65455a (__TEXT,__text) non-external __ZNKSt3__110__function6__funcIPFiP7__sFILEENS_9allocatorIS5_EES4_E7__cloneEPNS0_6__baseIS4_EE
00007ff91f65452e (__TEXT,__text) non-external __ZNKSt3__110__function6__funcIPFiP7__sFILEENS_9allocatorIS5_EES4_E7__cloneEv
00007ff91f6719e2 (__TEXT,__text) non-external __ZNKSt3__110__function6__funcIZ73-[DSPProcessor initWithHostDescription:hostCallback:systemConfiguration:]E3$_1NS_9allocatorIS2_EEFvN2CA15PropertyAddressEEE11target_typeEv
00007ff91f6719c6 (__TEXT,__text) non-external __ZNKSt3__110__function6__funcIZ73-[DSPProcessor initWithHostDescription:hostCallback:systemConfiguration:]E3$_1NS_9allocatorIS2_EEFvN2CA15PropertyAddressEEE6targetERKSt9type_info
00007ff91f671924 (__TEXT,__text) non-external __ZNKSt3__110__function6__funcIZ73-[DSPProcessor initWithHostDescription:hostCallback:systemConfiguration:]E3$_1NS_9allocatorIS2_EEFvN2CA15PropertyAddressEEE7__cloneEPNS0_6__baseIS7_EE
00007ff91f6718ee (__TEXT,__text) non-external __ZNKSt3__110__function6__funcIZ73-[DSPProcessor initWithHostDescription:hostCallback:systemConfiguration:]E3$_1NS_9allocatorIS2_EEFvN2CA15PropertyAddressEEE7__cloneEv
00007ff91f67c7b4 (__TEXT,__text) non-external __ZNKSt3__110__function6__funcIZN3adm21CustomPropertyManager12attachToNodeERKNS_10shared_ptrINS2_5graph7DSPNodeEEERKNS_3setINS_12basic_stringIcNS_11char_traitsIcEENS_9allocatorIcEEEENS_4lessISG_EENSE_ISG_EEEEE3$_1NSE_ISN_EEFvjRKN4AMCP15Proc_Cycle_InfoEmPNSP_11Proc_StreamEmSU_EE11target_typeEv
00007ff91f67c798 (__TEXT,__text) non-external __ZNKSt3__110__function6__funcIZN3adm21CustomPropertyManager12attachToNodeERKNS_10shared_ptrINS2_5graph7DSPNodeEEERKNS_3setINS_12basic_stringIcNS_11char_traitsIcEENS_9allocatorIcEEEENS_4lessISG_EENSE_ISG_EEEEE3$_1NSE_ISN_EEFvjRKN4AMCP15Proc_Cycle_InfoEmPNSP_11Proc_StreamEmSU_EE6targetERKSt9type_info
00007ff91f67c67a (__TEXT,__text) non-external __ZNKSt3__110__function6__funcIZN3adm21CustomPropertyManager12attachToNodeERKNS_10shared_ptrINS2_5graph7DSPNodeEEERKNS_3setINS_12basic_stringIcNS_11char_traitsIcEENS_9allocatorIcEEEENS_4lessISG_EENSE_ISG_EEEEE3$_1NSE_ISN_EEFvjRKN4AMCP15Proc_Cycle_InfoEmPNSP_11Proc_StreamEmSU_EE7__cloneEPNS0_6__baseISV_EE
00007ff91f67c604 (__TEXT,__text) non-external __ZNKSt3__110__function6__funcIZN3adm21CustomPropertyManager12attachToNodeERKNS_10shared_ptrINS2_5graph7DSPNodeEEERKNS_3setINS_12basic_stringIcNS_11char_traitsIcEENS_9allocatorIcEEEENS_4lessISG_EENSE_ISG_EEEEE3$_1NSE_ISN_EEFvjRKN4AMCP15Proc_Cycle_InfoEmPNSP_11Proc_StreamEmSU_EE7__cloneEv
00007ff91f67c4c0 (__TEXT,__text) non-external __ZNKSt3__110__function6__funcIZN3adm21CustomPropertyManager12attachToNodeERKNS_10shared_ptrINS2_5graph7DSPNodeEEERKNS_3setINS_12basic_stringIcNS_11char_traitsIcEENS_9allocatorIcEEEENS_4lessISG_EENSE_ISG_EEEEE3$_2NSE_ISN_EEFvjRKN4AMCP15Proc_Cycle_InfoEmPNSP_11Proc_StreamEmSU_EE11target_typeEv
00007ff91f67c4a4 (__TEXT,__text) non-external __ZNKSt3__110__function6__funcIZN3adm21CustomPropertyManager12attachToNodeERKNS_10shared_ptrINS2_5graph7DSPNodeEEERKNS_3setINS_12basic_stringIcNS_11char_traitsIcEENS_9allocatorIcEEEENS_4lessISG_EENSE_ISG_EEEEE3$_2NSE_ISN_EEFvjRKN4AMCP15Proc_Cycle_InfoEmPNSP_11Proc_StreamEmSU_EE6targetERKSt9type_info
00007ff91f67c3c2 (__TEXT,__text) non-external __ZNKSt3__110__function6__funcIZN3adm21CustomPropertyManager12attachToNodeERKNS_10shared_ptrINS2_5graph7DSPNodeEEERKNS_3setINS_12basic_stringIcNS_11char_traitsIcEENS_9allocatorIcEEEENS_4lessISG_EENSE_ISG_EEEEE3$_2NSE_ISN_EEFvjRKN4AMCP15Proc_Cycle_InfoEmPNSP_11Proc_StreamEmSU_EE7__cloneEPNS0_6__baseISV_EE
00007ff91f67c378 (__TEXT,__text) non-external __ZNKSt3__110__function6__funcIZN3adm21CustomPropertyManager12attachToNodeERKNS_10shared_ptrINS2_5graph7DSPNodeEEERKNS_3setINS_12basic_stringIcNS_11char_traitsIcEENS_9allocatorIcEEEENS_4lessISG_EENSE_ISG_EEEEE3$_2NSE_ISN_EEFvjRKN4AMCP15Proc_Cycle_InfoEmPNSP_11Proc_StreamEmSU_EE7__cloneEv
00007ff91f62b876 (__TEXT,__text) non-external __ZNKSt3__110__function6__funcIZN3adm5graph11NodeManagerC1ERKNS2_19SystemConfigurationEE3$_0NS_9allocatorIS8_EEFNS_10unique_ptrINS2_2vp3SPIENS_14default_deleteISD_EEEEvEE11target_typeEv
00007ff91f62b85a (__TEXT,__text) non-external __ZNKSt3__110__function6__funcIZN3adm5graph11NodeManagerC1ERKNS2_19SystemConfigurationEE3$_0NS_9allocatorIS8_EEFNS_10unique_ptrINS2_2vp3SPIENS_14default_deleteISD_EEEEvEE6targetERKSt9type_info
00007ff91f62b330 (__TEXT,__text) non-external __ZNKSt3__110__function6__funcIZN3adm5graph11NodeManagerC1ERKNS2_19SystemConfigurationEE3$_0NS_9allocatorIS8_EEFNS_10unique_ptrINS2_2vp3SPIENS_14default_deleteISD_EEEEvEE7__cloneEPNS0_6__baseISH_EE
00007ff91f62b2e6 (__TEXT,__text) non-external __ZNKSt3__110__function6__funcIZN3adm5graph11NodeManagerC1ERKNS2_19SystemConfigurationEE3$_0NS_9allocatorIS8_EEFNS_10unique_ptrINS2_2vp3SPIENS_14default_deleteISD_EEEEvEE7__cloneEv
00007ff91f648e3a (__TEXT,__text) non-external __ZNKSt3__110__function6__funcIZN3adm5graph6detailL20createTerminalBusMapERKNS3_19KernelConfigurationERKNS2_3dsp5GraphEE3$_0NS_9allocatorISC_EEFbRKZNS4_L20createTerminalBusMapES7_SB_E19DSPGraphBusSemanticSH_EE11target_typeEv
00007ff91f648e1e (__TEXT,__text) non-external __ZNKSt3__110__function6__funcIZN3adm5graph6detailL20createTerminalBusMapERKNS3_19KernelConfigurationERKNS2_3dsp5GraphEE3$_0NS_9allocatorISC_EEFbRKZNS4_L20createTerminalBusMapES7_SB_E19DSPGraphBusSemanticSH_EE6targetERKSt9type_info
00007ff91f648de6 (__TEXT,__text) non-external __ZNKSt3__110__function6__funcIZN3adm5graph6detailL20createTerminalBusMapERKNS3_19KernelConfigurationERKNS2_3dsp5GraphEE3$_0NS_9allocatorISC_EEFbRKZNS4_L20createTerminalBusMapES7_SB_E19DSPGraphBusSemanticSH_EE7__cloneEPNS0_6__baseISI_EE
00007ff91f648dcc (__TEXT,__text) non-external __ZNKSt3__110__function6__funcIZN3adm5graph6detailL20createTerminalBusMapERKNS3_19KernelConfigurationERKNS2_3dsp5GraphEE3$_0NS_9allocatorISC_EEFbRKZNS4_L20createTerminalBusMapES7_SB_E19DSPGraphBusSemanticSH_EE7__cloneEv
00007ff91f67946e (__TEXT,__text) non-external __ZNKSt3__110__function6__funcIZNK3adm5graph8HostNode22createHandlerFunction_ILNS3_11HandlerTypeE0EEENS3_7HandlerIXT_EE8FunctionEvEUlDpOT_E_NS_9allocatorISD_EEFvjEE11target_typeEv
00007ff91f679452 (__TEXT,__text) non-external __ZNKSt3__110__function6__funcIZNK3adm5graph8HostNode22createHandlerFunction_ILNS3_11HandlerTypeE0EEENS3_7HandlerIXT_EE8FunctionEvEUlDpOT_E_NS_9allocatorISD_EEFvjEE6targetERKSt9type_info
00007ff91f678b3e (__TEXT,__text) non-external __ZNKSt3__110__function6__funcIZNK3adm5graph8HostNode22createHandlerFunction_ILNS3_11HandlerTypeE0EEENS3_7HandlerIXT_EE8FunctionEvEUlDpOT_E_NS_9allocatorISD_EEFvjEE7__cloneEPNS0_6__baseISG_EE
00007ff91f678b04 (__TEXT,__text) non-external __ZNKSt3__110__function6__funcIZNK3adm5graph8HostNode22createHandlerFunction_ILNS3_11HandlerTypeE0EEENS3_7HandlerIXT_EE8FunctionEvEUlDpOT_E_NS_9allocatorISD_EEFvjEE7__cloneEv
00007ff91f678a9c (__TEXT,__text) non-external __ZNKSt3__110__function6__funcIZNK3adm5graph8HostNode22createHandlerFunction_ILNS3_11HandlerTypeE1EEENS3_7HandlerIXT_EE8FunctionEvEUlDpOT_E_NS_9allocatorISD_EEFvjEE11target_typeEv
00007ff91f678a80 (__TEXT,__text) non-external __ZNKSt3__110__function6__funcIZNK3adm5graph8HostNode22createHandlerFunction_ILNS3_11HandlerTypeE1EEENS3_7HandlerIXT_EE8FunctionEvEUlDpOT_E_NS_9allocatorISD_EEFvjEE6targetERKSt9type_info
00007ff91f67816c (__TEXT,__text) non-external __ZNKSt3__110__function6__funcIZNK3adm5graph8HostNode22createHandlerFunction_ILNS3_11HandlerTypeE1EEENS3_7HandlerIXT_EE8FunctionEvEUlDpOT_E_NS_9allocatorISD_EEFvjEE7__cloneEPNS0_6__baseISG_EE
00007ff91f678132 (__TEXT,__text) non-external __ZNKSt3__110__function6__funcIZNK3adm5graph8HostNode22createHandlerFunction_ILNS3_11HandlerTypeE1EEENS3_7HandlerIXT_EE8FunctionEvEUlDpOT_E_NS_9allocatorISD_EEFvjEE7__cloneEv
00007ff91f6780ca (__TEXT,__text) non-external __ZNKSt3__110__function6__funcIZNK3adm5graph8HostNode22createHandlerFunction_ILNS3_11HandlerTypeE2EEENS3_7HandlerIXT_EE8FunctionEvEUlDpOT_E_NS_9allocatorISD_EEFvjRKN4AMCP15Proc_Cycle_InfoEEE11target_typeEv
00007ff91f6780ae (__TEXT,__text) non-external __ZNKSt3__110__function6__funcIZNK3adm5graph8HostNode22createHandlerFunction_ILNS3_11HandlerTypeE2EEENS3_7HandlerIXT_EE8FunctionEvEUlDpOT_E_NS_9allocatorISD_EEFvjRKN4AMCP15Proc_Cycle_InfoEEE6targetERKSt9type_info
00007ff91f67778c (__TEXT,__text) non-external __ZNKSt3__110__function6__funcIZNK3adm5graph8HostNode22createHandlerFunction_ILNS3_11HandlerTypeE2EEENS3_7HandlerIXT_EE8FunctionEvEUlDpOT_E_NS_9allocatorISD_EEFvjRKN4AMCP15Proc_Cycle_InfoEEE7__cloneEPNS0_6__baseISK_EE
00007ff91f677752 (__TEXT,__text) non-external __ZNKSt3__110__function6__funcIZNK3adm5graph8HostNode22createHandlerFunction_ILNS3_11HandlerTypeE2EEENS3_7HandlerIXT_EE8FunctionEvEUlDpOT_E_NS_9allocatorISD_EEFvjRKN4AMCP15Proc_Cycle_InfoEEE7__cloneEv
00007ff91f6776ea (__TEXT,__text) non-external __ZNKSt3__110__function6__funcIZNK3adm5graph8HostNode22createHandlerFunction_ILNS3_11HandlerTypeE3EEENS3_7HandlerIXT_EE8FunctionEvEUlDpOT_E_NS_9allocatorISD_EEFvjRKN4AMCP15Proc_Cycle_InfoEmPNSG_11Proc_StreamEmSL_EE11target_typeEv
00007ff91f6776ce (__TEXT,__text) non-external __ZNKSt3__110__function6__funcIZNK3adm5graph8HostNode22createHandlerFunction_ILNS3_11HandlerTypeE3EEENS3_7HandlerIXT_EE8FunctionEvEUlDpOT_E_NS_9allocatorISD_EEFvjRKN4AMCP15Proc_Cycle_InfoEmPNSG_11Proc_StreamEmSL_EE6targetERKSt9type_info
00007ff91f676d20 (__TEXT,__text) non-external __ZNKSt3__110__function6__funcIZNK3adm5graph8HostNode22createHandlerFunction_ILNS3_11HandlerTypeE3EEENS3_7HandlerIXT_EE8FunctionEvEUlDpOT_E_NS_9allocatorISD_EEFvjRKN4AMCP15Proc_Cycle_InfoEmPNSG_11Proc_StreamEmSL_EE7__cloneEPNS0_6__baseISM_EE
00007ff91f676ce6 (__TEXT,__text) non-external __ZNKSt3__110__function6__funcIZNK3adm5graph8HostNode22createHandlerFunction_ILNS3_11HandlerTypeE3EEENS3_7HandlerIXT_EE8FunctionEvEUlDpOT_E_NS_9allocatorISD_EEFvjRKN4AMCP15Proc_Cycle_InfoEmPNSG_11Proc_StreamEmSL_EE7__cloneEv
00007ff91f676c7e (__TEXT,__text) non-external __ZNKSt3__110__function6__funcIZNK3adm5graph8HostNode22createHandlerFunction_ILNS3_11HandlerTypeE4EEENS3_7HandlerIXT_EE8FunctionEvEUlDpOT_E_NS_9allocatorISD_EEFvjRKN4AMCP15Proc_Cycle_InfoEEE11target_typeEv
00007ff91f676c62 (__TEXT,__text) non-external __ZNKSt3__110__function6__funcIZNK3adm5graph8HostNode22createHandlerFunction_ILNS3_11HandlerTypeE4EEENS3_7HandlerIXT_EE8FunctionEvEUlDpOT_E_NS_9allocatorISD_EEFvjRKN4AMCP15Proc_Cycle_InfoEEE6targetERKSt9type_info
00007ff91f67633c (__TEXT,__text) non-external __ZNKSt3__110__function6__funcIZNK3adm5graph8HostNode22createHandlerFunction_ILNS3_11HandlerTypeE4EEENS3_7HandlerIXT_EE8FunctionEvEUlDpOT_E_NS_9allocatorISD_EEFvjRKN4AMCP15Proc_Cycle_InfoEEE7__cloneEPNS0_6__baseISK_EE
00007ff91f676302 (__TEXT,__text) non-external __ZNKSt3__110__function6__funcIZNK3adm5graph8HostNode22createHandlerFunction_ILNS3_11HandlerTypeE4EEENS3_7HandlerIXT_EE8FunctionEvEUlDpOT_E_NS_9allocatorISD_EEFvjRKN4AMCP15Proc_Cycle_InfoEEE7__cloneEv
00007ff91f67629a (__TEXT,__text) non-external __ZNKSt3__110__function6__funcIZNK3adm5graph8HostNode22createHandlerFunction_ILNS3_11HandlerTypeE5EEENS3_7HandlerIXT_EE8FunctionEvEUlDpOT_E_NS_9allocatorISD_EEFvjEE11target_typeEv
00007ff91f67627e (__TEXT,__text) non-external __ZNKSt3__110__function6__funcIZNK3adm5graph8HostNode22createHandlerFunction_ILNS3_11HandlerTypeE5EEENS3_7HandlerIXT_EE8FunctionEvEUlDpOT_E_NS_9allocatorISD_EEFvjEE6targetERKSt9type_info
00007ff91f675964 (__TEXT,__text) non-external __ZNKSt3__110__function6__funcIZNK3adm5graph8HostNode22createHandlerFunction_ILNS3_11HandlerTypeE5EEENS3_7HandlerIXT_EE8FunctionEvEUlDpOT_E_NS_9allocatorISD_EEFvjEE7__cloneEPNS0_6__baseISG_EE
00007ff91f67592a (__TEXT,__text) non-external __ZNKSt3__110__function6__funcIZNK3adm5graph8HostNode22createHandlerFunction_ILNS3_11HandlerTypeE5EEENS3_7HandlerIXT_EE8FunctionEvEUlDpOT_E_NS_9allocatorISD_EEFvjEE7__cloneEv
00007ff91f6758c2 (__TEXT,__text) non-external __ZNKSt3__110__function6__funcIZNK3adm5graph8HostNode22createHandlerFunction_ILNS3_11HandlerTypeE6EEENS3_7HandlerIXT_EE8FunctionEvEUlDpOT_E_NS_9allocatorISD_EEFvjEE11target_typeEv
00007ff91f6758a6 (__TEXT,__text) non-external __ZNKSt3__110__function6__funcIZNK3adm5graph8HostNode22createHandlerFunction_ILNS3_11HandlerTypeE6EEENS3_7HandlerIXT_EE8FunctionEvEUlDpOT_E_NS_9allocatorISD_EEFvjEE6targetERKSt9type_info
00007ff91f674f86 (__TEXT,__text) non-external __ZNKSt3__110__function6__funcIZNK3adm5graph8HostNode22createHandlerFunction_ILNS3_11HandlerTypeE6EEENS3_7HandlerIXT_EE8FunctionEvEUlDpOT_E_NS_9allocatorISD_EEFvjEE7__cloneEPNS0_6__baseISG_EE
00007ff91f674f4c (__TEXT,__text) non-external __ZNKSt3__110__function6__funcIZNK3adm5graph8HostNode22createHandlerFunction_ILNS3_11HandlerTypeE6EEENS3_7HandlerIXT_EE8FunctionEvEUlDpOT_E_NS_9allocatorISD_EEFvjEE7__cloneEv
00007ff91f674ee4 (__TEXT,__text) non-external __ZNKSt3__110__function6__funcIZNK3adm5graph8HostNode22createHandlerFunction_ILNS3_11HandlerTypeE7EEENS3_7HandlerIXT_EE8FunctionEvEUlDpOT_E_NS_9allocatorISD_EEFxvEE11target_typeEv
00007ff91f674ec8 (__TEXT,__text) non-external __ZNKSt3__110__function6__funcIZNK3adm5graph8HostNode22createHandlerFunction_ILNS3_11HandlerTypeE7EEENS3_7HandlerIXT_EE8FunctionEvEUlDpOT_E_NS_9allocatorISD_EEFxvEE6targetERKSt9type_info
00007ff91f67456c (__TEXT,__text) non-external __ZNKSt3__110__function6__funcIZNK3adm5graph8HostNode22createHandlerFunction_ILNS3_11HandlerTypeE7EEENS3_7HandlerIXT_EE8FunctionEvEUlDpOT_E_NS_9allocatorISD_EEFxvEE7__cloneEPNS0_6__baseISG_EE
00007ff91f674532 (__TEXT,__text) non-external __ZNKSt3__110__function6__funcIZNK3adm5graph8HostNode22createHandlerFunction_ILNS3_11HandlerTypeE7EEENS3_7HandlerIXT_EE8FunctionEvEUlDpOT_E_NS_9allocatorISD_EEFxvEE7__cloneEv
00007ff91f6744ca (__TEXT,__text) non-external __ZNKSt3__110__function6__funcIZNK3adm5graph8HostNode22createHandlerFunction_ILNS3_11HandlerTypeE8EEENS3_7HandlerIXT_EE8FunctionEvEUlDpOT_E_NS_9allocatorISD_EEFyyEE11target_typeEv
00007ff91f6744ae (__TEXT,__text) non-external __ZNKSt3__110__function6__funcIZNK3adm5graph8HostNode22createHandlerFunction_ILNS3_11HandlerTypeE8EEENS3_7HandlerIXT_EE8FunctionEvEUlDpOT_E_NS_9allocatorISD_EEFyyEE6targetERKSt9type_info
00007ff91f673b4c (__TEXT,__text) non-external __ZNKSt3__110__function6__funcIZNK3adm5graph8HostNode22createHandlerFunction_ILNS3_11HandlerTypeE8EEENS3_7HandlerIXT_EE8FunctionEvEUlDpOT_E_NS_9allocatorISD_EEFyyEE7__cloneEPNS0_6__baseISG_EE
00007ff91f673b12 (__TEXT,__text) non-external __ZNKSt3__110__function6__funcIZNK3adm5graph8HostNode22createHandlerFunction_ILNS3_11HandlerTypeE8EEENS3_7HandlerIXT_EE8FunctionEvEUlDpOT_E_NS_9allocatorISD_EEFyyEE7__cloneEv
00007ff91f67394e (__TEXT,__text) non-external __ZNKSt3__110__function6__funcIZNK3adm5graph8HostNode22createHandlerFunction_ILNS3_11HandlerTypeE9EEENS3_7HandlerIXT_EE8FunctionEvEUlDpOT_E_NS_9allocatorISD_EEFyyRyEE11target_typeEv
00007ff91f673932 (__TEXT,__text) non-external __ZNKSt3__110__function6__funcIZNK3adm5graph8HostNode22createHandlerFunction_ILNS3_11HandlerTypeE9EEENS3_7HandlerIXT_EE8FunctionEvEUlDpOT_E_NS_9allocatorISD_EEFyyRyEE6targetERKSt9type_info
00007ff91f672fc8 (__TEXT,__text) non-external __ZNKSt3__110__function6__funcIZNK3adm5graph8HostNode22createHandlerFunction_ILNS3_11HandlerTypeE9EEENS3_7HandlerIXT_EE8FunctionEvEUlDpOT_E_NS_9allocatorISD_EEFyyRyEE7__cloneEPNS0_6__baseISH_EE
00007ff91f672f8e (__TEXT,__text) non-external __ZNKSt3__110__function6__funcIZNK3adm5graph8HostNode22createHandlerFunction_ILNS3_11HandlerTypeE9EEENS3_7HandlerIXT_EE8FunctionEvEUlDpOT_E_NS_9allocatorISD_EEFyyRyEE7__cloneEv
                 (undefined) external __ZNKSt3__110error_code7messageEv (from libc++)
00007ff91f637344 (__TEXT,__text) non-external __ZNKSt3__111__copy_loopINS_17_ClassicAlgPolicyEEclB8ne180100IPN3adm26DSPGraphBasicConfiguration22AUPresetOverrideConfigES7_S7_EENS_4pairIT_T1_EES9_T0_SA_
00007ff91f627116 (__TEXT,__text) non-external __ZNKSt3__111__move_loopINS_17_ClassicAlgPolicyEEclB8ne180100IPN8nlohmann10basic_jsonINS_3mapENS_6vectorENS_12basic_stringIcNS_11char_traitsIcEENS_9allocatorIcEEEEbxydSB_NS4_14adl_serializerENS7_IhNSB_IhEEEEEESI_NS_20back_insert_iteratorINS7_ISH_NSB_ISH_EEEEEEEENS_4pairIT_T1_EESO_T0_SP_
00007ff91f63d590 (__TEXT,__text) non-external __ZNKSt3__112__hash_tableINS_17__hash_value_typeINS_12basic_stringIcNS_11char_traitsIcEENS_9allocatorIcEEEENS_13unordered_mapIS7_N3adm26DSPGraphBasicConfigurationENS_4hashIS7_EENS_8equal_toIS7_EENS5_INS_4pairIKS7_SA_EEEEEEEENS_22__unordered_map_hasherIS7_SK_SC_SE_Lb1EEENS_21__unordered_map_equalIS7_SK_SE_SC_Lb1EEENS5_ISK_EEE4findIS7_EENS_21__hash_const_iteratorIPNS_11__hash_nodeISK_PvEEEERKT_
00007ff91f626764 (__TEXT,__text) non-external __ZNKSt3__112basic_stringIcNS_11char_traitsIcEENS_9allocatorIcEEE20__throw_length_errorB8ne180100Ev
00007ff91f62bc48 (__TEXT,__text) non-external __ZNKSt3__113__string_hashIcNS_9allocatorIcEEEclB8ne180100ERKNS_12basic_stringIcNS_11char_traitsIcEES2_EE
00007ff91f6703ba (__TEXT,__text) non-external __ZNKSt3__114default_deleteIN3adm21CustomPropertyManagerEEclB8ne180100EPS2_
00007ff91f67042c (__TEXT,__text) non-external __ZNKSt3__114default_deleteIN3adm5graph11NodeManagerEEclB8ne180100EPS3_
00007ff91f670460 (__TEXT,__text) non-external __ZNKSt3__114default_deleteIN3adm5graph12GraphBuilderEEclB8ne180100EPS3_
00007ff91f63366a (__TEXT,__text) non-external __ZNKSt3__114default_deleteIN3adm5graph8TerminalEEclB8ne180100EPS3_
                 (undefined) external __ZNKSt3__114error_category10equivalentERKNS_10error_codeEi (from libc++)
                 (undefined) external __ZNKSt3__114error_category10equivalentEiRKNS_15error_conditionE (from libc++)
                 (undefined) external __ZNKSt3__114error_category23default_error_conditionEi (from libc++)
00007ff91f631970 (__TEXT,__text) non-external __ZNKSt3__115basic_stringbufIcNS_11char_traitsIcEENS_9allocatorIcEEE3strB8ne180100IS4_EENS_12basic_stringIcS2_T_EERKS8_
                 (undefined) external __ZNKSt3__119__shared_weak_count13__get_deleterERKSt9type_info (from libc++)
00007ff91f65e50c (__TEXT,__text) non-external __ZNKSt3__120__shared_ptr_pointerIP36audiodspcontroller_audiodspcontrol_sZN12_GLOBAL__N_115getControllerEKEyPKcE3$_0NS_9allocatorIS1_EEE13__get_deleterERKSt9type_info
00007ff91f642778 (__TEXT,__text) non-external __ZNKSt3__120__shared_ptr_pointerIPN3adm2vp3SPIENS_14default_deleteIS3_EENS_9allocatorIS3_EEE13__get_deleterERKSt9type_info
00007ff91f642638 (__TEXT,__text) non-external __ZNKSt3__120__shared_ptr_pointerIPN3adm2vp6detail25UplinkProxyImplementationEZNS3_26ProxyFactoryImplementation17doCreateProxyListINS2_19UplinkConfigurationEEEN5caulk8expectedINS6_8DispatchIT_E9ProxyListENS_10error_codeEEERKNS2_17ImmutableDispatchISC_E4TypeEEUlS5_E_NS_9allocatorIS4_EEE13__get_deleterERKSt9type_info
00007ff91f642c3e (__TEXT,__text) non-external __ZNKSt3__120__shared_ptr_pointerIPN3adm2vp6detail27DownlinkProxyImplementationEZNS3_26ProxyFactoryImplementation17doCreateProxyListINS2_21DownlinkConfigurationEEEN5caulk8expectedINS6_8DispatchIT_E9ProxyListENS_10error_codeEEERKNS2_17ImmutableDispatchISC_E4TypeEEUlS5_E_NS_9allocatorIS4_EEE13__get_deleterERKSt9type_info
00007ff91f648e9e (__TEXT,__text) non-external __ZNKSt3__120__shared_ptr_pointerIPN3adm3dsp5GraphENS_14default_deleteIS3_EENS_9allocatorIS3_EEE13__get_deleterERKSt9type_info
00007ff91f63dd62 (__TEXT,__text) non-external __ZNKSt3__120__shared_ptr_pointerIPN3adm5graph14KernelPropertyENS_14default_deleteIS3_EENS_9allocatorIS3_EEE13__get_deleterERKSt9type_info
00007ff91f67b07a (__TEXT,__text) non-external __ZNKSt3__120__shared_ptr_pointerIPN3adm5graph6KernelENS_14default_deleteIS3_EENS_9allocatorIS3_EEE13__get_deleterERKSt9type_info
00007ff91f63319e (__TEXT,__text) non-external __ZNKSt3__120__shared_ptr_pointerIPN3adm5graph7DSPNodeENS_10shared_ptrIS3_E27__shared_ptr_default_deleteIS3_S3_EENS_9allocatorIS3_EEE13__get_deleterERKSt9type_info
00007ff91f64c81a (__TEXT,__text) non-external __ZNKSt3__120__shared_ptr_pointerIPN8DSPGraph5GraphENS_14default_deleteIS2_EENS_9allocatorIS2_EEE13__get_deleterERKSt9type_info
                 (undefined) external __ZNKSt3__14__fs10filesystem4path10__filenameEv (from libc++)
                 (undefined) external __ZNKSt3__14__fs10filesystem4path16__root_directoryEv (from libc++)
                 (undefined) external __ZNKSt3__14__fs10filesystem4path9__compareENS_17basic_string_viewIcNS_11char_traitsIcEEEE (from libc++)
00007ff91f63d38a (__TEXT,__text) non-external __ZNKSt3__16__treeINS_12basic_stringIcNS_11char_traitsIcEENS_9allocatorIcEEEENS_4lessIS6_EENS4_IS6_EEE4findIS6_EENS_21__tree_const_iteratorIS6_PNS_11__tree_nodeIS6_PvEElEERKT_
                 (undefined) external __ZNKSt3__16locale9use_facetERNS0_2idE (from libc++)
00007ff91f649992 (__TEXT,__text) non-external __ZNKSt3__16vectorIN10applesauce2CF13DictionaryRefENS_9allocatorIS3_EEE20__throw_length_errorB8ne180100Ev
00007ff91f67c2fc (__TEXT,__text) non-external __ZNKSt3__16vectorIN12_GLOBAL__N_122ParameterStorageReaderENS_9allocatorIS2_EEE20__throw_length_errorB8ne180100Ev
00007ff91f64908a (__TEXT,__text) non-external __ZNKSt3__16vectorIN2CA12AudioBuffersENS_9allocatorIS2_EEE20__throw_length_errorB8ne180100Ev
00007ff91f643cc4 (__TEXT,__text) non-external __ZNKSt3__16vectorIN2CA12AudioBuffersENS_9allocatorIS2_EEE20__throw_out_of_rangeB8ne180100Ev
00007ff91f66bf52 (__TEXT,__text) non-external __ZNKSt3__16vectorIN2CA17StreamDescriptionENS_9allocatorIS2_EEE20__throw_length_errorB8ne180100Ev
00007ff91f660354 (__TEXT,__text) non-external __ZNKSt3__16vectorIN3adm13config_policy10StreamInfoENS_9allocatorIS3_EEE20__throw_length_errorB8ne180100Ev
00007ff91f66c584 (__TEXT,__text) non-external __ZNKSt3__16vectorIN3adm17DeviceDescriptionENS_9allocatorIS2_EEE20__throw_length_errorB8ne180100Ev
00007ff91f666b98 (__TEXT,__text) non-external __ZNKSt3__16vectorIN3adm19DeviceConfigurationENS_9allocatorIS2_EEE20__throw_length_errorB8ne180100Ev
00007ff91f66c6e6 (__TEXT,__text) non-external __ZNKSt3__16vectorIN3adm25HardwareStreamDescriptionENS_9allocatorIS2_EEE20__throw_length_errorB8ne180100Ev
00007ff91f62cb50 (__TEXT,__text) non-external __ZNKSt3__16vectorIN3adm26DSPGraphBasicConfiguration22AUPresetOverrideConfigENS_9allocatorIS3_EEE20__throw_length_errorB8ne180100Ev
00007ff91f642aae (__TEXT,__text) non-external __ZNKSt3__16vectorIN3adm2vp23UplinkNodeConfigurationENS_9allocatorIS3_EEE20__throw_length_errorB8ne180100Ev
00007ff91f642d2a (__TEXT,__text) non-external __ZNKSt3__16vectorIN3adm2vp25DownlinkNodeConfigurationENS_9allocatorIS3_EEE20__throw_length_errorB8ne180100Ev
00007ff91f6795be (__TEXT,__text) non-external __ZNKSt3__16vectorIN3adm5graph11SemanticSetENS_9allocatorIS3_EEE20__throw_length_errorB8ne180100Ev
00007ff91f67b0a0 (__TEXT,__text) non-external __ZNKSt3__16vectorIN3adm5graph15KernelParameterENS_9allocatorIS3_EEE20__throw_length_errorB8ne180100Ev
00007ff91f63de6e (__TEXT,__text) non-external __ZNKSt3__16vectorIN3adm5graph19TerminalDescriptionENS_9allocatorIS3_EEE20__throw_length_errorB8ne180100Ev
00007ff91f627386 (__TEXT,__text) non-external __ZNKSt3__16vectorIN8nlohmann10basic_jsonINS_3mapES0_NS_12basic_stringIcNS_11char_traitsIcEENS_9allocatorIcEEEEbxydS7_NS1_14adl_serializerENS0_IhNS7_IhEEEEEENS7_ISD_EEE20__throw_length_errorB8ne180100Ev
00007ff91f641214 (__TEXT,__text) non-external __ZNKSt3__16vectorINS_10shared_ptrIN3adm2vp6detail25UplinkProxyImplementationEEENS_9allocatorIS6_EEE20__throw_length_errorB8ne180100Ev
00007ff91f642b2c (__TEXT,__text) non-external __ZNKSt3__16vectorINS_10shared_ptrIN3adm2vp6detail27DownlinkProxyImplementationEEENS_9allocatorIS6_EEE20__throw_length_errorB8ne180100Ev
00007ff91f63dd02 (__TEXT,__text) non-external __ZNKSt3__16vectorINS_10shared_ptrIN3adm5graph14KernelPropertyEEENS_9allocatorIS5_EEE20__throw_length_errorB8ne180100Ev
00007ff91f65891e (__TEXT,__text) non-external __ZNKSt3__16vectorINS_10unique_ptrI20OpaqueAudioConverterN10applesauce4raii2v16detail23opaque_deletion_functorIPS2_XadL_Z21AudioConverterDisposeEEEEEENS_9allocatorISA_EEE20__throw_length_errorB8ne180100Ev
00007ff91f65814c (__TEXT,__text) non-external __ZNKSt3__16vectorINS_10unique_ptrI20OpaqueAudioConverterN10applesauce4raii2v16detail23opaque_deletion_functorIPS2_XadL_Z21AudioConverterDisposeEEEEEENS_9allocatorISA_EEE20__throw_out_of_rangeB8ne180100Ev
00007ff91f67a99e (__TEXT,__text) non-external __ZNKSt3__16vectorINS_10unique_ptrIN3adm5graph8TerminalENS_14default_deleteIS4_EEEENS_9allocatorIS7_EEE20__throw_length_errorB8ne180100Ev
00007ff91f653cc4 (__TEXT,__text) non-external __ZNKSt3__16vectorINS_12basic_stringIcNS_11char_traitsIcEENS_9allocatorIcEEEENS4_IS6_EEE20__throw_length_errorB8ne180100Ev
00007ff91f62ccb6 (__TEXT,__text) non-external __ZNKSt3__16vectorINS_4__fs10filesystem4pathENS_9allocatorIS3_EEE20__throw_length_errorB8ne180100Ev
00007ff91f63df30 (__TEXT,__text) non-external __ZNKSt3__16vectorINS_5tupleIJN3adm2vp23UplinkNodeConfiguration10OutputTypeEN2CA17StreamDescriptionEEEENS_9allocatorIS8_EEE20__throw_length_errorB8ne180100Ev
00007ff91f63df48 (__TEXT,__text) non-external __ZNKSt3__16vectorINS_5tupleIJN3adm2vp23UplinkNodeConfiguration9InputTypeEN2CA17StreamDescriptionEEEENS_9allocatorIS8_EEE20__throw_length_errorB8ne180100Ev
00007ff91f630a7c (__TEXT,__text) non-external __ZNKSt3__16vectorINS_5tupleIJN3adm2vp25DownlinkNodeConfiguration10OutputTypeEN2CA17StreamDescriptionEEEENS_9allocatorIS8_EEE20__throw_length_errorB8ne180100Ev
00007ff91f630a8c (__TEXT,__text) non-external __ZNKSt3__16vectorINS_5tupleIJN3adm2vp25DownlinkNodeConfiguration9InputTypeEN2CA17StreamDescriptionEEEENS_9allocatorIS8_EEE20__throw_length_errorB8ne180100Ev
00007ff91f64990e (__TEXT,__text) non-external __ZNKSt3__16vectorINS_5tupleIJNS_12basic_stringIcNS_11char_traitsIcEENS_9allocatorIcEEEENS_4__fs10filesystem4pathEEEENS5_ISB_EEE20__throw_length_errorB8ne180100Ev
00007ff91f649a1c (__TEXT,__text) non-external __ZNKSt3__16vectorINS_5tupleIJjNS0_ISt4byteNS_9allocatorIS2_EEEEEEENS3_IS6_EEE20__throw_length_errorB8ne180100Ev
00007ff91f67b3a8 (__TEXT,__text) non-external __ZNKSt3__16vectorINS_5tupleIJjNS_8functionIFvjRKN4AMCP15Proc_Cycle_InfoEmPNS3_11Proc_StreamEmS8_EEEEEENS_9allocatorISB_EEE20__throw_length_errorB8ne180100Ev
00007ff91f649a0c (__TEXT,__text) non-external __ZNKSt3__16vectorINS_5tupleIJjfEEENS_9allocatorIS2_EEE20__throw_length_errorB8ne180100Ev
00007ff91f640d66 (__TEXT,__text) non-external __ZNKSt3__16vectorINS_8weak_ptrIN3adm2vp6detail25UplinkProxyImplementationEEENS_9allocatorIS6_EEE20__throw_length_errorB8ne180100Ev
00007ff91f642b1c (__TEXT,__text) non-external __ZNKSt3__16vectorINS_8weak_ptrIN3adm2vp6detail27DownlinkProxyImplementationEEENS_9allocatorIS6_EEE20__throw_length_errorB8ne180100Ev
00007ff91f653e94 (__TEXT,__text) non-external __ZNKSt3__16vectorIPKvNS_9allocatorIS2_EEE20__throw_length_errorB8ne180100Ev
00007ff91f63201e (__TEXT,__text) non-external __ZNKSt3__16vectorIPvNS_9allocatorIS1_EEE20__throw_length_errorB8ne180100Ev
00007ff91f649a2c (__TEXT,__text) non-external __ZNKSt3__16vectorISt4byteNS_9allocatorIS1_EEE20__throw_length_errorB8ne180100Ev
00007ff91f648e48 (__TEXT,__text) non-external __ZNKSt3__16vectorIZN3adm5graph6detailL20createTerminalBusMapERKNS2_19KernelConfigurationERKNS1_3dsp5GraphEE19DSPGraphBusSemanticNS_9allocatorISB_EEE20__throw_length_errorB8ne180100Ev
00007ff91f63dd88 (__TEXT,__text) non-external __ZNKSt3__16vectorIcNS_9allocatorIcEEE20__throw_length_errorB8ne180100Ev
00007ff91f642a70 (__TEXT,__text) non-external __ZNKSt3__16vectorIfNS_9allocatorIfEEE20__throw_length_errorB8ne180100Ev
00007ff91f627eec (__TEXT,__text) non-external __ZNKSt3__16vectorIhNS_9allocatorIhEEE20__throw_length_errorB8ne180100Ev
00007ff91f642d0c (__TEXT,__text) non-external __ZNKSt3__16vectorIjNS_9allocatorIjEEE20__throw_length_errorB8ne180100Ev
00007ff91f648d56 (__TEXT,__text) non-external __ZNKSt3__16vectorImNS_9allocatorImEEE20__throw_length_errorB8ne180100Ev
00007ff91f643cb4 (__TEXT,__text) non-external __ZNKSt3__16vectorImNS_9allocatorImEEE20__throw_out_of_rangeB8ne180100Ev
00007ff91f62c0ea (__TEXT,__text) non-external __ZNKSt3__18equal_toINS_12basic_stringIcNS_11char_traitsIcEENS_9allocatorIcEEEEEclB8ne180100ERKS6_S9_
00007ff91f672eee (__TEXT,__text) non-external __ZNKSt3__18functionIFvjRKN4AMCP15Proc_Cycle_InfoEmPNS1_11Proc_StreamEmS6_EEclEjS4_mS6_mS6_
                 (undefined) external __ZNKSt3__18ios_base6getlocEv (from libc++)
                 (undefined) external __ZNKSt9bad_alloc4whatEv (from libc++)
                 (undefined) external __ZNKSt9exception4whatEv (from libc++)
                 (undefined) external __ZNSt11logic_errorC1EPKc (from libc++)
                 (undefined) external __ZNSt11logic_errorC1ERKNSt3__112basic_stringIcNS0_11char_traitsIcEENS0_9allocatorIcEEEE (from libc++)
                 (undefined) external __ZNSt11logic_errorC2EPKc (from libc++)
                 (undefined) external __ZNSt11logic_errorD1Ev (from libc++)
00007ff91f6267c0 (__TEXT,__text) non-external __ZNSt12length_errorC1B8ne180100EPKc
                 (undefined) external __ZNSt12length_errorD1Ev (from libc++)
00007ff91f627966 (__TEXT,__text) non-external __ZNSt12out_of_rangeC1B8ne180100EPKc
                 (undefined) external __ZNSt12out_of_rangeD1Ev (from libc++)
                 (undefined) external __ZNSt13bad_exceptionD2Ev (from libc++)
                 (undefined) external __ZNSt13runtime_errorC1EPKc (from libc++)
                 (undefined) external __ZNSt13runtime_errorC1ERKNSt3__112basic_stringIcNS0_11char_traitsIcEENS0_9allocatorIcEEEE (from libc++)
                 (undefined) external __ZNSt13runtime_errorC2EPKc (from libc++)
                 (undefined) external __ZNSt13runtime_errorC2ERKS_ (from libc++)
                 (undefined) external __ZNSt13runtime_errorD1Ev (from libc++)
                 (undefined) external __ZNSt13runtime_errorD2Ev (from libc++)
00007ff91f6452de (__TEXT,__text) non-external __ZNSt14overflow_errorC1B8ne180100EPKc
                 (undefined) external __ZNSt14overflow_errorD1Ev (from libc++)
                 (undefined) external __ZNSt16invalid_argumentD1Ev (from libc++)
00007ff91f6378d8 (__TEXT,__text) non-external __ZNSt18bad_variant_accessD1Ev
                 (undefined) external __ZNSt19bad_optional_accessD1Ev (from libc++)
                 (undefined) external __ZNSt20bad_array_new_lengthC1Ev (from libc++)
                 (undefined) external __ZNSt20bad_array_new_lengthD1Ev (from libc++)
00007ff91f62b884 (__TEXT,__text) non-external __ZNSt3__110__function12__alloc_funcIZN3adm5graph11NodeManagerC1ERKNS2_19SystemConfigurationEE3$_0NS_9allocatorIS8_EEFNS_10unique_ptrINS2_2vp3SPIENS_14default_deleteISD_EEEEvEE7destroyB8ne180100Ev
00007ff91f63e0b0 (__TEXT,__text) non-external __ZNSt3__110__function12__value_funcIFNS_10unique_ptrIN3adm2vp3SPIENS_14default_deleteIS5_EEEEvEEC2B8ne180100EOSA_
00007ff91f67b3b8 (__TEXT,__text) non-external __ZNSt3__110__function12__value_funcIFvN2CA15PropertyAddressEEEC2B8ne180100EOS5_
00007ff91f670aca (__TEXT,__text) non-external __ZNSt3__110__function12__value_funcIFvjEEaSB8ne180100EOS3_
00007ff91f67b35e (__TEXT,__text) non-external __ZNSt3__110__function12__value_funcIFvjRKN4AMCP15Proc_Cycle_InfoEmPNS2_11Proc_StreamEmS7_EEC2B8ne180100EOS9_
00007ff91f654578 (__TEXT,__text) non-external __ZNSt3__110__function6__funcIPFiP7__sFILEENS_9allocatorIS5_EES4_E18destroy_deallocateEv
00007ff91f654572 (__TEXT,__text) non-external __ZNSt3__110__function6__funcIPFiP7__sFILEENS_9allocatorIS5_EES4_E7destroyEv
00007ff91f65451a (__TEXT,__text) non-external __ZNSt3__110__function6__funcIPFiP7__sFILEENS_9allocatorIS5_EES4_ED0Ev
00007ff91f654514 (__TEXT,__text) non-external __ZNSt3__110__function6__funcIPFiP7__sFILEENS_9allocatorIS5_EES4_ED1Ev
00007ff91f654582 (__TEXT,__text) non-external __ZNSt3__110__function6__funcIPFiP7__sFILEENS_9allocatorIS5_EES4_EclEOS3_
00007ff91f671952 (__TEXT,__text) non-external __ZNSt3__110__function6__funcIZ73-[DSPProcessor initWithHostDescription:hostCallback:systemConfiguration:]E3$_1NS_9allocatorIS2_EEFvN2CA15PropertyAddressEEE18destroy_deallocateEv
00007ff91f671944 (__TEXT,__text) non-external __ZNSt3__110__function6__funcIZ73-[DSPProcessor initWithHostDescription:hostCallback:systemConfiguration:]E3$_1NS_9allocatorIS2_EEFvN2CA15PropertyAddressEEE7destroyEv
00007ff91f6718c4 (__TEXT,__text) non-external __ZNSt3__110__function6__funcIZ73-[DSPProcessor initWithHostDescription:hostCallback:systemConfiguration:]E3$_1NS_9allocatorIS2_EEFvN2CA15PropertyAddressEEED0Ev
00007ff91f6718b6 (__TEXT,__text) non-external __ZNSt3__110__function6__funcIZ73-[DSPProcessor initWithHostDescription:hostCallback:systemConfiguration:]E3$_1NS_9allocatorIS2_EEFvN2CA15PropertyAddressEEED1Ev
00007ff91f671972 (__TEXT,__text) non-external __ZNSt3__110__function6__funcIZ73-[DSPProcessor initWithHostDescription:hostCallback:systemConfiguration:]E3$_1NS_9allocatorIS2_EEFvN2CA15PropertyAddressEEEclEOS6_
00007ff91f67c6ec (__TEXT,__text) non-external __ZNSt3__110__function6__funcIZN3adm21CustomPropertyManager12attachToNodeERKNS_10shared_ptrINS2_5graph7DSPNodeEEERKNS_3setINS_12basic_stringIcNS_11char_traitsIcEENS_9allocatorIcEEEENS_4lessISG_EENSE_ISG_EEEEE3$_1NSE_ISN_EEFvjRKN4AMCP15Proc_Cycle_InfoEmPNSP_11Proc_StreamEmSU_EE18destroy_deallocateEv
00007ff91f67c6d0 (__TEXT,__text) non-external __ZNSt3__110__function6__funcIZN3adm21CustomPropertyManager12attachToNodeERKNS_10shared_ptrINS2_5graph7DSPNodeEEERKNS_3setINS_12basic_stringIcNS_11char_traitsIcEENS_9allocatorIcEEEENS_4lessISG_EENSE_ISG_EEEEE3$_1NSE_ISN_EEFvjRKN4AMCP15Proc_Cycle_InfoEmPNSP_11Proc_StreamEmSU_EE7destroyEv
00007ff91f67c5c6 (__TEXT,__text) non-external __ZNSt3__110__function6__funcIZN3adm21CustomPropertyManager12attachToNodeERKNS_10shared_ptrINS2_5graph7DSPNodeEEERKNS_3setINS_12basic_stringIcNS_11char_traitsIcEENS_9allocatorIcEEEENS_4lessISG_EENSE_ISG_EEEEE3$_1NSE_ISN_EEFvjRKN4AMCP15Proc_Cycle_InfoEmPNSP_11Proc_StreamEmSU_EED0Ev
00007ff91f67c5a0 (__TEXT,__text) non-external __ZNSt3__110__function6__funcIZN3adm21CustomPropertyManager12attachToNodeERKNS_10shared_ptrINS2_5graph7DSPNodeEEERKNS_3setINS_12basic_stringIcNS_11char_traitsIcEENS_9allocatorIcEEEENS_4lessISG_EENSE_ISG_EEEEE3$_1NSE_ISN_EEFvjRKN4AMCP15Proc_Cycle_InfoEmPNSP_11Proc_StreamEmSU_EED1Ev
00007ff91f67c716 (__TEXT,__text) non-external __ZNSt3__110__function6__funcIZN3adm21CustomPropertyManager12attachToNodeERKNS_10shared_ptrINS2_5graph7DSPNodeEEERKNS_3setINS_12basic_stringIcNS_11char_traitsIcEENS_9allocatorIcEEEENS_4lessISG_EENSE_ISG_EEEEE3$_1NSE_ISN_EEFvjRKN4AMCP15Proc_Cycle_InfoEmPNSP_11Proc_StreamEmSU_EEclEOjSS_OmOSU_SY_SZ_
00007ff91f67c3fe (__TEXT,__text) non-external __ZNSt3__110__function6__funcIZN3adm21CustomPropertyManager12attachToNodeERKNS_10shared_ptrINS2_5graph7DSPNodeEEERKNS_3setINS_12basic_stringIcNS_11char_traitsIcEENS_9allocatorIcEEEENS_4lessISG_EENSE_ISG_EEEEE3$_2NSE_ISN_EEFvjRKN4AMCP15Proc_Cycle_InfoEmPNSP_11Proc_StreamEmSU_EE18destroy_deallocateEv
00007ff91f67c3e2 (__TEXT,__text) non-external __ZNSt3__110__function6__funcIZN3adm21CustomPropertyManager12attachToNodeERKNS_10shared_ptrINS2_5graph7DSPNodeEEERKNS_3setINS_12basic_stringIcNS_11char_traitsIcEENS_9allocatorIcEEEENS_4lessISG_EENSE_ISG_EEEEE3$_2NSE_ISN_EEFvjRKN4AMCP15Proc_Cycle_InfoEmPNSP_11Proc_StreamEmSU_EE7destroyEv
00007ff91f67c33a (__TEXT,__text) non-external __ZNSt3__110__function6__funcIZN3adm21CustomPropertyManager12attachToNodeERKNS_10shared_ptrINS2_5graph7DSPNodeEEERKNS_3setINS_12basic_stringIcNS_11char_traitsIcEENS_9allocatorIcEEEENS_4lessISG_EENSE_ISG_EEEEE3$_2NSE_ISN_EEFvjRKN4AMCP15Proc_Cycle_InfoEmPNSP_11Proc_StreamEmSU_EED0Ev
00007ff91f67c314 (__TEXT,__text) non-external __ZNSt3__110__function6__funcIZN3adm21CustomPropertyManager12attachToNodeERKNS_10shared_ptrINS2_5graph7DSPNodeEEERKNS_3setINS_12basic_stringIcNS_11char_traitsIcEENS_9allocatorIcEEEENS_4lessISG_EENSE_ISG_EEEEE3$_2NSE_ISN_EEFvjRKN4AMCP15Proc_Cycle_InfoEmPNSP_11Proc_StreamEmSU_EED1Ev
00007ff91f67c428 (__TEXT,__text) non-external __ZNSt3__110__function6__funcIZN3adm21CustomPropertyManager12attachToNodeERKNS_10shared_ptrINS2_5graph7DSPNodeEEERKNS_3setINS_12basic_stringIcNS_11char_traitsIcEENS_9allocatorIcEEEENS_4lessISG_EENSE_ISG_EEEEE3$_2NSE_ISN_EEFvjRKN4AMCP15Proc_Cycle_InfoEmPNSP_11Proc_StreamEmSU_EEclEOjSS_OmOSU_SY_SZ_
00007ff91f62b35e (__TEXT,__text) non-external __ZNSt3__110__function6__funcIZN3adm5graph11NodeManagerC1ERKNS2_19SystemConfigurationEE3$_0NS_9allocatorIS8_EEFNS_10unique_ptrINS2_2vp3SPIENS_14default_deleteISD_EEEEvEE18destroy_deallocateEv
00007ff91f62b350 (__TEXT,__text) non-external __ZNSt3__110__function6__funcIZN3adm5graph11NodeManagerC1ERKNS2_19SystemConfigurationEE3$_0NS_9allocatorIS8_EEFNS_10unique_ptrINS2_2vp3SPIENS_14default_deleteISD_EEEEvEE7destroyEv
00007ff91f62b286 (__TEXT,__text) non-external __ZNSt3__110__function6__funcIZN3adm5graph11NodeManagerC1ERKNS2_19SystemConfigurationEE3$_0NS_9allocatorIS8_EEFNS_10unique_ptrINS2_2vp3SPIENS_14default_deleteISD_EEEEvEED0Ev
00007ff91f62b234 (__TEXT,__text) non-external __ZNSt3__110__function6__funcIZN3adm5graph11NodeManagerC1ERKNS2_19SystemConfigurationEE3$_0NS_9allocatorIS8_EEFNS_10unique_ptrINS2_2vp3SPIENS_14default_deleteISD_EEEEvEED1Ev
00007ff91f62b37e (__TEXT,__text) non-external __ZNSt3__110__function6__funcIZN3adm5graph11NodeManagerC1ERKNS2_19SystemConfigurationEE3$_0NS_9allocatorIS8_EEFNS_10unique_ptrINS2_2vp3SPIENS_14default_deleteISD_EEEEvEEclEv
00007ff91f648dfc (__TEXT,__text) non-external __ZNSt3__110__function6__funcIZN3adm5graph6detailL20createTerminalBusMapERKNS3_19KernelConfigurationERKNS2_3dsp5GraphEE3$_0NS_9allocatorISC_EEFbRKZNS4_L20createTerminalBusMapES7_SB_E19DSPGraphBusSemanticSH_EE18destroy_deallocateEv
00007ff91f648df6 (__TEXT,__text) non-external __ZNSt3__110__function6__funcIZN3adm5graph6detailL20createTerminalBusMapERKNS3_19KernelConfigurationERKNS2_3dsp5GraphEE3$_0NS_9allocatorISC_EEFbRKZNS4_L20createTerminalBusMapES7_SB_E19DSPGraphBusSemanticSH_EE7destroyEv
00007ff91f648db8 (__TEXT,__text) non-external __ZNSt3__110__function6__funcIZN3adm5graph6detailL20createTerminalBusMapERKNS3_19KernelConfigurationERKNS2_3dsp5GraphEE3$_0NS_9allocatorISC_EEFbRKZNS4_L20createTerminalBusMapES7_SB_E19DSPGraphBusSemanticSH_EED0Ev
00007ff91f648db2 (__TEXT,__text) non-external __ZNSt3__110__function6__funcIZN3adm5graph6detailL20createTerminalBusMapERKNS3_19KernelConfigurationERKNS2_3dsp5GraphEE3$_0NS_9allocatorISC_EEFbRKZNS4_L20createTerminalBusMapES7_SB_E19DSPGraphBusSemanticSH_EED1Ev
00007ff91f648e06 (__TEXT,__text) non-external __ZNSt3__110__function6__funcIZN3adm5graph6detailL20createTerminalBusMapERKNS3_19KernelConfigurationERKNS2_3dsp5GraphEE3$_0NS_9allocatorISC_EEFbRKZNS4_L20createTerminalBusMapES7_SB_E19DSPGraphBusSemanticSH_EEclESH_SH_
00007ff91f678b7a (__TEXT,__text) non-external __ZNSt3__110__function6__funcIZNK3adm5graph8HostNode22createHandlerFunction_ILNS3_11HandlerTypeE0EEENS3_7HandlerIXT_EE8FunctionEvEUlDpOT_E_NS_9allocatorISD_EEFvjEE18destroy_deallocateEv
00007ff91f678b64 (__TEXT,__text) non-external __ZNSt3__110__function6__funcIZNK3adm5graph8HostNode22createHandlerFunction_ILNS3_11HandlerTypeE0EEENS3_7HandlerIXT_EE8FunctionEvEUlDpOT_E_NS_9allocatorISD_EEFvjEE7destroyEv
00007ff91f678aca (__TEXT,__text) non-external __ZNSt3__110__function6__funcIZNK3adm5graph8HostNode22createHandlerFunction_ILNS3_11HandlerTypeE0EEENS3_7HandlerIXT_EE8FunctionEvEUlDpOT_E_NS_9allocatorISD_EEFvjEED0Ev
00007ff91f678aaa (__TEXT,__text) non-external __ZNSt3__110__function6__funcIZNK3adm5graph8HostNode22createHandlerFunction_ILNS3_11HandlerTypeE0EEENS3_7HandlerIXT_EE8FunctionEvEUlDpOT_E_NS_9allocatorISD_EEFvjEED1Ev
00007ff91f678ba0 (__TEXT,__text) non-external __ZNSt3__110__function6__funcIZNK3adm5graph8HostNode22createHandlerFunction_ILNS3_11HandlerTypeE0EEENS3_7HandlerIXT_EE8FunctionEvEUlDpOT_E_NS_9allocatorISD_EEFvjEEclEOj
00007ff91f6781a8 (__TEXT,__text) non-external __ZNSt3__110__function6__funcIZNK3adm5graph8HostNode22createHandlerFunction_ILNS3_11HandlerTypeE1EEENS3_7HandlerIXT_EE8FunctionEvEUlDpOT_E_NS_9allocatorISD_EEFvjEE18destroy_deallocateEv
00007ff91f678192 (__TEXT,__text) non-external __ZNSt3__110__function6__funcIZNK3adm5graph8HostNode22createHandlerFunction_ILNS3_11HandlerTypeE1EEENS3_7HandlerIXT_EE8FunctionEvEUlDpOT_E_NS_9allocatorISD_EEFvjEE7destroyEv
00007ff91f6780f8 (__TEXT,__text) non-external __ZNSt3__110__function6__funcIZNK3adm5graph8HostNode22createHandlerFunction_ILNS3_11HandlerTypeE1EEENS3_7HandlerIXT_EE8FunctionEvEUlDpOT_E_NS_9allocatorISD_EEFvjEED0Ev
00007ff91f6780d8 (__TEXT,__text) non-external __ZNSt3__110__function6__funcIZNK3adm5graph8HostNode22createHandlerFunction_ILNS3_11HandlerTypeE1EEENS3_7HandlerIXT_EE8FunctionEvEUlDpOT_E_NS_9allocatorISD_EEFvjEED1Ev
00007ff91f6781ce (__TEXT,__text) non-external __ZNSt3__110__function6__funcIZNK3adm5graph8HostNode22createHandlerFunction_ILNS3_11HandlerTypeE1EEENS3_7HandlerIXT_EE8FunctionEvEUlDpOT_E_NS_9allocatorISD_EEFvjEEclEOj
00007ff91f6777c8 (__TEXT,__text) non-external __ZNSt3__110__function6__funcIZNK3adm5graph8HostNode22createHandlerFunction_ILNS3_11HandlerTypeE2EEENS3_7HandlerIXT_EE8FunctionEvEUlDpOT_E_NS_9allocatorISD_EEFvjRKN4AMCP15Proc_Cycle_InfoEEE18destroy_deallocateEv
00007ff91f6777b2 (__TEXT,__text) non-external __ZNSt3__110__function6__funcIZNK3adm5graph8HostNode22createHandlerFunction_ILNS3_11HandlerTypeE2EEENS3_7HandlerIXT_EE8FunctionEvEUlDpOT_E_NS_9allocatorISD_EEFvjRKN4AMCP15Proc_Cycle_InfoEEE7destroyEv
00007ff91f677718 (__TEXT,__text) non-external __ZNSt3__110__function6__funcIZNK3adm5graph8HostNode22createHandlerFunction_ILNS3_11HandlerTypeE2EEENS3_7HandlerIXT_EE8FunctionEvEUlDpOT_E_NS_9allocatorISD_EEFvjRKN4AMCP15Proc_Cycle_InfoEEED0Ev
00007ff91f6776f8 (__TEXT,__text) non-external __ZNSt3__110__function6__funcIZNK3adm5graph8HostNode22createHandlerFunction_ILNS3_11HandlerTypeE2EEENS3_7HandlerIXT_EE8FunctionEvEUlDpOT_E_NS_9allocatorISD_EEFvjRKN4AMCP15Proc_Cycle_InfoEEED1Ev
00007ff91f6777ee (__TEXT,__text) non-external __ZNSt3__110__function6__funcIZNK3adm5graph8HostNode22createHandlerFunction_ILNS3_11HandlerTypeE2EEENS3_7HandlerIXT_EE8FunctionEvEUlDpOT_E_NS_9allocatorISD_EEFvjRKN4AMCP15Proc_Cycle_InfoEEEclEOjSJ_
00007ff91f676d5c (__TEXT,__text) non-external __ZNSt3__110__function6__funcIZNK3adm5graph8HostNode22createHandlerFunction_ILNS3_11HandlerTypeE3EEENS3_7HandlerIXT_EE8FunctionEvEUlDpOT_E_NS_9allocatorISD_EEFvjRKN4AMCP15Proc_Cycle_InfoEmPNSG_11Proc_StreamEmSL_EE18destroy_deallocateEv
00007ff91f676d46 (__TEXT,__text) non-external __ZNSt3__110__function6__funcIZNK3adm5graph8HostNode22createHandlerFunction_ILNS3_11HandlerTypeE3EEENS3_7HandlerIXT_EE8FunctionEvEUlDpOT_E_NS_9allocatorISD_EEFvjRKN4AMCP15Proc_Cycle_InfoEmPNSG_11Proc_StreamEmSL_EE7destroyEv
00007ff91f676cac (__TEXT,__text) non-external __ZNSt3__110__function6__funcIZNK3adm5graph8HostNode22createHandlerFunction_ILNS3_11HandlerTypeE3EEENS3_7HandlerIXT_EE8FunctionEvEUlDpOT_E_NS_9allocatorISD_EEFvjRKN4AMCP15Proc_Cycle_InfoEmPNSG_11Proc_StreamEmSL_EED0Ev
00007ff91f676c8c (__TEXT,__text) non-external __ZNSt3__110__function6__funcIZNK3adm5graph8HostNode22createHandlerFunction_ILNS3_11HandlerTypeE3EEENS3_7HandlerIXT_EE8FunctionEvEUlDpOT_E_NS_9allocatorISD_EEFvjRKN4AMCP15Proc_Cycle_InfoEmPNSG_11Proc_StreamEmSL_EED1Ev
00007ff91f676d82 (__TEXT,__text) non-external __ZNSt3__110__function6__funcIZNK3adm5graph8HostNode22createHandlerFunction_ILNS3_11HandlerTypeE3EEENS3_7HandlerIXT_EE8FunctionEvEUlDpOT_E_NS_9allocatorISD_EEFvjRKN4AMCP15Proc_Cycle_InfoEmPNSG_11Proc_StreamEmSL_EEclEOjSJ_OmOSL_SP_SQ_
00007ff91f676378 (__TEXT,__text) non-external __ZNSt3__110__function6__funcIZNK3adm5graph8HostNode22createHandlerFunction_ILNS3_11HandlerTypeE4EEENS3_7HandlerIXT_EE8FunctionEvEUlDpOT_E_NS_9allocatorISD_EEFvjRKN4AMCP15Proc_Cycle_InfoEEE18destroy_deallocateEv
00007ff91f676362 (__TEXT,__text) non-external __ZNSt3__110__function6__funcIZNK3adm5graph8HostNode22createHandlerFunction_ILNS3_11HandlerTypeE4EEENS3_7HandlerIXT_EE8FunctionEvEUlDpOT_E_NS_9allocatorISD_EEFvjRKN4AMCP15Proc_Cycle_InfoEEE7destroyEv
00007ff91f6762c8 (__TEXT,__text) non-external __ZNSt3__110__function6__funcIZNK3adm5graph8HostNode22createHandlerFunction_ILNS3_11HandlerTypeE4EEENS3_7HandlerIXT_EE8FunctionEvEUlDpOT_E_NS_9allocatorISD_EEFvjRKN4AMCP15Proc_Cycle_InfoEEED0Ev
00007ff91f6762a8 (__TEXT,__text) non-external __ZNSt3__110__function6__funcIZNK3adm5graph8HostNode22createHandlerFunction_ILNS3_11HandlerTypeE4EEENS3_7HandlerIXT_EE8FunctionEvEUlDpOT_E_NS_9allocatorISD_EEFvjRKN4AMCP15Proc_Cycle_InfoEEED1Ev
00007ff91f67639e (__TEXT,__text) non-external __ZNSt3__110__function6__funcIZNK3adm5graph8HostNode22createHandlerFunction_ILNS3_11HandlerTypeE4EEENS3_7HandlerIXT_EE8FunctionEvEUlDpOT_E_NS_9allocatorISD_EEFvjRKN4AMCP15Proc_Cycle_InfoEEEclEOjSJ_
00007ff91f6759a0 (__TEXT,__text) non-external __ZNSt3__110__function6__funcIZNK3adm5graph8HostNode22createHandlerFunction_ILNS3_11HandlerTypeE5EEENS3_7HandlerIXT_EE8FunctionEvEUlDpOT_E_NS_9allocatorISD_EEFvjEE18destroy_deallocateEv
00007ff91f67598a (__TEXT,__text) non-external __ZNSt3__110__function6__funcIZNK3adm5graph8HostNode22createHandlerFunction_ILNS3_11HandlerTypeE5EEENS3_7HandlerIXT_EE8FunctionEvEUlDpOT_E_NS_9allocatorISD_EEFvjEE7destroyEv
00007ff91f6758f0 (__TEXT,__text) non-external __ZNSt3__110__function6__funcIZNK3adm5graph8HostNode22createHandlerFunction_ILNS3_11HandlerTypeE5EEENS3_7HandlerIXT_EE8FunctionEvEUlDpOT_E_NS_9allocatorISD_EEFvjEED0Ev
00007ff91f6758d0 (__TEXT,__text) non-external __ZNSt3__110__function6__funcIZNK3adm5graph8HostNode22createHandlerFunction_ILNS3_11HandlerTypeE5EEENS3_7HandlerIXT_EE8FunctionEvEUlDpOT_E_NS_9allocatorISD_EEFvjEED1Ev
00007ff91f6759c6 (__TEXT,__text) non-external __ZNSt3__110__function6__funcIZNK3adm5graph8HostNode22createHandlerFunction_ILNS3_11HandlerTypeE5EEENS3_7HandlerIXT_EE8FunctionEvEUlDpOT_E_NS_9allocatorISD_EEFvjEEclEOj
00007ff91f674fc2 (__TEXT,__text) non-external __ZNSt3__110__function6__funcIZNK3adm5graph8HostNode22createHandlerFunction_ILNS3_11HandlerTypeE6EEENS3_7HandlerIXT_EE8FunctionEvEUlDpOT_E_NS_9allocatorISD_EEFvjEE18destroy_deallocateEv
00007ff91f674fac (__TEXT,__text) non-external __ZNSt3__110__function6__funcIZNK3adm5graph8HostNode22createHandlerFunction_ILNS3_11HandlerTypeE6EEENS3_7HandlerIXT_EE8FunctionEvEUlDpOT_E_NS_9allocatorISD_EEFvjEE7destroyEv
00007ff91f674f12 (__TEXT,__text) non-external __ZNSt3__110__function6__funcIZNK3adm5graph8HostNode22createHandlerFunction_ILNS3_11HandlerTypeE6EEENS3_7HandlerIXT_EE8FunctionEvEUlDpOT_E_NS_9allocatorISD_EEFvjEED0Ev
00007ff91f674ef2 (__TEXT,__text) non-external __ZNSt3__110__function6__funcIZNK3adm5graph8HostNode22createHandlerFunction_ILNS3_11HandlerTypeE6EEENS3_7HandlerIXT_EE8FunctionEvEUlDpOT_E_NS_9allocatorISD_EEFvjEED1Ev
00007ff91f674fe8 (__TEXT,__text) non-external __ZNSt3__110__function6__funcIZNK3adm5graph8HostNode22createHandlerFunction_ILNS3_11HandlerTypeE6EEENS3_7HandlerIXT_EE8FunctionEvEUlDpOT_E_NS_9allocatorISD_EEFvjEEclEOj
00007ff91f6745a8 (__TEXT,__text) non-external __ZNSt3__110__function6__funcIZNK3adm5graph8HostNode22createHandlerFunction_ILNS3_11HandlerTypeE7EEENS3_7HandlerIXT_EE8FunctionEvEUlDpOT_E_NS_9allocatorISD_EEFxvEE18destroy_deallocateEv
00007ff91f674592 (__TEXT,__text) non-external __ZNSt3__110__function6__funcIZNK3adm5graph8HostNode22createHandlerFunction_ILNS3_11HandlerTypeE7EEENS3_7HandlerIXT_EE8FunctionEvEUlDpOT_E_NS_9allocatorISD_EEFxvEE7destroyEv
00007ff91f6744f8 (__TEXT,__text) non-external __ZNSt3__110__function6__funcIZNK3adm5graph8HostNode22createHandlerFunction_ILNS3_11HandlerTypeE7EEENS3_7HandlerIXT_EE8FunctionEvEUlDpOT_E_NS_9allocatorISD_EEFxvEED0Ev
00007ff91f6744d8 (__TEXT,__text) non-external __ZNSt3__110__function6__funcIZNK3adm5graph8HostNode22createHandlerFunction_ILNS3_11HandlerTypeE7EEENS3_7HandlerIXT_EE8FunctionEvEUlDpOT_E_NS_9allocatorISD_EEFxvEED1Ev
00007ff91f6745ce (__TEXT,__text) non-external __ZNSt3__110__function6__funcIZNK3adm5graph8HostNode22createHandlerFunction_ILNS3_11HandlerTypeE7EEENS3_7HandlerIXT_EE8FunctionEvEUlDpOT_E_NS_9allocatorISD_EEFxvEEclEv
00007ff91f673b88 (__TEXT,__text) non-external __ZNSt3__110__function6__funcIZNK3adm5graph8HostNode22createHandlerFunction_ILNS3_11HandlerTypeE8EEENS3_7HandlerIXT_EE8FunctionEvEUlDpOT_E_NS_9allocatorISD_EEFyyEE18destroy_deallocateEv
00007ff91f673b72 (__TEXT,__text) non-external __ZNSt3__110__function6__funcIZNK3adm5graph8HostNode22createHandlerFunction_ILNS3_11HandlerTypeE8EEENS3_7HandlerIXT_EE8FunctionEvEUlDpOT_E_NS_9allocatorISD_EEFyyEE7destroyEv
00007ff91f673ad8 (__TEXT,__text) non-external __ZNSt3__110__function6__funcIZNK3adm5graph8HostNode22createHandlerFunction_ILNS3_11HandlerTypeE8EEENS3_7HandlerIXT_EE8FunctionEvEUlDpOT_E_NS_9allocatorISD_EEFyyEED0Ev
00007ff91f673ab8 (__TEXT,__text) non-external __ZNSt3__110__function6__funcIZNK3adm5graph8HostNode22createHandlerFunction_ILNS3_11HandlerTypeE8EEENS3_7HandlerIXT_EE8FunctionEvEUlDpOT_E_NS_9allocatorISD_EEFyyEED1Ev
00007ff91f673bae (__TEXT,__text) non-external __ZNSt3__110__function6__funcIZNK3adm5graph8HostNode22createHandlerFunction_ILNS3_11HandlerTypeE8EEENS3_7HandlerIXT_EE8FunctionEvEUlDpOT_E_NS_9allocatorISD_EEFyyEEclEOy
00007ff91f673004 (__TEXT,__text) non-external __ZNSt3__110__function6__funcIZNK3adm5graph8HostNode22createHandlerFunction_ILNS3_11HandlerTypeE9EEENS3_7HandlerIXT_EE8FunctionEvEUlDpOT_E_NS_9allocatorISD_EEFyyRyEE18destroy_deallocateEv
00007ff91f672fee (__TEXT,__text) non-external __ZNSt3__110__function6__funcIZNK3adm5graph8HostNode22createHandlerFunction_ILNS3_11HandlerTypeE9EEENS3_7HandlerIXT_EE8FunctionEvEUlDpOT_E_NS_9allocatorISD_EEFyyRyEE7destroyEv
00007ff91f672f54 (__TEXT,__text) non-external __ZNSt3__110__function6__funcIZNK3adm5graph8HostNode22createHandlerFunction_ILNS3_11HandlerTypeE9EEENS3_7HandlerIXT_EE8FunctionEvEUlDpOT_E_NS_9allocatorISD_EEFyyRyEED0Ev
00007ff91f672f34 (__TEXT,__text) non-external __ZNSt3__110__function6__funcIZNK3adm5graph8HostNode22createHandlerFunction_ILNS3_11HandlerTypeE9EEENS3_7HandlerIXT_EE8FunctionEvEUlDpOT_E_NS_9allocatorISD_EEFyyRyEED1Ev
00007ff91f67302a (__TEXT,__text) non-external __ZNSt3__110__function6__funcIZNK3adm5graph8HostNode22createHandlerFunction_ILNS3_11HandlerTypeE9EEENS3_7HandlerIXT_EE8FunctionEvEUlDpOT_E_NS_9allocatorISD_EEFyyRyEEclEOySG_
00007ff91f640958 (__TEXT,__text) non-external __ZNSt3__110__list_impIN3adm2vp5ProxyINS2_19UplinkConfigurationENS2_6detail25UplinkProxyImplementationEEENS_9allocatorIS7_EEE5clearEv
00007ff91f640958 (__TEXT,__text) non-external __ZNSt3__110__list_impIN3adm2vp5ProxyINS2_21DownlinkConfigurationENS2_6detail27DownlinkProxyImplementationEEENS_9allocatorIS7_EEE5clearEv
00007ff91f63e260 (__TEXT,__text) non-external __ZNSt3__110__list_impIN3adm2vp6detail26ProxyFactoryImplementation7ContextINS2_19UplinkConfigurationEEENS_9allocatorIS7_EEE13__delete_nodeB8ne180100IJEEEvPNS_11__list_nodeIS7_PvEE
00007ff91f63e260 (__TEXT,__text) non-external __ZNSt3__110__list_impIN3adm2vp6detail26ProxyFactoryImplementation7ContextINS2_21DownlinkConfigurationEEENS_9allocatorIS7_EEE13__delete_nodeB8ne180100IJEEEvPNS_11__list_nodeIS7_PvEE
00007ff91f629f18 (__TEXT,__text) non-external __ZNSt3__110shared_ptrI36audiodspcontroller_audiodspcontrol_sED2B8ne180100Ev
00007ff91f629f18 (__TEXT,__text) non-external __ZNSt3__110shared_ptrIN3adm2vp19UplinkConfigurationEED2B8ne180100Ev
00007ff91f629f18 (__TEXT,__text) non-external __ZNSt3__110shared_ptrIN3adm2vp21DownlinkConfigurationEED2B8ne180100Ev
00007ff91f629f18 (__TEXT,__text) non-external __ZNSt3__110shared_ptrIN3adm2vp3SPIEED2B8ne180100Ev
00007ff91f6426c8 (__TEXT,__text) non-external __ZNSt3__110shared_ptrIN3adm2vp3SPIEEaSB8ne180100EOS4_
00007ff91f629f18 (__TEXT,__text) non-external __ZNSt3__110shared_ptrIN3adm2vp6detail25UplinkProxyImplementationEED2B8ne180100Ev
00007ff91f629f18 (__TEXT,__text) non-external __ZNSt3__110shared_ptrIN3adm2vp6detail27DownlinkProxyImplementationEED2B8ne180100Ev
00007ff91f629f18 (__TEXT,__text) non-external __ZNSt3__110shared_ptrIN3adm3dsp5GraphEED2B8ne180100Ev
00007ff91f629f18 (__TEXT,__text) non-external __ZNSt3__110shared_ptrIN3adm5graph14KernelPropertyEED2B8ne180100Ev
00007ff91f629f18 (__TEXT,__text) non-external __ZNSt3__110shared_ptrIN3adm5graph6KernelEED2B8ne180100Ev
00007ff91f67aef6 (__TEXT,__text) non-external __ZNSt3__110shared_ptrIN3adm5graph6KernelEEaSB8ne180100IS3_NS_14default_deleteIS3_EEvEERS4_ONS_10unique_ptrIT_T0_EE
00007ff91f632d8a (__TEXT,__text) non-external __ZNSt3__110shared_ptrIN3adm5graph7DSPNodeEE5resetB8ne180100Ev
00007ff91f629f18 (__TEXT,__text) non-external __ZNSt3__110shared_ptrIN3adm5graph7DSPNodeEED2B8ne180100Ev
00007ff91f632f7e (__TEXT,__text) non-external __ZNSt3__110shared_ptrIN3adm5graph7DSPNodeEEaSB8ne180100ERKS4_
00007ff91f629f18 (__TEXT,__text) non-external __ZNSt3__110shared_ptrIN8DSPGraph5GraphEED2B8ne180100Ev
00007ff91f629f18 (__TEXT,__text) non-external __ZNSt3__110shared_ptrIN8nlohmann6detail23output_adapter_protocolIcEEED2B8ne180100Ev
00007ff91f643ac4 (__TEXT,__text) non-external __ZNSt3__110unique_ptrI20OpaqueAudioConverterN10applesauce4raii2v16detail23opaque_deletion_functorIPS1_XadL_Z21AudioConverterDisposeEEEEE5resetB8ne180100ES7_
00007ff91f6544a4 (__TEXT,__text) non-external __ZNSt3__110unique_ptrI7__sFILENS_8functionIFiPS1_EEEED2B8ne180100Ev
00007ff91f62af58 (__TEXT,__text) non-external __ZNSt3__110unique_ptrIN3adm2vp12ProxyFactoryENS_14default_deleteIS3_EEE5resetB8ne180100EPS3_
00007ff91f64268c (__TEXT,__text) non-external __ZNSt3__110unique_ptrIN3adm2vp3SPIENS_14default_deleteIS3_EEE5resetB8ne180100EPS3_
00007ff91f62c7e0 (__TEXT,__text) non-external __ZNSt3__110unique_ptrINS_11__hash_nodeINS_17__hash_value_typeINS_12basic_stringIcNS_11char_traitsIcEENS_9allocatorIcEEEEN3adm26DSPGraphBasicConfigurationEEEPvEENS_22__hash_node_destructorINS6_ISD_EEEEE5resetB8ne180100EPSD_
00007ff91f62c16c (__TEXT,__text) non-external __ZNSt3__110unique_ptrINS_11__hash_nodeINS_17__hash_value_typeINS_12basic_stringIcNS_11char_traitsIcEENS_9allocatorIcEEEENS_13unordered_mapIS8_N3adm26DSPGraphBasicConfigurationENS_4hashIS8_EENS_8equal_toIS8_EENS6_INS_4pairIKS8_SB_EEEEEEEEPvEENS_22__hash_node_destructorINS6_ISN_EEEEE5resetB8ne180100EPSN_
00007ff91f64f34c (__TEXT,__text) non-external __ZNSt3__110unique_ptrINS_11__hash_nodeINS_17__hash_value_typeINS_12basic_stringIcNS_11char_traitsIcEENS_9allocatorIcEEEES8_EEPvEENS_22__hash_node_destructorINS6_ISB_EEEEE5resetB8ne180100EPSB_
00007ff91f65e48e (__TEXT,__text) non-external __ZNSt3__110unique_ptrINS_11__hash_nodeINS_17__hash_value_typeIyZN12_GLOBAL__N_115getControllerEKEyPKcE14ControllerInfoEEPvEENS_22__hash_node_destructorINS_9allocatorIS9_EEEEED1B8ne180100Ev
00007ff91f6315ae (__TEXT,__text) non-external __ZNSt3__110unique_ptrINS_11__tree_nodeINS_12__value_typeIN5boost16exception_detail10type_info_ENS3_10shared_ptrINS4_15error_info_baseEEEEEPvEENS_22__tree_node_destructorINS_9allocatorISB_EEEEE5resetB8ne180100EPSB_
00007ff91f666be0 (__TEXT,__text) non-external __ZNSt3__110unique_ptrINS_11__tree_nodeINS_12__value_typeINS_12basic_stringIcNS_11char_traitsIcEENS_9allocatorIcEEEEN3adm19DeviceConfigurationEEEPvEENS_22__tree_node_destructorINS6_ISD_EEEEE5resetB8ne180100EPSD_
00007ff91f628062 (__TEXT,__text) non-external __ZNSt3__110unique_ptrINS_11__tree_nodeINS_12__value_typeINS_12basic_stringIcNS_11char_traitsIcEENS_9allocatorIcEEEEN8nlohmann10basic_jsonINS_3mapENS_6vectorES8_bxydS6_NS9_14adl_serializerENSC_IhNS6_IhEEEEEEEEPvEENS_22__tree_node_destructorINS6_ISJ_EEEEE5resetB8ne180100EPSJ_
                 (undefined) external __ZNSt3__111__call_onceERVmPvPFvS2_E (from libc++)
00007ff91f661747 (__TEXT,__text) non-external __ZNSt3__111__find_implB8ne180100IPKNS_17basic_string_viewIcNS_11char_traitsIcEEEES6_NS_12basic_stringIcS3_NS_9allocatorIcEEEENS_10__identityEEET_SC_T0_RKT1_RT2_
00007ff91f6499f4 (__TEXT,__text) non-external __ZNSt3__112__destroy_atB8ne180100IN10applesauce2CF13DictionaryRefELi0EEEvPT_
00007ff91f66c594 (__TEXT,__text) non-external __ZNSt3__112__destroy_atB8ne180100IN3adm17DeviceDescriptionELi0EEEvPT_
00007ff91f66c3d6 (__TEXT,__text) non-external __ZNSt3__112__destroy_atB8ne180100IN3adm25HardwareStreamDescriptionELi0EEEvPT_
00007ff91f62b201 (__TEXT,__text) non-external __ZNSt3__112__destroy_atB8ne180100IN3adm26DSPGraphBasicConfiguration22AUPresetOverrideConfigELi0EEEvPT_
00007ff91f63085c (__TEXT,__text) non-external __ZNSt3__112__destroy_atB8ne180100IN3adm2vp23UplinkNodeConfigurationELi0EEEvPT_
00007ff91f63085c (__TEXT,__text) non-external __ZNSt3__112__destroy_atB8ne180100IN3adm2vp25DownlinkNodeConfigurationELi0EEEvPT_
00007ff91f6336ae (__TEXT,__text) non-external __ZNSt3__112__destroy_atB8ne180100IN3adm5graph19TerminalDescriptionELi0EEEvPT_
00007ff91f62b201 (__TEXT,__text) non-external __ZNSt3__112__destroy_atB8ne180100INS_4pairIKNS_12basic_stringIcNS_11char_traitsIcEENS_9allocatorIcEEEEN3adm19DeviceConfigurationEEELi0EEEvPT_
00007ff91f62b0c6 (__TEXT,__text) non-external __ZNSt3__112__destroy_atB8ne180100INS_4pairIKNS_12basic_stringIcNS_11char_traitsIcEENS_9allocatorIcEEEEN3adm26DSPGraphBasicConfigurationEEELi0EEEvPT_
00007ff91f62b038 (__TEXT,__text) non-external __ZNSt3__112__destroy_atB8ne180100INS_4pairIKNS_12basic_stringIcNS_11char_traitsIcEENS_9allocatorIcEEEENS_13unordered_mapIS7_N3adm26DSPGraphBasicConfigurationENS_4hashIS7_EENS_8equal_toIS7_EENS5_INS1_IS8_SB_EEEEEEEELi0EEEvPT_
00007ff91f62b201 (__TEXT,__text) non-external __ZNSt3__112__destroy_atB8ne180100INS_4pairIKNS_12basic_stringIcNS_11char_traitsIcEENS_9allocatorIcEEEES7_EELi0EEEvPT_
00007ff91f64995e (__TEXT,__text) non-external __ZNSt3__112__destroy_atB8ne180100INS_5tupleIJNS_12basic_stringIcNS_11char_traitsIcEENS_9allocatorIcEEEENS_4__fs10filesystem4pathEEEELi0EEEvPT_
00007ff91f62b096 (__TEXT,__text) non-external __ZNSt3__112__hash_tableINS_17__hash_value_typeINS_12basic_stringIcNS_11char_traitsIcEENS_9allocatorIcEEEEN3adm26DSPGraphBasicConfigurationEEENS_22__unordered_map_hasherIS7_SA_NS_4hashIS7_EENS_8equal_toIS7_EELb1EEENS_21__unordered_map_equalIS7_SA_SF_SD_Lb1EEENS5_ISA_EEE17__deallocate_nodeEPNS_16__hash_node_baseIPNS_11__hash_nodeISA_PvEEEE
00007ff91f636b7c (__TEXT,__text) non-external __ZNSt3__112__hash_tableINS_17__hash_value_typeINS_12basic_stringIcNS_11char_traitsIcEENS_9allocatorIcEEEEN3adm26DSPGraphBasicConfigurationEEENS_22__unordered_map_hasherIS7_SA_NS_4hashIS7_EENS_8equal_toIS7_EELb1EEENS_21__unordered_map_equalIS7_SA_SF_SD_Lb1EEENS5_ISA_EEE19__node_insert_multiEPNS_11__hash_nodeISA_PvEE
00007ff91f653256 (__TEXT,__text) non-external __ZNSt3__112__hash_tableINS_17__hash_value_typeINS_12basic_stringIcNS_11char_traitsIcEENS_9allocatorIcEEEEN3adm26DSPGraphBasicConfigurationEEENS_22__unordered_map_hasherIS7_SA_NS_4hashIS7_EENS_8equal_toIS7_EELb1EEENS_21__unordered_map_equalIS7_SA_SF_SD_Lb1EEENS5_ISA_EEE25__emplace_unique_key_argsIS7_JRKNS_21piecewise_construct_tENS_5tupleIJRKS7_EEENSP_IJEEEEEENS_4pairINS_15__hash_iteratorIPNS_11__hash_nodeISA_PvEEEEbEERKT_DpOT0_
00007ff91f62c51e (__TEXT,__text) non-external __ZNSt3__112__hash_tableINS_17__hash_value_typeINS_12basic_stringIcNS_11char_traitsIcEENS_9allocatorIcEEEEN3adm26DSPGraphBasicConfigurationEEENS_22__unordered_map_hasherIS7_SA_NS_4hashIS7_EENS_8equal_toIS7_EELb1EEENS_21__unordered_map_equalIS7_SA_SF_SD_Lb1EEENS5_ISA_EEE8__rehashILb1EEEvm
00007ff91f62b066 (__TEXT,__text) non-external __ZNSt3__112__hash_tableINS_17__hash_value_typeINS_12basic_stringIcNS_11char_traitsIcEENS_9allocatorIcEEEEN3adm26DSPGraphBasicConfigurationEEENS_22__unordered_map_hasherIS7_SA_NS_4hashIS7_EENS_8equal_toIS7_EELb1EEENS_21__unordered_map_equalIS7_SA_SF_SD_Lb1EEENS5_ISA_EEED2Ev
00007ff91f635f30 (__TEXT,__text) non-external __ZNSt3__112__hash_tableINS_17__hash_value_typeINS_12basic_stringIcNS_11char_traitsIcEENS_9allocatorIcEEEENS_13unordered_mapIS7_N3adm26DSPGraphBasicConfigurationENS_4hashIS7_EENS_8equal_toIS7_EENS5_INS_4pairIKS7_SA_EEEEEEEENS_22__unordered_map_hasherIS7_SK_SC_SE_Lb1EEENS_21__unordered_map_equalIS7_SK_SE_SC_Lb1EEENS5_ISK_EEE14__assign_multiINS_21__hash_const_iteratorIPNS_11__hash_nodeISK_PvEEEEEEvT_SY_
00007ff91f62b008 (__TEXT,__text) non-external __ZNSt3__112__hash_tableINS_17__hash_value_typeINS_12basic_stringIcNS_11char_traitsIcEENS_9allocatorIcEEEENS_13unordered_mapIS7_N3adm26DSPGraphBasicConfigurationENS_4hashIS7_EENS_8equal_toIS7_EENS5_INS_4pairIKS7_SA_EEEEEEEENS_22__unordered_map_hasherIS7_SK_SC_SE_Lb1EEENS_21__unordered_map_equalIS7_SK_SE_SC_Lb1EEENS5_ISK_EEE17__deallocate_nodeEPNS_16__hash_node_baseIPNS_11__hash_nodeISK_PvEEEE
00007ff91f636544 (__TEXT,__text) non-external __ZNSt3__112__hash_tableINS_17__hash_value_typeINS_12basic_stringIcNS_11char_traitsIcEENS_9allocatorIcEEEENS_13unordered_mapIS7_N3adm26DSPGraphBasicConfigurationENS_4hashIS7_EENS_8equal_toIS7_EENS5_INS_4pairIKS7_SA_EEEEEEEENS_22__unordered_map_hasherIS7_SK_SC_SE_Lb1EEENS_21__unordered_map_equalIS7_SK_SE_SC_Lb1EEENS5_ISK_EEE19__node_insert_multiEPNS_11__hash_nodeISK_PvEE
00007ff91f652f56 (__TEXT,__text) non-external __ZNSt3__112__hash_tableINS_17__hash_value_typeINS_12basic_stringIcNS_11char_traitsIcEENS_9allocatorIcEEEENS_13unordered_mapIS7_N3adm26DSPGraphBasicConfigurationENS_4hashIS7_EENS_8equal_toIS7_EENS5_INS_4pairIKS7_SA_EEEEEEEENS_22__unordered_map_hasherIS7_SK_SC_SE_Lb1EEENS_21__unordered_map_equalIS7_SK_SE_SC_Lb1EEENS5_ISK_EEE25__emplace_unique_key_argsIS7_JRKNS_21piecewise_construct_tENS_5tupleIJRSG_EEENSV_IJEEEEEENSF_INS_15__hash_iteratorIPNS_11__hash_nodeISK_PvEEEEbEERKT_DpOT0_
00007ff91f62b986 (__TEXT,__text) non-external __ZNSt3__112__hash_tableINS_17__hash_value_typeINS_12basic_stringIcNS_11char_traitsIcEENS_9allocatorIcEEEENS_13unordered_mapIS7_N3adm26DSPGraphBasicConfigurationENS_4hashIS7_EENS_8equal_toIS7_EENS5_INS_4pairIKS7_SA_EEEEEEEENS_22__unordered_map_hasherIS7_SK_SC_SE_Lb1EEENS_21__unordered_map_equalIS7_SK_SE_SC_Lb1EEENS5_ISK_EEE8__rehashILb1EEEvm
00007ff91f62afd8 (__TEXT,__text) non-external __ZNSt3__112__hash_tableINS_17__hash_value_typeINS_12basic_stringIcNS_11char_traitsIcEENS_9allocatorIcEEEENS_13unordered_mapIS7_N3adm26DSPGraphBasicConfigurationENS_4hashIS7_EENS_8equal_toIS7_EENS5_INS_4pairIKS7_SA_EEEEEEEENS_22__unordered_map_hasherIS7_SK_SC_SE_Lb1EEENS_21__unordered_map_equalIS7_SK_SE_SC_Lb1EEENS5_ISK_EEED2Ev
00007ff91f64eda6 (__TEXT,__text) non-external __ZNSt3__112__hash_tableINS_17__hash_value_typeINS_12basic_stringIcNS_11char_traitsIcEENS_9allocatorIcEEEES7_EENS_22__unordered_map_hasherIS7_S8_NS_4hashIS7_EENS_8equal_toIS7_EELb1EEENS_21__unordered_map_equalIS7_S8_SD_SB_Lb1EEENS5_IS8_EEE25__emplace_unique_key_argsIS7_JRKNS_21piecewise_construct_tENS_5tupleIJOS7_EEENSN_IJEEEEEENS_4pairINS_15__hash_iteratorIPNS_11__hash_nodeIS8_PvEEEEbEERKT_DpOT0_
00007ff91f64f08a (__TEXT,__text) non-external __ZNSt3__112__hash_tableINS_17__hash_value_typeINS_12basic_stringIcNS_11char_traitsIcEENS_9allocatorIcEEEES7_EENS_22__unordered_map_hasherIS7_S8_NS_4hashIS7_EENS_8equal_toIS7_EELb1EEENS_21__unordered_map_equalIS7_S8_SD_SB_Lb1EEENS5_IS8_EEE8__rehashILb1EEEvm
00007ff91f646002 (__TEXT,__text) non-external __ZNSt3__112__hash_tableINS_17__hash_value_typeINS_12basic_stringIcNS_11char_traitsIcEENS_9allocatorIcEEEES7_EENS_22__unordered_map_hasherIS7_S8_NS_4hashIS7_EENS_8equal_toIS7_EELb1EEENS_21__unordered_map_equalIS7_S8_SD_SB_Lb1EEENS5_IS8_EEED2Ev
                 (undefined) external __ZNSt3__112__next_primeEm (from libc++)
00007ff91f649896 (__TEXT,__text) non-external __ZNSt3__112__tuple_implINS_15__tuple_indicesIJLm0ELm1EEEEJNS_12basic_stringIcNS_11char_traitsIcEENS_9allocatorIcEEEENS_4__fs10filesystem4pathEEEC2B8ne180100IJLm0ELm1EEJS8_SB_EJEJEJRKS8_RKSB_EEENS1_IJXspT_EEEENS_13__tuple_typesIJDpT0_EEENS1_IJXspT1_EEEENSJ_IJDpT2_EEEDpOT3_
00007ff91f64bfe2 (__TEXT,__text) non-external __ZNSt3__112basic_stringIcNS_11char_traitsIcEENS_9allocatorIcEEE17__assign_externalEPKc
00007ff91f648cb4 (__TEXT,__text) non-external __ZNSt3__112basic_stringIcNS_11char_traitsIcEENS_9allocatorIcEEE17__assign_externalEPKcm
                 (undefined) external __ZNSt3__112basic_stringIcNS_11char_traitsIcEENS_9allocatorIcEEE21__grow_by_and_replaceEmmmmmmPKc (from libc++)
00007ff91f626680 (__TEXT,__text) non-external __ZNSt3__112basic_stringIcNS_11char_traitsIcEENS_9allocatorIcEEE25__init_copy_ctor_externalEPKcm
00007ff91f635d1e (__TEXT,__text) non-external __ZNSt3__112basic_stringIcNS_11char_traitsIcEENS_9allocatorIcEEE6appendB8ne180100IPKcLi0EEERS5_T_SA_
                 (undefined) external __ZNSt3__112basic_stringIcNS_11char_traitsIcEENS_9allocatorIcEEE6appendEPKcm (from libc++)
                 (undefined) external __ZNSt3__112basic_stringIcNS_11char_traitsIcEENS_9allocatorIcEEE6insertENS_11__wrap_iterIPKcEEc (from libc++)
                 (undefined) external __ZNSt3__112basic_stringIcNS_11char_traitsIcEENS_9allocatorIcEEE6insertEmPKcm (from libc++)
                 (undefined) external __ZNSt3__112basic_stringIcNS_11char_traitsIcEENS_9allocatorIcEEE6resizeEmc (from libc++)
                 (undefined) external __ZNSt3__112basic_stringIcNS_11char_traitsIcEENS_9allocatorIcEEE9__grow_byEmmmmmm (from libc++)
                 (undefined) external __ZNSt3__112basic_stringIcNS_11char_traitsIcEENS_9allocatorIcEEE9push_backEc (from libc++)
00007ff91f6278a4 (__TEXT,__text) non-external __ZNSt3__112basic_stringIcNS_11char_traitsIcEENS_9allocatorIcEEEC2B8ne180100ENS_24__uninitialized_size_tagEmRKS4_
00007ff91f63254e (__TEXT,__text) non-external __ZNSt3__112basic_stringIcNS_11char_traitsIcEENS_9allocatorIcEEEC2B8ne180100EPKcm
00007ff91f631aa6 (__TEXT,__text) non-external __ZNSt3__112basic_stringIcNS_11char_traitsIcEENS_9allocatorIcEEEC2B8ne180100Emc
00007ff91f626b3c (__TEXT,__text) non-external __ZNSt3__112basic_stringIcNS_11char_traitsIcEENS_9allocatorIcEEEC2B8ne180100ILi0EEEPKc
                 (undefined) external __ZNSt3__112basic_stringIcNS_11char_traitsIcEENS_9allocatorIcEEEaSERKS5_ (from libc++)
00007ff91f66d91c (__TEXT,__text) non-external __ZNSt3__112construct_atB8ne180100IN2CA17StreamDescriptionEJRKdiNS1_15CommonPCMFormatEbEPS2_EEPT_S8_DpOT0_
00007ff91f66d7fd (__TEXT,__text) non-external __ZNSt3__112construct_atB8ne180100IN2CA17StreamDescriptionEJRKdjNS1_15CommonPCMFormatEbEPS2_EEPT_S8_DpOT0_
00007ff91f66c427 (__TEXT,__text) non-external __ZNSt3__112construct_atB8ne180100IN3adm17DeviceDescriptionEJS2_EPS2_EEPT_S5_DpOT0_
00007ff91f66c632 (__TEXT,__text) non-external __ZNSt3__112construct_atB8ne180100IN3adm25HardwareStreamDescriptionEJS2_EPS2_EEPT_S5_DpOT0_
                 (undefined) external __ZNSt3__112system_errorC1ENS_10error_codeE (from libc++)
                 (undefined) external __ZNSt3__112system_errorC1ENS_10error_codeEPKc (from libc++)
                 (undefined) external __ZNSt3__112system_errorD1Ev (from libc++)
                 (undefined) external __ZNSt3__112system_errorD2Ev (from libc++)
00007ff91f632b78 (__TEXT,__text) non-external __ZNSt3__113__tuple_equalILm3EEclB8ne180100INS_5tupleIJRKNS_12basic_stringIcNS_11char_traitsIcEENS_9allocatorIcEEEERKN3adm5graph8NodeTypeERKjEEESJ_EEbRKT_RKT0_
                 (undefined) external __ZNSt3__113basic_ostreamIcNS_11char_traitsIcEEE6sentryC1ERS3_ (from libc++)
                 (undefined) external __ZNSt3__113basic_ostreamIcNS_11char_traitsIcEEE6sentryD1Ev (from libc++)
                 (undefined) external __ZNSt3__113basic_ostreamIcNS_11char_traitsIcEEED2Ev (from libc++)
                 (undefined) external __ZNSt3__113basic_ostreamIcNS_11char_traitsIcEEElsEi (from libc++)
00007ff91f6499b0 (__TEXT,__text) non-external __ZNSt3__114__split_bufferIN10applesauce2CF13DictionaryRefERNS_9allocatorIS3_EEED2Ev
00007ff91f649114 (__TEXT,__text) non-external __ZNSt3__114__split_bufferIN2CA12AudioBuffersERNS_9allocatorIS2_EEED2Ev
00007ff91f63deb6 (__TEXT,__text) non-external __ZNSt3__114__split_bufferIN3adm5graph19TerminalDescriptionERNS_9allocatorIS3_EEED2Ev
00007ff91f6273c0 (__TEXT,__text) non-external __ZNSt3__114__split_bufferIN8nlohmann10basic_jsonINS_3mapENS_6vectorENS_12basic_stringIcNS_11char_traitsIcEENS_9allocatorIcEEEEbxydS8_NS1_14adl_serializerENS4_IhNS8_IhEEEEEERNS8_ISE_EEED2Ev
00007ff91f64122e (__TEXT,__text) non-external __ZNSt3__114__split_bufferINS_10shared_ptrIN3adm2vp6detail25UplinkProxyImplementationEEERNS_9allocatorIS6_EEED2Ev
00007ff91f65893c (__TEXT,__text) non-external __ZNSt3__114__split_bufferINS_10unique_ptrI20OpaqueAudioConverterN10applesauce4raii2v16detail23opaque_deletion_functorIPS2_XadL_Z21AudioConverterDisposeEEEEEERNS_9allocatorISA_EEED2Ev
00007ff91f649846 (__TEXT,__text) non-external __ZNSt3__114__split_bufferINS_12basic_stringIcNS_11char_traitsIcEENS_9allocatorIcEEEERNS4_IS6_EEED2Ev
00007ff91f649846 (__TEXT,__text) non-external __ZNSt3__114__split_bufferINS_4__fs10filesystem4pathERNS_9allocatorIS3_EEED2Ev
00007ff91f64991e (__TEXT,__text) non-external __ZNSt3__114__split_bufferINS_5tupleIJNS_12basic_stringIcNS_11char_traitsIcEENS_9allocatorIcEEEENS_4__fs10filesystem4pathEEEERNS5_ISB_EEED2Ev
                 (undefined) external __ZNSt3__114basic_iostreamIcNS_11char_traitsIcEEED2Ev (from libc++)
                 (undefined) external __ZNSt3__114error_categoryD2Ev (from libc++)
                 (undefined) external __ZNSt3__115basic_streambufIcNS_11char_traitsIcEEEC2Ev (from libc++)
                 (undefined) external __ZNSt3__115basic_streambufIcNS_11char_traitsIcEEED2Ev (from libc++)
                 (undefined) external __ZNSt3__115recursive_mutex4lockEv (from libc++)
                 (undefined) external __ZNSt3__115recursive_mutex6unlockEv (from libc++)
                 (undefined) external __ZNSt3__115recursive_mutexC1Ev (from libc++)
                 (undefined) external __ZNSt3__115recursive_mutexD1Ev (from libc++)
                 (undefined) external __ZNSt3__115system_categoryEv (from libc++)
00007ff91f671216 (__TEXT,__text) non-external __ZNSt3__116__variant_detail12__visitation6__base12__dispatcherIJLm0EEE10__dispatchB8ne180100IONS1_9__variant15__value_visitorIZ63-[DSPProcessor adaptToConfigurationChange:withCallbacks:error:]E3$_0EEJRKNS0_6__baseILNS0_6_TraitE1EJN3adm5graph21DSPGraphConfigurationENSD_2vp19UplinkConfigurationENSE_24ExclaveNodeConfigurationEEEEEEEDcT_DpT0_
00007ff91f648ec4 (__TEXT,__text) non-external __ZNSt3__116__variant_detail12__visitation6__base12__dispatcherIJLm0EEE10__dispatchB8ne180100IONS1_9__variant15__value_visitorIZN3adm5graph6detailL27getFormatMacroSubstitutionsERNS8_3dsp19GraphMacroGeneratorERKNS9_27DSPGraphKernelConfigurationEE3$_0EEJRKNS0_6__baseILNS0_6_TraitE0EJNSE_14FixedBlockSizeENSE_17VariableBlockSizeEEEEEEEDcT_DpT0_
00007ff91f637802 (__TEXT,__text) non-external __ZNSt3__116__variant_detail12__visitation6__base12__dispatcherIJLm0EEE10__dispatchB8ne180100IONS1_9__variant15__value_visitorIZN3adm5graph7isValidERKNS9_27DSPGraphKernelConfigurationEE3$_0EEJRKNS0_6__baseILNS0_6_TraitE0EJNSA_14FixedBlockSizeENSA_17VariableBlockSizeEEEEEEEDcT_DpT0_
00007ff91f63d9dc (__TEXT,__text) non-external __ZNSt3__116__variant_detail12__visitation6__base12__dispatcherIJLm0EEE10__dispatchB8ne180100IOZNS0_6__dtorINS0_8__traitsIJN3adm5graph21DSPGraphConfigurationENS8_2vp19UplinkConfigurationENS9_24ExclaveNodeConfigurationEEEELNS0_6_TraitE1EE9__destroyB8ne180100EvEUlRT_E_JRNS0_6__baseILSF_1EJSA_SC_SD_EEEEEEDcSH_DpT0_
00007ff91f63daee (__TEXT,__text) non-external __ZNSt3__116__variant_detail12__visitation6__base12__dispatcherIJLm0ELm0EEE10__dispatchB8ne180100IOZNS0_6__ctorINS0_8__traitsIJN3adm5graph21DSPGraphConfigurationENS8_2vp19UplinkConfigurationENS9_24ExclaveNodeConfigurationEEEEE19__generic_constructB8ne180100INS0_18__move_constructorISE_LNS0_6_TraitE1EEEEEvRSF_OT_EUlRSL_OT0_E_JRNS0_6__baseILSI_1EJSA_SC_SD_EEEOST_EEEDcSL_DpT0_
00007ff91f671392 (__TEXT,__text) non-external __ZNSt3__116__variant_detail12__visitation6__base12__dispatcherIJLm1EEE10__dispatchB8ne180100IONS1_9__variant15__value_visitorIZ63-[DSPProcessor adaptToConfigurationChange:withCallbacks:error:]E3$_0EEJRKNS0_6__baseILNS0_6_TraitE1EJN3adm5graph21DSPGraphConfigurationENSD_2vp19UplinkConfigurationENSE_24ExclaveNodeConfigurationEEEEEEEDcT_DpT0_
00007ff91f648ed2 (__TEXT,__text) non-external __ZNSt3__116__variant_detail12__visitation6__base12__dispatcherIJLm1EEE10__dispatchB8ne180100IONS1_9__variant15__value_visitorIZN3adm5graph6detailL27getFormatMacroSubstitutionsERNS8_3dsp19GraphMacroGeneratorERKNS9_27DSPGraphKernelConfigurationEE3$_0EEJRKNS0_6__baseILNS0_6_TraitE0EJNSE_14FixedBlockSizeENSE_17VariableBlockSizeEEEEEEEDcT_DpT0_
00007ff91f63786a (__TEXT,__text) non-external __ZNSt3__116__variant_detail12__visitation6__base12__dispatcherIJLm1EEE10__dispatchB8ne180100IONS1_9__variant15__value_visitorIZN3adm5graph7isValidERKNS9_27DSPGraphKernelConfigurationEE3$_0EEJRKNS0_6__baseILNS0_6_TraitE0EJNSA_14FixedBlockSizeENSA_17VariableBlockSizeEEEEEEEDcT_DpT0_
00007ff91f63da52 (__TEXT,__text) non-external __ZNSt3__116__variant_detail12__visitation6__base12__dispatcherIJLm1EEE10__dispatchB8ne180100IOZNS0_6__dtorINS0_8__traitsIJN3adm5graph21DSPGraphConfigurationENS8_2vp19UplinkConfigurationENS9_24ExclaveNodeConfigurationEEEELNS0_6_TraitE1EE9__destroyB8ne180100EvEUlRT_E_JRNS0_6__baseILSF_1EJSA_SC_SD_EEEEEEDcSH_DpT0_
00007ff91f63dbd6 (__TEXT,__text) non-external __ZNSt3__116__variant_detail12__visitation6__base12__dispatcherIJLm1ELm1EEE10__dispatchB8ne180100IOZNS0_6__ctorINS0_8__traitsIJN3adm5graph21DSPGraphConfigurationENS8_2vp19UplinkConfigurationENS9_24ExclaveNodeConfigurationEEEEE19__generic_constructB8ne180100INS0_18__move_constructorISE_LNS0_6_TraitE1EEEEEvRSF_OT_EUlRSL_OT0_E_JRNS0_6__baseILSI_1EJSA_SC_SD_EEEOST_EEEDcSL_DpT0_
00007ff91f67150e (__TEXT,__text) non-external __ZNSt3__116__variant_detail12__visitation6__base12__dispatcherIJLm2EEE10__dispatchB8ne180100IONS1_9__variant15__value_visitorIZ63-[DSPProcessor adaptToConfigurationChange:withCallbacks:error:]E3$_0EEJRKNS0_6__baseILNS0_6_TraitE1EJN3adm5graph21DSPGraphConfigurationENSD_2vp19UplinkConfigurationENSE_24ExclaveNodeConfigurationEEEEEEEDcT_DpT0_
00007ff91f63da60 (__TEXT,__text) non-external __ZNSt3__116__variant_detail12__visitation6__base12__dispatcherIJLm2EEE10__dispatchB8ne180100IOZNS0_6__dtorINS0_8__traitsIJN3adm5graph21DSPGraphConfigurationENS8_2vp19UplinkConfigurationENS9_24ExclaveNodeConfigurationEEEELNS0_6_TraitE1EE9__destroyB8ne180100EvEUlRT_E_JRNS0_6__baseILSF_1EJSA_SC_SD_EEEEEEDcSH_DpT0_
00007ff91f63dcf6 (__TEXT,__text) non-external __ZNSt3__116__variant_detail12__visitation6__base12__dispatcherIJLm2ELm2EEE10__dispatchB8ne180100IOZNS0_6__ctorINS0_8__traitsIJN3adm5graph21DSPGraphConfigurationENS8_2vp19UplinkConfigurationENS9_24ExclaveNodeConfigurationEEEEE19__generic_constructB8ne180100INS0_18__move_constructorISE_LNS0_6_TraitE1EEEEEvRSF_OT_EUlRSL_OT0_E_JRNS0_6__baseILSI_1EJSA_SC_SD_EEEOST_EEEDcSL_DpT0_
00007ff91f63d940 (__TEXT,__text) non-external __ZNSt3__116__variant_detail6__dtorINS0_8__traitsIJN3adm5graph21DSPGraphConfigurationENS3_2vp19UplinkConfigurationENS4_24ExclaveNodeConfigurationEEEELNS0_6_TraitE1EED2Ev
00007ff91f65e23e (__TEXT,__text) non-external __ZNSt3__117__call_once_proxyB8ne180100INS_5tupleIJOZN3adm5graph30ExclaveDSPControllerClientImplC1ENS_8weak_ptrI36audiodspcontroller_audiodspcontrol_sEESt16initializer_listIjES9_NS2_8exclaves7UseCaseEEUlvE_EEEEEvPv
00007ff91f6427a8 (__TEXT,__text) non-external __ZNSt3__117bad_function_callD0Ev
00007ff91f64279e (__TEXT,__text) non-external __ZNSt3__117bad_function_callD1Ev
                 (undefined) external __ZNSt3__118condition_variableD1Ev (from libc++)
00007ff91f63202e (__TEXT,__text) non-external __ZNSt3__119__allocate_at_leastB8ne180100INS_9allocatorIN10applesauce2CF13DictionaryRefEEEEENS_19__allocation_resultINS_16allocator_traitsIT_E7pointerEEERS8_m
00007ff91f62ccc6 (__TEXT,__text) non-external __ZNSt3__119__allocate_at_leastB8ne180100INS_9allocatorIN12_GLOBAL__N_122ParameterStorageReaderEEEEENS_19__allocation_resultINS_16allocator_traitsIT_E7pointerEEERS7_m
00007ff91f63202e (__TEXT,__text) non-external __ZNSt3__119__allocate_at_leastB8ne180100INS_9allocatorIN2CA12AudioBuffersEEEEENS_19__allocation_resultINS_16allocator_traitsIT_E7pointerEEERS7_m
00007ff91f66bf62 (__TEXT,__text) non-external __ZNSt3__119__allocate_at_leastB8ne180100INS_9allocatorIN2CA17StreamDescriptionEEEEENS_19__allocation_resultINS_16allocator_traitsIT_E7pointerEEERS7_m
00007ff91f666ba8 (__TEXT,__text) non-external __ZNSt3__119__allocate_at_leastB8ne180100INS_9allocatorIN3adm19DeviceConfigurationEEEEENS_19__allocation_resultINS_16allocator_traitsIT_E7pointerEEERS7_m
00007ff91f62cb60 (__TEXT,__text) non-external __ZNSt3__119__allocate_at_leastB8ne180100INS_9allocatorIN3adm26DSPGraphBasicConfiguration22AUPresetOverrideConfigEEEEENS_19__allocation_resultINS_16allocator_traitsIT_E7pointerEEERS8_m
00007ff91f63202e (__TEXT,__text) non-external __ZNSt3__119__allocate_at_leastB8ne180100INS_9allocatorIN3adm5graph11SemanticSetEEEEENS_19__allocation_resultINS_16allocator_traitsIT_E7pointerEEERS8_m
00007ff91f63de7e (__TEXT,__text) non-external __ZNSt3__119__allocate_at_leastB8ne180100INS_9allocatorIN3adm5graph19TerminalDescriptionEEEEENS_19__allocation_resultINS_16allocator_traitsIT_E7pointerEEERS8_m
00007ff91f627396 (__TEXT,__text) non-external __ZNSt3__119__allocate_at_leastB8ne180100INS_9allocatorIN8nlohmann10basic_jsonINS_3mapENS_6vectorENS_12basic_stringIcNS_11char_traitsIcEENS1_IcEEEEbxydS1_NS2_14adl_serializerENS5_IhNS1_IhEEEEEEEEEENS_19__allocation_resultINS_16allocator_traitsIT_E7pointerEEERSI_m
00007ff91f627396 (__TEXT,__text) non-external __ZNSt3__119__allocate_at_leastB8ne180100INS_9allocatorINS_10shared_ptrIN3adm2vp6detail25UplinkProxyImplementationEEEEEEENS_19__allocation_resultINS_16allocator_traitsIT_E7pointerEEERSB_m
00007ff91f627396 (__TEXT,__text) non-external __ZNSt3__119__allocate_at_leastB8ne180100INS_9allocatorINS_10shared_ptrIN3adm5graph14KernelPropertyEEEEEEENS_19__allocation_resultINS_16allocator_traitsIT_E7pointerEEERSA_m
00007ff91f63202e (__TEXT,__text) non-external __ZNSt3__119__allocate_at_leastB8ne180100INS_9allocatorINS_10unique_ptrI20OpaqueAudioConverterN10applesauce4raii2v16detail23opaque_deletion_functorIPS3_XadL_Z21AudioConverterDisposeEEEEEEEEEENS_19__allocation_resultINS_16allocator_traitsIT_E7pointerEEERSF_m
00007ff91f62ccc6 (__TEXT,__text) non-external __ZNSt3__119__allocate_at_leastB8ne180100INS_9allocatorINS_12basic_stringIcNS_11char_traitsIcEENS1_IcEEEEEEEENS_19__allocation_resultINS_16allocator_traitsIT_E7pointerEEERSA_m
00007ff91f62ccc6 (__TEXT,__text) non-external __ZNSt3__119__allocate_at_leastB8ne180100INS_9allocatorINS_4__fs10filesystem4pathEEEEENS_19__allocation_resultINS_16allocator_traitsIT_E7pointerEEERS8_m
00007ff91f62cb60 (__TEXT,__text) non-external __ZNSt3__119__allocate_at_leastB8ne180100INS_9allocatorINS_5tupleIJN3adm2vp23UplinkNodeConfiguration10OutputTypeEN2CA17StreamDescriptionEEEEEEEENS_19__allocation_resultINS_16allocator_traitsIT_E7pointerEEERSD_m
00007ff91f63def9 (__TEXT,__text) non-external __ZNSt3__119__allocate_at_leastB8ne180100INS_9allocatorINS_5tupleIJN3adm2vp23UplinkNodeConfiguration9InputTypeEN2CA17StreamDescriptionEEEEEEEENS_19__allocation_resultINS_16allocator_traitsIT_E7pointerEEERSD_m
00007ff91f63202e (__TEXT,__text) non-external __ZNSt3__119__allocate_at_leastB8ne180100INS_9allocatorIPKvEEEENS_19__allocation_resultINS_16allocator_traitsIT_E7pointerEEERS7_m
00007ff91f63202e (__TEXT,__text) non-external __ZNSt3__119__allocate_at_leastB8ne180100INS_9allocatorIPvEEEENS_19__allocation_resultINS_16allocator_traitsIT_E7pointerEEERS6_m
00007ff91f642a80 (__TEXT,__text) non-external __ZNSt3__119__allocate_at_leastB8ne180100INS_9allocatorIfEEEENS_19__allocation_resultINS_16allocator_traitsIT_E7pointerEEERS5_m
00007ff91f642a80 (__TEXT,__text) non-external __ZNSt3__119__allocate_at_leastB8ne180100INS_9allocatorIjEEEENS_19__allocation_resultINS_16allocator_traitsIT_E7pointerEEERS5_m
00007ff91f63202e (__TEXT,__text) non-external __ZNSt3__119__allocate_at_leastB8ne180100INS_9allocatorImEEEENS_19__allocation_resultINS_16allocator_traitsIT_E7pointerEEERS5_m
                 (undefined) external __ZNSt3__119__shared_mutex_base13unlock_sharedEv (from libc++)
                 (undefined) external __ZNSt3__119__shared_mutex_base15try_lock_sharedEv (from libc++)
                 (undefined) external __ZNSt3__119__shared_mutex_base4lockEv (from libc++)
                 (undefined) external __ZNSt3__119__shared_mutex_base6unlockEv (from libc++)
                 (undefined) external __ZNSt3__119__shared_mutex_baseC1Ev (from libc++)
                 (undefined) external __ZNSt3__119__shared_weak_count14__release_weakEv (from libc++)
                 (undefined) external __ZNSt3__119__shared_weak_count4lockEv (from libc++)
                 (undefined) external __ZNSt3__119__shared_weak_countD2Ev (from libc++)
00007ff91f63167a (__TEXT,__text) non-external __ZNSt3__119basic_ostringstreamIcNS_11char_traitsIcEENS_9allocatorIcEEEC1B8ne180100Ev
00007ff91f631a30 (__TEXT,__text) non-external __ZNSt3__119basic_ostringstreamIcNS_11char_traitsIcEENS_9allocatorIcEEED1Ev
00007ff91f626700 (__TEXT,__text) non-external __ZNSt3__120__optional_copy_baseINS_12basic_stringIcNS_11char_traitsIcEENS_9allocatorIcEEEELb0EEC2B8ne180100ERKS7_
00007ff91f642b02 (__TEXT,__text) non-external __ZNSt3__120__shared_ptr_emplaceIN3adm2vp19UplinkConfigurationENS_9allocatorIS3_EEE16__on_zero_sharedEv
00007ff91f642b10 (__TEXT,__text) non-external __ZNSt3__120__shared_ptr_emplaceIN3adm2vp19UplinkConfigurationENS_9allocatorIS3_EEE21__on_zero_shared_weakEv
00007ff91f642ad2 (__TEXT,__text) non-external __ZNSt3__120__shared_ptr_emplaceIN3adm2vp19UplinkConfigurationENS_9allocatorIS3_EEED0Ev
00007ff91f642abe (__TEXT,__text) non-external __ZNSt3__120__shared_ptr_emplaceIN3adm2vp19UplinkConfigurationENS_9allocatorIS3_EEED1Ev
00007ff91f642d7e (__TEXT,__text) non-external __ZNSt3__120__shared_ptr_emplaceIN3adm2vp21DownlinkConfigurationENS_9allocatorIS3_EEE16__on_zero_sharedEv
00007ff91f642db0 (__TEXT,__text) non-external __ZNSt3__120__shared_ptr_emplaceIN3adm2vp21DownlinkConfigurationENS_9allocatorIS3_EEE21__on_zero_shared_weakEv
00007ff91f642d4e (__TEXT,__text) non-external __ZNSt3__120__shared_ptr_emplaceIN3adm2vp21DownlinkConfigurationENS_9allocatorIS3_EEED0Ev
00007ff91f642d3a (__TEXT,__text) non-external __ZNSt3__120__shared_ptr_emplaceIN3adm2vp21DownlinkConfigurationENS_9allocatorIS3_EEED1Ev
00007ff91f63e13e (__TEXT,__text) non-external __ZNSt3__120__shared_ptr_emplaceIN3adm2vp6detail26ProxyFactoryImplementationENS_9allocatorIS4_EEE16__on_zero_sharedEv
00007ff91f63e248 (__TEXT,__text) non-external __ZNSt3__120__shared_ptr_emplaceIN3adm2vp6detail26ProxyFactoryImplementationENS_9allocatorIS4_EEE21__on_zero_shared_weakEv
00007ff91f63e10e (__TEXT,__text) non-external __ZNSt3__120__shared_ptr_emplaceIN3adm2vp6detail26ProxyFactoryImplementationENS_9allocatorIS4_EEED0Ev
00007ff91f63e0fa (__TEXT,__text) non-external __ZNSt3__120__shared_ptr_emplaceIN3adm2vp6detail26ProxyFactoryImplementationENS_9allocatorIS4_EEED1Ev
00007ff91f62a8a0 (__TEXT,__text) non-external __ZNSt3__120__shared_ptr_emplaceIN8nlohmann6detail21output_string_adapterIcNS_12basic_stringIcNS_11char_traitsIcEENS_9allocatorIcEEEEEENS7_ISA_EEE16__on_zero_sharedEv
00007ff91f62a8b0 (__TEXT,__text) non-external __ZNSt3__120__shared_ptr_emplaceIN8nlohmann6detail21output_string_adapterIcNS_12basic_stringIcNS_11char_traitsIcEENS_9allocatorIcEEEEEENS7_ISA_EEE21__on_zero_shared_weakEv
00007ff91f62a870 (__TEXT,__text) non-external __ZNSt3__120__shared_ptr_emplaceIN8nlohmann6detail21output_string_adapterIcNS_12basic_stringIcNS_11char_traitsIcEENS_9allocatorIcEEEEEENS7_ISA_EEED0Ev
00007ff91f62a85c (__TEXT,__text) non-external __ZNSt3__120__shared_ptr_emplaceIN8nlohmann6detail21output_string_adapterIcNS_12basic_stringIcNS_11char_traitsIcEENS_9allocatorIcEEEEEENS7_ISA_EEED1Ev
00007ff91f65e506 (__TEXT,__text) non-external __ZNSt3__120__shared_ptr_pointerIP36audiodspcontroller_audiodspcontrol_sZN12_GLOBAL__N_115getControllerEKEyPKcE3$_0NS_9allocatorIS1_EEE16__on_zero_sharedEv
00007ff91f65e528 (__TEXT,__text) non-external __ZNSt3__120__shared_ptr_pointerIP36audiodspcontroller_audiodspcontrol_sZN12_GLOBAL__N_115getControllerEKEyPKcE3$_0NS_9allocatorIS1_EEE21__on_zero_shared_weakEv
00007ff91f65e4e0 (__TEXT,__text) non-external __ZNSt3__120__shared_ptr_pointerIP36audiodspcontroller_audiodspcontrol_sZN12_GLOBAL__N_115getControllerEKEyPKcE3$_0NS_9allocatorIS1_EEED0Ev
00007ff91f65e4d6 (__TEXT,__text) non-external __ZNSt3__120__shared_ptr_pointerIP36audiodspcontroller_audiodspcontrol_sZN12_GLOBAL__N_115getControllerEKEyPKcE3$_0NS_9allocatorIS1_EEED1Ev
00007ff91f642742 (__TEXT,__text) non-external __ZNSt3__120__shared_ptr_pointerIPN3adm2vp3SPIENS_14default_deleteIS3_EENS_9allocatorIS3_EEE16__on_zero_sharedEv
00007ff91f642794 (__TEXT,__text) non-external __ZNSt3__120__shared_ptr_pointerIPN3adm2vp3SPIENS_14default_deleteIS3_EENS_9allocatorIS3_EEE21__on_zero_shared_weakEv
00007ff91f64271c (__TEXT,__text) non-external __ZNSt3__120__shared_ptr_pointerIPN3adm2vp3SPIENS_14default_deleteIS3_EENS_9allocatorIS3_EEED0Ev
00007ff91f642712 (__TEXT,__text) non-external __ZNSt3__120__shared_ptr_pointerIPN3adm2vp3SPIENS_14default_deleteIS3_EENS_9allocatorIS3_EEED1Ev
00007ff91f6425a8 (__TEXT,__text) non-external __ZNSt3__120__shared_ptr_pointerIPN3adm2vp6detail25UplinkProxyImplementationEZNS3_26ProxyFactoryImplementation17doCreateProxyListINS2_19UplinkConfigurationEEEN5caulk8expectedINS6_8DispatchIT_E9ProxyListENS_10error_codeEEERKNS2_17ImmutableDispatchISC_E4TypeEEUlS5_E_NS_9allocatorIS4_EEE16__on_zero_sharedEv
00007ff91f642654 (__TEXT,__text) non-external __ZNSt3__120__shared_ptr_pointerIPN3adm2vp6detail25UplinkProxyImplementationEZNS3_26ProxyFactoryImplementation17doCreateProxyListINS2_19UplinkConfigurationEEEN5caulk8expectedINS6_8DispatchIT_E9ProxyListENS_10error_codeEEERKNS2_17ImmutableDispatchISC_E4TypeEEUlS5_E_NS_9allocatorIS4_EEE21__on_zero_shared_weakEv
00007ff91f642566 (__TEXT,__text) non-external __ZNSt3__120__shared_ptr_pointerIPN3adm2vp6detail25UplinkProxyImplementationEZNS3_26ProxyFactoryImplementation17doCreateProxyListINS2_19UplinkConfigurationEEEN5caulk8expectedINS6_8DispatchIT_E9ProxyListENS_10error_codeEEERKNS2_17ImmutableDispatchISC_E4TypeEEUlS5_E_NS_9allocatorIS4_EEED0Ev
00007ff91f642536 (__TEXT,__text) non-external __ZNSt3__120__shared_ptr_pointerIPN3adm2vp6detail25UplinkProxyImplementationEZNS3_26ProxyFactoryImplementation17doCreateProxyListINS2_19UplinkConfigurationEEEN5caulk8expectedINS6_8DispatchIT_E9ProxyListENS_10error_codeEEERKNS2_17ImmutableDispatchISC_E4TypeEEUlS5_E_NS_9allocatorIS4_EEED1Ev
00007ff91f642bae (__TEXT,__text) non-external __ZNSt3__120__shared_ptr_pointerIPN3adm2vp6detail27DownlinkProxyImplementationEZNS3_26ProxyFactoryImplementation17doCreateProxyListINS2_21DownlinkConfigurationEEEN5caulk8expectedINS6_8DispatchIT_E9ProxyListENS_10error_codeEEERKNS2_17ImmutableDispatchISC_E4TypeEEUlS5_E_NS_9allocatorIS4_EEE16__on_zero_sharedEv
00007ff91f642c5a (__TEXT,__text) non-external __ZNSt3__120__shared_ptr_pointerIPN3adm2vp6detail27DownlinkProxyImplementationEZNS3_26ProxyFactoryImplementation17doCreateProxyListINS2_21DownlinkConfigurationEEEN5caulk8expectedINS6_8DispatchIT_E9ProxyListENS_10error_codeEEERKNS2_17ImmutableDispatchISC_E4TypeEEUlS5_E_NS_9allocatorIS4_EEE21__on_zero_shared_weakEv
00007ff91f642b6c (__TEXT,__text) non-external __ZNSt3__120__shared_ptr_pointerIPN3adm2vp6detail27DownlinkProxyImplementationEZNS3_26ProxyFactoryImplementation17doCreateProxyListINS2_21DownlinkConfigurationEEEN5caulk8expectedINS6_8DispatchIT_E9ProxyListENS_10error_codeEEERKNS2_17ImmutableDispatchISC_E4TypeEEUlS5_E_NS_9allocatorIS4_EEED0Ev
00007ff91f642b3c (__TEXT,__text) non-external __ZNSt3__120__shared_ptr_pointerIPN3adm2vp6detail27DownlinkProxyImplementationEZNS3_26ProxyFactoryImplementation17doCreateProxyListINS2_21DownlinkConfigurationEEEN5caulk8expectedINS6_8DispatchIT_E9ProxyListENS_10error_codeEEERKNS2_17ImmutableDispatchISC_E4TypeEEUlS5_E_NS_9allocatorIS4_EEED1Ev
00007ff91f648e88 (__TEXT,__text) non-external __ZNSt3__120__shared_ptr_pointerIPN3adm3dsp5GraphENS_14default_deleteIS3_EENS_9allocatorIS3_EEE16__on_zero_sharedEv
00007ff91f648eba (__TEXT,__text) non-external __ZNSt3__120__shared_ptr_pointerIPN3adm3dsp5GraphENS_14default_deleteIS3_EENS_9allocatorIS3_EEE21__on_zero_shared_weakEv
00007ff91f648e62 (__TEXT,__text) non-external __ZNSt3__120__shared_ptr_pointerIPN3adm3dsp5GraphENS_14default_deleteIS3_EENS_9allocatorIS3_EEED0Ev
00007ff91f648e58 (__TEXT,__text) non-external __ZNSt3__120__shared_ptr_pointerIPN3adm3dsp5GraphENS_14default_deleteIS3_EENS_9allocatorIS3_EEED1Ev
00007ff91f63dd4c (__TEXT,__text) non-external __ZNSt3__120__shared_ptr_pointerIPN3adm5graph14KernelPropertyENS_14default_deleteIS3_EENS_9allocatorIS3_EEE16__on_zero_sharedEv
00007ff91f63dd7e (__TEXT,__text) non-external __ZNSt3__120__shared_ptr_pointerIPN3adm5graph14KernelPropertyENS_14default_deleteIS3_EENS_9allocatorIS3_EEE21__on_zero_shared_weakEv
00007ff91f63dd26 (__TEXT,__text) non-external __ZNSt3__120__shared_ptr_pointerIPN3adm5graph14KernelPropertyENS_14default_deleteIS3_EENS_9allocatorIS3_EEED0Ev
00007ff91f63dd1c (__TEXT,__text) non-external __ZNSt3__120__shared_ptr_pointerIPN3adm5graph14KernelPropertyENS_14default_deleteIS3_EENS_9allocatorIS3_EEED1Ev
00007ff91f67b064 (__TEXT,__text) non-external __ZNSt3__120__shared_ptr_pointerIPN3adm5graph6KernelENS_14default_deleteIS3_EENS_9allocatorIS3_EEE16__on_zero_sharedEv
00007ff91f67b096 (__TEXT,__text) non-external __ZNSt3__120__shared_ptr_pointerIPN3adm5graph6KernelENS_14default_deleteIS3_EENS_9allocatorIS3_EEE21__on_zero_shared_weakEv
00007ff91f67b03e (__TEXT,__text) non-external __ZNSt3__120__shared_ptr_pointerIPN3adm5graph6KernelENS_14default_deleteIS3_EENS_9allocatorIS3_EEED0Ev
00007ff91f67b034 (__TEXT,__text) non-external __ZNSt3__120__shared_ptr_pointerIPN3adm5graph6KernelENS_14default_deleteIS3_EENS_9allocatorIS3_EEED1Ev
00007ff91f633188 (__TEXT,__text) non-external __ZNSt3__120__shared_ptr_pointerIPN3adm5graph7DSPNodeENS_10shared_ptrIS3_E27__shared_ptr_default_deleteIS3_S3_EENS_9allocatorIS3_EEE16__on_zero_sharedEv
00007ff91f6331ba (__TEXT,__text) non-external __ZNSt3__120__shared_ptr_pointerIPN3adm5graph7DSPNodeENS_10shared_ptrIS3_E27__shared_ptr_default_deleteIS3_S3_EENS_9allocatorIS3_EEE21__on_zero_shared_weakEv
00007ff91f633162 (__TEXT,__text) non-external __ZNSt3__120__shared_ptr_pointerIPN3adm5graph7DSPNodeENS_10shared_ptrIS3_E27__shared_ptr_default_deleteIS3_S3_EENS_9allocatorIS3_EEED0Ev
00007ff91f633158 (__TEXT,__text) non-external __ZNSt3__120__shared_ptr_pointerIPN3adm5graph7DSPNodeENS_10shared_ptrIS3_E27__shared_ptr_default_deleteIS3_S3_EENS_9allocatorIS3_EEED1Ev
00007ff91f64c804 (__TEXT,__text) non-external __ZNSt3__120__shared_ptr_pointerIPN8DSPGraph5GraphENS_14default_deleteIS2_EENS_9allocatorIS2_EEE16__on_zero_sharedEv
00007ff91f64c836 (__TEXT,__text) non-external __ZNSt3__120__shared_ptr_pointerIPN8DSPGraph5GraphENS_14default_deleteIS2_EENS_9allocatorIS2_EEE21__on_zero_shared_weakEv
00007ff91f64c7de (__TEXT,__text) non-external __ZNSt3__120__shared_ptr_pointerIPN8DSPGraph5GraphENS_14default_deleteIS2_EENS_9allocatorIS2_EEED0Ev
00007ff91f64c7d4 (__TEXT,__text) non-external __ZNSt3__120__shared_ptr_pointerIPN8DSPGraph5GraphENS_14default_deleteIS2_EENS_9allocatorIS2_EEED1Ev
00007ff91f626774 (__TEXT,__text) non-external __ZNSt3__120__throw_length_errorB8ne180100EPKc
00007ff91f62791a (__TEXT,__text) non-external __ZNSt3__120__throw_out_of_rangeB8ne180100EPKc
00007ff91f67c4ce (__TEXT,__text) non-external __ZNSt3__122__compressed_pair_elemIZN3adm21CustomPropertyManager12attachToNodeERKNS_10shared_ptrINS1_5graph7DSPNodeEEERKNS_3setINS_12basic_stringIcNS_11char_traitsIcEENS_9allocatorIcEEEENS_4lessISF_EENSD_ISF_EEEEE3$_2Li0ELb0EEC2B8ne180100IJRKSM_EJLm0EEEENS_21piecewise_construct_tENS_5tupleIJDpT_EEENS_15__tuple_indicesIJXspT0_EEEE
00007ff91f62b8c8 (__TEXT,__text) non-external __ZNSt3__122__compressed_pair_elemIZN3adm5graph11NodeManagerC1ERKNS1_19SystemConfigurationEE3$_0Li0ELb0EEC2B8ne180100IJRKS7_EJLm0EEEENS_21piecewise_construct_tENS_5tupleIJDpT_EEENS_15__tuple_indicesIJXspT0_EEEE
00007ff91f635ec4 (__TEXT,__text) non-external __ZNSt3__123__optional_storage_baseINS_12basic_stringIcNS_11char_traitsIcEENS_9allocatorIcEEEELb0EE13__assign_fromB8ne180100IRKNS_27__optional_copy_assign_baseIS6_Lb0EEEEEvOT_
00007ff91f651194 (__TEXT,__text) non-external __ZNSt3__124__optional_destruct_baseIN10applesauce2CF13DictionaryRefELb0EED2B8ne180100Ev
00007ff91f65f5d0 (__TEXT,__text) non-external __ZNSt3__124__optional_destruct_baseIN2CA12AudioBuffersELb0EED2B8ne180100Ev
00007ff91f652c7a (__TEXT,__text) non-external __ZNSt3__124__optional_destruct_baseIN3adm19SystemConfigurationELb0EEC2B8ne180100IJS2_EEENS_10in_place_tEDpOT_
00007ff91f6710fe (__TEXT,__text) non-external __ZNSt3__124__optional_destruct_baseIN3adm26ConfigurationChangeRequestELb0EE5resetB8ne180100Ev
00007ff91f67033e (__TEXT,__text) non-external __ZNSt3__124__optional_destruct_baseIN3adm26ConfigurationChangeRequestELb0EED2B8ne180100Ev
00007ff91f631757 (__TEXT,__text) non-external __ZNSt3__124__put_character_sequenceB8ne180100IcNS_11char_traitsIcEEEERNS_13basic_ostreamIT_T0_EES7_PKS4_m
00007ff91f64265e (__TEXT,__text) non-external __ZNSt3__125__throw_bad_function_callB8ne180100Ev
00007ff91f6377cf (__TEXT,__text) non-external __ZNSt3__126__throw_bad_variant_accessB8ne180100Ev
00007ff91f6600a2 (__TEXT,__text) non-external __ZNSt3__127__throw_bad_optional_accessB8ne180100Ev
00007ff91f6280b7 (__TEXT,__text) non-external __ZNSt3__127__tree_balance_after_insertB8ne180100IPNS_16__tree_node_baseIPvEEEEvT_S5_
00007ff91f67187c (__TEXT,__text) non-external __ZNSt3__128__exception_guard_exceptionsINS_29_AllocatorDestroyRangeReverseINS_9allocatorIN3adm19DeviceConfigurationEEEPS4_EEED2B8ne180100Ev
00007ff91f627f34 (__TEXT,__text) non-external __ZNSt3__128__exception_guard_exceptionsINS_29_AllocatorDestroyRangeReverseINS_9allocatorIN8nlohmann10basic_jsonINS_3mapENS_6vectorENS_12basic_stringIcNS_11char_traitsIcEENS2_IcEEEEbxydS2_NS3_14adl_serializerENS6_IhNS2_IhEEEEEEEEPSF_EEED2B8ne180100Ev
00007ff91f62cc7c (__TEXT,__text) non-external __ZNSt3__128__exception_guard_exceptionsINS_29_AllocatorDestroyRangeReverseINS_9allocatorINS_4__fs10filesystem4pathEEEPS5_EEED2B8ne180100Ev
00007ff91f648c48 (__TEXT,__text) non-external __ZNSt3__128__exception_guard_exceptionsINS_29_AllocatorDestroyRangeReverseINS_9allocatorIZN3adm5graph6detailL20createTerminalBusMapERKNS4_19KernelConfigurationERKNS3_3dsp5GraphEE19DSPGraphBusSemanticEEPSD_EEED1B8ne180100Ev
00007ff91f6717a9 (__TEXT,__text) non-external __ZNSt3__135__uninitialized_allocator_copy_implB8ne180100INS_9allocatorIN3adm19DeviceConfigurationEEEPS3_S5_S5_EET2_RT_T0_T1_S6_
00007ff91f62ca86 (__TEXT,__text) non-external __ZNSt3__135__uninitialized_allocator_copy_implB8ne180100INS_9allocatorIN3adm26DSPGraphBasicConfiguration22AUPresetOverrideConfigEEEPS4_S6_S6_EET2_RT_T0_T1_S7_
00007ff91f62cbd7 (__TEXT,__text) non-external __ZNSt3__135__uninitialized_allocator_copy_implB8ne180100INS_9allocatorINS_4__fs10filesystem4pathEEEPS4_S6_S6_EET2_RT_T0_T1_S7_
00007ff91f67b75e (__TEXT,__text) non-external __ZNSt3__13mapIjNS_6atomicIfEENS_4lessIjEENS_9allocatorINS_4pairIKjS2_EEEEE2atERS7_
00007ff91f62741c (__TEXT,__text) non-external __ZNSt3__142__uninitialized_allocator_move_if_noexceptB8ne180100INS_9allocatorIN8nlohmann10basic_jsonINS_3mapENS_6vectorENS_12basic_stringIcNS_11char_traitsIcEENS1_IcEEEEbxydS1_NS2_14adl_serializerENS5_IhNS1_IhEEEEEEEENS_16reverse_iteratorIPSE_EESI_SI_EET2_RT_T0_T1_SJ_
                 (undefined) external __ZNSt3__14__fs10filesystem20__create_directoriesERKNS1_4pathEPNS_10error_codeE (from libc++)
00007ff91f6512aa (__TEXT,__text) non-external __ZNSt3__14__fs10filesystem4pathC2B8ne180100IA13_cvEERKT_NS2_6formatE
00007ff91f635cd2 (__TEXT,__text) non-external __ZNSt3__14__fs10filesystem4pathC2B8ne180100IA31_cvEERKT_NS2_6formatE
00007ff91f651260 (__TEXT,__text) non-external __ZNSt3__14__fs10filesystem4pathC2B8ne180100IA4_cvEERKT_NS2_6formatE
00007ff91f652bcc (__TEXT,__text) non-external __ZNSt3__14__fs10filesystem4pathC2B8ne180100INS_12basic_stringIcNS_11char_traitsIcEENS_9allocatorIcEEEEvEERKT_NS2_6formatE
00007ff91f650f5c (__TEXT,__text) non-external __ZNSt3__14__fs10filesystem4pathC2B8ne180100IPKcvEERKT_NS2_6formatE
00007ff91f652c25 (__TEXT,__text) non-external __ZNSt3__14__fs10filesystem6existsB8ne180100ERKNS1_4pathERNS_10error_codeE
                 (undefined) external __ZNSt3__14__fs10filesystem8__statusERKNS1_4pathEPNS_10error_codeE (from libc++)
00007ff91f6511b8 (__TEXT,__text) non-external __ZNSt3__14__fs10filesystemdvB8ne180100ERKNS1_4pathES4_
00007ff91f6379da (__TEXT,__text) non-external __ZNSt3__14__fs10filesystemeqB8ne180100ERKNS1_4pathES4_
00007ff91f62c81a (__TEXT,__text) non-external __ZNSt3__14pairIKNS_12basic_stringIcNS_11char_traitsIcEENS_9allocatorIcEEEEN3adm26DSPGraphBasicConfigurationEEC2B8ne180100ERKSA_
00007ff91f64e830 (__TEXT,__text) non-external __ZNSt3__14pairIKNS_12basic_stringIcNS_11char_traitsIcEENS_9allocatorIcEEEEN8nlohmann10basic_jsonINS_3mapENS_6vectorES6_bxydS4_NS8_14adl_serializerENSB_IhNS4_IhEEEEEEED1Ev
00007ff91f62c1a6 (__TEXT,__text) non-external __ZNSt3__14pairIKNS_12basic_stringIcNS_11char_traitsIcEENS_9allocatorIcEEEENS_13unordered_mapIS6_N3adm26DSPGraphBasicConfigurationENS_4hashIS6_EENS_8equal_toIS6_EENS4_INS0_IS7_SA_EEEEEEEC2B8ne180100ERKSI_
                 (undefined) external __ZNSt3__15ctypeIcE2idE (from libc++)
                 (undefined) external __ZNSt3__15mutexD1Ev (from libc++)
                 (undefined) external __ZNSt3__16__sortIRNS_6__lessIjjEEPjEEvT0_S5_T_ (from libc++)
00007ff91f63150c (__TEXT,__text) non-external __ZNSt3__16__treeINS_12__value_typeIN5boost16exception_detail10type_info_ENS2_10shared_ptrINS3_15error_info_baseEEEEENS_19__map_value_compareIS4_S8_NS_4lessIS4_EELb1EEENS_9allocatorIS8_EEE12__find_equalIS4_EERPNS_16__tree_node_baseIPvEERPNS_15__tree_end_nodeISK_EERKT_
00007ff91f628024 (__TEXT,__text) non-external __ZNSt3__16__treeINS_12__value_typeIN5boost16exception_detail10type_info_ENS2_10shared_ptrINS3_15error_info_baseEEEEENS_19__map_value_compareIS4_S8_NS_4lessIS4_EELb1EEENS_9allocatorIS8_EEE16__insert_node_atEPNS_15__tree_end_nodeIPNS_16__tree_node_baseIPvEEEERSK_SK_
00007ff91f631642 (__TEXT,__text) non-external __ZNSt3__16__treeINS_12__value_typeIN5boost16exception_detail10type_info_ENS2_10shared_ptrINS3_15error_info_baseEEEEENS_19__map_value_compareIS4_S8_NS_4lessIS4_EELb1EEENS_9allocatorIS8_EEE7destroyEPNS_11__tree_nodeIS8_PvEE
00007ff91f666902 (__TEXT,__text) non-external __ZNSt3__16__treeINS_12__value_typeINS_12basic_stringIcNS_11char_traitsIcEENS_9allocatorIcEEEEN3adm19DeviceConfigurationEEENS_19__map_value_compareIS7_SA_NS_4lessIS7_EELb1EEENS5_ISA_EEE25__emplace_unique_key_argsIS7_JRKNS_21piecewise_construct_tENS_5tupleIJRKS7_EEENSL_IJEEEEEENS_4pairINS_15__tree_iteratorISA_PNS_11__tree_nodeISA_PvEElEEbEERKT_DpOT0_
00007ff91f666b1c (__TEXT,__text) non-external __ZNSt3__16__treeINS_12__value_typeINS_12basic_stringIcNS_11char_traitsIcEENS_9allocatorIcEEEEN3adm19DeviceConfigurationEEENS_19__map_value_compareIS7_SA_NS_4lessIS7_EELb1EEENS5_ISA_EEE7destroyEPNS_11__tree_nodeISA_PvEE
00007ff91f62827e (__TEXT,__text) non-external __ZNSt3__16__treeINS_12__value_typeINS_12basic_stringIcNS_11char_traitsIcEENS_9allocatorIcEEEEN8nlohmann10basic_jsonINS_3mapENS_6vectorES7_bxydS5_NS8_14adl_serializerENSB_IhNS5_IhEEEEEEEENS_19__map_value_compareIS7_SG_NS_4lessIvEELb1EEENS5_ISG_EEE12__find_equalIS7_EERPNS_16__tree_node_baseIPvEERPNS_15__tree_end_nodeISR_EERKT_
00007ff91f627f7e (__TEXT,__text) non-external __ZNSt3__16__treeINS_12__value_typeINS_12basic_stringIcNS_11char_traitsIcEENS_9allocatorIcEEEEN8nlohmann10basic_jsonINS_3mapENS_6vectorES7_bxydS5_NS8_14adl_serializerENSB_IhNS5_IhEEEEEEEENS_19__map_value_compareIS7_SG_NS_4lessIvEELb1EEENS5_ISG_EEE16__construct_nodeIJRKNS_4pairIKS7_SF_EEEEENS_10unique_ptrINS_11__tree_nodeISG_PvEENS_22__tree_node_destructorINS5_ISW_EEEEEEDpOT_
00007ff91f628024 (__TEXT,__text) non-external __ZNSt3__16__treeINS_12__value_typeINS_12basic_stringIcNS_11char_traitsIcEENS_9allocatorIcEEEEN8nlohmann10basic_jsonINS_3mapENS_6vectorES7_bxydS5_NS8_14adl_serializerENSB_IhNS5_IhEEEEEEEENS_19__map_value_compareIS7_SG_NS_4lessIvEELb1EEENS5_ISG_EEE16__insert_node_atEPNS_15__tree_end_nodeIPNS_16__tree_node_baseIPvEEEERSR_SR_
00007ff91f6272c8 (__TEXT,__text) non-external __ZNSt3__16__treeINS_12__value_typeINS_12basic_stringIcNS_11char_traitsIcEENS_9allocatorIcEEEEN8nlohmann10basic_jsonINS_3mapENS_6vectorES7_bxydS5_NS8_14adl_serializerENSB_IhNS5_IhEEEEEEEENS_19__map_value_compareIS7_SG_NS_4lessIvEELb1EEENS5_ISG_EEE7destroyEPNS_11__tree_nodeISG_PvEE
00007ff91f67b402 (__TEXT,__text) non-external __ZNSt3__16__treeINS_12__value_typeIjNS_6atomicIfEEEENS_19__map_value_compareIjS4_NS_4lessIjEELb1EEENS_9allocatorIS4_EEE25__emplace_unique_key_argsIjJRKNS_21piecewise_construct_tENS_5tupleIJRKjEEENSG_IJEEEEEENS_4pairINS_15__tree_iteratorIS4_PNS_11__tree_nodeIS4_PvEElEEbEERKT_DpOT0_
00007ff91f6704b4 (__TEXT,__text) non-external __ZNSt3__16__treeINS_12__value_typeIjNS_6atomicIfEEEENS_19__map_value_compareIjS4_NS_4lessIjEELb1EEENS_9allocatorIS4_EEE7destroyEPNS_11__tree_nodeIS4_PvEE
00007ff91f62827e (__TEXT,__text) non-external __ZNSt3__16__treeINS_12basic_stringIcNS_11char_traitsIcEENS_9allocatorIcEEEENS_4lessIS6_EENS4_IS6_EEE12__find_equalIS6_EERPNS_16__tree_node_baseIPvEERPNS_15__tree_end_nodeISF_EERKT_
00007ff91f628024 (__TEXT,__text) non-external __ZNSt3__16__treeINS_12basic_stringIcNS_11char_traitsIcEENS_9allocatorIcEEEENS_4lessIS6_EENS4_IS6_EEE16__insert_node_atEPNS_15__tree_end_nodeIPNS_16__tree_node_baseIPvEEEERSF_SF_
00007ff91f66c2f0 (__TEXT,__text) non-external __ZNSt3__16__treeINS_12basic_stringIcNS_11char_traitsIcEENS_9allocatorIcEEEENS_4lessIS6_EENS4_IS6_EEE25__emplace_unique_key_argsIS6_JRKS6_EEENS_4pairINS_15__tree_iteratorIS6_PNS_11__tree_nodeIS6_PvEElEEbEERKT_DpOT0_
00007ff91f66ac4a (__TEXT,__text) non-external __ZNSt3__16__treeINS_12basic_stringIcNS_11char_traitsIcEENS_9allocatorIcEEEENS_4lessIS6_EENS4_IS6_EEE25__emplace_unique_key_argsIS6_JS6_EEENS_4pairINS_15__tree_iteratorIS6_PNS_11__tree_nodeIS6_PvEElEEbEERKT_DpOT0_
00007ff91f66c390 (__TEXT,__text) non-external __ZNSt3__16__treeINS_12basic_stringIcNS_11char_traitsIcEENS_9allocatorIcEEEENS_4lessIS6_EENS4_IS6_EEE7destroyEPNS_11__tree_nodeIS6_PvEE
00007ff91f648d74 (__TEXT,__text) non-external __ZNSt3__16__treeIZN3adm5graph6detailL20createTerminalBusMapERKNS2_19KernelConfigurationERKNS1_3dsp5GraphEE19DSPGraphBusSemanticNS_8functionIFbRKSB_SE_EEENS_9allocatorISB_EEE7destroyEPNS_11__tree_nodeISB_PvEE
                 (undefined) external __ZNSt3__16chrono12system_clock3nowEv (from libc++)
                 (undefined) external __ZNSt3__16localeC1ERKS0_ (from libc++)
                 (undefined) external __ZNSt3__16localeC1Ev (from libc++)
                 (undefined) external __ZNSt3__16localeD1Ev (from libc++)
00007ff91f6537ee (__TEXT,__text) non-external __ZNSt3__16vectorIN10applesauce2CF13DictionaryRefENS_9allocatorIS3_EEE16__destroy_vectorclB8ne180100Ev
00007ff91f648eda (__TEXT,__text) non-external __ZNSt3__16vectorIN2CA12AudioBuffersENS_9allocatorIS2_EEE12emplace_backIJRKNS1_17StreamDescriptionEiEEERS2_DpOT_
00007ff91f65897c (__TEXT,__text) non-external __ZNSt3__16vectorIN2CA12AudioBuffersENS_9allocatorIS2_EEE12emplace_backIJRKNS1_17StreamDescriptionEjEEERS2_DpOT_
00007ff91f6439ec (__TEXT,__text) non-external __ZNSt3__16vectorIN2CA12AudioBuffersENS_9allocatorIS2_EEE16__destroy_vectorclB8ne180100Ev
00007ff91f6490a8 (__TEXT,__text) non-external __ZNSt3__16vectorIN2CA12AudioBuffersENS_9allocatorIS2_EEE26__swap_out_circular_bufferERNS_14__split_bufferIS2_RS4_EE
00007ff91f67168c (__TEXT,__text) non-external __ZNSt3__16vectorIN2CA17StreamDescriptionENS_9allocatorIS2_EEE16__init_with_sizeB8ne180100IPS2_S7_EEvT_T0_m
00007ff91f6704e2 (__TEXT,__text) non-external __ZNSt3__16vectorIN3adm17DeviceDescriptionENS_9allocatorIS2_EEE16__destroy_vectorclB8ne180100Ev
00007ff91f66c122 (__TEXT,__text) non-external __ZNSt3__16vectorIN3adm17DeviceDescriptionENS_9allocatorIS2_EEE9push_backB8ne180100EOS2_
00007ff91f67176a (__TEXT,__text) non-external __ZNSt3__16vectorIN3adm19DeviceConfigurationENS_9allocatorIS2_EEE11__vallocateB8ne180100Em
00007ff91f6711e2 (__TEXT,__text) non-external __ZNSt3__16vectorIN3adm19DeviceConfigurationENS_9allocatorIS2_EEE13__vdeallocateEv
00007ff91f666aea (__TEXT,__text) non-external __ZNSt3__16vectorIN3adm19DeviceConfigurationENS_9allocatorIS2_EEE16__destroy_vectorclB8ne180100Ev
00007ff91f666b56 (__TEXT,__text) non-external __ZNSt3__16vectorIN3adm19DeviceConfigurationENS_9allocatorIS2_EEE22__base_destruct_at_endB8ne180100EPS2_
00007ff91f66c296 (__TEXT,__text) non-external __ZNSt3__16vectorIN3adm25HardwareStreamDescriptionENS_9allocatorIS2_EEE16__destroy_vectorclB8ne180100Ev
00007ff91f66bf9a (__TEXT,__text) non-external __ZNSt3__16vectorIN3adm25HardwareStreamDescriptionENS_9allocatorIS2_EEE9push_backB8ne180100EOS2_
00007ff91f62ca44 (__TEXT,__text) non-external __ZNSt3__16vectorIN3adm26DSPGraphBasicConfiguration22AUPresetOverrideConfigENS_9allocatorIS3_EEE11__vallocateB8ne180100Em
00007ff91f62b138 (__TEXT,__text) non-external __ZNSt3__16vectorIN3adm26DSPGraphBasicConfiguration22AUPresetOverrideConfigENS_9allocatorIS3_EEE16__destroy_vectorclB8ne180100Ev
00007ff91f630806 (__TEXT,__text) non-external __ZNSt3__16vectorIN3adm2vp23UplinkNodeConfigurationENS_9allocatorIS3_EEE16__destroy_vectorclB8ne180100Ev
00007ff91f630806 (__TEXT,__text) non-external __ZNSt3__16vectorIN3adm2vp25DownlinkNodeConfigurationENS_9allocatorIS3_EEE16__destroy_vectorclB8ne180100Ev
00007ff91f632c30 (__TEXT,__text) non-external __ZNSt3__16vectorIN3adm5graph19TerminalDescriptionENS_9allocatorIS3_EEE16__destroy_vectorclB8ne180100Ev
00007ff91f627efc (__TEXT,__text) non-external __ZNSt3__16vectorIN8nlohmann10basic_jsonINS_3mapES0_NS_12basic_stringIcNS_11char_traitsIcEENS_9allocatorIcEEEEbxydS7_NS1_14adl_serializerENS0_IhNS7_IhEEEEEENS7_ISD_EEE11__vallocateB8ne180100Em
00007ff91f62731c (__TEXT,__text) non-external __ZNSt3__16vectorIN8nlohmann10basic_jsonINS_3mapES0_NS_12basic_stringIcNS_11char_traitsIcEENS_9allocatorIcEEEEbxydS7_NS1_14adl_serializerENS0_IhNS7_IhEEEEEENS7_ISD_EEE16__destroy_vectorclB8ne180100Ev
00007ff91f627190 (__TEXT,__text) non-external __ZNSt3__16vectorIN8nlohmann10basic_jsonINS_3mapES0_NS_12basic_stringIcNS_11char_traitsIcEENS_9allocatorIcEEEEbxydS7_NS1_14adl_serializerENS0_IhNS7_IhEEEEEENS7_ISD_EEE21__push_back_slow_pathISD_EEPSD_OT_
00007ff91f62704c (__TEXT,__text) non-external __ZNSt3__16vectorIN8nlohmann10basic_jsonINS_3mapES0_NS_12basic_stringIcNS_11char_traitsIcEENS_9allocatorIcEEEEbxydS7_NS1_14adl_serializerENS0_IhNS7_IhEEEEEENS7_ISD_EEE7reserveEm
00007ff91f63d984 (__TEXT,__text) non-external __ZNSt3__16vectorINS_10shared_ptrIN3adm2vp6detail25UplinkProxyImplementationEEENS_9allocatorIS6_EEE16__destroy_vectorclB8ne180100Ev
00007ff91f63d984 (__TEXT,__text) non-external __ZNSt3__16vectorINS_10shared_ptrIN3adm5graph14KernelPropertyEEENS_9allocatorIS5_EEE16__destroy_vectorclB8ne180100Ev
00007ff91f643a46 (__TEXT,__text) non-external __ZNSt3__16vectorINS_10unique_ptrI20OpaqueAudioConverterN10applesauce4raii2v16detail23opaque_deletion_functorIPS2_XadL_Z21AudioConverterDisposeEEEEEENS_9allocatorISA_EEE16__destroy_vectorclB8ne180100Ev
00007ff91f65884a (__TEXT,__text) non-external __ZNSt3__16vectorINS_10unique_ptrI20OpaqueAudioConverterN10applesauce4raii2v16detail23opaque_deletion_functorIPS2_XadL_Z21AudioConverterDisposeEEEEEENS_9allocatorISA_EEE7reserveEm
00007ff91f62b18e (__TEXT,__text) non-external __ZNSt3__16vectorINS_12basic_stringIcNS_11char_traitsIcEENS_9allocatorIcEEEENS4_IS6_EEE16__destroy_vectorclB8ne180100Ev
00007ff91f62b1c0 (__TEXT,__text) non-external __ZNSt3__16vectorINS_12basic_stringIcNS_11char_traitsIcEENS_9allocatorIcEEEENS4_IS6_EEE22__base_destruct_at_endB8ne180100EPS6_
00007ff91f6497c4 (__TEXT,__text) non-external __ZNSt3__16vectorINS_12basic_stringIcNS_11char_traitsIcEENS_9allocatorIcEEEENS4_IS6_EEE26__swap_out_circular_bufferERNS_14__split_bufferIS6_RS7_EE
00007ff91f62cb98 (__TEXT,__text) non-external __ZNSt3__16vectorINS_4__fs10filesystem4pathENS_9allocatorIS3_EEE11__vallocateB8ne180100Em
00007ff91f62b18e (__TEXT,__text) non-external __ZNSt3__16vectorINS_4__fs10filesystem4pathENS_9allocatorIS3_EEE16__destroy_vectorclB8ne180100Ev
00007ff91f62c9d2 (__TEXT,__text) non-external __ZNSt3__16vectorINS_4__fs10filesystem4pathENS_9allocatorIS3_EEE16__init_with_sizeB8ne180100IPS3_S8_EEvT_T0_m
00007ff91f6371b4 (__TEXT,__text) non-external __ZNSt3__16vectorINS_4__fs10filesystem4pathENS_9allocatorIS3_EEE18__assign_with_sizeB8ne180100IPS3_S8_EEvT_T0_l
00007ff91f6496a8 (__TEXT,__text) non-external __ZNSt3__16vectorINS_4__fs10filesystem4pathENS_9allocatorIS3_EEE21__push_back_slow_pathIRKS3_EEPS3_OT_
00007ff91f62b1c0 (__TEXT,__text) non-external __ZNSt3__16vectorINS_4__fs10filesystem4pathENS_9allocatorIS3_EEE22__base_destruct_at_endB8ne180100EPS3_
00007ff91f64965a (__TEXT,__text) non-external __ZNSt3__16vectorINS_4__fs10filesystem4pathENS_9allocatorIS3_EEE22__construct_one_at_endB8ne180100IJRKS3_EEEvDpOT_
00007ff91f6497c4 (__TEXT,__text) non-external __ZNSt3__16vectorINS_4__fs10filesystem4pathENS_9allocatorIS3_EEE26__swap_out_circular_bufferERNS_14__split_bufferIS3_RS5_EE
00007ff91f63dff8 (__TEXT,__text) non-external __ZNSt3__16vectorINS_5tupleIJN3adm2vp23UplinkNodeConfiguration10OutputTypeEN2CA17StreamDescriptionEEEENS_9allocatorIS8_EEE16__init_with_sizeB8ne180100IPS8_SD_EEvT_T0_m
00007ff91f63df58 (__TEXT,__text) non-external __ZNSt3__16vectorINS_5tupleIJN3adm2vp23UplinkNodeConfiguration9InputTypeEN2CA17StreamDescriptionEEEENS_9allocatorIS8_EEE16__init_with_sizeB8ne180100IPS8_SD_EEvT_T0_m
00007ff91f6309d2 (__TEXT,__text) non-external __ZNSt3__16vectorINS_5tupleIJN3adm2vp25DownlinkNodeConfiguration10OutputTypeEN2CA17StreamDescriptionEEEENS_9allocatorIS8_EEE16__init_with_sizeB8ne180100IPS8_SD_EEvT_T0_m
00007ff91f630928 (__TEXT,__text) non-external __ZNSt3__16vectorINS_5tupleIJN3adm2vp25DownlinkNodeConfiguration9InputTypeEN2CA17StreamDescriptionEEEENS_9allocatorIS8_EEE16__init_with_sizeB8ne180100IPS8_SD_EEvT_T0_m
00007ff91f633530 (__TEXT,__text) non-external __ZNSt3__16vectorINS_5tupleIJjNS_8functionIFvjEEEEEENS_9allocatorIS5_EEE16__destroy_vectorclB8ne180100Ev
00007ff91f633530 (__TEXT,__text) non-external __ZNSt3__16vectorINS_5tupleIJjNS_8functionIFvjRKN4AMCP15Proc_Cycle_InfoEEEEEEENS_9allocatorIS9_EEE16__destroy_vectorclB8ne180100Ev
00007ff91f67b1b4 (__TEXT,__text) non-external __ZNSt3__16vectorINS_5tupleIJjNS_8functionIFvjRKN4AMCP15Proc_Cycle_InfoEmPNS3_11Proc_StreamEmS8_EEEEEENS_9allocatorISB_EEE12emplace_backIJRjSA_EEERSB_DpOT_
00007ff91f633530 (__TEXT,__text) non-external __ZNSt3__16vectorINS_5tupleIJjNS_8functionIFvjRKN4AMCP15Proc_Cycle_InfoEmPNS3_11Proc_StreamEmS8_EEEEEENS_9allocatorISB_EEE16__destroy_vectorclB8ne180100Ev
00007ff91f63e290 (__TEXT,__text) non-external __ZNSt3__16vectorINS_8weak_ptrIN3adm2vp6detail25UplinkProxyImplementationEEENS_9allocatorIS6_EEE16__destroy_vectorclB8ne180100Ev
00007ff91f63e290 (__TEXT,__text) non-external __ZNSt3__16vectorINS_8weak_ptrIN3adm2vp6detail27DownlinkProxyImplementationEEENS_9allocatorIS6_EEE16__destroy_vectorclB8ne180100Ev
00007ff91f653d88 (__TEXT,__text) non-external __ZNSt3__16vectorIPKvNS_9allocatorIS2_EEE6resizeEm
00007ff91f67d49a (__TEXT,__text) non-external __ZNSt3__16vectorIPKvNS_9allocatorIS2_EEE7reserveEm
00007ff91f648c0e (__TEXT,__text) non-external __ZNSt3__16vectorIZN3adm5graph6detailL20createTerminalBusMapERKNS2_19KernelConfigurationERKNS1_3dsp5GraphEE19DSPGraphBusSemanticNS_9allocatorISB_EEE11__vallocateB8ne180100Em
00007ff91f648bda (__TEXT,__text) non-external __ZNSt3__16vectorIZN3adm5graph6detailL20createTerminalBusMapERKNS2_19KernelConfigurationERKNS1_3dsp5GraphEE19DSPGraphBusSemanticNS_9allocatorISB_EEE13__vdeallocateEv
00007ff91f648c82 (__TEXT,__text) non-external __ZNSt3__16vectorIZN3adm5graph6detailL20createTerminalBusMapERKNS2_19KernelConfigurationERKNS1_3dsp5GraphEE19DSPGraphBusSemanticNS_9allocatorISB_EEE16__destroy_vectorclB8ne180100Ev
00007ff91f648b98 (__TEXT,__text) non-external __ZNSt3__16vectorIZN3adm5graph6detailL20createTerminalBusMapERKNS2_19KernelConfigurationERKNS1_3dsp5GraphEE19DSPGraphBusSemanticNS_9allocatorISB_EEE22__base_destruct_at_endB8ne180100EPSB_
00007ff91f66c6f6 (__TEXT,__text) non-external __ZNSt3__16vectorIcNS_9allocatorIcEEE13__move_assignERS3_NS_17integral_constantIbLb1EEE
00007ff91f6429ee (__TEXT,__text) non-external __ZNSt3__16vectorIfNS_9allocatorIfEEE16__init_with_sizeB8ne180100IPfS5_EEvT_T0_m
00007ff91f627eba (__TEXT,__text) non-external __ZNSt3__16vectorIhNS_9allocatorIhEEE11__vallocateB8ne180100Em
00007ff91f642cd6 (__TEXT,__text) non-external __ZNSt3__16vectorIjNS_9allocatorIjEEE11__vallocateB8ne180100Em
00007ff91f65e1da (__TEXT,__text) non-external __ZNSt3__16vectorIjNS_9allocatorIjEEE16__init_with_sizeB8ne180100IPKjS6_EEvT_T0_m
00007ff91f642c72 (__TEXT,__text) non-external __ZNSt3__16vectorIjNS_9allocatorIjEEE16__init_with_sizeB8ne180100IPjS5_EEvT_T0_m
                 (undefined) external __ZNSt3__18ios_base33__set_badbit_and_consider_rethrowEv (from libc++)
                 (undefined) external __ZNSt3__18ios_base4initEPv (from libc++)
                 (undefined) external __ZNSt3__18ios_base5clearEj (from libc++)
00007ff91f66bea0 (__TEXT,__text) non-external __ZNSt3__18optionalIN2CA13ChannelLayoutEEaSB8ne180100IS2_vEERS3_OT_
00007ff91f670d52 (__TEXT,__text) non-external __ZNSt3__18optionalIN3adm26ConfigurationChangeRequestEEaSB8ne180100IS2_vEERS3_OT_
00007ff91f66bf22 (__TEXT,__text) non-external __ZNSt3__18optionalINS_12basic_stringIcNS_11char_traitsIcEENS_9allocatorIcEEEEEaSB8ne180100IPKcvEERS7_OT_
                 (undefined) external __ZNSt3__19basic_iosIcNS_11char_traitsIcEEED2Ev (from libc++)
                 (undefined) external __ZNSt3__19to_stringEf (from libc++)
                 (undefined) external __ZNSt3__19to_stringEi (from libc++)
                 (undefined) external __ZNSt3__19to_stringEj (from libc++)
                 (undefined) external __ZNSt3__19to_stringEl (from libc++)
                 (undefined) external __ZNSt3__19to_stringEm (from libc++)
00007ff91f63d527 (__TEXT,__text) non-external __ZNSt3__1eqB8ne180100INS_12basic_stringIcNS_11char_traitsIcEENS_9allocatorIcEEEEA10_cEENS_9enable_ifIX16is_convertible_vIDTeqclsr3stdE7declvalIRKT_EEclsr3stdE7declvalIRKT0_EEEbEEbE4typeERKNS_8optionalIS9_EESE_
00007ff91f6600d4 (__TEXT,__text) non-external __ZNSt3__1eqB8ne180100INS_12basic_stringIcNS_11char_traitsIcEENS_9allocatorIcEEEES6_EENS_9enable_ifIX16is_convertible_vIDTeqclsr3stdE7declvalIRKT_EEclsr3stdE7declvalIRKT0_EEEbEEbE4typeERKNS_8optionalIS8_EESD_
00007ff91f6616b6 (__TEXT,__text) non-external __ZNSt3__1eqB8ne180100IcNS_11char_traitsIcEENS_9allocatorIcEEEEbRKNS_12basic_stringIT_T0_T1_EEPKS6_
00007ff91f6616f8 (__TEXT,__text) non-external __ZNSt3__1neB8ne180100INS_12basic_stringIcNS_11char_traitsIcEENS_9allocatorIcEEEEA10_cEENS_9enable_ifIX16is_convertible_vIDTneclsr3stdE7declvalIRKT_EEclsr3stdE7declvalIRKT0_EEEbEEbE4typeERKNS_8optionalIS9_EESE_
00007ff91f62a785 (__TEXT,__text) non-external __ZNSt3__1plB8ne180100IcNS_11char_traitsIcEENS_9allocatorIcEEEENS_12basic_stringIT_T0_T1_EEOS9_PKS6_
00007ff91f62a7d6 (__TEXT,__text) non-external __ZNSt3__1plB8ne180100IcNS_11char_traitsIcEENS_9allocatorIcEEEENS_12basic_stringIT_T0_T1_EEOS9_RKS9_
00007ff91f648b47 (__TEXT,__text) non-external __ZNSt3__1plB8ne180100IcNS_11char_traitsIcEENS_9allocatorIcEEEENS_12basic_stringIT_T0_T1_EEOS9_SA_
00007ff91f6274c9 (__TEXT,__text) non-external __ZNSt3__1plB8ne180100IcNS_11char_traitsIcEENS_9allocatorIcEEEENS_12basic_stringIT_T0_T1_EEPKS6_OS9_
                 (undefined) external __ZNSt3__1plIcNS_11char_traitsIcEENS_9allocatorIcEEEENS_12basic_stringIT_T0_T1_EEPKS6_RKS9_ (from libc++)
00007ff91f628219 (__TEXT,__text) non-external __ZNSt3__1ssB8ne180100IcNS_11char_traitsIcEENS_9allocatorIcEEEEDaRKNS_12basic_stringIT_T0_T1_EESC_
                 (undefined) external __ZNSt9bad_allocC2Ev (from libc++)
                 (undefined) external __ZNSt9bad_allocD2Ev (from libc++)
                 (undefined) external __ZNSt9exceptionD2Ev (from libc++)
00007ff91f627498 (__TEXT,__text) non-external __ZSt28__throw_bad_array_new_lengthB8ne180100v
00007ff91f640df2 (__TEXT,__text) non-external __ZSt7to_jsonRN8nlohmann10basic_jsonINSt3__13mapENS1_6vectorENS1_12basic_stringIcNS1_11char_traitsIcEENS1_9allocatorIcEEEEbxydS7_NS_14adl_serializerENS3_IhNS7_IhEEEEEERKNS1_10error_codeE
                 (undefined) external __ZSt9terminatev (from libc++)
00007ff94333f960 (__DATA_CONST,__const) non-external __ZTI18AudioChannelLayout
00007ff943341c60 (__DATA_CONST,__const) non-external __ZTIFiP7__sFILEE
00007ff943341d00 (__DATA_CONST,__const) non-external __ZTIN12_GLOBAL__N_113ErrorCategoryE
00007ff943341ab8 (__DATA_CONST,__const) non-external __ZTIN3adm2vp13ErrorCategoryE
00007ff943340b50 (__DATA_CONST,__const) non-external __ZTIN3adm2vp16SPIErrorCategoryE
00007ff943341a18 (__DATA_CONST,__const) non-external __ZTIN3adm2vp6detail19ProxyImplementationINS0_19UplinkConfigurationEEE
00007ff943341a50 (__DATA_CONST,__const) non-external __ZTIN3adm2vp6detail19ProxyImplementationINS0_21DownlinkConfigurationEEE
00007ff943341a88 (__DATA_CONST,__const) non-external __ZTIN3adm2vp6detail25UplinkProxyImplementationE
00007ff943341aa0 (__DATA_CONST,__const) non-external __ZTIN3adm2vp6detail27DownlinkProxyImplementationE
00007ff9433419f8 (__DATA_CONST,__const) non-external __ZTIN3adm2vp9InterfaceE
00007ff943341a08 (__DATA_CONST,__const) non-external __ZTIN3adm2vp9SPIClientE
00007ff943341b90 (__DATA_CONST,__const) non-external __ZTIN3adm3dsp12GraphBuilderE
00007ff943341ba0 (__DATA_CONST,__const) non-external __ZTIN3adm3dsp2v112GraphBuilderE
00007ff943340610 (__DATA_CONST,__const) non-external __ZTIN3adm3dsp2v15GraphE
00007ff943340600 (__DATA_CONST,__const) non-external __ZTIN3adm3dsp5GraphE
00007ff94333f858 (__DATA_CONST,__const) non-external __ZTIN3adm5graph12_GLOBAL__N_113ErrorCategoryE
00007ff943340520 (__DATA_CONST,__const) non-external __ZTIN3adm5graph13ExclaveKernelE
00007ff94333ff30 (__DATA_CONST,__const) non-external __ZTIN3adm5graph14DSPGraphKernelE
00007ff94333f938 (__DATA_CONST,__const) non-external __ZTIN3adm5graph14KernelPropertyE
00007ff943342028 (__DATA_CONST,__const) non-external __ZTIN3adm5graph19KernelHostInterfaceE
00007ff943341678 (__DATA_CONST,__const) non-external __ZTIN3adm5graph20VoiceProcessorKernelE
00007ff943340cc0 (__DATA_CONST,__const) non-external __ZTIN3adm5graph26ExclaveDSPControllerClientE
00007ff943341690 (__DATA_CONST,__const) non-external __ZTIN3adm5graph26VoiceProcessorUplinkKernelE
00007ff94333ff48 (__DATA_CONST,__const) non-external __ZTIN3adm5graph28FixedBlockSizeDSPGraphKernelE
00007ff943340ce8 (__DATA_CONST,__const) non-external __ZTIN3adm5graph29ExclaveDSPControllerClientMTDE
00007ff943340cd0 (__DATA_CONST,__const) non-external __ZTIN3adm5graph30ExclaveDSPControllerClientImplE
00007ff943341390 (__DATA_CONST,__const) non-external __ZTIN3adm5graph30ExclaveDSPControllerClientSiriE
00007ff943340168 (__DATA_CONST,__const) non-external __ZTIN3adm5graph31VariableBlockSizeDSPGraphKernelE
00007ff943341418 (__DATA_CONST,__const) non-external __ZTIN3adm5graph39ExclaveDSPControllerClientSoundAnalysisE
00007ff943342620 (__DATA_CONST,__const) non-external __ZTIN3adm5graph3DSPE
00007ff943341ee0 (__DATA_CONST,__const) non-external __ZTIN3adm5graph4NodeE
00007ff943342610 (__DATA_CONST,__const) non-external __ZTIN3adm5graph6KernelE
00007ff94333f948 (__DATA_CONST,__const) non-external __ZTIN3adm5graph6detail18KernelPropertyTypeIN2CA13ChannelLayoutEEE
00007ff94333f7a0 (__DATA_CONST,__const) non-external __ZTIN3adm5graph7DSPNodeE
00007ff943342060 (__DATA_CONST,__const) non-external __ZTIN3adm5graph8HostNodeE
00007ff943341640 (__DATA_CONST,__const) non-external __ZTIN3adm5graph9DSPKernelE
00007ff943341ec0 (__DATA_CONST,__const) non-external __ZTIN3adm7utility11NoCopyMixinE
00007ff943341ed0 (__DATA_CONST,__const) non-external __ZTIN3adm7utility11NoMoveMixinE
00007ff943342470 (__DATA_CONST,__const) non-external __ZTIN5boost10error_infoIN10applesauce10exceptions13tag_backtraceENS1_9backtrace10snapshot_NILi64EEEEE
00007ff943340720 (__DATA_CONST,__const) non-external __ZTIN5boost16exception_detail10bad_alloc_E
00007ff943341e78 (__DATA_CONST,__const) non-external __ZTIN5boost16exception_detail10clone_baseE
00007ff943340800 (__DATA_CONST,__const) non-external __ZTIN5boost16exception_detail10clone_implINS0_10bad_alloc_EEE
00007ff9433409c0 (__DATA_CONST,__const) non-external __ZTIN5boost16exception_detail10clone_implINS0_14bad_exception_EEE
00007ff94333f4d8 (__DATA_CONST,__const) non-external __ZTIN5boost16exception_detail10clone_implINS0_19error_info_injectorINSt3__112system_errorEEEEE
00007ff943341e88 (__DATA_CONST,__const) non-external __ZTIN5boost16exception_detail10clone_implINS0_19error_info_injectorISt13runtime_errorEEEE
00007ff9433408e0 (__DATA_CONST,__const) non-external __ZTIN5boost16exception_detail14bad_exception_E
00007ff943342460 (__DATA_CONST,__const) non-external __ZTIN5boost16exception_detail15error_info_baseE
00007ff94333f4a0 (__DATA_CONST,__const) non-external __ZTIN5boost16exception_detail19error_info_injectorINSt3__112system_errorEEE
00007ff943341e40 (__DATA_CONST,__const) non-external __ZTIN5boost16exception_detail19error_info_injectorISt13runtime_errorEE
00007ff943342538 (__DATA_CONST,__const) non-external __ZTIN5boost16exception_detail20error_info_containerE
00007ff943342548 (__DATA_CONST,__const) non-external __ZTIN5boost16exception_detail25error_info_container_implE
00007ff9433424d0 (__DATA_CONST,__const) non-external __ZTIN5boost6detail15sp_counted_baseE
00007ff9433424e0 (__DATA_CONST,__const) non-external __ZTIN5boost6detail17sp_counted_impl_pINS_10error_infoIN10applesauce10exceptions13tag_backtraceENS3_9backtrace10snapshot_NILi64EEEEEEE
00007ff943340880 (__DATA_CONST,__const) non-external __ZTIN5boost6detail17sp_counted_impl_pINS_16exception_detail10clone_implINS2_10bad_alloc_EEEEE
00007ff943340a40 (__DATA_CONST,__const) non-external __ZTIN5boost6detail17sp_counted_impl_pINS_16exception_detail10clone_implINS2_14bad_exception_EEEEE
00007ff9433425a8 (__DATA_CONST,__const) non-external __ZTIN5boost6detail17sp_counted_impl_pINS_16exception_detail15error_info_baseEEE
00007ff943341e30 (__DATA_CONST,__const) non-external __ZTIN5boost9exceptionE
00007ff943342fe0 (__DATA_CONST,__const) non-external __ZTIN5caulk10concurrent7details12message_callIZN3adm21CustomPropertyManager22onGraphParameterUpdateERKNS4_16ParameterMappingEfE3$_0JEEE
00007ff943341058 (__DATA_CONST,__const) non-external __ZTIN5caulk10concurrent7details12message_callIZN3adm4util8RTLogger5doLogIJPKNS3_5graph30ExclaveDSPControllerClientImplERjEEEvNS4_10RTLogLevelEPKcDpOT_EUlvE_JEEE
00007ff943340e70 (__DATA_CONST,__const) non-external __ZTIN5caulk10concurrent7details12message_callIZN3adm4util8RTLogger5doLogIJPNS3_5graph30ExclaveDSPControllerClientImplEEEEvNS4_10RTLogLevelEPKcDpOT_EUlvE_JEEE
00007ff9433411e8 (__DATA_CONST,__const) non-external __ZTIN5caulk10concurrent7details12message_callIZN3adm4util8RTLogger5doLogIJPNS3_5graph30ExclaveDSPControllerClientImplERjRfEEEvNS4_10RTLogLevelEPKcDpOT_EUlvE_JEEE
00007ff943340f78 (__DATA_CONST,__const) non-external __ZTIN5caulk10concurrent7details12message_callIZN3adm4util8RTLogger5doLogIJR10tb_error_tEEEvNS4_10RTLogLevelEPKcDpOT_EUlvE_JEEE
00007ff943340fd0 (__DATA_CONST,__const) non-external __ZTIN5caulk10concurrent7details12message_callIZN3adm4util8RTLogger5doLogIJRK30audiodsputility_processerror_sPKcEEEvNS4_10RTLogLevelESB_DpOT_EUlvE_JEEE
00007ff943340f20 (__DATA_CONST,__const) non-external __ZTIN5caulk10concurrent7details12message_callIZN3adm4util8RTLogger5doLogIJRKjRjEEEvNS4_10RTLogLevelEPKcDpOT_EUlvE_JEEE
00007ff943340ec8 (__DATA_CONST,__const) non-external __ZTIN5caulk10concurrent7details12message_callIZN3adm4util8RTLogger5doLogIJRPKcEEEvNS4_10RTLogLevelES8_DpOT_EUlvE_JEEE
00007ff943341728 (__DATA_CONST,__const) non-external __ZTIN5caulk10concurrent7details12message_callIZN3adm4util8RTLogger5doLogIJRiEEEvNS4_10RTLogLevelEPKcDpOT_EUlvE_JEEE
00007ff943341160 (__DATA_CONST,__const) non-external __ZTIN5caulk10concurrent7details12message_callIZN3adm4util8RTLogger5doLogIJRjEEEvNS4_10RTLogLevelEPKcDpOT_EUlvE_JEEE
00007ff9433410b0 (__DATA_CONST,__const) non-external __ZTIN5caulk10concurrent7details12message_callIZN3adm4util8RTLogger5doLogIJRjR10tb_error_tEEEvNS4_10RTLogLevelEPKcDpOT_EUlvE_JEEE
00007ff943341108 (__DATA_CONST,__const) non-external __ZTIN5caulk10concurrent7details12message_callIZN3adm4util8RTLogger5doLogIJRjRK32audiodsputility_parametererror_sPKcEEEvNS4_10RTLogLevelESC_DpOT_EUlvE_JEEE
00007ff943341240 (__DATA_CONST,__const) non-external __ZTIN5caulk10concurrent7details12message_callIZN3adm4util8RTLogger5doLogIJRjRfEEEvNS4_10RTLogLevelEPKcDpOT_EUlvE_JEEE
00007ff943341298 (__DATA_CONST,__const) non-external __ZTIN5caulk10concurrent7details12message_callIZN3adm4util8RTLogger5doLogIJRjRfR10tb_error_tEEEvNS4_10RTLogLevelEPKcDpOT_EUlvE_JEEE
00007ff9433412f0 (__DATA_CONST,__const) non-external __ZTIN5caulk10concurrent7details12message_callIZN3adm4util8RTLogger5doLogIJRjRfRK32audiodsputility_parametererror_sPKcEEEvNS4_10RTLogLevelESD_DpOT_EUlvE_JEEE
00007ff9433402f0 (__DATA_CONST,__const) non-external __ZTIN5caulk10concurrent7details12message_callIZN3adm4util8RTLogger5doLogIJRjS7_RKjEEEvNS4_10RTLogLevelEPKcDpOT_EUlvE_JEEE
00007ff943341780 (__DATA_CONST,__const) non-external __ZTIN5caulk10concurrent7details12message_callIZN3adm4util8RTLogger5doLogIJRmEEEvNS4_10RTLogLevelEPKcDpOT_EUlvE_JEEE
00007ff943340298 (__DATA_CONST,__const) non-external __ZTIN5caulk10concurrent7details12message_callIZN3adm4util8RTLogger5doLogIJRmRjRKjEEEvNS4_10RTLogLevelEPKcDpOT_EUlvE_JEEE
00007ff943340bd0 (__DATA_CONST,__const) non-external __ZTIN5caulk10concurrent7details12message_callIZN3adm4util8RTLogger5doLogIJRmmmEEEvNS4_10RTLogLevelEPKcDpOT_EUlvE_JEEE
00007ff9433417d8 (__DATA_CONST,__const) non-external __ZTIN5caulk10concurrent7details12message_callIZN3adm4util8RTLogger5doLogIJiEEEvNS4_10RTLogLevelEPKcDpOT_EUlvE_JEEE
00007ff943342ff8 (__DATA_CONST,__const) non-external __ZTIN5caulk10concurrent7details15rt_message_callIZN3adm21CustomPropertyManager22onGraphParameterUpdateERKNS4_16ParameterMappingEfE3$_0JEEE
00007ff943341070 (__DATA_CONST,__const) non-external __ZTIN5caulk10concurrent7details15rt_message_callIZN3adm4util8RTLogger5doLogIJPKNS3_5graph30ExclaveDSPControllerClientImplERjEEEvNS4_10RTLogLevelEPKcDpOT_EUlvE_JEEE
00007ff943340e88 (__DATA_CONST,__const) non-external __ZTIN5caulk10concurrent7details15rt_message_callIZN3adm4util8RTLogger5doLogIJPNS3_5graph30ExclaveDSPControllerClientImplEEEEvNS4_10RTLogLevelEPKcDpOT_EUlvE_JEEE
00007ff943341200 (__DATA_CONST,__const) non-external __ZTIN5caulk10concurrent7details15rt_message_callIZN3adm4util8RTLogger5doLogIJPNS3_5graph30ExclaveDSPControllerClientImplERjRfEEEvNS4_10RTLogLevelEPKcDpOT_EUlvE_JEEE
00007ff943340f90 (__DATA_CONST,__const) non-external __ZTIN5caulk10concurrent7details15rt_message_callIZN3adm4util8RTLogger5doLogIJR10tb_error_tEEEvNS4_10RTLogLevelEPKcDpOT_EUlvE_JEEE
00007ff943340fe8 (__DATA_CONST,__const) non-external __ZTIN5caulk10concurrent7details15rt_message_callIZN3adm4util8RTLogger5doLogIJRK30audiodsputility_processerror_sPKcEEEvNS4_10RTLogLevelESB_DpOT_EUlvE_JEEE
00007ff943340f38 (__DATA_CONST,__const) non-external __ZTIN5caulk10concurrent7details15rt_message_callIZN3adm4util8RTLogger5doLogIJRKjRjEEEvNS4_10RTLogLevelEPKcDpOT_EUlvE_JEEE
00007ff943340ee0 (__DATA_CONST,__const) non-external __ZTIN5caulk10concurrent7details15rt_message_callIZN3adm4util8RTLogger5doLogIJRPKcEEEvNS4_10RTLogLevelES8_DpOT_EUlvE_JEEE
00007ff943341740 (__DATA_CONST,__const) non-external __ZTIN5caulk10concurrent7details15rt_message_callIZN3adm4util8RTLogger5doLogIJRiEEEvNS4_10RTLogLevelEPKcDpOT_EUlvE_JEEE
00007ff943341178 (__DATA_CONST,__const) non-external __ZTIN5caulk10concurrent7details15rt_message_callIZN3adm4util8RTLogger5doLogIJRjEEEvNS4_10RTLogLevelEPKcDpOT_EUlvE_JEEE
00007ff9433410c8 (__DATA_CONST,__const) non-external __ZTIN5caulk10concurrent7details15rt_message_callIZN3adm4util8RTLogger5doLogIJRjR10tb_error_tEEEvNS4_10RTLogLevelEPKcDpOT_EUlvE_JEEE
00007ff943341120 (__DATA_CONST,__const) non-external __ZTIN5caulk10concurrent7details15rt_message_callIZN3adm4util8RTLogger5doLogIJRjRK32audiodsputility_parametererror_sPKcEEEvNS4_10RTLogLevelESC_DpOT_EUlvE_JEEE
00007ff943341258 (__DATA_CONST,__const) non-external __ZTIN5caulk10concurrent7details15rt_message_callIZN3adm4util8RTLogger5doLogIJRjRfEEEvNS4_10RTLogLevelEPKcDpOT_EUlvE_JEEE
00007ff9433412b0 (__DATA_CONST,__const) non-external __ZTIN5caulk10concurrent7details15rt_message_callIZN3adm4util8RTLogger5doLogIJRjRfR10tb_error_tEEEvNS4_10RTLogLevelEPKcDpOT_EUlvE_JEEE
00007ff943341308 (__DATA_CONST,__const) non-external __ZTIN5caulk10concurrent7details15rt_message_callIZN3adm4util8RTLogger5doLogIJRjRfRK32audiodsputility_parametererror_sPKcEEEvNS4_10RTLogLevelESD_DpOT_EUlvE_JEEE
00007ff943340308 (__DATA_CONST,__const) non-external __ZTIN5caulk10concurrent7details15rt_message_callIZN3adm4util8RTLogger5doLogIJRjS7_RKjEEEvNS4_10RTLogLevelEPKcDpOT_EUlvE_JEEE
00007ff943341798 (__DATA_CONST,__const) non-external __ZTIN5caulk10concurrent7details15rt_message_callIZN3adm4util8RTLogger5doLogIJRmEEEvNS4_10RTLogLevelEPKcDpOT_EUlvE_JEEE
00007ff9433402b0 (__DATA_CONST,__const) non-external __ZTIN5caulk10concurrent7details15rt_message_callIZN3adm4util8RTLogger5doLogIJRmRjRKjEEEvNS4_10RTLogLevelEPKcDpOT_EUlvE_JEEE
00007ff943340be8 (__DATA_CONST,__const) non-external __ZTIN5caulk10concurrent7details15rt_message_callIZN3adm4util8RTLogger5doLogIJRmmmEEEvNS4_10RTLogLevelEPKcDpOT_EUlvE_JEEE
00007ff9433417f0 (__DATA_CONST,__const) non-external __ZTIN5caulk10concurrent7details15rt_message_callIZN3adm4util8RTLogger5doLogIJiEEEvNS4_10RTLogLevelEPKcDpOT_EUlvE_JEEE
                 (undefined) external __ZTIN5caulk10concurrent7messageE (from caulk)
00007ff9433416c0 (__DATA_CONST,__const) non-external __ZTIN5caulk19bad_expected_accessINSt3__110error_codeEEE
00007ff943340698 (__DATA_CONST,__const) non-external __ZTIN5caulk19bad_expected_accessIiEE
00007ff9433416a8 (__DATA_CONST,__const) non-external __ZTIN5caulk19bad_expected_accessIvEE
00007ff9433426d8 (__DATA_CONST,__const) non-external __ZTIN8DSPGraph9ExceptionE
00007ff943342710 (__DATA_CONST,__const) non-external __ZTIN8nlohmann6detail10type_errorE
00007ff943342808 (__DATA_CONST,__const) non-external __ZTIN8nlohmann6detail21output_string_adapterIcNSt3__112basic_stringIcNS2_11char_traitsIcEENS2_9allocatorIcEEEEEE
00007ff9433427f8 (__DATA_CONST,__const) non-external __ZTIN8nlohmann6detail23output_adapter_protocolIcEE
00007ff9433426f8 (__DATA_CONST,__const) non-external __ZTIN8nlohmann6detail9exceptionE
00007ff94333f658 (__DATA_CONST,__const) non-external __ZTINSt3__110__function6__baseIFNS_10unique_ptrIN3adm2vp3SPIENS_14default_deleteIS5_EEEEvEEE
00007ff9433401e8 (__DATA_CONST,__const) non-external __ZTINSt3__110__function6__baseIFbRKZN3adm5graph6detailL20createTerminalBusMapERKNS3_19KernelConfigurationERKNS2_3dsp5GraphEE19DSPGraphBusSemanticSE_EEE
00007ff943341c38 (__DATA_CONST,__const) non-external __ZTINSt3__110__function6__baseIFiP7__sFILEEEE
00007ff943341d88 (__DATA_CONST,__const) non-external __ZTINSt3__110__function6__baseIFvN2CA15PropertyAddressEEEE
00007ff9433426b0 (__DATA_CONST,__const) non-external __ZTINSt3__110__function6__baseIFvjEEE
00007ff943342910 (__DATA_CONST,__const) non-external __ZTINSt3__110__function6__baseIFvjRKN4AMCP15Proc_Cycle_InfoEEEE
00007ff943342f00 (__DATA_CONST,__const) non-external __ZTINSt3__110__function6__baseIFvjRKN4AMCP15Proc_Cycle_InfoEmPNS2_11Proc_StreamEmS7_EEE
00007ff943342bc8 (__DATA_CONST,__const) non-external __ZTINSt3__110__function6__baseIFxvEEE
00007ff943342c60 (__DATA_CONST,__const) non-external __ZTINSt3__110__function6__baseIFyyEEE
00007ff943342cf8 (__DATA_CONST,__const) non-external __ZTINSt3__110__function6__baseIFyyRyEEE
00007ff943341c48 (__DATA_CONST,__const) non-external __ZTINSt3__110__function6__funcIPFiP7__sFILEENS_9allocatorIS5_EES4_EE
00007ff943341d98 (__DATA_CONST,__const) non-external __ZTINSt3__110__function6__funcIZ73-[DSPProcessor initWithHostDescription:hostCallback:systemConfiguration:]E3$_1NS_9allocatorIS2_EEFvN2CA15PropertyAddressEEEE
00007ff943342f10 (__DATA_CONST,__const) non-external __ZTINSt3__110__function6__funcIZN3adm21CustomPropertyManager12attachToNodeERKNS_10shared_ptrINS2_5graph7DSPNodeEEERKNS_3setINS_12basic_stringIcNS_11char_traitsIcEENS_9allocatorIcEEEENS_4lessISG_EENSE_ISG_EEEEE3$_1NSE_ISN_EEFvjRKN4AMCP15Proc_Cycle_InfoEmPNSP_11Proc_StreamEmSU_EEE
00007ff943342f90 (__DATA_CONST,__const) non-external __ZTINSt3__110__function6__funcIZN3adm21CustomPropertyManager12attachToNodeERKNS_10shared_ptrINS2_5graph7DSPNodeEEERKNS_3setINS_12basic_stringIcNS_11char_traitsIcEENS_9allocatorIcEEEENS_4lessISG_EENSE_ISG_EEEEE3$_2NSE_ISN_EEFvjRKN4AMCP15Proc_Cycle_InfoEmPNSP_11Proc_StreamEmSU_EEE
00007ff94333f668 (__DATA_CONST,__const) non-external __ZTINSt3__110__function6__funcIZN3adm5graph11NodeManagerC1ERKNS2_19SystemConfigurationEE3$_0NS_9allocatorIS8_EEFNS_10unique_ptrINS2_2vp3SPIENS_14default_deleteISD_EEEEvEEE
00007ff9433401f8 (__DATA_CONST,__const) non-external __ZTINSt3__110__function6__funcIZN3adm5graph6detailL20createTerminalBusMapERKNS3_19KernelConfigurationERKNS2_3dsp5GraphEE3$_0NS_9allocatorISC_EEFbRKZNS4_L20createTerminalBusMapES7_SB_E19DSPGraphBusSemanticSH_EEE
00007ff9433426c0 (__DATA_CONST,__const) non-external __ZTINSt3__110__function6__funcIZNK3adm5graph8HostNode22createHandlerFunction_ILNS3_11HandlerTypeE0EEENS3_7HandlerIXT_EE8FunctionEvEUlDpOT_E_NS_9allocatorISD_EEFvjEEE
00007ff943342888 (__DATA_CONST,__const) non-external __ZTINSt3__110__function6__funcIZNK3adm5graph8HostNode22createHandlerFunction_ILNS3_11HandlerTypeE1EEENS3_7HandlerIXT_EE8FunctionEvEUlDpOT_E_NS_9allocatorISD_EEFvjEEE
00007ff943342920 (__DATA_CONST,__const) non-external __ZTINSt3__110__function6__funcIZNK3adm5graph8HostNode22createHandlerFunction_ILNS3_11HandlerTypeE2EEENS3_7HandlerIXT_EE8FunctionEvEUlDpOT_E_NS_9allocatorISD_EEFvjRKN4AMCP15Proc_Cycle_InfoEEEE
00007ff9433429a8 (__DATA_CONST,__const) non-external __ZTINSt3__110__function6__funcIZNK3adm5graph8HostNode22createHandlerFunction_ILNS3_11HandlerTypeE3EEENS3_7HandlerIXT_EE8FunctionEvEUlDpOT_E_NS_9allocatorISD_EEFvjRKN4AMCP15Proc_Cycle_InfoEmPNSG_11Proc_StreamEmSL_EEE
00007ff943342a30 (__DATA_CONST,__const) non-external __ZTINSt3__110__function6__funcIZNK3adm5graph8HostNode22createHandlerFunction_ILNS3_11HandlerTypeE4EEENS3_7HandlerIXT_EE8FunctionEvEUlDpOT_E_NS_9allocatorISD_EEFvjRKN4AMCP15Proc_Cycle_InfoEEEE
00007ff943342ab8 (__DATA_CONST,__const) non-external __ZTINSt3__110__function6__funcIZNK3adm5graph8HostNode22createHandlerFunction_ILNS3_11HandlerTypeE5EEENS3_7HandlerIXT_EE8FunctionEvEUlDpOT_E_NS_9allocatorISD_EEFvjEEE
00007ff943342b40 (__DATA_CONST,__const) non-external __ZTINSt3__110__function6__funcIZNK3adm5graph8HostNode22createHandlerFunction_ILNS3_11HandlerTypeE6EEENS3_7HandlerIXT_EE8FunctionEvEUlDpOT_E_NS_9allocatorISD_EEFvjEEE
00007ff943342bd8 (__DATA_CONST,__const) non-external __ZTINSt3__110__function6__funcIZNK3adm5graph8HostNode22createHandlerFunction_ILNS3_11HandlerTypeE7EEENS3_7HandlerIXT_EE8FunctionEvEUlDpOT_E_NS_9allocatorISD_EEFxvEEE
00007ff943342c70 (__DATA_CONST,__const) non-external __ZTINSt3__110__function6__funcIZNK3adm5graph8HostNode22createHandlerFunction_ILNS3_11HandlerTypeE8EEENS3_7HandlerIXT_EE8FunctionEvEUlDpOT_E_NS_9allocatorISD_EEFyyEEE
00007ff943342d08 (__DATA_CONST,__const) non-external __ZTINSt3__110__function6__funcIZNK3adm5graph8HostNode22createHandlerFunction_ILNS3_11HandlerTypeE9EEENS3_7HandlerIXT_EE8FunctionEvEUlDpOT_E_NS_9allocatorISD_EEFyyRyEEE
                 (undefined) external __ZTINSt3__112system_errorE (from libc++)
                 (undefined) external __ZTINSt3__114error_categoryE (from libc++)
00007ff943343010 (__DATA_CONST,__const) non-external __ZTINSt3__117bad_function_callE
                 (undefined) external __ZTINSt3__119__shared_weak_countE (from libc++)
00007ff943340a90 (__DATA_CONST,__const) non-external __ZTINSt3__120__shared_ptr_emplaceIN3adm2vp19UplinkConfigurationENS_9allocatorIS3_EEEE
00007ff943340ae0 (__DATA_CONST,__const) non-external __ZTINSt3__120__shared_ptr_emplaceIN3adm2vp21DownlinkConfigurationENS_9allocatorIS3_EEEE
00007ff94333fa18 (__DATA_CONST,__const) non-external __ZTINSt3__120__shared_ptr_emplaceIN3adm2vp6detail26ProxyFactoryImplementationENS_9allocatorIS4_EEEE
00007ff9433427b0 (__DATA_CONST,__const) non-external __ZTINSt3__120__shared_ptr_emplaceIN8nlohmann6detail21output_string_adapterIcNS_12basic_stringIcNS_11char_traitsIcEENS_9allocatorIcEEEEEENS7_ISA_EEEE
00007ff943340c38 (__DATA_CONST,__const) non-external __ZTINSt3__120__shared_ptr_pointerIP36audiodspcontroller_audiodspcontrol_sZN12_GLOBAL__N_115getControllerEKEyPKcE3$_0NS_9allocatorIS1_EEEE
00007ff94333fb08 (__DATA_CONST,__const) non-external __ZTINSt3__120__shared_ptr_pointerIPN3adm2vp3SPIENS_14default_deleteIS3_EENS_9allocatorIS3_EEEE
00007ff94333fa68 (__DATA_CONST,__const) non-external __ZTINSt3__120__shared_ptr_pointerIPN3adm2vp6detail25UplinkProxyImplementationEZNS3_26ProxyFactoryImplementation17doCreateProxyListINS2_19UplinkConfigurationEEEN5caulk8expectedINS6_8DispatchIT_E9ProxyListENS_10error_codeEEERKNS2_17ImmutableDispatchISC_E4TypeEEUlS5_E_NS_9allocatorIS4_EEEE
00007ff94333fab8 (__DATA_CONST,__const) non-external __ZTINSt3__120__shared_ptr_pointerIPN3adm2vp6detail27DownlinkProxyImplementationEZNS3_26ProxyFactoryImplementation17doCreateProxyListINS2_21DownlinkConfigurationEEEN5caulk8expectedINS6_8DispatchIT_E9ProxyListENS_10error_codeEEERKNS2_17ImmutableDispatchISC_E4TypeEEUlS5_E_NS_9allocatorIS4_EEEE
00007ff943340258 (__DATA_CONST,__const) non-external __ZTINSt3__120__shared_ptr_pointerIPN3adm3dsp5GraphENS_14default_deleteIS3_EENS_9allocatorIS3_EEEE
00007ff94333f9c8 (__DATA_CONST,__const) non-external __ZTINSt3__120__shared_ptr_pointerIPN3adm5graph14KernelPropertyENS_14default_deleteIS3_EENS_9allocatorIS3_EEEE
00007ff9433425f8 (__DATA_CONST,__const) non-external __ZTINSt3__120__shared_ptr_pointerIPN3adm5graph6KernelENS_14default_deleteIS3_EENS_9allocatorIS3_EEEE
00007ff94333f7f0 (__DATA_CONST,__const) non-external __ZTINSt3__120__shared_ptr_pointerIPN3adm5graph7DSPNodeENS_10shared_ptrIS3_E27__shared_ptr_default_deleteIS3_S3_EENS_9allocatorIS3_EEEE
00007ff943340680 (__DATA_CONST,__const) non-external __ZTINSt3__120__shared_ptr_pointerIPN8DSPGraph5GraphENS_14default_deleteIS2_EENS_9allocatorIS2_EEEE
00007ff94333f970 (__DATA_CONST,__const) non-external __ZTIP18AudioChannelLayout
00007ff943341c70 (__DATA_CONST,__const) non-external __ZTIPFiP7__sFILEE
                 (undefined) external __ZTISt11logic_error (from libc++)
                 (undefined) external __ZTISt12length_error (from libc++)
                 (undefined) external __ZTISt12out_of_range (from libc++)
                 (undefined) external __ZTISt13bad_exception (from libc++)
                 (undefined) external __ZTISt13runtime_error (from libc++)
                 (undefined) external __ZTISt14overflow_error (from libc++)
                 (undefined) external __ZTISt16invalid_argument (from libc++)
                 (undefined) external __ZTISt18bad_variant_access (from libc++)
                 (undefined) external __ZTISt19bad_optional_access (from libc++)
                 (undefined) external __ZTISt20bad_array_new_length (from libc++)
                 (undefined) external __ZTISt9bad_alloc (from libc++)
                 (undefined) external __ZTISt9exception (from libc++)
00007ff943341db0 (__DATA_CONST,__const) non-external __ZTIZ73-[DSPProcessor initWithHostDescription:hostCallback:systemConfiguration:]E3$_1
00007ff943342f28 (__DATA_CONST,__const) non-external __ZTIZN3adm21CustomPropertyManager12attachToNodeERKNSt3__110shared_ptrINS_5graph7DSPNodeEEERKNS1_3setINS1_12basic_stringIcNS1_11char_traitsIcEENS1_9allocatorIcEEEENS1_4lessISE_EENSC_ISE_EEEEE3$_1
00007ff943342fa8 (__DATA_CONST,__const) non-external __ZTIZN3adm21CustomPropertyManager12attachToNodeERKNSt3__110shared_ptrINS_5graph7DSPNodeEEERKNS1_3setINS1_12basic_stringIcNS1_11char_traitsIcEENS1_9allocatorIcEEEENS1_4lessISE_EENSC_ISE_EEEEE3$_2
00007ff94333f680 (__DATA_CONST,__const) non-external __ZTIZN3adm5graph11NodeManagerC1ERKNS_19SystemConfigurationEE3$_0
00007ff943340210 (__DATA_CONST,__const) non-external __ZTIZN3adm5graph6detailL20createTerminalBusMapERKNS0_19KernelConfigurationERKNS_3dsp5GraphEE3$_0
00007ff943342820 (__DATA_CONST,__const) non-external __ZTIZNK3adm5graph8HostNode22createHandlerFunction_ILNS0_11HandlerTypeE0EEENS0_7HandlerIXT_EE8FunctionEvEUlDpOT_E_
00007ff9433428a8 (__DATA_CONST,__const) non-external __ZTIZNK3adm5graph8HostNode22createHandlerFunction_ILNS0_11HandlerTypeE1EEENS0_7HandlerIXT_EE8FunctionEvEUlDpOT_E_
00007ff943342940 (__DATA_CONST,__const) non-external __ZTIZNK3adm5graph8HostNode22createHandlerFunction_ILNS0_11HandlerTypeE2EEENS0_7HandlerIXT_EE8FunctionEvEUlDpOT_E_
00007ff9433429c8 (__DATA_CONST,__const) non-external __ZTIZNK3adm5graph8HostNode22createHandlerFunction_ILNS0_11HandlerTypeE3EEENS0_7HandlerIXT_EE8FunctionEvEUlDpOT_E_
00007ff943342a50 (__DATA_CONST,__const) non-external __ZTIZNK3adm5graph8HostNode22createHandlerFunction_ILNS0_11HandlerTypeE4EEENS0_7HandlerIXT_EE8FunctionEvEUlDpOT_E_
00007ff943342ad8 (__DATA_CONST,__const) non-external __ZTIZNK3adm5graph8HostNode22createHandlerFunction_ILNS0_11HandlerTypeE5EEENS0_7HandlerIXT_EE8FunctionEvEUlDpOT_E_
00007ff943342b60 (__DATA_CONST,__const) non-external __ZTIZNK3adm5graph8HostNode22createHandlerFunction_ILNS0_11HandlerTypeE6EEENS0_7HandlerIXT_EE8FunctionEvEUlDpOT_E_
00007ff943342bf8 (__DATA_CONST,__const) non-external __ZTIZNK3adm5graph8HostNode22createHandlerFunction_ILNS0_11HandlerTypeE7EEENS0_7HandlerIXT_EE8FunctionEvEUlDpOT_E_
00007ff943342c90 (__DATA_CONST,__const) non-external __ZTIZNK3adm5graph8HostNode22createHandlerFunction_ILNS0_11HandlerTypeE8EEENS0_7HandlerIXT_EE8FunctionEvEUlDpOT_E_
00007ff943342d28 (__DATA_CONST,__const) non-external __ZTIZNK3adm5graph8HostNode22createHandlerFunction_ILNS0_11HandlerTypeE9EEENS0_7HandlerIXT_EE8FunctionEvEUlDpOT_E_
00007ff91f684604 (__TEXT,__const) non-external __ZTS18AudioChannelLayout
00007ff91f686915 (__TEXT,__const) non-external __ZTSFiP7__sFILEE
00007ff91f686922 (__TEXT,__const) non-external __ZTSN12_GLOBAL__N_113ErrorCategoryE
00007ff91f68684e (__TEXT,__const) non-external __ZTSN3adm2vp13ErrorCategoryE
00007ff91f685366 (__TEXT,__const) non-external __ZTSN3adm2vp16SPIErrorCategoryE
00007ff91f686746 (__TEXT,__const) non-external __ZTSN3adm2vp6detail19ProxyImplementationINS0_19UplinkConfigurationEEE
00007ff91f6867b0 (__TEXT,__const) non-external __ZTSN3adm2vp6detail19ProxyImplementationINS0_21DownlinkConfigurationEEE
00007ff91f6867f4 (__TEXT,__const) non-external __ZTSN3adm2vp6detail25UplinkProxyImplementationE
00007ff91f686820 (__TEXT,__const) non-external __ZTSN3adm2vp6detail27DownlinkProxyImplementationE
00007ff91f686788 (__TEXT,__const) non-external __ZTSN3adm2vp9InterfaceE
00007ff91f68679c (__TEXT,__const) non-external __ZTSN3adm2vp9SPIClientE
00007ff91f686883 (__TEXT,__const) non-external __ZTSN3adm3dsp12GraphBuilderE
00007ff91f686867 (__TEXT,__const) non-external __ZTSN3adm3dsp2v112GraphBuilderE
00007ff91f68506d (__TEXT,__const) non-external __ZTSN3adm3dsp2v15GraphE
00007ff91f685081 (__TEXT,__const) non-external __ZTSN3adm3dsp5GraphE
00007ff91f684569 (__TEXT,__const) non-external __ZTSN3adm5graph12_GLOBAL__N_113ErrorCategoryE
00007ff91f685051 (__TEXT,__const) non-external __ZTSN3adm5graph13ExclaveKernelE
00007ff91f684bdc (__TEXT,__const) non-external __ZTSN3adm5graph14DSPGraphKernelE
00007ff91f6845d1 (__TEXT,__const) non-external __ZTSN3adm5graph14KernelPropertyE
00007ff91f686b99 (__TEXT,__const) non-external __ZTSN3adm5graph19KernelHostInterfaceE
00007ff91f6863fe (__TEXT,__const) non-external __ZTSN3adm5graph20VoiceProcessorKernelE
00007ff91f68559f (__TEXT,__const) non-external __ZTSN3adm5graph26ExclaveDSPControllerClientE
00007ff91f686421 (__TEXT,__const) non-external __ZTSN3adm5graph26VoiceProcessorUplinkKernelE
00007ff91f684bb1 (__TEXT,__const) non-external __ZTSN3adm5graph28FixedBlockSizeDSPGraphKernelE
00007ff91f685546 (__TEXT,__const) non-external __ZTSN3adm5graph29ExclaveDSPControllerClientMTDE
00007ff91f685572 (__TEXT,__const) non-external __ZTSN3adm5graph30ExclaveDSPControllerClientImplE
00007ff91f68639b (__TEXT,__const) non-external __ZTSN3adm5graph30ExclaveDSPControllerClientSiriE
00007ff91f684bf9 (__TEXT,__const) non-external __ZTSN3adm5graph31VariableBlockSizeDSPGraphKernelE
00007ff91f6863c8 (__TEXT,__const) non-external __ZTSN3adm5graph39ExclaveDSPControllerClientSoundAnalysisE
00007ff91f686e59 (__TEXT,__const) non-external __ZTSN3adm5graph3DSPE
00007ff91f686b39 (__TEXT,__const) non-external __ZTSN3adm5graph4NodeE
00007ff91f685382 (__TEXT,__const) non-external __ZTSN3adm5graph6KernelE
00007ff91f684593 (__TEXT,__const) non-external __ZTSN3adm5graph6detail18KernelPropertyTypeIN2CA13ChannelLayoutEEE
00007ff91f684481 (__TEXT,__const) non-external __ZTSN3adm5graph7DSPNodeE
00007ff91f686b83 (__TEXT,__const) non-external __ZTSN3adm5graph8HostNodeE
00007ff91f685396 (__TEXT,__const) non-external __ZTSN3adm5graph9DSPKernelE
00007ff91f686b4b (__TEXT,__const) non-external __ZTSN3adm7utility11NoCopyMixinE
00007ff91f686b67 (__TEXT,__const) non-external __ZTSN3adm7utility11NoMoveMixinE
00007ff91f686bbb (__TEXT,__const) non-external __ZTSN5boost10error_infoIN10applesauce10exceptions13tag_backtraceENS1_9backtrace10snapshot_NILi64EEEEE
00007ff91f68513e (__TEXT,__const) non-external __ZTSN5boost16exception_detail10bad_alloc_E
00007ff91f686b12 (__TEXT,__const) non-external __ZTSN5boost16exception_detail10clone_baseE
00007ff91f685165 (__TEXT,__const) non-external __ZTSN5boost16exception_detail10clone_implINS0_10bad_alloc_EEE
00007ff91f685224 (__TEXT,__const) non-external __ZTSN5boost16exception_detail10clone_implINS0_14bad_exception_EEE
00007ff91f6842a0 (__TEXT,__const) non-external __ZTSN5boost16exception_detail10clone_implINS0_19error_info_injectorINSt3__112system_errorEEEEE
00007ff91f686a66 (__TEXT,__const) non-external __ZTSN5boost16exception_detail10clone_implINS0_19error_info_injectorISt13runtime_errorEEEE
00007ff91f6851f9 (__TEXT,__const) non-external __ZTSN5boost16exception_detail14bad_exception_E
00007ff91f686c1d (__TEXT,__const) non-external __ZTSN5boost16exception_detail15error_info_baseE
00007ff91f6842fb (__TEXT,__const) non-external __ZTSN5boost16exception_detail19error_info_injectorINSt3__112system_errorEEE
00007ff91f686abc (__TEXT,__const) non-external __ZTSN5boost16exception_detail19error_info_injectorISt13runtime_errorEE
00007ff91f686d4d (__TEXT,__const) non-external __ZTSN5boost16exception_detail20error_info_containerE
00007ff91f686d17 (__TEXT,__const) non-external __ZTSN5boost16exception_detail25error_info_container_implE
00007ff91f686cf6 (__TEXT,__const) non-external __ZTSN5boost6detail15sp_counted_baseE
00007ff91f686c74 (__TEXT,__const) non-external __ZTSN5boost6detail17sp_counted_impl_pINS_10error_infoIN10applesauce10exceptions13tag_backtraceENS3_9backtrace10snapshot_NILi64EEEEEEE
00007ff91f68519f (__TEXT,__const) non-external __ZTSN5boost6detail17sp_counted_impl_pINS_16exception_detail10clone_implINS2_10bad_alloc_EEEEE
00007ff91f685262 (__TEXT,__const) non-external __ZTSN5boost6detail17sp_counted_impl_pINS_16exception_detail10clone_implINS2_14bad_exception_EEEEE
00007ff91f686d7e (__TEXT,__const) non-external __ZTSN5boost6detail17sp_counted_impl_pINS_16exception_detail15error_info_baseEEE
00007ff91f686aff (__TEXT,__const) non-external __ZTSN5boost9exceptionE
00007ff91f688783 (__TEXT,__const) non-external __ZTSN5caulk10concurrent7details12message_callIZN3adm21CustomPropertyManager22onGraphParameterUpdateERKNS4_16ParameterMappingEfE3$_0JEEE
00007ff91f685b91 (__TEXT,__const) non-external __ZTSN5caulk10concurrent7details12message_callIZN3adm4util8RTLogger5doLogIJPKNS3_5graph30ExclaveDSPControllerClientImplERjEEEvNS4_10RTLogLevelEPKcDpOT_EUlvE_JEEE
00007ff91f685665 (__TEXT,__const) non-external __ZTSN5caulk10concurrent7details12message_callIZN3adm4util8RTLogger5doLogIJPNS3_5graph30ExclaveDSPControllerClientImplEEEEvNS4_10RTLogLevelEPKcDpOT_EUlvE_JEEE
00007ff91f685fe0 (__TEXT,__const) non-external __ZTSN5caulk10concurrent7details12message_callIZN3adm4util8RTLogger5doLogIJPNS3_5graph30ExclaveDSPControllerClientImplERjRfEEEvNS4_10RTLogLevelEPKcDpOT_EUlvE_JEEE
00007ff91f68594d (__TEXT,__const) non-external __ZTSN5caulk10concurrent7details12message_callIZN3adm4util8RTLogger5doLogIJR10tb_error_tEEEvNS4_10RTLogLevelEPKcDpOT_EUlvE_JEEE
00007ff91f685a5e (__TEXT,__const) non-external __ZTSN5caulk10concurrent7details12message_callIZN3adm4util8RTLogger5doLogIJRK30audiodsputility_processerror_sPKcEEEvNS4_10RTLogLevelESB_DpOT_EUlvE_JEEE
00007ff91f68585c (__TEXT,__const) non-external __ZTSN5caulk10concurrent7details12message_callIZN3adm4util8RTLogger5doLogIJRKjRjEEEvNS4_10RTLogLevelEPKcDpOT_EUlvE_JEEE
00007ff91f685774 (__TEXT,__const) non-external __ZTSN5caulk10concurrent7details12message_callIZN3adm4util8RTLogger5doLogIJRPKcEEEvNS4_10RTLogLevelES8_DpOT_EUlvE_JEEE
00007ff91f686512 (__TEXT,__const) non-external __ZTSN5caulk10concurrent7details12message_callIZN3adm4util8RTLogger5doLogIJRiEEEvNS4_10RTLogLevelEPKcDpOT_EUlvE_JEEE
00007ff91f685ecf (__TEXT,__const) non-external __ZTSN5caulk10concurrent7details12message_callIZN3adm4util8RTLogger5doLogIJRjEEEvNS4_10RTLogLevelEPKcDpOT_EUlvE_JEEE
00007ff91f685cae (__TEXT,__const) non-external __ZTSN5caulk10concurrent7details12message_callIZN3adm4util8RTLogger5doLogIJRjR10tb_error_tEEEvNS4_10RTLogLevelEPKcDpOT_EUlvE_JEEE
00007ff91f685dc5 (__TEXT,__const) non-external __ZTSN5caulk10concurrent7details12message_callIZN3adm4util8RTLogger5doLogIJRjRK32audiodsputility_parametererror_sPKcEEEvNS4_10RTLogLevelESC_DpOT_EUlvE_JEEE
00007ff91f6860f3 (__TEXT,__const) non-external __ZTSN5caulk10concurrent7details12message_callIZN3adm4util8RTLogger5doLogIJRjRfEEEvNS4_10RTLogLevelEPKcDpOT_EUlvE_JEEE
00007ff91f6861e7 (__TEXT,__const) non-external __ZTSN5caulk10concurrent7details12message_callIZN3adm4util8RTLogger5doLogIJRjRfR10tb_error_tEEEvNS4_10RTLogLevelEPKcDpOT_EUlvE_JEEE
00007ff91f686302 (__TEXT,__const) non-external __ZTSN5caulk10concurrent7details12message_callIZN3adm4util8RTLogger5doLogIJRjRfRK32audiodsputility_parametererror_sPKcEEEvNS4_10RTLogLevelESD_DpOT_EUlvE_JEEE
00007ff91f684fdb (__TEXT,__const) non-external __ZTSN5caulk10concurrent7details12message_callIZN3adm4util8RTLogger5doLogIJRjS7_RKjEEEvNS4_10RTLogLevelEPKcDpOT_EUlvE_JEEE
00007ff91f6865f5 (__TEXT,__const) non-external __ZTSN5caulk10concurrent7details12message_callIZN3adm4util8RTLogger5doLogIJRmEEEvNS4_10RTLogLevelEPKcDpOT_EUlvE_JEEE
00007ff91f684eed (__TEXT,__const) non-external __ZTSN5caulk10concurrent7details12message_callIZN3adm4util8RTLogger5doLogIJRmRjRKjEEEvNS4_10RTLogLevelEPKcDpOT_EUlvE_JEEE
00007ff91f685422 (__TEXT,__const) non-external __ZTSN5caulk10concurrent7details12message_callIZN3adm4util8RTLogger5doLogIJRmmmEEEvNS4_10RTLogLevelEPKcDpOT_EUlvE_JEEE
00007ff91f6866d7 (__TEXT,__const) non-external __ZTSN5caulk10concurrent7details12message_callIZN3adm4util8RTLogger5doLogIJiEEEvNS4_10RTLogLevelEPKcDpOT_EUlvE_JEEE
00007ff91f6886fc (__TEXT,__const) non-external __ZTSN5caulk10concurrent7details15rt_message_callIZN3adm21CustomPropertyManager22onGraphParameterUpdateERKNS4_16ParameterMappingEfE3$_0JEEE
00007ff91f685af1 (__TEXT,__const) non-external __ZTSN5caulk10concurrent7details15rt_message_callIZN3adm4util8RTLogger5doLogIJPKNS3_5graph30ExclaveDSPControllerClientImplERjEEEvNS4_10RTLogLevelEPKcDpOT_EUlvE_JEEE
00007ff91f6855c8 (__TEXT,__const) non-external __ZTSN5caulk10concurrent7details15rt_message_callIZN3adm4util8RTLogger5doLogIJPNS3_5graph30ExclaveDSPControllerClientImplEEEEvNS4_10RTLogLevelEPKcDpOT_EUlvE_JEEE
00007ff91f685f3f (__TEXT,__const) non-external __ZTSN5caulk10concurrent7details15rt_message_callIZN3adm4util8RTLogger5doLogIJPNS3_5graph30ExclaveDSPControllerClientImplERjRfEEEvNS4_10RTLogLevelEPKcDpOT_EUlvE_JEEE
00007ff91f6858cf (__TEXT,__const) non-external __ZTSN5caulk10concurrent7details15rt_message_callIZN3adm4util8RTLogger5doLogIJR10tb_error_tEEEvNS4_10RTLogLevelEPKcDpOT_EUlvE_JEEE
00007ff91f6859c8 (__TEXT,__const) non-external __ZTSN5caulk10concurrent7details15rt_message_callIZN3adm4util8RTLogger5doLogIJRK30audiodsputility_processerror_sPKcEEEvNS4_10RTLogLevelESB_DpOT_EUlvE_JEEE
00007ff91f6857e6 (__TEXT,__const) non-external __ZTSN5caulk10concurrent7details15rt_message_callIZN3adm4util8RTLogger5doLogIJRKjRjEEEvNS4_10RTLogLevelEPKcDpOT_EUlvE_JEEE
00007ff91f6856ff (__TEXT,__const) non-external __ZTSN5caulk10concurrent7details15rt_message_callIZN3adm4util8RTLogger5doLogIJRPKcEEEvNS4_10RTLogLevelES8_DpOT_EUlvE_JEEE
00007ff91f68649f (__TEXT,__const) non-external __ZTSN5caulk10concurrent7details15rt_message_callIZN3adm4util8RTLogger5doLogIJRiEEEvNS4_10RTLogLevelEPKcDpOT_EUlvE_JEEE
00007ff91f685e5c (__TEXT,__const) non-external __ZTSN5caulk10concurrent7details15rt_message_callIZN3adm4util8RTLogger5doLogIJRjEEEvNS4_10RTLogLevelEPKcDpOT_EUlvE_JEEE
00007ff91f685c2e (__TEXT,__const) non-external __ZTSN5caulk10concurrent7details15rt_message_callIZN3adm4util8RTLogger5doLogIJRjR10tb_error_tEEEvNS4_10RTLogLevelEPKcDpOT_EUlvE_JEEE
00007ff91f685d2b (__TEXT,__const) non-external __ZTSN5caulk10concurrent7details15rt_message_callIZN3adm4util8RTLogger5doLogIJRjRK32audiodsputility_parametererror_sPKcEEEvNS4_10RTLogLevelESC_DpOT_EUlvE_JEEE
00007ff91f68607e (__TEXT,__const) non-external __ZTSN5caulk10concurrent7details15rt_message_callIZN3adm4util8RTLogger5doLogIJRjRfEEEvNS4_10RTLogLevelEPKcDpOT_EUlvE_JEEE
00007ff91f686165 (__TEXT,__const) non-external __ZTSN5caulk10concurrent7details15rt_message_callIZN3adm4util8RTLogger5doLogIJRjRfR10tb_error_tEEEvNS4_10RTLogLevelEPKcDpOT_EUlvE_JEEE
00007ff91f686266 (__TEXT,__const) non-external __ZTSN5caulk10concurrent7details15rt_message_callIZN3adm4util8RTLogger5doLogIJRjRfRK32audiodsputility_parametererror_sPKcEEEvNS4_10RTLogLevelESD_DpOT_EUlvE_JEEE
00007ff91f684f62 (__TEXT,__const) non-external __ZTSN5caulk10concurrent7details15rt_message_callIZN3adm4util8RTLogger5doLogIJRjS7_RKjEEEvNS4_10RTLogLevelEPKcDpOT_EUlvE_JEEE
00007ff91f686582 (__TEXT,__const) non-external __ZTSN5caulk10concurrent7details15rt_message_callIZN3adm4util8RTLogger5doLogIJRmEEEvNS4_10RTLogLevelEPKcDpOT_EUlvE_JEEE
00007ff91f684e75 (__TEXT,__const) non-external __ZTSN5caulk10concurrent7details15rt_message_callIZN3adm4util8RTLogger5doLogIJRmRjRKjEEEvNS4_10RTLogLevelEPKcDpOT_EUlvE_JEEE
00007ff91f6853ad (__TEXT,__const) non-external __ZTSN5caulk10concurrent7details15rt_message_callIZN3adm4util8RTLogger5doLogIJRmmmEEEvNS4_10RTLogLevelEPKcDpOT_EUlvE_JEEE
00007ff91f686665 (__TEXT,__const) non-external __ZTSN5caulk10concurrent7details15rt_message_callIZN3adm4util8RTLogger5doLogIJiEEEvNS4_10RTLogLevelEPKcDpOT_EUlvE_JEEE
00007ff91f68644a (__TEXT,__const) non-external __ZTSN5caulk19bad_expected_accessINSt3__110error_codeEEE
00007ff91f68511d (__TEXT,__const) non-external __ZTSN5caulk19bad_expected_accessIiEE
00007ff91f68647e (__TEXT,__const) non-external __ZTSN5caulk19bad_expected_accessIvEE
00007ff91f686f2e (__TEXT,__const) non-external __ZTSN8DSPGraph9ExceptionE
00007ff91f686f44 (__TEXT,__const) non-external __ZTSN8nlohmann6detail10type_errorE
00007ff91f687011 (__TEXT,__const) non-external __ZTSN8nlohmann6detail21output_string_adapterIcNSt3__112basic_stringIcNS2_11char_traitsIcEENS2_9allocatorIcEEEEEE
00007ff91f68707e (__TEXT,__const) non-external __ZTSN8nlohmann6detail23output_adapter_protocolIcEE
00007ff91f686f63 (__TEXT,__const) non-external __ZTSN8nlohmann6detail9exceptionE
00007ff91f6843eb (__TEXT,__const) non-external __ZTSNSt3__110__function6__baseIFNS_10unique_ptrIN3adm2vp3SPIENS_14default_deleteIS5_EEEEvEEE
00007ff91f684cfb (__TEXT,__const) non-external __ZTSNSt3__110__function6__baseIFbRKZN3adm5graph6detailL20createTerminalBusMapERKNS3_19KernelConfigurationERKNS2_3dsp5GraphEE19DSPGraphBusSemanticSE_EEE
00007ff91f6868dd (__TEXT,__const) non-external __ZTSNSt3__110__function6__baseIFiP7__sFILEEEE
00007ff91f6869dd (__TEXT,__const) non-external __ZTSNSt3__110__function6__baseIFvN2CA15PropertyAddressEEEE
00007ff91f686f0c (__TEXT,__const) non-external __ZTSNSt3__110__function6__baseIFvjEEE
00007ff91f687a32 (__TEXT,__const) non-external __ZTSNSt3__110__function6__baseIFvjRKN4AMCP15Proc_Cycle_InfoEEEE
00007ff91f688416 (__TEXT,__const) non-external __ZTSNSt3__110__function6__baseIFvjRKN4AMCP15Proc_Cycle_InfoEmPNS2_11Proc_StreamEmS7_EEE
00007ff91f68800a (__TEXT,__const) non-external __ZTSNSt3__110__function6__baseIFxvEEE
00007ff91f68813c (__TEXT,__const) non-external __ZTSNSt3__110__function6__baseIFyyEEE
00007ff91f688270 (__TEXT,__const) non-external __ZTSNSt3__110__function6__baseIFyyRyEEE
00007ff91f68689c (__TEXT,__const) non-external __ZTSNSt3__110__function6__funcIPFiP7__sFILEENS_9allocatorIS5_EES4_EE
00007ff91f686942 (__TEXT,__const) non-external __ZTSNSt3__110__function6__funcIZ73-[DSPProcessor initWithHostDescription:hostCallback:systemConfiguration:]E3$_1NS_9allocatorIS2_EEFvN2CA15PropertyAddressEEEE
00007ff91f688302 (__TEXT,__const) non-external __ZTSNSt3__110__function6__funcIZN3adm21CustomPropertyManager12attachToNodeERKNS_10shared_ptrINS2_5graph7DSPNodeEEERKNS_3setINS_12basic_stringIcNS_11char_traitsIcEENS_9allocatorIcEEEENS_4lessISG_EENSE_ISG_EEEEE3$_1NSE_ISN_EEFvjRKN4AMCP15Proc_Cycle_InfoEmPNSP_11Proc_StreamEmSU_EEE
00007ff91f688529 (__TEXT,__const) non-external __ZTSNSt3__110__function6__funcIZN3adm21CustomPropertyManager12attachToNodeERKNS_10shared_ptrINS2_5graph7DSPNodeEEERKNS_3setINS_12basic_stringIcNS_11char_traitsIcEENS_9allocatorIcEEEENS_4lessISG_EENSE_ISG_EEEEE3$_2NSE_ISN_EEFvjRKN4AMCP15Proc_Cycle_InfoEmPNSP_11Proc_StreamEmSU_EEE
00007ff91f684343 (__TEXT,__const) non-external __ZTSNSt3__110__function6__funcIZN3adm5graph11NodeManagerC1ERKNS2_19SystemConfigurationEE3$_0NS_9allocatorIS8_EEFNS_10unique_ptrINS2_2vp3SPIENS_14default_deleteISD_EEEEvEEE
00007ff91f684c2c (__TEXT,__const) non-external __ZTSNSt3__110__function6__funcIZN3adm5graph6detailL20createTerminalBusMapERKNS3_19KernelConfigurationERKNS2_3dsp5GraphEE3$_0NS_9allocatorISC_EEFbRKZNS4_L20createTerminalBusMapES7_SB_E19DSPGraphBusSemanticSH_EEE
00007ff91f686e6a (__TEXT,__const) non-external __ZTSNSt3__110__function6__funcIZNK3adm5graph8HostNode22createHandlerFunction_ILNS3_11HandlerTypeE0EEENS3_7HandlerIXT_EE8FunctionEvEUlDpOT_E_NS_9allocatorISD_EEFvjEEE
00007ff91f687866 (__TEXT,__const) non-external __ZTSNSt3__110__function6__funcIZNK3adm5graph8HostNode22createHandlerFunction_ILNS3_11HandlerTypeE1EEENS3_7HandlerIXT_EE8FunctionEvEUlDpOT_E_NS_9allocatorISD_EEFvjEEE
00007ff91f687976 (__TEXT,__const) non-external __ZTSNSt3__110__function6__funcIZNK3adm5graph8HostNode22createHandlerFunction_ILNS3_11HandlerTypeE2EEENS3_7HandlerIXT_EE8FunctionEvEUlDpOT_E_NS_9allocatorISD_EEFvjRKN4AMCP15Proc_Cycle_InfoEEEE
00007ff91f687adc (__TEXT,__const) non-external __ZTSNSt3__110__function6__funcIZNK3adm5graph8HostNode22createHandlerFunction_ILNS3_11HandlerTypeE3EEENS3_7HandlerIXT_EE8FunctionEvEUlDpOT_E_NS_9allocatorISD_EEFvjRKN4AMCP15Proc_Cycle_InfoEmPNSG_11Proc_StreamEmSL_EEE
00007ff91f687c1e (__TEXT,__const) non-external __ZTSNSt3__110__function6__funcIZNK3adm5graph8HostNode22createHandlerFunction_ILNS3_11HandlerTypeE4EEENS3_7HandlerIXT_EE8FunctionEvEUlDpOT_E_NS_9allocatorISD_EEFvjRKN4AMCP15Proc_Cycle_InfoEEEE
00007ff91f687d48 (__TEXT,__const) non-external __ZTSNSt3__110__function6__funcIZNK3adm5graph8HostNode22createHandlerFunction_ILNS3_11HandlerTypeE5EEENS3_7HandlerIXT_EE8FunctionEvEUlDpOT_E_NS_9allocatorISD_EEFvjEEE
00007ff91f687e58 (__TEXT,__const) non-external __ZTSNSt3__110__function6__funcIZNK3adm5graph8HostNode22createHandlerFunction_ILNS3_11HandlerTypeE6EEENS3_7HandlerIXT_EE8FunctionEvEUlDpOT_E_NS_9allocatorISD_EEFvjEEE
00007ff91f687f68 (__TEXT,__const) non-external __ZTSNSt3__110__function6__funcIZNK3adm5graph8HostNode22createHandlerFunction_ILNS3_11HandlerTypeE7EEENS3_7HandlerIXT_EE8FunctionEvEUlDpOT_E_NS_9allocatorISD_EEFxvEEE
00007ff91f68809a (__TEXT,__const) non-external __ZTSNSt3__110__function6__funcIZNK3adm5graph8HostNode22createHandlerFunction_ILNS3_11HandlerTypeE8EEENS3_7HandlerIXT_EE8FunctionEvEUlDpOT_E_NS_9allocatorISD_EEFyyEEE
00007ff91f6881cc (__TEXT,__const) non-external __ZTSNSt3__110__function6__funcIZNK3adm5graph8HostNode22createHandlerFunction_ILNS3_11HandlerTypeE9EEENS3_7HandlerIXT_EE8FunctionEvEUlDpOT_E_NS_9allocatorISD_EEFyyRyEEE
00007ff91f684519 (__TEXT,__const) non-external __ZTSNSt3__110shared_ptrIN3adm5graph7DSPNodeEE27__shared_ptr_default_deleteIS3_S3_EE
00007ff91f684b89 (__TEXT,__const) non-external __ZTSNSt3__114default_deleteIN3adm2vp3SPIEEE
00007ff91f684e4a (__TEXT,__const) non-external __ZTSNSt3__114default_deleteIN3adm3dsp5GraphEEE
00007ff91f684683 (__TEXT,__const) non-external __ZTSNSt3__114default_deleteIN3adm5graph14KernelPropertyEEE
00007ff91f686e2b (__TEXT,__const) non-external __ZTSNSt3__114default_deleteIN3adm5graph6KernelEEE
00007ff91f6850f1 (__TEXT,__const) non-external __ZTSNSt3__114default_deleteIN8DSPGraph5GraphEEE
00007ff91f688807 (__TEXT,__const) non-external __ZTSNSt3__117bad_function_callE
00007ff91f6852c0 (__TEXT,__const) non-external __ZTSNSt3__120__shared_ptr_emplaceIN3adm2vp19UplinkConfigurationENS_9allocatorIS3_EEEE
00007ff91f685312 (__TEXT,__const) non-external __ZTSNSt3__120__shared_ptr_emplaceIN3adm2vp21DownlinkConfigurationENS_9allocatorIS3_EEEE
00007ff91f6846ba (__TEXT,__const) non-external __ZTSNSt3__120__shared_ptr_emplaceIN3adm2vp6detail26ProxyFactoryImplementationENS_9allocatorIS4_EEEE
00007ff91f686f80 (__TEXT,__const) non-external __ZTSNSt3__120__shared_ptr_emplaceIN8nlohmann6detail21output_string_adapterIcNS_12basic_stringIcNS_11char_traitsIcEENS_9allocatorIcEEEEEENS7_ISA_EEEE
00007ff91f685494 (__TEXT,__const) non-external __ZTSNSt3__120__shared_ptr_pointerIP36audiodspcontroller_audiodspcontrol_sZN12_GLOBAL__N_115getControllerEKEyPKcE3$_0NS_9allocatorIS1_EEEE
00007ff91f684b2e (__TEXT,__const) non-external __ZTSNSt3__120__shared_ptr_pointerIPN3adm2vp3SPIENS_14default_deleteIS3_EENS_9allocatorIS3_EEEE
00007ff91f68471a (__TEXT,__const) non-external __ZTSNSt3__120__shared_ptr_pointerIPN3adm2vp6detail25UplinkProxyImplementationEZNS3_26ProxyFactoryImplementation17doCreateProxyListINS2_19UplinkConfigurationEEEN5caulk8expectedINS6_8DispatchIT_E9ProxyListENS_10error_codeEEERKNS2_17ImmutableDispatchISC_E4TypeEEUlS5_E_NS_9allocatorIS4_EEEE
00007ff91f684920 (__TEXT,__const) non-external __ZTSNSt3__120__shared_ptr_pointerIPN3adm2vp6detail27DownlinkProxyImplementationEZNS3_26ProxyFactoryImplementation17doCreateProxyListINS2_21DownlinkConfigurationEEEN5caulk8expectedINS6_8DispatchIT_E9ProxyListENS_10error_codeEEERKNS2_17ImmutableDispatchISC_E4TypeEEUlS5_E_NS_9allocatorIS4_EEEE
00007ff91f684dec (__TEXT,__const) non-external __ZTSNSt3__120__shared_ptr_pointerIPN3adm3dsp5GraphENS_14default_deleteIS3_EENS_9allocatorIS3_EEEE
00007ff91f684619 (__TEXT,__const) non-external __ZTSNSt3__120__shared_ptr_pointerIPN3adm5graph14KernelPropertyENS_14default_deleteIS3_EENS_9allocatorIS3_EEEE
00007ff91f686dca (__TEXT,__const) non-external __ZTSNSt3__120__shared_ptr_pointerIPN3adm5graph6KernelENS_14default_deleteIS3_EENS_9allocatorIS3_EEEE
00007ff91f684496 (__TEXT,__const) non-external __ZTSNSt3__120__shared_ptr_pointerIPN3adm5graph7DSPNodeENS_10shared_ptrIS3_E27__shared_ptr_default_deleteIS3_S3_EENS_9allocatorIS3_EEEE
00007ff91f685092 (__TEXT,__const) non-external __ZTSNSt3__120__shared_ptr_pointerIPN8DSPGraph5GraphENS_14default_deleteIS2_EENS_9allocatorIS2_EEEE
00007ff91f6845ee (__TEXT,__const) non-external __ZTSP18AudioChannelLayout
00007ff91f686907 (__TEXT,__const) non-external __ZTSPFiP7__sFILEE
00007ff91f686c49 (__TEXT,__const) non-external __ZTSPN10applesauce10exceptions13tag_backtraceE
00007ff91f686a14 (__TEXT,__const) non-external __ZTSZ73-[DSPProcessor initWithHostDescription:hostCallback:systemConfiguration:]E3$_1
00007ff91f68551a (__TEXT,__const) non-external __ZTSZN12_GLOBAL__N_115getControllerEKEyPKcE3$_0
00007ff91f68846a (__TEXT,__const) non-external __ZTSZN3adm21CustomPropertyManager12attachToNodeERKNSt3__110shared_ptrINS_5graph7DSPNodeEEERKNS1_3setINS1_12basic_stringIcNS1_11char_traitsIcEENS1_9allocatorIcEEEENS1_4lessISE_EENSC_ISE_EEEEE3$_1
00007ff91f68863d (__TEXT,__const) non-external __ZTSZN3adm21CustomPropertyManager12attachToNodeERKNSt3__110shared_ptrINS_5graph7DSPNodeEEERKNS1_3setINS1_12basic_stringIcNS1_11char_traitsIcEENS1_9allocatorIcEEEENS1_4lessISE_EENSC_ISE_EEEEE3$_2
00007ff91f684836 (__TEXT,__const) non-external __ZTSZN3adm2vp6detail26ProxyFactoryImplementation17doCreateProxyListINS0_19UplinkConfigurationEEEN5caulk8expectedINS2_8DispatchIT_E9ProxyListENSt3__110error_codeEEERKNS0_17ImmutableDispatchIS8_E4TypeEEUlPNS1_25UplinkProxyImplementationEE_
00007ff91f684a40 (__TEXT,__const) non-external __ZTSZN3adm2vp6detail26ProxyFactoryImplementation17doCreateProxyListINS0_21DownlinkConfigurationEEEN5caulk8expectedINS2_8DispatchIT_E9ProxyListENSt3__110error_codeEEERKNS0_17ImmutableDispatchIS8_E4TypeEEUlPNS1_27DownlinkProxyImplementationEE_
00007ff91f684444 (__TEXT,__const) non-external __ZTSZN3adm5graph11NodeManagerC1ERKNS_19SystemConfigurationEE3$_0
00007ff91f684d8f (__TEXT,__const) non-external __ZTSZN3adm5graph6detailL20createTerminalBusMapERKNS0_19KernelConfigurationERKNS_3dsp5GraphEE3$_0
00007ff91f6877f8 (__TEXT,__const) non-external __ZTSZNK3adm5graph8HostNode22createHandlerFunction_ILNS0_11HandlerTypeE0EEENS0_7HandlerIXT_EE8FunctionEvEUlDpOT_E_
00007ff91f687908 (__TEXT,__const) non-external __ZTSZNK3adm5graph8HostNode22createHandlerFunction_ILNS0_11HandlerTypeE1EEENS0_7HandlerIXT_EE8FunctionEvEUlDpOT_E_
00007ff91f687a6e (__TEXT,__const) non-external __ZTSZNK3adm5graph8HostNode22createHandlerFunction_ILNS0_11HandlerTypeE2EEENS0_7HandlerIXT_EE8FunctionEvEUlDpOT_E_
00007ff91f687bb0 (__TEXT,__const) non-external __ZTSZNK3adm5graph8HostNode22createHandlerFunction_ILNS0_11HandlerTypeE3EEENS0_7HandlerIXT_EE8FunctionEvEUlDpOT_E_
00007ff91f687cda (__TEXT,__const) non-external __ZTSZNK3adm5graph8HostNode22createHandlerFunction_ILNS0_11HandlerTypeE4EEENS0_7HandlerIXT_EE8FunctionEvEUlDpOT_E_
00007ff91f687dea (__TEXT,__const) non-external __ZTSZNK3adm5graph8HostNode22createHandlerFunction_ILNS0_11HandlerTypeE5EEENS0_7HandlerIXT_EE8FunctionEvEUlDpOT_E_
00007ff91f687efa (__TEXT,__const) non-external __ZTSZNK3adm5graph8HostNode22createHandlerFunction_ILNS0_11HandlerTypeE6EEENS0_7HandlerIXT_EE8FunctionEvEUlDpOT_E_
00007ff91f68802c (__TEXT,__const) non-external __ZTSZNK3adm5graph8HostNode22createHandlerFunction_ILNS0_11HandlerTypeE7EEENS0_7HandlerIXT_EE8FunctionEvEUlDpOT_E_
00007ff91f68815e (__TEXT,__const) non-external __ZTSZNK3adm5graph8HostNode22createHandlerFunction_ILNS0_11HandlerTypeE8EEENS0_7HandlerIXT_EE8FunctionEvEUlDpOT_E_
00007ff91f688294 (__TEXT,__const) non-external __ZTSZNK3adm5graph8HostNode22createHandlerFunction_ILNS0_11HandlerTypeE9EEENS0_7HandlerIXT_EE8FunctionEvEUlDpOT_E_
                 (undefined) external __ZTTNSt3__118basic_stringstreamIcNS_11char_traitsIcEENS_9allocatorIcEEEE (from libc++)
                 (undefined) external __ZTTNSt3__119basic_ostringstreamIcNS_11char_traitsIcEENS_9allocatorIcEEEE (from libc++)
                 (undefined) external __ZTVN10__cxxabiv117__class_type_infoE (from libc++)
                 (undefined) external __ZTVN10__cxxabiv119__pointer_type_infoE (from libc++)
                 (undefined) external __ZTVN10__cxxabiv120__function_type_infoE (from libc++)
                 (undefined) external __ZTVN10__cxxabiv120__si_class_type_infoE (from libc++)
                 (undefined) external __ZTVN10__cxxabiv121__vmi_class_type_infoE (from libc++)
00007ff943341cb0 (__DATA_CONST,__const) non-external __ZTVN12_GLOBAL__N_113ErrorCategoryE
00007ff943341830 (__DATA_CONST,__const) non-external __ZTVN3adm2vp13ErrorCategoryE
00007ff943340b08 (__DATA_CONST,__const) non-external __ZTVN3adm2vp16SPIErrorCategoryE
00007ff943341878 (__DATA_CONST,__const) non-external __ZTVN3adm2vp6detail19ProxyImplementationINS0_19UplinkConfigurationEEE
00007ff9433418d8 (__DATA_CONST,__const) non-external __ZTVN3adm2vp6detail19ProxyImplementationINS0_21DownlinkConfigurationEEE
00007ff943341938 (__DATA_CONST,__const) non-external __ZTVN3adm2vp6detail25UplinkProxyImplementationE
00007ff943341998 (__DATA_CONST,__const) non-external __ZTVN3adm2vp6detail27DownlinkProxyImplementationE
00007ff943341ad0 (__DATA_CONST,__const) non-external __ZTVN3adm2vp9InterfaceE
00007ff943341bb8 (__DATA_CONST,__const) non-external __ZTVN3adm3dsp12GraphBuilderE
00007ff943341b68 (__DATA_CONST,__const) non-external __ZTVN3adm3dsp2v112GraphBuilderE
00007ff943340538 (__DATA_CONST,__const) non-external __ZTVN3adm3dsp2v15GraphE
00007ff94333f810 (__DATA_CONST,__const) non-external __ZTVN3adm5graph12_GLOBAL__N_113ErrorCategoryE
00007ff943340320 (__DATA_CONST,__const) non-external __ZTVN3adm5graph13ExclaveKernelE
00007ff94333fb20 (__DATA_CONST,__const) non-external __ZTVN3adm5graph14DSPGraphKernelE
00007ff943341430 (__DATA_CONST,__const) non-external __ZTVN3adm5graph26VoiceProcessorUplinkKernelE
00007ff94333fd28 (__DATA_CONST,__const) non-external __ZTVN3adm5graph28FixedBlockSizeDSPGraphKernelE
00007ff943340c50 (__DATA_CONST,__const) non-external __ZTVN3adm5graph29ExclaveDSPControllerClientMTDE
00007ff943340d00 (__DATA_CONST,__const) non-external __ZTVN3adm5graph30ExclaveDSPControllerClientImplE
00007ff943341320 (__DATA_CONST,__const) non-external __ZTVN3adm5graph30ExclaveDSPControllerClientSiriE
00007ff94333ff60 (__DATA_CONST,__const) non-external __ZTVN3adm5graph31VariableBlockSizeDSPGraphKernelE
00007ff9433413a8 (__DATA_CONST,__const) non-external __ZTVN3adm5graph39ExclaveDSPControllerClientSoundAnalysisE
00007ff943341dc0 (__DATA_CONST,__const) non-external __ZTVN3adm5graph4NodeE
00007ff943342360 (__DATA_CONST,__const) non-external __ZTVN3adm5graph6KernelE
00007ff94333f8f0 (__DATA_CONST,__const) non-external __ZTVN3adm5graph6detail18KernelPropertyTypeIN2CA13ChannelLayoutEEE
00007ff94333f690 (__DATA_CONST,__const) non-external __ZTVN3adm5graph7DSPNodeE
00007ff943341f18 (__DATA_CONST,__const) non-external __ZTVN3adm5graph8HostNodeE
00007ff9433421d8 (__DATA_CONST,__const) non-external __ZTVN3adm5graph9DSPKernelE
00007ff943342430 (__DATA_CONST,__const) non-external __ZTVN5boost10error_infoIN10applesauce10exceptions13tag_backtraceENS1_9backtrace10snapshot_NILi64EEEEE
00007ff9433406d8 (__DATA_CONST,__const) non-external __ZTVN5boost16exception_detail10bad_alloc_E
00007ff943342140 (__DATA_CONST,__const) non-external __ZTVN5boost16exception_detail10clone_baseE
00007ff943340758 (__DATA_CONST,__const) non-external __ZTVN5boost16exception_detail10clone_implINS0_10bad_alloc_EEE
00007ff943340918 (__DATA_CONST,__const) non-external __ZTVN5boost16exception_detail10clone_implINS0_14bad_exception_EEE
00007ff94333f510 (__DATA_CONST,__const) non-external __ZTVN5boost16exception_detail10clone_implINS0_19error_info_injectorINSt3__112system_errorEEEEE
00007ff943342098 (__DATA_CONST,__const) non-external __ZTVN5boost16exception_detail10clone_implINS0_19error_info_injectorISt13runtime_errorEEEE
00007ff943340898 (__DATA_CONST,__const) non-external __ZTVN5boost16exception_detail14bad_exception_E
00007ff94333f5b8 (__DATA_CONST,__const) non-external __ZTVN5boost16exception_detail19error_info_injectorINSt3__112system_errorEEE
00007ff943342170 (__DATA_CONST,__const) non-external __ZTVN5boost16exception_detail19error_info_injectorISt13runtime_errorEE
00007ff9433424f8 (__DATA_CONST,__const) non-external __ZTVN5boost16exception_detail25error_info_container_implE
00007ff943342488 (__DATA_CONST,__const) non-external __ZTVN5boost6detail17sp_counted_impl_pINS_10error_infoIN10applesauce10exceptions13tag_backtraceENS3_9backtrace10snapshot_NILi64EEEEEEE
00007ff943340838 (__DATA_CONST,__const) non-external __ZTVN5boost6detail17sp_counted_impl_pINS_16exception_detail10clone_implINS2_10bad_alloc_EEEEE
00007ff9433409f8 (__DATA_CONST,__const) non-external __ZTVN5boost6detail17sp_counted_impl_pINS_16exception_detail10clone_implINS2_14bad_exception_EEEEE
00007ff943342560 (__DATA_CONST,__const) non-external __ZTVN5boost6detail17sp_counted_impl_pINS_16exception_detail15error_info_baseEEE
00007ff9433421b8 (__DATA_CONST,__const) non-external __ZTVN5boost9exceptionE
00007ff943342fb8 (__DATA_CONST,__const) non-external __ZTVN5caulk10concurrent7details15rt_message_callIZN3adm21CustomPropertyManager22onGraphParameterUpdateERKNS4_16ParameterMappingEfE3$_0JEEE
00007ff943341030 (__DATA_CONST,__const) non-external __ZTVN5caulk10concurrent7details15rt_message_callIZN3adm4util8RTLogger5doLogIJPKNS3_5graph30ExclaveDSPControllerClientImplERjEEEvNS4_10RTLogLevelEPKcDpOT_EUlvE_JEEE
00007ff943340e48 (__DATA_CONST,__const) non-external __ZTVN5caulk10concurrent7details15rt_message_callIZN3adm4util8RTLogger5doLogIJPNS3_5graph30ExclaveDSPControllerClientImplEEEEvNS4_10RTLogLevelEPKcDpOT_EUlvE_JEEE
00007ff9433411c0 (__DATA_CONST,__const) non-external __ZTVN5caulk10concurrent7details15rt_message_callIZN3adm4util8RTLogger5doLogIJPNS3_5graph30ExclaveDSPControllerClientImplERjRfEEEvNS4_10RTLogLevelEPKcDpOT_EUlvE_JEEE
00007ff943340f50 (__DATA_CONST,__const) non-external __ZTVN5caulk10concurrent7details15rt_message_callIZN3adm4util8RTLogger5doLogIJR10tb_error_tEEEvNS4_10RTLogLevelEPKcDpOT_EUlvE_JEEE
00007ff943340fa8 (__DATA_CONST,__const) non-external __ZTVN5caulk10concurrent7details15rt_message_callIZN3adm4util8RTLogger5doLogIJRK30audiodsputility_processerror_sPKcEEEvNS4_10RTLogLevelESB_DpOT_EUlvE_JEEE
00007ff943340ef8 (__DATA_CONST,__const) non-external __ZTVN5caulk10concurrent7details15rt_message_callIZN3adm4util8RTLogger5doLogIJRKjRjEEEvNS4_10RTLogLevelEPKcDpOT_EUlvE_JEEE
00007ff943340ea0 (__DATA_CONST,__const) non-external __ZTVN5caulk10concurrent7details15rt_message_callIZN3adm4util8RTLogger5doLogIJRPKcEEEvNS4_10RTLogLevelES8_DpOT_EUlvE_JEEE
00007ff943341700 (__DATA_CONST,__const) non-external __ZTVN5caulk10concurrent7details15rt_message_callIZN3adm4util8RTLogger5doLogIJRiEEEvNS4_10RTLogLevelEPKcDpOT_EUlvE_JEEE
00007ff943341138 (__DATA_CONST,__const) non-external __ZTVN5caulk10concurrent7details15rt_message_callIZN3adm4util8RTLogger5doLogIJRjEEEvNS4_10RTLogLevelEPKcDpOT_EUlvE_JEEE
00007ff943341088 (__DATA_CONST,__const) non-external __ZTVN5caulk10concurrent7details15rt_message_callIZN3adm4util8RTLogger5doLogIJRjR10tb_error_tEEEvNS4_10RTLogLevelEPKcDpOT_EUlvE_JEEE
00007ff9433410e0 (__DATA_CONST,__const) non-external __ZTVN5caulk10concurrent7details15rt_message_callIZN3adm4util8RTLogger5doLogIJRjRK32audiodsputility_parametererror_sPKcEEEvNS4_10RTLogLevelESC_DpOT_EUlvE_JEEE
00007ff943341218 (__DATA_CONST,__const) non-external __ZTVN5caulk10concurrent7details15rt_message_callIZN3adm4util8RTLogger5doLogIJRjRfEEEvNS4_10RTLogLevelEPKcDpOT_EUlvE_JEEE
00007ff943341270 (__DATA_CONST,__const) non-external __ZTVN5caulk10concurrent7details15rt_message_callIZN3adm4util8RTLogger5doLogIJRjRfR10tb_error_tEEEvNS4_10RTLogLevelEPKcDpOT_EUlvE_JEEE
00007ff9433412c8 (__DATA_CONST,__const) non-external __ZTVN5caulk10concurrent7details15rt_message_callIZN3adm4util8RTLogger5doLogIJRjRfRK32audiodsputility_parametererror_sPKcEEEvNS4_10RTLogLevelESD_DpOT_EUlvE_JEEE
00007ff9433402c8 (__DATA_CONST,__const) non-external __ZTVN5caulk10concurrent7details15rt_message_callIZN3adm4util8RTLogger5doLogIJRjS7_RKjEEEvNS4_10RTLogLevelEPKcDpOT_EUlvE_JEEE
00007ff943341758 (__DATA_CONST,__const) non-external __ZTVN5caulk10concurrent7details15rt_message_callIZN3adm4util8RTLogger5doLogIJRmEEEvNS4_10RTLogLevelEPKcDpOT_EUlvE_JEEE
00007ff943340270 (__DATA_CONST,__const) non-external __ZTVN5caulk10concurrent7details15rt_message_callIZN3adm4util8RTLogger5doLogIJRmRjRKjEEEvNS4_10RTLogLevelEPKcDpOT_EUlvE_JEEE
00007ff943340ba8 (__DATA_CONST,__const) non-external __ZTVN5caulk10concurrent7details15rt_message_callIZN3adm4util8RTLogger5doLogIJRmmmEEEvNS4_10RTLogLevelEPKcDpOT_EUlvE_JEEE
00007ff9433417b0 (__DATA_CONST,__const) non-external __ZTVN5caulk10concurrent7details15rt_message_callIZN3adm4util8RTLogger5doLogIJiEEEvNS4_10RTLogLevelEPKcDpOT_EUlvE_JEEE
00007ff9433416d8 (__DATA_CONST,__const) non-external __ZTVN5caulk19bad_expected_accessINSt3__110error_codeEEE
00007ff9433406b0 (__DATA_CONST,__const) non-external __ZTVN5caulk19bad_expected_accessIiEE
                 (undefined) external __ZTVN8DSPGraph11InterpreterE (from AudioToolboxCore)
00007ff943342728 (__DATA_CONST,__const) non-external __ZTVN8nlohmann6detail10type_errorE
00007ff9433427c8 (__DATA_CONST,__const) non-external __ZTVN8nlohmann6detail21output_string_adapterIcNSt3__112basic_stringIcNS2_11char_traitsIcEENS2_9allocatorIcEEEEEE
00007ff943342750 (__DATA_CONST,__const) non-external __ZTVN8nlohmann6detail9exceptionE
00007ff943341be0 (__DATA_CONST,__const) non-external __ZTVNSt3__110__function6__funcIPFiP7__sFILEENS_9allocatorIS5_EES4_EE
00007ff943341d30 (__DATA_CONST,__const) non-external __ZTVNSt3__110__function6__funcIZ73-[DSPProcessor initWithHostDescription:hostCallback:systemConfiguration:]E3$_1NS_9allocatorIS2_EEFvN2CA15PropertyAddressEEEE
00007ff943342ea8 (__DATA_CONST,__const) non-external __ZTVNSt3__110__function6__funcIZN3adm21CustomPropertyManager12attachToNodeERKNS_10shared_ptrINS2_5graph7DSPNodeEEERKNS_3setINS_12basic_stringIcNS_11char_traitsIcEENS_9allocatorIcEEEENS_4lessISG_EENSE_ISG_EEEEE3$_1NSE_ISN_EEFvjRKN4AMCP15Proc_Cycle_InfoEmPNSP_11Proc_StreamEmSU_EEE
00007ff943342f38 (__DATA_CONST,__const) non-external __ZTVNSt3__110__function6__funcIZN3adm21CustomPropertyManager12attachToNodeERKNS_10shared_ptrINS2_5graph7DSPNodeEEERKNS_3setINS_12basic_stringIcNS_11char_traitsIcEENS_9allocatorIcEEEENS_4lessISG_EENSE_ISG_EEEEE3$_2NSE_ISN_EEFvjRKN4AMCP15Proc_Cycle_InfoEmPNSP_11Proc_StreamEmSU_EEE
00007ff94333f600 (__DATA_CONST,__const) non-external __ZTVNSt3__110__function6__funcIZN3adm5graph11NodeManagerC1ERKNS2_19SystemConfigurationEE3$_0NS_9allocatorIS8_EEFNS_10unique_ptrINS2_2vp3SPIENS_14default_deleteISD_EEEEvEEE
00007ff943340190 (__DATA_CONST,__const) non-external __ZTVNSt3__110__function6__funcIZN3adm5graph6detailL20createTerminalBusMapERKNS3_19KernelConfigurationERKNS2_3dsp5GraphEE3$_0NS_9allocatorISC_EEFbRKZNS4_L20createTerminalBusMapES7_SB_E19DSPGraphBusSemanticSH_EEE
00007ff943342658 (__DATA_CONST,__const) non-external __ZTVNSt3__110__function6__funcIZNK3adm5graph8HostNode22createHandlerFunction_ILNS3_11HandlerTypeE0EEENS3_7HandlerIXT_EE8FunctionEvEUlDpOT_E_NS_9allocatorISD_EEFvjEEE
00007ff943342830 (__DATA_CONST,__const) non-external __ZTVNSt3__110__function6__funcIZNK3adm5graph8HostNode22createHandlerFunction_ILNS3_11HandlerTypeE1EEENS3_7HandlerIXT_EE8FunctionEvEUlDpOT_E_NS_9allocatorISD_EEFvjEEE
00007ff9433428b8 (__DATA_CONST,__const) non-external __ZTVNSt3__110__function6__funcIZNK3adm5graph8HostNode22createHandlerFunction_ILNS3_11HandlerTypeE2EEENS3_7HandlerIXT_EE8FunctionEvEUlDpOT_E_NS_9allocatorISD_EEFvjRKN4AMCP15Proc_Cycle_InfoEEEE
00007ff943342950 (__DATA_CONST,__const) non-external __ZTVNSt3__110__function6__funcIZNK3adm5graph8HostNode22createHandlerFunction_ILNS3_11HandlerTypeE3EEENS3_7HandlerIXT_EE8FunctionEvEUlDpOT_E_NS_9allocatorISD_EEFvjRKN4AMCP15Proc_Cycle_InfoEmPNSG_11Proc_StreamEmSL_EEE
00007ff9433429d8 (__DATA_CONST,__const) non-external __ZTVNSt3__110__function6__funcIZNK3adm5graph8HostNode22createHandlerFunction_ILNS3_11HandlerTypeE4EEENS3_7HandlerIXT_EE8FunctionEvEUlDpOT_E_NS_9allocatorISD_EEFvjRKN4AMCP15Proc_Cycle_InfoEEEE
00007ff943342a60 (__DATA_CONST,__const) non-external __ZTVNSt3__110__function6__funcIZNK3adm5graph8HostNode22createHandlerFunction_ILNS3_11HandlerTypeE5EEENS3_7HandlerIXT_EE8FunctionEvEUlDpOT_E_NS_9allocatorISD_EEFvjEEE
00007ff943342ae8 (__DATA_CONST,__const) non-external __ZTVNSt3__110__function6__funcIZNK3adm5graph8HostNode22createHandlerFunction_ILNS3_11HandlerTypeE6EEENS3_7HandlerIXT_EE8FunctionEvEUlDpOT_E_NS_9allocatorISD_EEFvjEEE
00007ff943342b70 (__DATA_CONST,__const) non-external __ZTVNSt3__110__function6__funcIZNK3adm5graph8HostNode22createHandlerFunction_ILNS3_11HandlerTypeE7EEENS3_7HandlerIXT_EE8FunctionEvEUlDpOT_E_NS_9allocatorISD_EEFxvEEE
00007ff943342c08 (__DATA_CONST,__const) non-external __ZTVNSt3__110__function6__funcIZNK3adm5graph8HostNode22createHandlerFunction_ILNS3_11HandlerTypeE8EEENS3_7HandlerIXT_EE8FunctionEvEUlDpOT_E_NS_9allocatorISD_EEFyyEEE
00007ff943342ca0 (__DATA_CONST,__const) non-external __ZTVNSt3__110__function6__funcIZNK3adm5graph8HostNode22createHandlerFunction_ILNS3_11HandlerTypeE9EEENS3_7HandlerIXT_EE8FunctionEvEUlDpOT_E_NS_9allocatorISD_EEFyyRyEEE
                 (undefined) external __ZTVNSt3__112system_errorE (from libc++)
                 (undefined) external __ZTVNSt3__115basic_stringbufIcNS_11char_traitsIcEENS_9allocatorIcEEEE (from libc++)
00007ff943343028 (__DATA_CONST,__const) non-external __ZTVNSt3__117bad_function_callE
                 (undefined) external __ZTVNSt3__118basic_stringstreamIcNS_11char_traitsIcEENS_9allocatorIcEEEE (from libc++)
                 (undefined) external __ZTVNSt3__119basic_ostringstreamIcNS_11char_traitsIcEENS_9allocatorIcEEEE (from libc++)
00007ff943340a58 (__DATA_CONST,__const) non-external __ZTVNSt3__120__shared_ptr_emplaceIN3adm2vp19UplinkConfigurationENS_9allocatorIS3_EEEE
00007ff943340aa8 (__DATA_CONST,__const) non-external __ZTVNSt3__120__shared_ptr_emplaceIN3adm2vp21DownlinkConfigurationENS_9allocatorIS3_EEEE
00007ff94333f9e0 (__DATA_CONST,__const) non-external __ZTVNSt3__120__shared_ptr_emplaceIN3adm2vp6detail26ProxyFactoryImplementationENS_9allocatorIS4_EEEE
00007ff943342778 (__DATA_CONST,__const) non-external __ZTVNSt3__120__shared_ptr_emplaceIN8nlohmann6detail21output_string_adapterIcNS_12basic_stringIcNS_11char_traitsIcEENS_9allocatorIcEEEEEENS7_ISA_EEEE
00007ff943340c00 (__DATA_CONST,__const) non-external __ZTVNSt3__120__shared_ptr_pointerIP36audiodspcontroller_audiodspcontrol_sZN12_GLOBAL__N_115getControllerEKEyPKcE3$_0NS_9allocatorIS1_EEEE
00007ff94333fad0 (__DATA_CONST,__const) non-external __ZTVNSt3__120__shared_ptr_pointerIPN3adm2vp3SPIENS_14default_deleteIS3_EENS_9allocatorIS3_EEEE
00007ff94333fa30 (__DATA_CONST,__const) non-external __ZTVNSt3__120__shared_ptr_pointerIPN3adm2vp6detail25UplinkProxyImplementationEZNS3_26ProxyFactoryImplementation17doCreateProxyListINS2_19UplinkConfigurationEEEN5caulk8expectedINS6_8DispatchIT_E9ProxyListENS_10error_codeEEERKNS2_17ImmutableDispatchISC_E4TypeEEUlS5_E_NS_9allocatorIS4_EEEE
00007ff94333fa80 (__DATA_CONST,__const) non-external __ZTVNSt3__120__shared_ptr_pointerIPN3adm2vp6detail27DownlinkProxyImplementationEZNS3_26ProxyFactoryImplementation17doCreateProxyListINS2_21DownlinkConfigurationEEEN5caulk8expectedINS6_8DispatchIT_E9ProxyListENS_10error_codeEEERKNS2_17ImmutableDispatchISC_E4TypeEEUlS5_E_NS_9allocatorIS4_EEEE
00007ff943340220 (__DATA_CONST,__const) non-external __ZTVNSt3__120__shared_ptr_pointerIPN3adm3dsp5GraphENS_14default_deleteIS3_EENS_9allocatorIS3_EEEE
00007ff94333f990 (__DATA_CONST,__const) non-external __ZTVNSt3__120__shared_ptr_pointerIPN3adm5graph14KernelPropertyENS_14default_deleteIS3_EENS_9allocatorIS3_EEEE
00007ff9433425c0 (__DATA_CONST,__const) non-external __ZTVNSt3__120__shared_ptr_pointerIPN3adm5graph6KernelENS_14default_deleteIS3_EENS_9allocatorIS3_EEEE
00007ff94333f7b8 (__DATA_CONST,__const) non-external __ZTVNSt3__120__shared_ptr_pointerIPN3adm5graph7DSPNodeENS_10shared_ptrIS3_E27__shared_ptr_default_deleteIS3_S3_EENS_9allocatorIS3_EEEE
00007ff943340648 (__DATA_CONST,__const) non-external __ZTVNSt3__120__shared_ptr_pointerIPN8DSPGraph5GraphENS_14default_deleteIS2_EENS_9allocatorIS2_EEEE
                 (undefined) external __ZTVSt12length_error (from libc++)
                 (undefined) external __ZTVSt12out_of_range (from libc++)
                 (undefined) external __ZTVSt14overflow_error (from libc++)
                 (undefined) external __ZTVSt16invalid_argument (from libc++)
                 (undefined) external __ZTVSt18bad_variant_access (from libc++)
                 (undefined) external __ZTVSt19bad_optional_access (from libc++)
00007ff91f633452 (__TEXT,__text) non-external __ZThn128_N3adm5graph7DSPNodeD0Ev
00007ff91f633386 (__TEXT,__text) non-external __ZThn128_N3adm5graph7DSPNodeD1Ev
00007ff91f672ec4 (__TEXT,__text) non-external __ZThn128_N3adm5graph8HostNode17kernelDidEndCycleEjRKN4AMCP15Proc_Cycle_InfoE
00007ff91f672dd8 (__TEXT,__text) non-external __ZThn128_N3adm5graph8HostNode20kernelWillBeginCycleEjRKN4AMCP15Proc_Cycle_InfoE
00007ff91f672ed2 (__TEXT,__text) non-external __ZThn128_N3adm5graph8HostNode22kernelDidEndProcessingEj
00007ff91f672e54 (__TEXT,__text) non-external __ZThn128_N3adm5graph8HostNode24kernelDidPerformClientIOEjRKN4AMCP15Proc_Cycle_InfoEmPNS2_11Proc_StreamEmS7_
00007ff91f672dbc (__TEXT,__text) non-external __ZThn128_N3adm5graph8HostNode24kernelWillRegisterClientEj
00007ff91f672ee0 (__TEXT,__text) non-external __ZThn128_N3adm5graph8HostNode25kernelDidUnregisterClientEj
00007ff91f672dca (__TEXT,__text) non-external __ZThn128_N3adm5graph8HostNode25kernelWillBeginProcessingEj
00007ff91f672de6 (__TEXT,__text) non-external __ZThn128_N3adm5graph8HostNode25kernelWillPerformClientIOEjRKN4AMCP15Proc_Cycle_InfoEmPNS2_11Proc_StreamEmS7_
00007ff91f672cde (__TEXT,__text) non-external __ZThn128_N3adm5graph8HostNodeD0Ev
00007ff91f672c12 (__TEXT,__text) non-external __ZThn128_N3adm5graph8HostNodeD1Ev
00007ff91f67ab5e (__TEXT,__text) non-external __ZThn16_N5boost16exception_detail10clone_implINS0_19error_info_injectorISt13runtime_errorEEED0Ev
00007ff91f67ab32 (__TEXT,__text) non-external __ZThn16_N5boost16exception_detail10clone_implINS0_19error_info_injectorISt13runtime_errorEEED1Ev
00007ff91f67ac6c (__TEXT,__text) non-external __ZThn16_N5boost16exception_detail19error_info_injectorISt13runtime_errorED0Ev
00007ff91f67ac40 (__TEXT,__text) non-external __ZThn16_N5boost16exception_detail19error_info_injectorISt13runtime_errorED1Ev
00007ff91f64956e (__TEXT,__text) non-external __ZThn24_N3adm5graph13ExclaveKernel11setPropertyEjN3gsl4spanIKhLln1EEE
00007ff91f6494fa (__TEXT,__text) non-external __ZThn24_N3adm5graph13ExclaveKernel12setParameterEjf
00007ff91f649468 (__TEXT,__text) non-external __ZThn24_N3adm5graph13ExclaveKernelD0Ev
00007ff91f649444 (__TEXT,__text) non-external __ZThn24_N3adm5graph13ExclaveKernelD1Ev
00007ff91f6432c0 (__TEXT,__text) non-external __ZThn24_N3adm5graph14DSPGraphKernel11setPropertyEjN3gsl4spanIKhLln1EEE
00007ff91f6431ac (__TEXT,__text) non-external __ZThn24_N3adm5graph14DSPGraphKernel12setParameterEjf
00007ff91f64313a (__TEXT,__text) non-external __ZThn24_N3adm5graph14DSPGraphKernelD0Ev
00007ff91f643134 (__TEXT,__text) non-external __ZThn24_N3adm5graph14DSPGraphKernelD1Ev
00007ff91f65f56e (__TEXT,__text) non-external __ZThn24_N3adm5graph20VoiceProcessorKernel11setPropertyEjN3gsl4spanIKhLln1EEE
00007ff91f65f4cc (__TEXT,__text) non-external __ZThn24_N3adm5graph20VoiceProcessorKernel12setParameterEjf
00007ff91f65f45e (__TEXT,__text) non-external __ZThn24_N3adm5graph26VoiceProcessorUplinkKernelD0Ev
00007ff91f65f420 (__TEXT,__text) non-external __ZThn24_N3adm5graph26VoiceProcessorUplinkKernelD1Ev
00007ff91f6437d4 (__TEXT,__text) non-external __ZThn24_N3adm5graph28FixedBlockSizeDSPGraphKernelD0Ev
00007ff91f6437c6 (__TEXT,__text) non-external __ZThn24_N3adm5graph28FixedBlockSizeDSPGraphKernelD1Ev
00007ff91f645216 (__TEXT,__text) non-external __ZThn24_N3adm5graph31VariableBlockSizeDSPGraphKernelD0Ev
00007ff91f6451b4 (__TEXT,__text) non-external __ZThn24_N3adm5graph31VariableBlockSizeDSPGraphKernelD1Ev
00007ff91f658068 (__TEXT,__text) non-external __ZThn24_N3adm5graph9DSPKernelD0Ev
00007ff91f658062 (__TEXT,__text) non-external __ZThn24_N3adm5graph9DSPKernelD1Ev
00007ff91f649560 (__TEXT,__text) non-external __ZThn24_NK3adm5graph13ExclaveKernel11getPropertyEjN3gsl4spanIhLln1EEERm
00007ff91f649550 (__TEXT,__text) non-external __ZThn24_NK3adm5graph13ExclaveKernel11hasPropertyEj
00007ff91f6494c6 (__TEXT,__text) non-external __ZThn24_NK3adm5graph13ExclaveKernel12getParameterEj
00007ff91f649476 (__TEXT,__text) non-external __ZThn24_NK3adm5graph13ExclaveKernel12hasParameterEj
00007ff91f649574 (__TEXT,__text) non-external __ZThn24_NK3adm5graph13ExclaveKernel15getPropertyInfoEj
00007ff91f64957e (__TEXT,__text) non-external __ZThn24_NK3adm5graph13ExclaveKernel15getPropertySizeEj
00007ff91f649558 (__TEXT,__text) non-external __ZThn24_NK3adm5graph13ExclaveKernel18isPropertyWritableEj
00007ff91f649586 (__TEXT,__text) non-external __ZThn24_NK3adm5graph13ExclaveKernel19getInputPropertyIDsEv
00007ff91f6494b0 (__TEXT,__text) non-external __ZThn24_NK3adm5graph13ExclaveKernel19isParameterWritableEj
00007ff91f649510 (__TEXT,__text) non-external __ZThn24_NK3adm5graph13ExclaveKernel20getInputParameterIDsEv
00007ff91f64959e (__TEXT,__text) non-external __ZThn24_NK3adm5graph13ExclaveKernel20getOutputPropertyIDsEv
00007ff91f649530 (__TEXT,__text) non-external __ZThn24_NK3adm5graph13ExclaveKernel21getOutputParameterIDsEv
00007ff91f6495b6 (__TEXT,__text) non-external __ZThn24_NK3adm5graph13ExclaveKernel5visitERNS0_18ABHelperDSPVisitorE
00007ff91f64326a (__TEXT,__text) non-external __ZThn24_NK3adm5graph14DSPGraphKernel11getPropertyEjN3gsl4spanIhLln1EEERm
00007ff91f643216 (__TEXT,__text) non-external __ZThn24_NK3adm5graph14DSPGraphKernel11hasPropertyEj
00007ff91f643178 (__TEXT,__text) non-external __ZThn24_NK3adm5graph14DSPGraphKernel12getParameterEj
00007ff91f643140 (__TEXT,__text) non-external __ZThn24_NK3adm5graph14DSPGraphKernel12hasParameterEj
00007ff91f6432e8 (__TEXT,__text) non-external __ZThn24_NK3adm5graph14DSPGraphKernel15getPropertyInfoEj
00007ff91f643324 (__TEXT,__text) non-external __ZThn24_NK3adm5graph14DSPGraphKernel15getPropertySizeEj
00007ff91f643230 (__TEXT,__text) non-external __ZThn24_NK3adm5graph14DSPGraphKernel18isPropertyWritableEj
00007ff91f64335c (__TEXT,__text) non-external __ZThn24_NK3adm5graph14DSPGraphKernel19getInputPropertyIDsEv
00007ff91f643158 (__TEXT,__text) non-external __ZThn24_NK3adm5graph14DSPGraphKernel19isParameterWritableEj
00007ff91f6431ce (__TEXT,__text) non-external __ZThn24_NK3adm5graph14DSPGraphKernel20getInputParameterIDsEv
00007ff91f64337e (__TEXT,__text) non-external __ZThn24_NK3adm5graph14DSPGraphKernel20getOutputPropertyIDsEv
00007ff91f6431f0 (__TEXT,__text) non-external __ZThn24_NK3adm5graph14DSPGraphKernel21getOutputParameterIDsEv
00007ff91f6433a4 (__TEXT,__text) non-external __ZThn24_NK3adm5graph14DSPGraphKernel5visitERNS0_18ABHelperDSPVisitorE
00007ff91f65f560 (__TEXT,__text) non-external __ZThn24_NK3adm5graph20VoiceProcessorKernel11getPropertyEjN3gsl4spanIhLln1EEERm
00007ff91f65f50a (__TEXT,__text) non-external __ZThn24_NK3adm5graph20VoiceProcessorKernel11hasPropertyEj
00007ff91f65f4be (__TEXT,__text) non-external __ZThn24_NK3adm5graph20VoiceProcessorKernel12getParameterEj
00007ff91f65f4ae (__TEXT,__text) non-external __ZThn24_NK3adm5graph20VoiceProcessorKernel12hasParameterEj
00007ff91f65f57c (__TEXT,__text) non-external __ZThn24_NK3adm5graph20VoiceProcessorKernel15getPropertyInfoEj
00007ff91f65f58a (__TEXT,__text) non-external __ZThn24_NK3adm5graph20VoiceProcessorKernel15getPropertySizeEj
00007ff91f65f544 (__TEXT,__text) non-external __ZThn24_NK3adm5graph20VoiceProcessorKernel18isPropertyWritableEj
00007ff91f65f598 (__TEXT,__text) non-external __ZThn24_NK3adm5graph20VoiceProcessorKernel19getInputPropertyIDsEv
00007ff91f65f4b6 (__TEXT,__text) non-external __ZThn24_NK3adm5graph20VoiceProcessorKernel19isParameterWritableEj
00007ff91f65f4da (__TEXT,__text) non-external __ZThn24_NK3adm5graph20VoiceProcessorKernel20getInputParameterIDsEv
00007ff91f65f5b0 (__TEXT,__text) non-external __ZThn24_NK3adm5graph20VoiceProcessorKernel20getOutputPropertyIDsEv
00007ff91f65f4f2 (__TEXT,__text) non-external __ZThn24_NK3adm5graph20VoiceProcessorKernel21getOutputParameterIDsEv
00007ff91f65f5c8 (__TEXT,__text) non-external __ZThn24_NK3adm5graph20VoiceProcessorKernel5visitERNS0_18ABHelperDSPVisitorE
00007ff91f630c98 (__TEXT,__text) non-external __ZThn32_N5boost16exception_detail10clone_implINS0_19error_info_injectorINSt3__112system_errorEEEED0Ev
00007ff91f630c6c (__TEXT,__text) non-external __ZThn32_N5boost16exception_detail10clone_implINS0_19error_info_injectorINSt3__112system_errorEEEED1Ev
00007ff91f63266c (__TEXT,__text) non-external __ZThn32_N5boost16exception_detail19error_info_injectorINSt3__112system_errorEED0Ev
00007ff91f632640 (__TEXT,__text) non-external __ZThn32_N5boost16exception_detail19error_info_injectorINSt3__112system_errorEED1Ev
00007ff91f64d186 (__TEXT,__text) non-external __ZThn40_N5boost16exception_detail10bad_alloc_D0Ev
00007ff91f64d15a (__TEXT,__text) non-external __ZThn40_N5boost16exception_detail10bad_alloc_D1Ev
00007ff91f64cffc (__TEXT,__text) non-external __ZThn40_N5boost16exception_detail10clone_implINS0_10bad_alloc_EED0Ev
00007ff91f64cfd0 (__TEXT,__text) non-external __ZThn40_N5boost16exception_detail10clone_implINS0_10bad_alloc_EED1Ev
00007ff91f64cc4e (__TEXT,__text) non-external __ZThn40_N5boost16exception_detail10clone_implINS0_14bad_exception_EED0Ev
00007ff91f64cc22 (__TEXT,__text) non-external __ZThn40_N5boost16exception_detail10clone_implINS0_14bad_exception_EED1Ev
00007ff91f64cdd8 (__TEXT,__text) non-external __ZThn40_N5boost16exception_detail14bad_exception_D0Ev
00007ff91f64cdac (__TEXT,__text) non-external __ZThn40_N5boost16exception_detail14bad_exception_D1Ev
00007ff91f64d00a (__TEXT,__text) non-external __ZTv0_n24_NK5boost16exception_detail10clone_implINS0_10bad_alloc_EE5cloneEv
00007ff91f64cc5c (__TEXT,__text) non-external __ZTv0_n24_NK5boost16exception_detail10clone_implINS0_14bad_exception_EE5cloneEv
00007ff91f630ca6 (__TEXT,__text) non-external __ZTv0_n24_NK5boost16exception_detail10clone_implINS0_19error_info_injectorINSt3__112system_errorEEEE5cloneEv
00007ff91f67ab6c (__TEXT,__text) non-external __ZTv0_n24_NK5boost16exception_detail10clone_implINS0_19error_info_injectorISt13runtime_errorEEE5cloneEv
00007ff91f64d01c (__TEXT,__text) non-external __ZTv0_n32_NK5boost16exception_detail10clone_implINS0_10bad_alloc_EE7rethrowEv
00007ff91f64cc6e (__TEXT,__text) non-external __ZTv0_n32_NK5boost16exception_detail10clone_implINS0_14bad_exception_EE7rethrowEv
00007ff91f630cb8 (__TEXT,__text) non-external __ZTv0_n32_NK5boost16exception_detail10clone_implINS0_19error_info_injectorINSt3__112system_errorEEEE7rethrowEv
00007ff91f67ab7e (__TEXT,__text) non-external __ZTv0_n32_NK5boost16exception_detail10clone_implINS0_19error_info_injectorISt13runtime_errorEEE7rethrowEv
00007ff91f64d072 (__TEXT,__text) non-external __ZTv0_n40_N5boost16exception_detail10clone_implINS0_10bad_alloc_EED0Ev
00007ff91f64d02c (__TEXT,__text) non-external __ZTv0_n40_N5boost16exception_detail10clone_implINS0_10bad_alloc_EED1Ev
00007ff91f64ccc4 (__TEXT,__text) non-external __ZTv0_n40_N5boost16exception_detail10clone_implINS0_14bad_exception_EED0Ev
00007ff91f64cc7e (__TEXT,__text) non-external __ZTv0_n40_N5boost16exception_detail10clone_implINS0_14bad_exception_EED1Ev
00007ff91f630cfe (__TEXT,__text) non-external __ZTv0_n40_N5boost16exception_detail10clone_implINS0_19error_info_injectorINSt3__112system_errorEEEED0Ev
00007ff91f630cc8 (__TEXT,__text) non-external __ZTv0_n40_N5boost16exception_detail10clone_implINS0_19error_info_injectorINSt3__112system_errorEEEED1Ev
00007ff91f67abc4 (__TEXT,__text) non-external __ZTv0_n40_N5boost16exception_detail10clone_implINS0_19error_info_injectorISt13runtime_errorEEED0Ev
00007ff91f67ab8e (__TEXT,__text) non-external __ZTv0_n40_N5boost16exception_detail10clone_implINS0_19error_info_injectorISt13runtime_errorEEED1Ev
00007ff944477b80 (__DATA,__bss) non-external __ZZ18get_adm_log_objectvE16g_adm_log_object
00007ff944477b88 (__DATA,__bss) non-external __ZZ18get_adm_log_objectvE9onceToken
00007ff944477c3e (__DATA,__bss) non-external __ZZ49-[DSPProcessor dumpDiagnosticsWithNSObject:name:]E18isDebugDumpEnabled
00007ff944477b98 (__DATA,__bss) non-external __ZZL19AudioDSPLibraryCorePPcE16frameworkLibrary.0
00007ff944477bd8 (__DATA,__bss) non-external __ZZL20GetVoiceProcessorSPIvE18sVoiceProcessorSPI
00007ff944477be0 (__DATA,__bss) non-external __ZZL20GetVoiceProcessorSPIvE22sVoiceProcessorSPIOnce
00007ff944477c20 (__DATA,__bss) non-external __ZZL23AudioCaptureLibraryCorePPcE16frameworkLibrary.0
00007ff944477c28 (__DATA,__bss) non-external __ZZL34getAudioCaptureInitializeSymbolLocvE3ptr.0
00007ff944477b90 (__DATA,__bss) non-external __ZZL39getRegisterAudioUnits_InternalSymbolLocvE3ptr.0
00007ff944477be8 (__DATA,__bss) non-external __ZZN12_GLOBAL__N_115getControllerEKEyPKcE14sControllerEKs
00007ff943340b00 (__DATA_CONST,__const) non-external __ZZN3adm2vp10unexpectedE19VoiceProcessorErrorE17kSPIErrorCategory
00007ff943341828 (__DATA_CONST,__const) non-external __ZZN3adm2vp10unexpectedENS0_9ErrorCodeEE14kErrorCategory
00007ff944477c34 (__DATA,__bss) non-external __ZZN3adm2vp6detail19ProxyImplementationINS0_19UplinkConfigurationEEC1ERKNS0_22ImmutableConfigurationIS3_EENS0_23UplinkNodeConfiguration4TypeEE8gProxyID
00007ff944477c38 (__DATA,__bss) non-external __ZZN3adm2vp6detail19ProxyImplementationINS0_21DownlinkConfigurationEEC1ERKNS0_22ImmutableConfigurationIS3_EENS0_25DownlinkNodeConfiguration4TypeEE8gProxyID
00007ff91f641272 (__TEXT,__text) non-external __ZZN3adm2vp6detail26ProxyFactoryImplementation17doCreateProxyListINS0_19UplinkConfigurationEEEN5caulk8expectedINS2_8DispatchIT_E9ProxyListENSt3__110error_codeEEERKNS0_17ImmutableDispatchIS8_E4TypeEENKUlPNS1_25UplinkProxyImplementationEE_clESK_
00007ff944477bc8 (__DATA,__bss) non-external __ZZN3adm2vp6detailL27getDefaultVoiceProcessorSPIEvE18gVoiceProcessorSPI
00007ff91f64c5d8 (__TEXT,__text) non-external __ZZN3adm3dsp2v15Graph26getRequiredInputFrameCountEjENK3$_0clEv
00007ff91f64c3fe (__TEXT,__text) non-external __ZZN3adm3dsp2v15Graph27getExpectedOutputFrameCountEjENK3$_0clEv
00007ff91f64c064 (__TEXT,__text) non-external __ZZN3adm3dsp2v15Graph7processENSt3__14spanIKNS0_11ProcessDataELm18446744073709551615EEENS4_IS5_Lm18446744073709551615EEEjENK3$_0clEv
00007ff94333f808 (__DATA_CONST,__const) non-external __ZZN3adm5graph12_GLOBAL__N_110unexpectedENS1_16NodeManagerErrorEE15skErrorCategory
00007ff944475b30 (__DATA,__data) non-external __ZZN3adm5graph18generateCallbackIDENS0_12CallbackTypeEE11gCallbackID
00007ff944477c18 (__DATA,__bss) non-external __ZZN3adm5graph30ExclaveDSPControllerClientImplC1ENSt3__18weak_ptrI36audiodspcontroller_audiodspcontrol_sEESt16initializer_listIjES7_NS_8exclaves7UseCaseEE8onceflag
00007ff91f66d00e (__TEXT,__text) non-external __ZZN3adm7utility19convertToDictionaryERKNS_17NegotiateResponseEENK3$_0clEb
00007ff94354d120 (__DATA_DIRTY,__bss) non-external __ZZN5boost16exception_detail27get_static_exception_objectINS0_10bad_alloc_EEENS_13exception_ptrEvE2ep
00007ff94354d140 (__DATA_DIRTY,__bss) non-external __ZZN5boost16exception_detail27get_static_exception_objectINS0_14bad_exception_EEENS_13exception_ptrEvE2ep
00007ff944477ba8 (__DATA,__bss) non-external __ZZN8DSPGraph6getLogEvE4gLog
00007ff944477bb0 (__DATA,__bss) non-external __ZZN8DSPGraph6getLogEvE9onceToken
00007ff91f68723d (__TEXT,__const) non-external __ZZN8nlohmann6detail10serializerINS_10basic_jsonINSt3__13mapENS3_6vectorENS3_12basic_stringIcNS3_11char_traitsIcEENS3_9allocatorIcEEEEbxydS9_NS_14adl_serializerENS5_IhNS9_IhEEEEEEE12dump_integerIyLi0EEEvT_E12digits_to_99
00007ff91f6870ad (__TEXT,__const) non-external __ZZN8nlohmann6detail10serializerINS_10basic_jsonINSt3__13mapENS3_6vectorENS3_12basic_stringIcNS3_11char_traitsIcEENS3_9allocatorIcEEEEbxydS9_NS_14adl_serializerENS5_IhNS9_IhEEEEEEE6decodeERhRjhE5utf8d
00007ff91f687308 (__TEXT,__const) non-external __ZZN8nlohmann6detail9dtoa_impl36get_cached_power_for_binary_exponentEiE13kCachedPowers
                 (undefined) external __ZdlPv (from libc++)
                 (undefined) external __ZdlPvSt19__type_descriptor_t (from libc++)
                 (undefined) external __Znwm (from libc++)
                 (undefined) external __ZnwmSt19__type_descriptor_t (from libc++)
00007ff91f65e184 (__TEXT,__text) non-external ___Block_byref_object_copy_
00007ff91f65dcc6 (__TEXT,__text) non-external ___Block_byref_object_copy_.14
00007ff91f65d28e (__TEXT,__text) non-external ___Block_byref_object_copy_.21
00007ff91f65c82e (__TEXT,__text) non-external ___Block_byref_object_copy_.49
00007ff91f65b981 (__TEXT,__text) non-external ___Block_byref_object_copy_.87
00007ff91f65e192 (__TEXT,__text) non-external ___Block_byref_object_dispose_
00007ff91f65dcd4 (__TEXT,__text) non-external ___Block_byref_object_dispose_.15
00007ff91f65d29c (__TEXT,__text) non-external ___Block_byref_object_dispose_.22
00007ff91f65c844 (__TEXT,__text) non-external ___Block_byref_object_dispose_.50
00007ff91f65b98f (__TEXT,__text) non-external ___Block_byref_object_dispose_.88
                 (undefined) external ___CFConstantStringClassReference (from CoreFoundation)
                 (undefined) external ___NSDictionary0__ (from CoreFoundation)
00007ff91f626813 (__TEXT,__text) non-external ____Z18get_adm_log_objectv_block_invoke
00007ff91f654757 (__TEXT,__text) non-external ____ZL20GetVoiceProcessorSPIv_block_invoke
00007ff91f65e346 (__TEXT,__text) non-external ____ZL34getAudioCaptureInitializeSymbolLocv_block_invoke
00007ff91f636406 (__TEXT,__text) non-external ____ZL39getRegisterAudioUnits_InternalSymbolLocv_block_invoke
00007ff91f65e198 (__TEXT,__text) non-external ____ZN3adm5graph30ExclaveDSPControllerClientImpl11unconfigureEv_block_invoke
00007ff91f65b995 (__TEXT,__text) non-external ____ZN3adm5graph30ExclaveDSPControllerClientImpl12setParameterEjf_block_invoke
00007ff91f65d2a2 (__TEXT,__text) non-external ____ZN3adm5graph30ExclaveDSPControllerClientImpl7processERKN4AMCP11Proc_StreamE_block_invoke
00007ff91f65dcda (__TEXT,__text) non-external ____ZN3adm5graph30ExclaveDSPControllerClientImpl9configureERKN2CA17StreamDescriptionES5_S5_jNS_8exclaves17MicRefLatencyTypeEjj_block_invoke
00007ff91f64c009 (__TEXT,__text) non-external ____ZN8DSPGraph6getLogEv_block_invoke
00007ff91f65c84a (__TEXT,__text) non-external ____ZNK3adm5graph30ExclaveDSPControllerClientImpl12getParameterEj_block_invoke
                 (undefined) weak external ____chkstk_darwin (from libSystem)
                 (undefined) external ___assert_rtn (from libSystem)
00007ff94333f350 (__DATA_CONST,__const) non-external ___block_descriptor_32_e5_v8?0l
00007ff94333f870 (__DATA_CONST,__const) non-external ___block_descriptor_40_ea8_32r_e5_v8?0l
00007ff943340d88 (__DATA_CONST,__const) non-external ___block_descriptor_tmp.11
00007ff943340db8 (__DATA_CONST,__const) non-external ___block_descriptor_tmp.13
00007ff943340de8 (__DATA_CONST,__const) non-external ___block_descriptor_tmp.17
00007ff943340e18 (__DATA_CONST,__const) non-external ___block_descriptor_tmp.24
00007ff943340b68 (__DATA_CONST,__const) non-external ___block_descriptor_tmp.472
00007ff943341000 (__DATA_CONST,__const) non-external ___block_descriptor_tmp.52
00007ff943341190 (__DATA_CONST,__const) non-external ___block_descriptor_tmp.90
00007ff94333f370 (__DATA_CONST,__const) non-external ___block_literal_global
00007ff943340628 (__DATA_CONST,__const) non-external ___block_literal_global.277
00007ff943340b88 (__DATA_CONST,__const) non-external ___block_literal_global.470
                 (undefined) external ___bzero (from libSystem)
00007ff91f67daf0 (__TEXT,__text) non-external (was a private external) ___chkstk_darwin
00007ff91f67db10 (__TEXT,__text) non-external (was a private external) ___chkstk_darwin_llvm_probe
00007ff91f62698a (__TEXT,__text) non-external ___clang_call_terminate
00007ff91f65c1c2 (__TEXT,__text) non-external ___copy_helper_block_e8_32r
00007ff91f63651a (__TEXT,__text) non-external ___copy_helper_block_ea8_32r
                 (undefined) external ___cxa_allocate_exception (from libc++)
                 (undefined) external ___cxa_atexit (from libSystem)
                 (undefined) external ___cxa_begin_catch (from libc++)
                 (undefined) external ___cxa_demangle (from libc++)
                 (undefined) external ___cxa_end_catch (from libc++)
                 (undefined) external ___cxa_free_exception (from libc++)
                 (undefined) external ___cxa_guard_abort (from libc++)
                 (undefined) external ___cxa_guard_acquire (from libc++)
                 (undefined) external ___cxa_guard_release (from libc++)
                 (undefined) external ___cxa_pure_virtual (from libc++)
                 (undefined) external ___cxa_rethrow (from libc++)
                 (undefined) external ___cxa_throw (from libc++)
00007ff91f67db4c (__TEXT,__text) non-external ___cxx_global_var_init
00007ff91f67dedb (__TEXT,__text) non-external ___cxx_global_var_init.1
00007ff91f65c1d9 (__TEXT,__text) non-external ___destroy_helper_block_e8_32r
00007ff91f636531 (__TEXT,__text) non-external ___destroy_helper_block_ea8_32r
                 (undefined) external ___dynamic_cast (from libc++)
                 (undefined) external ___gxx_personality_v0 (from libc++)
                 (undefined) external ___objc_personality_v0 (from libobjc)
                 (undefined) external ___stack_chk_fail (from libSystem)
                 (undefined) external ___stack_chk_guard (from libSystem)
                 (undefined) external __objc_empty_cache (from libobjc)
                 (undefined) external __os_assert_log (from libSystem)
                 (undefined) external __os_crash (from libSystem)
                 (undefined) external __os_log_debug_impl (from libSystem)
                 (undefined) external __os_log_error_impl (from libSystem)
                 (undefined) external __os_log_fault_impl (from libSystem)
                 (undefined) external __os_log_impl (from libSystem)
                 (undefined) external __sl_dlopen (from SoftLinking)
                 (undefined) external _abort (from libSystem)
                 (undefined) external _abort_report_np (from libSystem)
                 (undefined) external _backtrace (from libSystem)
                 (undefined) external _backtrace_symbols (from libSystem)
                 (undefined) external _dispatch_once (from libSystem)
                 (undefined) external _dispatch_queue_create (from libSystem)
                 (undefined) external _dispatch_release (from libSystem)
                 (undefined) external _dispatch_retain (from libSystem)
                 (undefined) external _dladdr (from libSystem)
                 (undefined) external _dlerror (from libSystem)
                 (undefined) external _dlopen (from libSystem)
                 (undefined) external _dlsym (from libSystem)
                 (undefined) external _exclaves_inbound_buffer_copyin (from libSystem)
                 (undefined) external _exclaves_inbound_buffer_create (from libSystem)
                 (undefined) external _fclose (from libSystem)
                 (undefined) external _fopen (from libSystem)
                 (undefined) external _fread (from libSystem)
                 (undefined) external _free (from libSystem)
                 (undefined) external _fseek (from libSystem)
                 (undefined) external _ftell (from libSystem)
00007ff944475b38 (__DATA,__crash_info) non-external (was a private external) _gCRAnnotations
                 (undefined) external _kCFAllocatorDefault (from CoreFoundation)
                 (undefined) external _kCFBooleanFalse (from CoreFoundation)
                 (undefined) external _kCFBooleanTrue (from CoreFoundation)
                 (undefined) external _kCFTypeArrayCallBacks (from CoreFoundation)
                 (undefined) external _kCFTypeDictionaryKeyCallBacks (from CoreFoundation)
                 (undefined) external _kCFTypeDictionaryValueCallBacks (from CoreFoundation)
                 (undefined) external _kdebug_trace (from libSystem)
                 (undefined) external _localeconv (from libSystem)
                 (undefined) external _localtime (from libSystem)
                 (undefined) external _mach_port_deallocate (from libSystem)
                 (undefined) external _mach_task_self_ (from libSystem)
                 (undefined) external _memchr (from libSystem)
                 (undefined) external _memcmp (from libSystem)
                 (undefined) external _memcpy (from libSystem)
                 (undefined) external _memmove (from libSystem)
                 (undefined) external _memset (from libSystem)
                 (undefined) external _objc_alloc (from libobjc)
                 (undefined) external _objc_autorelease (from libobjc)
                 (undefined) external _objc_autoreleasePoolPop (from libobjc)
                 (undefined) external _objc_autoreleasePoolPush (from libobjc)
                 (undefined) external _objc_autoreleaseReturnValue (from libobjc)
                 (undefined) external _objc_copyWeak (from libobjc)
                 (undefined) external _objc_destroyWeak (from libobjc)
                 (undefined) external _objc_enumerationMutation (from libobjc)
                 (undefined) external _objc_initWeak (from libobjc)
                 (undefined) external _objc_loadWeakRetained (from libobjc)
                 (undefined) external _objc_moveWeak (from libobjc)
                 (undefined) external _objc_msgSend (from libobjc)
                 (undefined) external _objc_msgSendSuper2 (from libobjc)
                 (undefined) external _objc_opt_new (from libobjc)
                 (undefined) external _objc_release (from libobjc)
                 (undefined) external _objc_retain (from libobjc)
                 (undefined) external _objc_retainAutorelease (from libobjc)
                 (undefined) external _objc_retainAutoreleaseReturnValue (from libobjc)
                 (undefined) external _objc_retainAutoreleasedReturnValue (from libobjc)
                 (undefined) external _objc_storeStrong (from libobjc)
                 (undefined) external _os_log_create (from libSystem)
                 (undefined) external _os_log_type_enabled (from libSystem)
                 (undefined) external _os_unfair_lock_lock (from libSystem)
                 (undefined) external _os_unfair_lock_unlock (from libSystem)
                 (undefined) external _sched_yield (from libSystem)
                 (undefined) external _snprintf (from libSystem)
                 (undefined) external _strcmp (from libSystem)
                 (undefined) external _strftime (from libSystem)
                 (undefined) external _strlcat (from libSystem)
                 (undefined) external _strlcpy (from libSystem)
                 (undefined) external _strlen (from libSystem)
                 (undefined) external _strrchr (from libSystem)
                 (undefined) external _tb_client_connection_activate (from Tightbeam)
                 (undefined) external _tb_client_connection_create_with_endpoint (from Tightbeam)
                 (undefined) external _tb_client_connection_message_construct (from Tightbeam)
                 (undefined) external _tb_client_connection_message_destruct (from Tightbeam)
                 (undefined) external _tb_conclave_endpoint_for_service (from Tightbeam)
                 (undefined) external _tb_connection_send_query (from Tightbeam)
                 (undefined) external _tb_message_complete (from Tightbeam)
                 (undefined) external _tb_message_decode_bool (from Tightbeam)
                 (undefined) external _tb_message_decode_f32 (from Tightbeam)
                 (undefined) external _tb_message_decode_u64 (from Tightbeam)
                 (undefined) external _tb_message_decode_u8 (from Tightbeam)
                 (undefined) external _tb_message_encode_bool (from Tightbeam)
                 (undefined) external _tb_message_encode_f32 (from Tightbeam)
                 (undefined) external _tb_message_encode_f64 (from Tightbeam)
                 (undefined) external _tb_message_encode_s64 (from Tightbeam)
                 (undefined) external _tb_message_encode_u32 (from Tightbeam)
                 (undefined) external _tb_message_encode_u64 (from Tightbeam)
                 (undefined) external _tb_message_encode_u8 (from Tightbeam)
                 (undefined) external _vsnprintf (from libSystem)
                 (undefined) external _wmemchr (from libSystem)
