0000000203fa62e4 (__TEXT,__gcc_except_tab) non-external GCC_except_table0
0000000203fa63e0 (__TEXT,__gcc_except_tab) non-external GCC_except_table0
0000000203fa696c (__TEXT,__gcc_except_tab) non-external GCC_except_table0
0000000203fa76f4 (__TEXT,__gcc_except_tab) non-external GCC_except_table0
0000000203fa77f4 (__TEXT,__gcc_except_tab) non-external GCC_except_table0
0000000203fa630c (__TEXT,__gcc_except_tab) non-external GCC_except_table1
0000000203fa6410 (__TEXT,__gcc_except_tab) non-external GCC_except_table1
0000000203fa7714 (__TEXT,__gcc_except_tab) non-external GCC_except_table1
0000000203fa6450 (__TEXT,__gcc_except_tab) non-external GCC_except_table10
0000000203fa69d8 (__TEXT,__gcc_except_tab) non-external GCC_except_table10
0000000203fa6820 (__TEXT,__gcc_except_tab) non-external GCC_except_table100
0000000203fa6830 (__TEXT,__gcc_except_tab) non-external GCC_except_table108
0000000203fa6850 (__TEXT,__gcc_except_tab) non-external GCC_except_table109
0000000203fa6460 (__TEXT,__gcc_except_tab) non-external GCC_except_table11
0000000203fa6870 (__TEXT,__gcc_except_tab) non-external GCC_except_table110
0000000203fa6884 (__TEXT,__gcc_except_tab) non-external GCC_except_table111
0000000203fa6898 (__TEXT,__gcc_except_tab) non-external GCC_except_table117
0000000203fa6470 (__TEXT,__gcc_except_tab) non-external GCC_except_table12
0000000203fa6a34 (__TEXT,__gcc_except_tab) non-external GCC_except_table12
0000000203fa68b0 (__TEXT,__gcc_except_tab) non-external GCC_except_table122
0000000203fa68c4 (__TEXT,__gcc_except_tab) non-external GCC_except_table123
0000000203fa7574 (__TEXT,__gcc_except_tab) non-external GCC_except_table128
0000000203fa68d4 (__TEXT,__gcc_except_tab) non-external GCC_except_table129
0000000203fa75ac (__TEXT,__gcc_except_tab) non-external GCC_except_table129
0000000203fa6484 (__TEXT,__gcc_except_tab) non-external GCC_except_table13
0000000203fa6a60 (__TEXT,__gcc_except_tab) non-external GCC_except_table13
0000000203fa68e4 (__TEXT,__gcc_except_tab) non-external GCC_except_table130
0000000203fa68f4 (__TEXT,__gcc_except_tab) non-external GCC_except_table131
0000000203fa6904 (__TEXT,__gcc_except_tab) non-external GCC_except_table133
0000000203fa6914 (__TEXT,__gcc_except_tab) non-external GCC_except_table134
0000000203fa6924 (__TEXT,__gcc_except_tab) non-external GCC_except_table143
0000000203fa6938 (__TEXT,__gcc_except_tab) non-external GCC_except_table144
0000000203fa694c (__TEXT,__gcc_except_tab) non-external GCC_except_table147
0000000203fa75e4 (__TEXT,__gcc_except_tab) non-external GCC_except_table151
0000000203fa75f8 (__TEXT,__gcc_except_tab) non-external GCC_except_table154
0000000203fa760c (__TEXT,__gcc_except_tab) non-external GCC_except_table155
0000000203fa62fc (__TEXT,__gcc_except_tab) non-external GCC_except_table16
0000000203fa64d8 (__TEXT,__gcc_except_tab) non-external GCC_except_table16
0000000203fa6960 (__TEXT,__gcc_except_tab) non-external GCC_except_table160
0000000203fa761c (__TEXT,__gcc_except_tab) non-external GCC_except_table162
0000000203fa64ec (__TEXT,__gcc_except_tab) non-external GCC_except_table17
0000000203fa6a8c (__TEXT,__gcc_except_tab) non-external GCC_except_table17
0000000203fa762c (__TEXT,__gcc_except_tab) non-external GCC_except_table173
0000000203fa7648 (__TEXT,__gcc_except_tab) non-external GCC_except_table174
0000000203fa7658 (__TEXT,__gcc_except_tab) non-external GCC_except_table177
0000000203fa7670 (__TEXT,__gcc_except_tab) non-external GCC_except_table178
0000000203fa6500 (__TEXT,__gcc_except_tab) non-external GCC_except_table18
0000000203fa7680 (__TEXT,__gcc_except_tab) non-external GCC_except_table180
0000000203fa6544 (__TEXT,__gcc_except_tab) non-external GCC_except_table19
0000000203fa6ab4 (__TEXT,__gcc_except_tab) non-external GCC_except_table19
0000000203fa7698 (__TEXT,__gcc_except_tab) non-external GCC_except_table198
0000000203fa7824 (__TEXT,__gcc_except_tab) non-external GCC_except_table2
0000000203fa6558 (__TEXT,__gcc_except_tab) non-external GCC_except_table20
0000000203fa6ad4 (__TEXT,__gcc_except_tab) non-external GCC_except_table20
0000000203fa6584 (__TEXT,__gcc_except_tab) non-external GCC_except_table21
0000000203fa6afc (__TEXT,__gcc_except_tab) non-external GCC_except_table21
0000000203fa659c (__TEXT,__gcc_except_tab) non-external GCC_except_table22
0000000203fa6b38 (__TEXT,__gcc_except_tab) non-external GCC_except_table22
0000000203fa65c4 (__TEXT,__gcc_except_tab) non-external GCC_except_table23
0000000203fa6b7c (__TEXT,__gcc_except_tab) non-external GCC_except_table23
0000000203fa6b90 (__TEXT,__gcc_except_tab) non-external GCC_except_table24
0000000203fa65d8 (__TEXT,__gcc_except_tab) non-external GCC_except_table25
0000000203fa6ba0 (__TEXT,__gcc_except_tab) non-external GCC_except_table25
0000000203fa65ec (__TEXT,__gcc_except_tab) non-external GCC_except_table26
0000000203fa70ac (__TEXT,__gcc_except_tab) non-external GCC_except_table26
0000000203fa7128 (__TEXT,__gcc_except_tab) non-external GCC_except_table27
0000000203fa713c (__TEXT,__gcc_except_tab) non-external GCC_except_table28
0000000203fa6428 (__TEXT,__gcc_except_tab) non-external GCC_except_table3
0000000203fa76a4 (__TEXT,__gcc_except_tab) non-external GCC_except_table3
0000000203fa77e0 (__TEXT,__gcc_except_tab) non-external GCC_except_table3
0000000203fa7154 (__TEXT,__gcc_except_tab) non-external GCC_except_table31
0000000203fa72f8 (__TEXT,__gcc_except_tab) non-external GCC_except_table34
0000000203fa6600 (__TEXT,__gcc_except_tab) non-external GCC_except_table35
0000000203fa7318 (__TEXT,__gcc_except_tab) non-external GCC_except_table35
0000000203fa76d8 (__TEXT,__gcc_except_tab) non-external GCC_except_table4
0000000203fa773c (__TEXT,__gcc_except_tab) non-external GCC_except_table4
0000000203fa7848 (__TEXT,__gcc_except_tab) non-external GCC_except_table4
0000000203fa7354 (__TEXT,__gcc_except_tab) non-external GCC_except_table40
0000000203fa7364 (__TEXT,__gcc_except_tab) non-external GCC_except_table43
0000000203fa6614 (__TEXT,__gcc_except_tab) non-external GCC_except_table45
0000000203fa7374 (__TEXT,__gcc_except_tab) non-external GCC_except_table45
0000000203fa6628 (__TEXT,__gcc_except_tab) non-external GCC_except_table46
0000000203fa6638 (__TEXT,__gcc_except_tab) non-external GCC_except_table47
0000000203fa6648 (__TEXT,__gcc_except_tab) non-external GCC_except_table48
0000000203fa7384 (__TEXT,__gcc_except_tab) non-external GCC_except_table48
0000000203fa6658 (__TEXT,__gcc_except_tab) non-external GCC_except_table49
0000000203fa7394 (__TEXT,__gcc_except_tab) non-external GCC_except_table49
0000000203fa6320 (__TEXT,__gcc_except_tab) non-external GCC_except_table5
0000000203fa7758 (__TEXT,__gcc_except_tab) non-external GCC_except_table5
0000000203fa666c (__TEXT,__gcc_except_tab) non-external GCC_except_table51
0000000203fa73a4 (__TEXT,__gcc_except_tab) non-external GCC_except_table51
0000000203fa66b4 (__TEXT,__gcc_except_tab) non-external GCC_except_table52
0000000203fa73b4 (__TEXT,__gcc_except_tab) non-external GCC_except_table52
0000000203fa66dc (__TEXT,__gcc_except_tab) non-external GCC_except_table53
0000000203fa73c4 (__TEXT,__gcc_except_tab) non-external GCC_except_table53
0000000203fa6720 (__TEXT,__gcc_except_tab) non-external GCC_except_table54
0000000203fa635c (__TEXT,__gcc_except_tab) non-external GCC_except_table55
0000000203fa6734 (__TEXT,__gcc_except_tab) non-external GCC_except_table55
0000000203fa6368 (__TEXT,__gcc_except_tab) non-external GCC_except_table56
0000000203fa6744 (__TEXT,__gcc_except_tab) non-external GCC_except_table56
0000000203fa73d4 (__TEXT,__gcc_except_tab) non-external GCC_except_table56
0000000203fa73e8 (__TEXT,__gcc_except_tab) non-external GCC_except_table57
0000000203fa6760 (__TEXT,__gcc_except_tab) non-external GCC_except_table59
0000000203fa7404 (__TEXT,__gcc_except_tab) non-external GCC_except_table59
0000000203fa6988 (__TEXT,__gcc_except_tab) non-external GCC_except_table6
0000000203fa7774 (__TEXT,__gcc_except_tab) non-external GCC_except_table6
0000000203fa677c (__TEXT,__gcc_except_tab) non-external GCC_except_table60
0000000203fa7418 (__TEXT,__gcc_except_tab) non-external GCC_except_table60
0000000203fa6790 (__TEXT,__gcc_except_tab) non-external GCC_except_table61
0000000203fa742c (__TEXT,__gcc_except_tab) non-external GCC_except_table62
0000000203fa637c (__TEXT,__gcc_except_tab) non-external GCC_except_table64
0000000203fa7440 (__TEXT,__gcc_except_tab) non-external GCC_except_table64
0000000203fa6388 (__TEXT,__gcc_except_tab) non-external GCC_except_table65
0000000203fa67b4 (__TEXT,__gcc_except_tab) non-external GCC_except_table65
0000000203fa7484 (__TEXT,__gcc_except_tab) non-external GCC_except_table65
0000000203fa74e4 (__TEXT,__gcc_except_tab) non-external GCC_except_table66
0000000203fa74f4 (__TEXT,__gcc_except_tab) non-external GCC_except_table67
0000000203fa6330 (__TEXT,__gcc_except_tab) non-external GCC_except_table7
0000000203fa6998 (__TEXT,__gcc_except_tab) non-external GCC_except_table7
0000000203fa7788 (__TEXT,__gcc_except_tab) non-external GCC_except_table7
0000000203fa785c (__TEXT,__gcc_except_tab) non-external GCC_except_table7
0000000203fa63a0 (__TEXT,__gcc_except_tab) non-external GCC_except_table72
0000000203fa750c (__TEXT,__gcc_except_tab) non-external GCC_except_table73
0000000203fa67e0 (__TEXT,__gcc_except_tab) non-external GCC_except_table77
0000000203fa67f4 (__TEXT,__gcc_except_tab) non-external GCC_except_table78
0000000203fa7524 (__TEXT,__gcc_except_tab) non-external GCC_except_table78
0000000203fa6348 (__TEXT,__gcc_except_tab) non-external GCC_except_table8
0000000203fa643c (__TEXT,__gcc_except_tab) non-external GCC_except_table8
0000000203fa69a8 (__TEXT,__gcc_except_tab) non-external GCC_except_table8
0000000203fa77a8 (__TEXT,__gcc_except_tab) non-external GCC_except_table8
0000000203fa7870 (__TEXT,__gcc_except_tab) non-external GCC_except_table8
0000000203fa6810 (__TEXT,__gcc_except_tab) non-external GCC_except_table81
0000000203fa69c0 (__TEXT,__gcc_except_tab) non-external GCC_except_table9
0000000203fa77c8 (__TEXT,__gcc_except_tab) non-external GCC_except_table9
0000000203fa7548 (__TEXT,__gcc_except_tab) non-external GCC_except_table91
0000000203fa63b0 (__TEXT,__gcc_except_tab) non-external GCC_except_table92
0000000203fa7564 (__TEXT,__gcc_except_tab) non-external GCC_except_table94
0000000203fa63c8 (__TEXT,__gcc_except_tab) non-external GCC_except_table95
                 (undefined) external _CFRelease (from CoreFoundation)
                 (undefined) external _CGColorSpaceCreateDeviceRGB (from CoreGraphics)
                 (undefined) external _CGColorSpaceRelease (from CoreGraphics)
                 (undefined) external _CGLChoosePixelFormat (from OpenGL)
                 (undefined) external _CGLGetCurrentContext (from OpenGL)
                 (undefined) external _CGLGetPixelFormat (from OpenGL)
                 (undefined) external _CGLReleasePixelFormat (from OpenGL)
                 (undefined) external _CGLTexImageIOSurface2D (from OpenGL)
                 (undefined) external _CGRectIsEmpty (from CoreGraphics)
                 (undefined) external _IOSurfaceGetBytesPerRowOfPlane (from IOSurface)
                 (undefined) external _IOSurfaceLookup (from IOSurface)
0000000203fa5990 (__TEXT,__const) non-external (was a private external) _JetVersionNumber
0000000203fa5970 (__TEXT,__const) non-external (was a private external) _JetVersionString
                 (undefined) weak external _MTLCreateSystemDefaultDevice (from Metal)
                 (undefined) external _NSLogv (from Foundation)
                 (undefined) weak external _OBJC_CLASS_$_CIContext (from CoreImage)
                 (undefined) weak external _OBJC_CLASS_$_CIImage (from CoreImage)
                 (undefined) weak external _OBJC_CLASS_$_MTLDepthStencilDescriptor (from Metal)
                 (undefined) weak external _OBJC_CLASS_$_MTLRenderPassDescriptor (from Metal)
                 (undefined) weak external _OBJC_CLASS_$_MTLRenderPipelineDescriptor (from Metal)
                 (undefined) weak external _OBJC_CLASS_$_MTLSamplerDescriptor (from Metal)
                 (undefined) weak external _OBJC_CLASS_$_MTLStencilDescriptor (from Metal)
                 (undefined) weak external _OBJC_CLASS_$_MTLTextureDescriptor (from Metal)
                 (undefined) external _OBJC_CLASS_$_NSBundle (from Foundation)
                 (undefined) external _OBJC_CLASS_$_NSMutableDictionary (from CoreFoundation)
                 (undefined) external _OBJC_CLASS_$_NSNull (from CoreFoundation)
                 (undefined) external _OBJC_CLASS_$_NSNumber (from Foundation)
                 (undefined) external _OBJC_CLASS_$_NSOpenGLContext (from AppKit)
                 (undefined) external _OBJC_CLASS_$_NSOpenGLPixelFormat (from AppKit)
                 (undefined) external _OBJC_CLASS_$_NSString (from Foundation)
                 (undefined) external _OBJC_CLASS_$_NSUserDefaults (from CoreFoundation)
                 (undefined) external __NSConcreteGlobalBlock (from libSystem)
                 (undefined) external __NSConcreteStackBlock (from libSystem)
                 (undefined) external __Unwind_Resume (from libSystem)
0000000203fa2100 (__TEXT,__text) external __Z10jet_assertbP8NSString
0000000203f8f77c (__TEXT,__text) external __Z13xglCheckErrorv
0000000203f8f6b8 (__TEXT,__text) external __Z13xglPrintErrorv
0000000203f8f330 (__TEXT,__text) external __Z13xglPrintFloatPKcj
0000000203f8f5fc (__TEXT,__text) external __Z13xglPrintStatev
0000000203fa200c (__TEXT,__text) external __Z14jet_util_isPOTjj
0000000203f8eddc (__TEXT,__text) external __Z14xglLinkProgramj
0000000203f8f388 (__TEXT,__text) external __Z15xglPrintBooleanPKcj
0000000203f8f2e0 (__TEXT,__text) external __Z15xglPrintIntegerPKcj
0000000203fa2c3c (__TEXT,__text) external __Z16floatToHalfFloatf
0000000203f8f834 (__TEXT,__text) external __Z16xglAssertNoErrorv
0000000203fa4678 (__TEXT,__text) non-external __Z16xglAssertNoErrorv.cold.1
0000000203fa46a8 (__TEXT,__text) non-external __Z16xglAssertNoErrorv.cold.2
0000000203f8ec8c (__TEXT,__text) external __Z16xglCompileShaderPjjPKcPPNSt3__112basic_stringIcNS2_11char_traitsIcEENS2_9allocatorIcEEEE
0000000203fa1c98 (__TEXT,__text) external __Z17jet_createContextv
0000000203fa1ddc (__TEXT,__text) external __Z18jet_getClientLabelv
0000000203fa1d74 (__TEXT,__text) external __Z18jet_setClientLabelP8NSString
0000000203f8ee28 (__TEXT,__text) external __Z18xglValidateProgramj
0000000203f93cbc (__TEXT,__text) external __Z19jet_createGLContextP15NSOpenGLContext
0000000203f8eff8 (__TEXT,__text) external __Z19xglPrintFramebufferv
0000000203fa19b0 (__TEXT,__text) external __Z20jet_isMetalSupportedv
0000000203f8f4a8 (__TEXT,__text) external __Z20xglPrintVertexAttribj
0000000203fa1d34 (__TEXT,__text) external __Z21jet_ensureClientLabelv
0000000203fa1e30 (__TEXT,__text) external __Z21jet_get_debug_optionsv
0000000203fa19a8 (__TEXT,__text) external __Z21jet_isOpenGLSupportedv
0000000203fa243c (__TEXT,__text) external __Z23jet_choose_Metal_Devicev
0000000203fa1a34 (__TEXT,__text) external __Z23jet_createSharedContextP11jet_context
0000000203fa4f98 (__TEXT,__text) non-external __Z23jet_createSharedContextP11jet_context.cold.1
0000000203fa219c (__TEXT,__text) external __Z23jet_debug_option_existsP8NSString
0000000203fa22e4 (__TEXT,__text) external __Z24jet_debug_option_get_intP8NSString
0000000203fa222c (__TEXT,__text) external __Z25jet_debug_option_get_boolP8NSString
0000000203f8eed0 (__TEXT,__text) external __Z25xglPrintFramebufferStatusv
0000000203fa239c (__TEXT,__text) external __Z27jet_debug_option_get_stringP8NSString
0000000203f8f3d8 (__TEXT,__text) external __Z27xglPrintVertexAttribIntegerPKcjj
0000000203fa2434 (__TEXT,__text) external __Z29jet_Metal_Device_is_supportedPU19objcproto9MTLDevice11objc_object
0000000203fa1f08 (__TEXT,__text) external __Z30jet_get_info_plist_flag_is_setP8NSString
0000000203fa2058 (__TEXT,__text) external __Z38jet_texture_format_is_framebuffer_only18jet_texture_format
0000000203fa3148 (__TEXT,__text) external __Z43jet_convert_pixel_data_rgb_565_to_rgba_8888PKvPvjj
0000000203fa3200 (__TEXT,__text) external __Z45jet_convert_pixel_data_bgra_8888_to_rgba_8888PKvPvjj
0000000203fa30e8 (__TEXT,__text) external __Z45jet_convert_pixel_data_rgba_4444_to_rgba_8888PKvPvjj
0000000203fa3030 (__TEXT,__text) external __Z45jet_convert_pixel_data_rgba_5551_to_rgba_8888PKvPvjj
0000000203fa2e00 (__TEXT,__text) external __Z45jet_convert_pixel_data_rgba_fp32_to_rgba_fp16PKvPvjj
0000000203fa2cb4 (__TEXT,__text) external __Z51jet_convert_pixel_data_rgba_fp32_to_rgb32_101010_a8PKvPvS1_jj
0000000203fa2f0c (__TEXT,__text) external __Z52jet_convert_pixel_data_rgba_fp32_to_argb64_xr10_srgbPKvPvjj
0000000203fa2068 (__TEXT,__text) external __Z7jet_logP8NSStringz
000000022e9e20a0 (__DATA,__bss) non-external __ZL12_clientLabel
0000000203f9d774 (__TEXT,__text) non-external __ZL14getMetalBufferP10jet_buffer
0000000203f9d828 (__TEXT,__text) non-external __ZL14getMetalBufferP12jet_constant
0000000203f9d9cc (__TEXT,__text) non-external __ZL15getMetalSamplerP11jet_sampler
0000000203f9d058 (__TEXT,__text) non-external __ZL15getMetalTextureP11jet_texture
0000000203f9a134 (__TEXT,__text) non-external __ZL19getMetalPixelFormat18jet_texture_format
0000000203f9a65c (__TEXT,__text) non-external __ZL39getJetTextureFormatFromMetalPixelFormat14MTLPixelFormat
0000000203fa328c (__TEXT,__text) external __ZN10jet_buffer11is_finishedEv
0000000203fa3300 (__TEXT,__text) external __ZN10jet_buffer4waitEv
0000000203fa324c (__TEXT,__text) external __ZN10jet_bufferC2Ev
0000000203fa3468 (__TEXT,__text) external __ZN10jet_bufferD0Ev
0000000203fa3464 (__TEXT,__text) external __ZN10jet_bufferD1Ev
0000000203fa33c8 (__TEXT,__text) external __ZN10jet_bufferD2Ev
0000000203fa3cb0 (__TEXT,__text) external __ZN10xglProgram13setUniformIntEPKci
0000000203fa3dd0 (__TEXT,__text) external __ZN10xglProgram13setUniformIntEPKciPKii
0000000203fa3ce8 (__TEXT,__text) external __ZN10xglProgram13setUniformIntEPKcii
0000000203fa3d28 (__TEXT,__text) external __ZN10xglProgram13setUniformIntEPKciii
0000000203fa3d78 (__TEXT,__text) external __ZN10xglProgram13setUniformIntEPKciiii
0000000203fa3ee0 (__TEXT,__text) external __ZN10xglProgram15setUniformFloatEPKcf
0000000203fa3f18 (__TEXT,__text) external __ZN10xglProgram15setUniformFloatEPKcff
0000000203fa3f58 (__TEXT,__text) external __ZN10xglProgram15setUniformFloatEPKcfff
0000000203fa3fa8 (__TEXT,__text) external __ZN10xglProgram15setUniformFloatEPKcffff
0000000203fa4000 (__TEXT,__text) external __ZN10xglProgram15setUniformFloatEPKciPKfi
0000000203fa4110 (__TEXT,__text) external __ZN10xglProgram16setUniformMatrixEPKciPKfi
0000000203fa3b14 (__TEXT,__text) external __ZN10xglProgram17getAttributeIndexEPKc
0000000203fa3bac (__TEXT,__text) external __ZN10xglProgram18getUniformLocationEPKc
0000000203fa41e8 (__TEXT,__text) external __ZN10xglProgram3useEv
0000000203fa41e0 (__TEXT,__text) external __ZN10xglProgram8validateEv
0000000203fa3938 (__TEXT,__text) external __ZN10xglProgramC1EPKcS1_P15NSOpenGLContext
0000000203fa3a9c (__TEXT,__text) external __ZN10xglProgramC1EjjP15NSOpenGLContext
0000000203fa3754 (__TEXT,__text) external __ZN10xglProgramC2EPKcS1_P15NSOpenGLContext
0000000203fa393c (__TEXT,__text) external __ZN10xglProgramC2EjjP15NSOpenGLContext
0000000203fa3b10 (__TEXT,__text) external __ZN10xglProgramD1Ev
0000000203fa3aa0 (__TEXT,__text) external __ZN10xglProgramD2Ev
0000000203f91fc4 (__TEXT,__text) external __ZN11jet_context14change_programEP11jet_program
0000000203f8fb70 (__TEXT,__text) external __ZN11jet_context15end_render_passEv
0000000203f8fbb4 (__TEXT,__text) external __ZN11jet_context15submit_commandsEU13block_pointerFvR18jet_command_bufferE
0000000203f9201c (__TEXT,__text) external __ZN11jet_context17add_fenced_bufferEP10jet_buffer
0000000203f91e04 (__TEXT,__text) external __ZN11jet_context17change_blend_modeE14jet_blend_mode
0000000203f91e5c (__TEXT,__text) external __ZN11jet_context17change_color_maskEbbbb
0000000203f919a4 (__TEXT,__text) external __ZN11jet_context17create_texture_2dEjj18jet_texture_formatPvb17jet_texture_usage
0000000203f90568 (__TEXT,__text) external __ZN11jet_context17set_vertex_bufferERKNSt3__112basic_stringIcNS0_11char_traitsIcEENS0_9allocatorIcEEEEP10jet_buffer
0000000203f91824 (__TEXT,__text) external __ZN11jet_context18change_render_modeEbP11jet_programb14jet_blend_modeb18jet_texture_formatbS3_bS3_bbbbb
0000000203f91c04 (__TEXT,__text) external __ZN11jet_context18create_framebufferEv
0000000203f91cc0 (__TEXT,__text) external __ZN11jet_context18lookup_render_modeEP11jet_program14jet_blend_mode18jet_texture_formatS3_S3_bbbbj
0000000203f916e4 (__TEXT,__text) external __ZN11jet_context18set_vertex_samplerERKNSt3__112basic_stringIcNS0_11char_traitsIcEENS0_9allocatorIcEEEEP11jet_sampler
0000000203f90608 (__TEXT,__text) external __ZN11jet_context18set_vertex_textureERKNSt3__112basic_stringIcNS0_11char_traitsIcEENS0_9allocatorIcEEEEP11jet_texture
0000000203fa46d4 (__TEXT,__text) non-external __ZN11jet_context18set_vertex_textureERKNSt3__112basic_stringIcNS0_11char_traitsIcEENS0_9allocatorIcEEEEP11jet_texture.cold.1
0000000203f91a14 (__TEXT,__text) external __ZN11jet_context19create_texture_cubeEjj18jet_texture_formatPvS1_S1_S1_S1_S1_b
0000000203f906f0 (__TEXT,__text) external __ZN11jet_context19set_vertex_constantERKNSt3__112basic_stringIcNS0_11char_traitsIcEENS0_9allocatorIcEEEEP12jet_constant
0000000203f92078 (__TEXT,__text) external __ZN11jet_context20clear_fenced_buffersENSt3__110shared_ptrI9jet_fenceEE
0000000203f91784 (__TEXT,__text) external __ZN11jet_context20set_fragment_samplerERKNSt3__112basic_stringIcNS0_11char_traitsIcEENS0_9allocatorIcEEEEP11jet_sampler
0000000203f90790 (__TEXT,__text) external __ZN11jet_context20set_fragment_textureERKNSt3__112basic_stringIcNS0_11char_traitsIcEENS0_9allocatorIcEEEEP11jet_texture
0000000203fa4700 (__TEXT,__text) non-external __ZN11jet_context20set_fragment_textureERKNSt3__112basic_stringIcNS0_11char_traitsIcEENS0_9allocatorIcEEEEP11jet_texture.cold.1
0000000203f8fb28 (__TEXT,__text) external __ZN11jet_context21create_command_bufferEv
0000000203f90878 (__TEXT,__text) external __ZN11jet_context21set_fragment_constantERKNSt3__112basic_stringIcNS0_11char_traitsIcEENS0_9allocatorIcEEEEP12jet_constant
0000000203f9211c (__TEXT,__text) non-external (was a private external) __ZN11jet_context21set_scheduled_handlerENSt3__18functionIFvvEEE
0000000203f8fc94 (__TEXT,__text) external __ZN11jet_context22execute_command_bufferEP18jet_command_buffer
0000000203f91ebc (__TEXT,__text) external __ZN11jet_context24change_dest_color_formatE18jet_texture_format
0000000203f91f14 (__TEXT,__text) external __ZN11jet_context24change_dest_depth_formatE18jet_texture_format
0000000203f90bdc (__TEXT,__text) external __ZN11jet_context25set_vertex_constant_valueERKNSt3__112basic_stringIcNS0_11char_traitsIcEENS0_9allocatorIcEEEE13simd_float2x2
0000000203f90c78 (__TEXT,__text) external __ZN11jet_context25set_vertex_constant_valueERKNSt3__112basic_stringIcNS0_11char_traitsIcEENS0_9allocatorIcEEEE13simd_float3x3
0000000203f90d18 (__TEXT,__text) external __ZN11jet_context25set_vertex_constant_valueERKNSt3__112basic_stringIcNS0_11char_traitsIcEENS0_9allocatorIcEEEE13simd_float4x4
0000000203f90a08 (__TEXT,__text) external __ZN11jet_context25set_vertex_constant_valueERKNSt3__112basic_stringIcNS0_11char_traitsIcEENS0_9allocatorIcEEEEDv2_f
0000000203f90e54 (__TEXT,__text) external __ZN11jet_context25set_vertex_constant_valueERKNSt3__112basic_stringIcNS0_11char_traitsIcEENS0_9allocatorIcEEEEDv2_i
0000000203f90aa4 (__TEXT,__text) external __ZN11jet_context25set_vertex_constant_valueERKNSt3__112basic_stringIcNS0_11char_traitsIcEENS0_9allocatorIcEEEEDv3_f
0000000203f90ef0 (__TEXT,__text) external __ZN11jet_context25set_vertex_constant_valueERKNSt3__112basic_stringIcNS0_11char_traitsIcEENS0_9allocatorIcEEEEDv3_i
0000000203f90b40 (__TEXT,__text) external __ZN11jet_context25set_vertex_constant_valueERKNSt3__112basic_stringIcNS0_11char_traitsIcEENS0_9allocatorIcEEEEDv4_f
0000000203f90f8c (__TEXT,__text) external __ZN11jet_context25set_vertex_constant_valueERKNSt3__112basic_stringIcNS0_11char_traitsIcEENS0_9allocatorIcEEEEDv4_i
0000000203f9096c (__TEXT,__text) external __ZN11jet_context25set_vertex_constant_valueERKNSt3__112basic_stringIcNS0_11char_traitsIcEENS0_9allocatorIcEEEEf
0000000203f90db8 (__TEXT,__text) external __ZN11jet_context25set_vertex_constant_valueERKNSt3__112basic_stringIcNS0_11char_traitsIcEENS0_9allocatorIcEEEEi
0000000203f91f6c (__TEXT,__text) external __ZN11jet_context26change_dest_stencil_formatE18jet_texture_format
0000000203f90454 (__TEXT,__text) external __ZN11jet_context26submit_command_buffer_implEP18jet_command_buffer
0000000203f91298 (__TEXT,__text) external __ZN11jet_context27set_fragment_constant_valueERKNSt3__112basic_stringIcNS0_11char_traitsIcEENS0_9allocatorIcEEEE13simd_float2x2
0000000203f91334 (__TEXT,__text) external __ZN11jet_context27set_fragment_constant_valueERKNSt3__112basic_stringIcNS0_11char_traitsIcEENS0_9allocatorIcEEEE13simd_float3x3
0000000203f913d4 (__TEXT,__text) external __ZN11jet_context27set_fragment_constant_valueERKNSt3__112basic_stringIcNS0_11char_traitsIcEENS0_9allocatorIcEEEE13simd_float4x4
0000000203f910c4 (__TEXT,__text) external __ZN11jet_context27set_fragment_constant_valueERKNSt3__112basic_stringIcNS0_11char_traitsIcEENS0_9allocatorIcEEEEDv2_f
0000000203f91510 (__TEXT,__text) external __ZN11jet_context27set_fragment_constant_valueERKNSt3__112basic_stringIcNS0_11char_traitsIcEENS0_9allocatorIcEEEEDv2_i
0000000203f91160 (__TEXT,__text) external __ZN11jet_context27set_fragment_constant_valueERKNSt3__112basic_stringIcNS0_11char_traitsIcEENS0_9allocatorIcEEEEDv3_f
0000000203f915ac (__TEXT,__text) external __ZN11jet_context27set_fragment_constant_valueERKNSt3__112basic_stringIcNS0_11char_traitsIcEENS0_9allocatorIcEEEEDv3_i
0000000203f911fc (__TEXT,__text) external __ZN11jet_context27set_fragment_constant_valueERKNSt3__112basic_stringIcNS0_11char_traitsIcEENS0_9allocatorIcEEEEDv4_f
0000000203f91648 (__TEXT,__text) external __ZN11jet_context27set_fragment_constant_valueERKNSt3__112basic_stringIcNS0_11char_traitsIcEENS0_9allocatorIcEEEEDv4_i
0000000203f91028 (__TEXT,__text) external __ZN11jet_context27set_fragment_constant_valueERKNSt3__112basic_stringIcNS0_11char_traitsIcEENS0_9allocatorIcEEEEf
0000000203f91474 (__TEXT,__text) external __ZN11jet_context27set_fragment_constant_valueERKNSt3__112basic_stringIcNS0_11char_traitsIcEENS0_9allocatorIcEEEEi
0000000203f8fa34 (__TEXT,__text) external __ZN11jet_contextC2Ev
0000000203f8fb24 (__TEXT,__text) external __ZN11jet_contextD0Ev
0000000203f8fb20 (__TEXT,__text) external __ZN11jet_contextD1Ev
0000000203f8fa7c (__TEXT,__text) external __ZN11jet_contextD2Ev
0000000203fa28dc (__TEXT,__text) external __ZN11jet_programC1Ev
0000000203fa28b0 (__TEXT,__text) external __ZN11jet_programC2Ev
0000000203fa29ec (__TEXT,__text) external __ZN11jet_programD0Ev
0000000203fa29e8 (__TEXT,__text) external __ZN11jet_programD1Ev
0000000203fa2908 (__TEXT,__text) external __ZN11jet_programD2Ev
0000000203fa4620 (__TEXT,__text) external __ZN11jet_samplerC1Ev
0000000203fa4600 (__TEXT,__text) external __ZN11jet_samplerC2Ev
0000000203fa4648 (__TEXT,__text) external __ZN11jet_samplerD0Ev
0000000203fa4644 (__TEXT,__text) external __ZN11jet_samplerD1Ev
0000000203fa4640 (__TEXT,__text) external __ZN11jet_samplerD2Ev
0000000203fa2af4 (__TEXT,__text) external __ZN11jet_textureC2Ev
0000000203fa2b1c (__TEXT,__text) external __ZN11jet_textureD0Ev
0000000203fa2b18 (__TEXT,__text) external __ZN11jet_textureD1Ev
0000000203fa2b14 (__TEXT,__text) external __ZN11jet_textureD2Ev
0000000203f971bc (__TEXT,__text) non-external (was a private external) __ZN12glContextUseC2EP15NSOpenGLContext
0000000203f97264 (__TEXT,__text) non-external (was a private external) __ZN12glContextUseD2Ev
0000000203fa464c (__TEXT,__text) external __ZN12jet_constantC2Ev
0000000203fa4674 (__TEXT,__text) external __ZN12jet_constantD0Ev
0000000203fa4670 (__TEXT,__text) external __ZN12jet_constantD1Ev
0000000203fa466c (__TEXT,__text) external __ZN12jet_constantD2Ev
0000000203f924f4 (__TEXT,__text) non-external (was a private external) __ZN13jet_render_opD0Ev
0000000203f924f0 (__TEXT,__text) non-external (was a private external) __ZN13jet_render_opD1Ev
0000000203f92638 (__TEXT,__text) non-external (was a private external) __ZN13jet_render_opD2Ev
0000000203fa25b8 (__TEXT,__text) external __ZN15jet_buffer_pool11commit_dataEjj
0000000203fa2548 (__TEXT,__text) external __ZN15jet_buffer_pool11is_finishedEv
0000000203fa2664 (__TEXT,__text) external __ZN15jet_buffer_pool11next_bufferEb
0000000203fa2778 (__TEXT,__text) external __ZN15jet_buffer_pool20get_max_buffer_countEv
0000000203fa2780 (__TEXT,__text) external __ZN15jet_buffer_pool20set_max_buffer_countEj
0000000203fa4fc4 (__TEXT,__text) non-external __ZN15jet_buffer_pool20set_max_buffer_countEj.cold.1
0000000203fa24a0 (__TEXT,__text) external __ZN15jet_buffer_pool23initialize_first_bufferEv
0000000203fa2554 (__TEXT,__text) external __ZN15jet_buffer_pool4waitEv
0000000203fa25e4 (__TEXT,__text) external __ZN15jet_buffer_pool6resizeEj
0000000203fa258c (__TEXT,__text) external __ZN15jet_buffer_pool8get_dataEv
0000000203fa2560 (__TEXT,__text) external __ZN15jet_buffer_pool8set_dataEPKvjj
0000000203fa2464 (__TEXT,__text) external __ZN15jet_buffer_poolC2E18jet_component_typejj
0000000203fa2848 (__TEXT,__text) external __ZN15jet_buffer_poolD0Ev
0000000203fa2844 (__TEXT,__text) external __ZN15jet_buffer_poolD1Ev
0000000203fa27a8 (__TEXT,__text) external __ZN15jet_buffer_poolD2Ev
0000000203fa1700 (__TEXT,__text) non-external (was a private external) __ZN15jet_fence_Metal11is_finishedEv
0000000203fa1748 (__TEXT,__text) non-external (was a private external) __ZN15jet_fence_Metal4waitEv
0000000203fa17c0 (__TEXT,__text) non-external (was a private external) __ZN15jet_fence_MetalD0Ev
0000000203fa1784 (__TEXT,__text) non-external (was a private external) __ZN15jet_fence_MetalD1Ev
0000000203fa2af0 (__TEXT,__text) non-external (was a private external) __ZN15jet_framebufferD0Ev
0000000203fa2aec (__TEXT,__text) non-external (was a private external) __ZN15jet_framebufferD1Ev
0000000203f8ec60 (__TEXT,__text) external __ZN15jet_render_modeC2Ev
0000000203f8ec88 (__TEXT,__text) external __ZN15jet_render_modeD0Ev
0000000203f8ec84 (__TEXT,__text) external __ZN15jet_render_modeD1Ev
0000000203f8ec80 (__TEXT,__text) external __ZN15jet_render_modeD2Ev
0000000203f9e9e0 (__TEXT,__text) non-external (was a private external) __ZN16jet_buffer_Metal11commit_dataEjj
0000000203f9e9e4 (__TEXT,__text) non-external (was a private external) __ZN16jet_buffer_Metal6resizeEj
0000000203f9e9d8 (__TEXT,__text) non-external (was a private external) __ZN16jet_buffer_Metal8get_dataEv
0000000203f9e970 (__TEXT,__text) non-external (was a private external) __ZN16jet_buffer_Metal8set_dataEPKvjj
0000000203f9eb08 (__TEXT,__text) non-external (was a private external) __ZN16jet_buffer_Metal9copy_dataEPvj
0000000203f9eba0 (__TEXT,__text) non-external (was a private external) __ZN16jet_buffer_Metal9set_valueEDv2_f
0000000203f9ece0 (__TEXT,__text) non-external (was a private external) __ZN16jet_buffer_Metal9set_valueEDv2_t
0000000203f9ebf0 (__TEXT,__text) non-external (was a private external) __ZN16jet_buffer_Metal9set_valueEDv3_f
0000000203f9ed30 (__TEXT,__text) non-external (was a private external) __ZN16jet_buffer_Metal9set_valueEDv3_t
0000000203f9ec40 (__TEXT,__text) non-external (was a private external) __ZN16jet_buffer_Metal9set_valueEDv4_f
0000000203f9ed80 (__TEXT,__text) non-external (was a private external) __ZN16jet_buffer_Metal9set_valueEDv4_t
0000000203f9eb50 (__TEXT,__text) non-external (was a private external) __ZN16jet_buffer_Metal9set_valueEf
0000000203f9ec90 (__TEXT,__text) non-external (was a private external) __ZN16jet_buffer_Metal9set_valueEt
0000000203f9e840 (__TEXT,__text) non-external (was a private external) __ZN16jet_buffer_MetalC2EPU19objcproto9MTLDevice11objc_object18jet_component_typejjPv
0000000203f9eae0 (__TEXT,__text) non-external (was a private external) __ZN16jet_buffer_MetalD0Ev
0000000203f9eadc (__TEXT,__text) non-external (was a private external) __ZN16jet_buffer_MetalD1Ev
0000000203f9edd0 (__TEXT,__text) non-external (was a private external) __ZN16jet_buffer_MetalD2Ev
0000000203f991b0 (__TEXT,__text) non-external (was a private external) __ZN16jet_fence_OpenGL11is_finishedEv
0000000203f99244 (__TEXT,__text) non-external (was a private external) __ZN16jet_fence_OpenGL4waitEv
0000000203f992dc (__TEXT,__text) non-external (was a private external) __ZN16jet_fence_OpenGLD0Ev
0000000203f992d8 (__TEXT,__text) non-external (was a private external) __ZN16jet_fence_OpenGLD1Ev
0000000203f99304 (__TEXT,__text) non-external (was a private external) __ZN16jet_fence_OpenGLD2Ev
0000000203fa1930 (__TEXT,__text) external __ZN16jet_stencil_modeC1Ev
0000000203fa1910 (__TEXT,__text) external __ZN16jet_stencil_modeC2Ev
0000000203fa1958 (__TEXT,__text) external __ZN16jet_stencil_modeD0Ev
0000000203fa1954 (__TEXT,__text) external __ZN16jet_stencil_modeD1Ev
0000000203fa1950 (__TEXT,__text) external __ZN16jet_stencil_modeD2Ev
0000000203f97578 (__TEXT,__text) non-external (was a private external) __ZN17jet_buffer_OpenGL11commit_dataEjj
0000000203fa49d8 (__TEXT,__text) non-external __ZN17jet_buffer_OpenGL11commit_dataEjj.cold.1
0000000203f9771c (__TEXT,__text) non-external (was a private external) __ZN17jet_buffer_OpenGL6resizeEj
0000000203f9751c (__TEXT,__text) non-external (was a private external) __ZN17jet_buffer_OpenGL8get_dataEv
0000000203f97448 (__TEXT,__text) non-external (was a private external) __ZN17jet_buffer_OpenGL8set_dataEPKvjj
0000000203fa49ac (__TEXT,__text) non-external __ZN17jet_buffer_OpenGL8set_dataEPKvjj.cold.1
0000000203f9783c (__TEXT,__text) non-external (was a private external) __ZN17jet_buffer_OpenGL9set_valueEDv2_f
0000000203f9797c (__TEXT,__text) non-external (was a private external) __ZN17jet_buffer_OpenGL9set_valueEDv2_t
0000000203f9788c (__TEXT,__text) non-external (was a private external) __ZN17jet_buffer_OpenGL9set_valueEDv3_f
0000000203f979cc (__TEXT,__text) non-external (was a private external) __ZN17jet_buffer_OpenGL9set_valueEDv3_t
0000000203f978dc (__TEXT,__text) non-external (was a private external) __ZN17jet_buffer_OpenGL9set_valueEDv4_f
0000000203f97a1c (__TEXT,__text) non-external (was a private external) __ZN17jet_buffer_OpenGL9set_valueEDv4_t
0000000203f977ec (__TEXT,__text) non-external (was a private external) __ZN17jet_buffer_OpenGL9set_valueEf
0000000203f9792c (__TEXT,__text) non-external (was a private external) __ZN17jet_buffer_OpenGL9set_valueEt
0000000203f972b0 (__TEXT,__text) non-external (was a private external) __ZN17jet_buffer_OpenGLC2EP15NSOpenGLContext18jet_component_typejjPv
0000000203f977c4 (__TEXT,__text) non-external (was a private external) __ZN17jet_buffer_OpenGLD0Ev
0000000203f977c0 (__TEXT,__text) non-external (was a private external) __ZN17jet_buffer_OpenGLD1Ev
0000000203f97a6c (__TEXT,__text) non-external (was a private external) __ZN17jet_buffer_OpenGLD2Ev
0000000203f9e000 (__TEXT,__text) external __ZN17jet_context_Metal12create_fenceEv
0000000203f9dc20 (__TEXT,__text) external __ZN17jet_context_Metal12draw_indexedE18jet_primitive_typeP10jet_bufferjj
0000000203fa4f10 (__TEXT,__text) non-external __ZN17jet_context_Metal12draw_indexedE18jet_primitive_typeP10jet_bufferjj.cold.1
0000000203f9d624 (__TEXT,__text) external __ZN17jet_context_Metal12set_viewportEjjjj
0000000203f99b44 (__TEXT,__text) external __ZN17jet_context_Metal13create_bufferE18jet_component_typejjPv
0000000203f9ad68 (__TEXT,__text) external __ZN17jet_context_Metal14create_programEP12jet_functionS1_
0000000203fa4ba0 (__TEXT,__text) non-external __ZN17jet_context_Metal14create_programEP12jet_functionS1_.cold.1
0000000203fa4bcc (__TEXT,__text) non-external __ZN17jet_context_Metal14create_programEP12jet_functionS1_.cold.2
0000000203fa4bf8 (__TEXT,__text) non-external __ZN17jet_context_Metal14create_programEP12jet_functionS1_.cold.3
0000000203fa4c24 (__TEXT,__text) non-external __ZN17jet_context_Metal14create_programEP12jet_functionS1_.cold.4
0000000203f9a868 (__TEXT,__text) external __ZN17jet_context_Metal14create_samplerE16jet_address_modeS0_15jet_filter_modeS1_15jet_mipmap_mode
0000000203f99dd4 (__TEXT,__text) external __ZN17jet_context_Metal14create_textureE16jet_texture_type18jet_texture_formatjjjjj17jet_texture_usagePv
0000000203fa4a80 (__TEXT,__text) non-external __ZN17jet_context_Metal14create_textureE16jet_texture_type18jet_texture_formatjjjjj17jet_texture_usagePv.cold.1
0000000203fa4aac (__TEXT,__text) non-external __ZN17jet_context_Metal14create_textureE16jet_texture_type18jet_texture_formatjjjjj17jet_texture_usagePv.cold.2
0000000203fa4ad8 (__TEXT,__text) non-external __ZN17jet_context_Metal14create_textureE16jet_texture_type18jet_texture_formatjjjjj17jet_texture_usagePv.cold.3
0000000203fa4b04 (__TEXT,__text) non-external __ZN17jet_context_Metal14create_textureE16jet_texture_type18jet_texture_formatjjjjj17jet_texture_usagePv.cold.4
0000000203fa4b30 (__TEXT,__text) non-external __ZN17jet_context_Metal14create_textureE16jet_texture_type18jet_texture_formatjjjjj17jet_texture_usagePv.cold.5
0000000203f99c34 (__TEXT,__text) external __ZN17jet_context_Metal15create_constantE18jet_component_typejjPv
0000000203f9a9d4 (__TEXT,__text) external __ZN17jet_context_Metal15create_functionEPKcS1_17jet_function_typePPNSt3__112basic_stringIcNS3_11char_traitsIcEENS3_9allocatorIcEEEE
0000000203f9dffc (__TEXT,__text) external __ZN17jet_context_Metal15end_render_passEv
0000000203f9e188 (__TEXT,__text) external __ZN17jet_context_Metal15ensureCIContextEv
0000000203f9d614 (__TEXT,__text) external __ZN17jet_context_Metal15use_render_modeEP15jet_render_mode
0000000203f9e818 (__TEXT,__text) non-external (was a private external) __ZN17jet_context_Metal16get_Metal_DeviceEv
0000000203f99b3c (__TEXT,__text) external __ZN17jet_context_Metal16get_context_typeEv
0000000203f9d3c8 (__TEXT,__text) external __ZN17jet_context_Metal16set_scissor_rectEjjjj
0000000203f9c5ec (__TEXT,__text) external __ZN17jet_context_Metal17begin_render_passEP15jet_framebuffer
0000000203fa4c50 (__TEXT,__text) non-external __ZN17jet_context_Metal17begin_render_passEP15jet_framebuffer.cold.1
0000000203fa4c7c (__TEXT,__text) non-external __ZN17jet_context_Metal17begin_render_passEP15jet_framebuffer.cold.2
0000000203fa4ca8 (__TEXT,__text) non-external __ZN17jet_context_Metal17begin_render_passEP15jet_framebuffer.cold.3
0000000203f9a44c (__TEXT,__text) external __ZN17jet_context_Metal17get_Metal_TextureEP11jet_texture
0000000203f9d6e4 (__TEXT,__text) external __ZN17jet_context_Metal17set_vertex_bufferEP10jet_bufferi
0000000203fa4cd4 (__TEXT,__text) non-external __ZN17jet_context_Metal17set_vertex_bufferEP10jet_bufferi.cold.1
0000000203f99bc0 (__TEXT,__text) external __ZN17jet_context_Metal18create_buffer_poolE18jet_component_typejj
0000000203f9aea4 (__TEXT,__text) external __ZN17jet_context_Metal18create_render_modeEP11jet_program14jet_blend_mode18jet_texture_formatS3_S3_bbbbj
0000000203f9d088 (__TEXT,__text) external __ZN17jet_context_Metal18ensureCommandQueueEv
0000000203f9a4d0 (__TEXT,__text) external __ZN17jet_context_Metal18get_Metal_DrawableEP11jet_texture
0000000203f9d94c (__TEXT,__text) external __ZN17jet_context_Metal18set_vertex_samplerEP11jet_sampleri
0000000203fa4ddc (__TEXT,__text) non-external __ZN17jet_context_Metal18set_vertex_samplerEP11jet_sampleri.cold.1
0000000203f9d8cc (__TEXT,__text) external __ZN17jet_context_Metal18set_vertex_textureEP11jet_texturei
0000000203fa4db0 (__TEXT,__text) non-external __ZN17jet_context_Metal18set_vertex_textureEP11jet_texturei.cold.1
0000000203f9d3bc (__TEXT,__text) external __ZN17jet_context_Metal18set_wireframe_modeEb
0000000203f9d0e4 (__TEXT,__text) external __ZN17jet_context_Metal19create_stencil_modeE19jet_compare_fuction14jet_stencil_opS1_S1_jj
0000000203f9a3d4 (__TEXT,__text) external __ZN17jet_context_Metal19ensureCommandBufferEb
0000000203f9d858 (__TEXT,__text) external __ZN17jet_context_Metal19set_vertex_constantE18jet_component_typejjPKvi
0000000203fa4d2c (__TEXT,__text) non-external __ZN17jet_context_Metal19set_vertex_constantE18jet_component_typejjPKvi.cold.1
0000000203fa4d58 (__TEXT,__text) non-external __ZN17jet_context_Metal19set_vertex_constantE18jet_component_typejjPKvi.cold.2
0000000203fa4d84 (__TEXT,__text) non-external __ZN17jet_context_Metal19set_vertex_constantE18jet_component_typejjPKvi.cold.3
0000000203f9d7a4 (__TEXT,__text) external __ZN17jet_context_Metal19set_vertex_constantEP12jet_constanti
0000000203fa4d00 (__TEXT,__text) non-external __ZN17jet_context_Metal19set_vertex_constantEP12jet_constanti.cold.1
0000000203f9da7c (__TEXT,__text) external __ZN17jet_context_Metal20set_fragment_samplerEP11jet_sampleri
0000000203fa4e34 (__TEXT,__text) non-external __ZN17jet_context_Metal20set_fragment_samplerEP11jet_sampleri.cold.1
0000000203f9d9fc (__TEXT,__text) external __ZN17jet_context_Metal20set_fragment_textureEP11jet_texturei
0000000203fa4e08 (__TEXT,__text) non-external __ZN17jet_context_Metal20set_fragment_textureEP11jet_texturei.cold.1
0000000203f9df64 (__TEXT,__text) external __ZN17jet_context_Metal21getNativeCommandQueueEv
0000000203f9db80 (__TEXT,__text) external __ZN17jet_context_Metal21set_fragment_constantE18jet_component_typejjPKvi
0000000203fa4e8c (__TEXT,__text) non-external __ZN17jet_context_Metal21set_fragment_constantE18jet_component_typejjPKvi.cold.1
0000000203fa4eb8 (__TEXT,__text) non-external __ZN17jet_context_Metal21set_fragment_constantE18jet_component_typejjPKvi.cold.2
0000000203fa4ee4 (__TEXT,__text) non-external __ZN17jet_context_Metal21set_fragment_constantE18jet_component_typejjPKvi.cold.3
0000000203f9dafc (__TEXT,__text) external __ZN17jet_context_Metal21set_fragment_constantEP12jet_constanti
0000000203fa4e60 (__TEXT,__text) non-external __ZN17jet_context_Metal21set_fragment_constantEP12jet_constanti.cold.1
0000000203f9c484 (__TEXT,__text) external __ZN17jet_context_Metal21set_scheduled_handlerENSt3__18functionIFvvEEE
0000000203f9de08 (__TEXT,__text) external __ZN17jet_context_Metal21submit_command_bufferEP18jet_command_buffer
0000000203f9e820 (__TEXT,__text) non-external (was a private external) __ZN17jet_context_Metal22get_Metal_CommandQueueEv
0000000203f9d4cc (__TEXT,__text) external __ZN17jet_context_Metal22use_depth_stencil_modeEP22jet_depth_stencil_mode
0000000203f9e828 (__TEXT,__text) non-external (was a private external) __ZN17jet_context_Metal23get_Metal_CommandBufferEv
0000000203f9e830 (__TEXT,__text) non-external (was a private external) __ZN17jet_context_Metal24get_Metal_CommandEncoderEv
0000000203f9d244 (__TEXT,__text) external __ZN17jet_context_Metal25create_depth_stencil_modeEb19jet_compare_fuctionP16jet_stencil_modeS2_
0000000203f9e2ec (__TEXT,__text) external __ZN17jet_context_Metal25render_CIImage_to_textureEP7CIImageP11jet_textureDv4_j
0000000203f9e6c8 (__TEXT,__text) external __ZN17jet_context_Metal27create_CIImage_from_textureEP11jet_texture
0000000203f9ab74 (__TEXT,__text) external __ZN17jet_context_Metal27create_function_from_sourceEPKcS1_17jet_function_typePPNSt3__112basic_stringIcNS3_11char_traitsIcEENS3_9allocatorIcEEEE
0000000203f9e74c (__TEXT,__text) external __ZN17jet_context_Metal27create_texture_from_CIImageEP7CIImage
0000000203f9a2d0 (__TEXT,__text) external __ZN17jet_context_Metal27override_Metal_render_stateEPU26objcproto15MTLCommandQueue11objc_objectPU34objcproto23MTLRenderCommandEncoder11objc_objectP15jet_framebuffer
0000000203f9d4c0 (__TEXT,__text) external __ZN17jet_context_Metal27set_stencil_reference_valueEj
0000000203f9a158 (__TEXT,__text) external __ZN17jet_context_Metal29create_texture_from_IOSurfaceEjjj18jet_texture_formatj
0000000203fa4b5c (__TEXT,__text) non-external __ZN17jet_context_Metal29create_texture_from_IOSurfaceEjjj18jet_texture_formatj.cold.1
0000000203f9e838 (__TEXT,__text) non-external (was a private external) __ZN17jet_context_Metal30get_Metal_RenderPassDescriptorEv
0000000203f9a7a0 (__TEXT,__text) external __ZN17jet_context_Metal33create_texture_from_Metal_TextureEPU21objcproto10MTLTexture11objc_object
0000000203f9a554 (__TEXT,__text) external __ZN17jet_context_Metal34create_texture_from_Metal_DrawableEPU26objcproto15CAMetalDrawable11objc_object
0000000203f9ae34 (__TEXT,__text) external __ZN17jet_context_Metal35create_function_from_Metal_FunctionEPU22objcproto11MTLFunction11objc_object
0000000203f99d24 (__TEXT,__text) external __ZN17jet_context_Metal37create_framebuffer_from_Metal_EncoderEPU34objcproto23MTLRenderCommandEncoder11objc_objectP23MTLRenderPassDescriptor
0000000203f9dbf4 (__TEXT,__text) external __ZN17jet_context_Metal4drawE18jet_primitive_typejj
0000000203f9de0c (__TEXT,__text) external __ZN17jet_context_Metal6commitEv
0000000203f9dd20 (__TEXT,__text) external __ZN17jet_context_Metal7presentEP11jet_textured
0000000203f99aa8 (__TEXT,__text) external __ZN17jet_context_MetalC1EPU19objcproto9MTLDevice11objc_object
0000000203f9997c (__TEXT,__text) external __ZN17jet_context_MetalC2EPU19objcproto9MTLDevice11objc_object
0000000203f99b14 (__TEXT,__text) external __ZN17jet_context_MetalD0Ev
0000000203f99b10 (__TEXT,__text) external __ZN17jet_context_MetalD1Ev
0000000203f99aac (__TEXT,__text) external __ZN17jet_context_MetalD2Ev
0000000203fa0038 (__TEXT,__text) non-external (was a private external) __ZN17jet_program_MetalD0Ev
0000000203fa0034 (__TEXT,__text) non-external (was a private external) __ZN17jet_program_MetalD1Ev
0000000203fa0060 (__TEXT,__text) non-external (was a private external) __ZN17jet_program_MetalD2Ev
0000000203f9ff44 (__TEXT,__text) non-external (was a private external) __ZN17jet_sampler_MetalD0Ev
0000000203f9ff08 (__TEXT,__text) non-external (was a private external) __ZN17jet_sampler_MetalD1Ev
0000000203f9f7ac (__TEXT,__text) non-external (was a private external) __ZN17jet_texture_Metal14replace_regionEPKvjjjjjjjjjj
0000000203fa4f48 (__TEXT,__text) non-external __ZN17jet_texture_Metal14replace_regionEPKvjjjjjjjjjj.cold.1
0000000203f9fb58 (__TEXT,__text) non-external (was a private external) __ZN17jet_texture_Metal16generate_mip_mapEv
0000000203f9f6c4 (__TEXT,__text) non-external (was a private external) __ZN17jet_texture_Metal8set_dataEPKvjjj
0000000203f9fd28 (__TEXT,__text) non-external (was a private external) __ZN17jet_texture_MetalD0Ev
0000000203f9fd24 (__TEXT,__text) non-external (was a private external) __ZN17jet_texture_MetalD1Ev
0000000203f9fe80 (__TEXT,__text) non-external (was a private external) __ZN17jet_texture_MetalD2Ev
0000000203f92120 (__TEXT,__text) non-external (was a private external) __ZN18jet_command_bufferC2Em
0000000203f9223c (__TEXT,__text) non-external (was a private external) __ZN18jet_command_bufferD0Ev
0000000203f90410 (__TEXT,__text) non-external (was a private external) __ZN18jet_command_bufferD1Ev
0000000203f9efec (__TEXT,__text) non-external (was a private external) __ZN18jet_constant_Metal8set_dataEPKvj
0000000203f9f1c4 (__TEXT,__text) non-external (was a private external) __ZN18jet_constant_Metal9set_valueE13simd_float2x2
0000000203f9f210 (__TEXT,__text) non-external (was a private external) __ZN18jet_constant_Metal9set_valueE13simd_float3x3
0000000203f9f260 (__TEXT,__text) non-external (was a private external) __ZN18jet_constant_Metal9set_valueE13simd_float4x4
0000000203f9f0e0 (__TEXT,__text) non-external (was a private external) __ZN18jet_constant_Metal9set_valueEDv2_f
0000000203f9f328 (__TEXT,__text) non-external (was a private external) __ZN18jet_constant_Metal9set_valueEDv2_t
0000000203f9f12c (__TEXT,__text) non-external (was a private external) __ZN18jet_constant_Metal9set_valueEDv3_f
0000000203f9f374 (__TEXT,__text) non-external (was a private external) __ZN18jet_constant_Metal9set_valueEDv3_t
0000000203f9f178 (__TEXT,__text) non-external (was a private external) __ZN18jet_constant_Metal9set_valueEDv4_f
0000000203f9f3c0 (__TEXT,__text) non-external (was a private external) __ZN18jet_constant_Metal9set_valueEDv4_t
0000000203f9f094 (__TEXT,__text) non-external (was a private external) __ZN18jet_constant_Metal9set_valueEf
0000000203f9f2dc (__TEXT,__text) non-external (was a private external) __ZN18jet_constant_Metal9set_valueEt
0000000203f9f2b4 (__TEXT,__text) non-external (was a private external) __ZN18jet_constant_MetalD0Ev
0000000203f9f2b0 (__TEXT,__text) non-external (was a private external) __ZN18jet_constant_MetalD1Ev
0000000203f9f40c (__TEXT,__text) non-external (was a private external) __ZN18jet_constant_MetalD2Ev
0000000203f96940 (__TEXT,__text) external __ZN18jet_context_OpenGL12create_fenceEv
0000000203f966ac (__TEXT,__text) external __ZN18jet_context_OpenGL12draw_indexedE18jet_primitive_typeP10jet_bufferjj
0000000203fa4974 (__TEXT,__text) non-external __ZN18jet_context_OpenGL12draw_indexedE18jet_primitive_typeP10jet_bufferjj.cold.1
0000000203f95a9c (__TEXT,__text) external __ZN18jet_context_OpenGL12set_viewportEjjjj
0000000203f9401c (__TEXT,__text) external __ZN18jet_context_OpenGL13create_bufferE18jet_component_typejjPv
0000000203f94d88 (__TEXT,__text) external __ZN18jet_context_OpenGL14create_programEP12jet_functionS1_
0000000203f94a38 (__TEXT,__text) external __ZN18jet_context_OpenGL14create_samplerE16jet_address_modeS0_15jet_filter_modeS1_15jet_mipmap_mode
0000000203f941d8 (__TEXT,__text) external __ZN18jet_context_OpenGL14create_textureE16jet_texture_type18jet_texture_formatjjjjj17jet_texture_usagePv
0000000203fa4790 (__TEXT,__text) non-external __ZN18jet_context_OpenGL14create_textureE16jet_texture_type18jet_texture_formatjjjjj17jet_texture_usagePv.cold.1
0000000203fa47bc (__TEXT,__text) non-external __ZN18jet_context_OpenGL14create_textureE16jet_texture_type18jet_texture_formatjjjjj17jet_texture_usagePv.cold.2
0000000203f95ab0 (__TEXT,__text) external __ZN18jet_context_OpenGL14set_blend_modeE14jet_blend_modeb
0000000203f9410c (__TEXT,__text) external __ZN18jet_context_OpenGL15create_constantE18jet_component_typejjPv
0000000203f94b40 (__TEXT,__text) external __ZN18jet_context_OpenGL15create_functionEPKcS1_17jet_function_typePPNSt3__112basic_stringIcNS3_11char_traitsIcEENS3_9allocatorIcEEEE
0000000203f96a48 (__TEXT,__text) external __ZN18jet_context_OpenGL15end_render_passEv
0000000203f96a4c (__TEXT,__text) external __ZN18jet_context_OpenGL15ensureCIContextEv
0000000203f93f70 (__TEXT,__text) external __ZN18jet_context_OpenGL15indexForTetxureEj
0000000203f96778 (__TEXT,__text) external __ZN18jet_context_OpenGL15submit_commandsEU13block_pointerFvR18jet_command_bufferE
0000000203f95cf8 (__TEXT,__text) external __ZN18jet_context_OpenGL15use_render_modeEP15jet_render_mode
0000000203f93ee0 (__TEXT,__text) external __ZN18jet_context_OpenGL16get_context_typeEv
0000000203f958b4 (__TEXT,__text) external __ZN18jet_context_OpenGL16set_scissor_rectEjjjj
0000000203f94fc0 (__TEXT,__text) external __ZN18jet_context_OpenGL17begin_render_passEP15jet_framebuffer
0000000203fa47e8 (__TEXT,__text) non-external __ZN18jet_context_OpenGL17begin_render_passEP15jet_framebuffer.cold.1
0000000203fa4814 (__TEXT,__text) non-external __ZN18jet_context_OpenGL17begin_render_passEP15jet_framebuffer.cold.2
0000000203fa4840 (__TEXT,__text) non-external __ZN18jet_context_OpenGL17begin_render_passEP15jet_framebuffer.cold.3
0000000203f95e0c (__TEXT,__text) external __ZN18jet_context_OpenGL17set_vertex_bufferEP10jet_bufferi
0000000203fa486c (__TEXT,__text) non-external __ZN18jet_context_OpenGL17set_vertex_bufferEP10jet_bufferi.cold.1
0000000203f94098 (__TEXT,__text) external __ZN18jet_context_OpenGL18create_buffer_poolE18jet_component_typejj
0000000203f94ed8 (__TEXT,__text) external __ZN18jet_context_OpenGL18create_render_modeEP11jet_program14jet_blend_mode18jet_texture_formatS3_S3_bbbbj
0000000203f971b4 (__TEXT,__text) non-external (was a private external) __ZN18jet_context_OpenGL18get_OpenGL_ContextEv
0000000203f944c4 (__TEXT,__text) external __ZN18jet_context_OpenGL18get_OpenGL_TetxureEP11jet_texture
0000000203f964dc (__TEXT,__text) external __ZN18jet_context_OpenGL18set_vertex_samplerEP11jet_sampleri
0000000203fa4948 (__TEXT,__text) non-external __ZN18jet_context_OpenGL18set_vertex_samplerEP11jet_sampleri.cold.1
0000000203f9638c (__TEXT,__text) external __ZN18jet_context_OpenGL18set_vertex_textureEP11jet_texturei
0000000203fa491c (__TEXT,__text) non-external __ZN18jet_context_OpenGL18set_vertex_textureEP11jet_texturei.cold.1
0000000203f95654 (__TEXT,__text) external __ZN18jet_context_OpenGL19create_stencil_modeE19jet_compare_fuction14jet_stencil_opS1_S1_jj
0000000203f96208 (__TEXT,__text) external __ZN18jet_context_OpenGL19set_vertex_constantE18jet_component_typejjPKvi
0000000203fa48c4 (__TEXT,__text) non-external __ZN18jet_context_OpenGL19set_vertex_constantE18jet_component_typejjPKvi.cold.1
0000000203fa48f0 (__TEXT,__text) non-external __ZN18jet_context_OpenGL19set_vertex_constantE18jet_component_typejjPKvi.cold.2
0000000203f95edc (__TEXT,__text) external __ZN18jet_context_OpenGL19set_vertex_constantEP12jet_constanti
0000000203fa4898 (__TEXT,__text) non-external __ZN18jet_context_OpenGL19set_vertex_constantEP12jet_constanti.cold.1
0000000203f96658 (__TEXT,__text) external __ZN18jet_context_OpenGL20set_fragment_samplerEP11jet_sampleri
0000000203f9662c (__TEXT,__text) external __ZN18jet_context_OpenGL20set_fragment_textureEP11jet_texturei
0000000203f96600 (__TEXT,__text) external __ZN18jet_context_OpenGL21set_fragment_constantE18jet_component_typejjPKvi
0000000203f965d4 (__TEXT,__text) external __ZN18jet_context_OpenGL21set_fragment_constantEP12jet_constanti
0000000203f967f8 (__TEXT,__text) external __ZN18jet_context_OpenGL21submit_command_bufferEP18jet_command_buffer
0000000203f958c8 (__TEXT,__text) external __ZN18jet_context_OpenGL22use_depth_stencil_modeEP22jet_depth_stencil_mode
0000000203f94534 (__TEXT,__text) external __ZN18jet_context_OpenGL23get_OpenGL_RenderbufferEP11jet_texture
0000000203f96fbc (__TEXT,__text) external __ZN18jet_context_OpenGL24synchronize_OpenGL_stateEv
0000000203f956f0 (__TEXT,__text) external __ZN18jet_context_OpenGL25create_depth_stencil_modeEb19jet_compare_fuctionP16jet_stencil_modeS2_
0000000203f96ba4 (__TEXT,__text) external __ZN18jet_context_OpenGL25render_CIImage_to_textureEP7CIImageP11jet_textureDv4_j
0000000203f96da8 (__TEXT,__text) external __ZN18jet_context_OpenGL27create_CIImage_from_textureEP11jet_texture
0000000203f94cac (__TEXT,__text) external __ZN18jet_context_OpenGL27create_function_from_sourceEPKcS1_17jet_function_typePPNSt3__112basic_stringIcNS3_11char_traitsIcEENS3_9allocatorIcEEEE
0000000203f970e4 (__TEXT,__text) external __ZN18jet_context_OpenGL27create_texture_from_CIImageEP7CIImage
0000000203f95804 (__TEXT,__text) external __ZN18jet_context_OpenGL27set_stencil_reference_valueEj
0000000203f946e0 (__TEXT,__text) external __ZN18jet_context_OpenGL29create_texture_from_IOSurfaceEjjj18jet_texture_formatj
0000000203f945a4 (__TEXT,__text) external __ZN18jet_context_OpenGL34create_texture_from_OpenGL_TextureEjjj18jet_texture_formatb
0000000203f94648 (__TEXT,__text) external __ZN18jet_context_OpenGL39create_texture_from_OpenGL_RenderbufferEjjj18jet_texture_formatb
0000000203f97080 (__TEXT,__text) external __ZN18jet_context_OpenGL42create_framebuffer_from_OpenGL_FramebufferEi
0000000203f96684 (__TEXT,__text) external __ZN18jet_context_OpenGL4drawE18jet_primitive_typejj
0000000203f968d8 (__TEXT,__text) external __ZN18jet_context_OpenGL6commitEv
0000000203f96868 (__TEXT,__text) external __ZN18jet_context_OpenGL7presentEP11jet_textured
0000000203f93e20 (__TEXT,__text) external __ZN18jet_context_OpenGLC1EP15NSOpenGLContext
0000000203f93b08 (__TEXT,__text) external __ZN18jet_context_OpenGLC2EP15NSOpenGLContext
0000000203f93eb8 (__TEXT,__text) external __ZN18jet_context_OpenGLD0Ev
0000000203f93eb4 (__TEXT,__text) external __ZN18jet_context_OpenGLD1Ev
0000000203f93e24 (__TEXT,__text) external __ZN18jet_context_OpenGLD2Ev
0000000203f9ffd4 (__TEXT,__text) non-external (was a private external) __ZN18jet_function_MetalD0Ev
0000000203f9ff84 (__TEXT,__text) non-external (was a private external) __ZN18jet_function_MetalD1Ev
0000000203f98b78 (__TEXT,__text) non-external (was a private external) __ZN18jet_program_OpenGLC2EP15NSOpenGLContextP10xglProgram
0000000203f98bf4 (__TEXT,__text) non-external (was a private external) __ZN18jet_program_OpenGLD0Ev
0000000203f98bf0 (__TEXT,__text) non-external (was a private external) __ZN18jet_program_OpenGLD1Ev
0000000203f98c1c (__TEXT,__text) non-external (was a private external) __ZN18jet_program_OpenGLD2Ev
0000000203f98aa0 (__TEXT,__text) non-external (was a private external) __ZN18jet_sampler_OpenGLD0Ev
0000000203f98a9c (__TEXT,__text) non-external (was a private external) __ZN18jet_sampler_OpenGLD1Ev
0000000203f98470 (__TEXT,__text) non-external (was a private external) __ZN18jet_texture_OpenGL14replace_regionEPKvjjjjjjjjjj
0000000203fa4a30 (__TEXT,__text) non-external __ZN18jet_texture_OpenGL14replace_regionEPKvjjjjjjjjjj.cold.1
0000000203f98878 (__TEXT,__text) non-external (was a private external) __ZN18jet_texture_OpenGL16generate_mip_mapEv
0000000203f98100 (__TEXT,__text) non-external (was a private external) __ZN18jet_texture_OpenGL8set_dataEPKvjjj
0000000203fa4a04 (__TEXT,__text) non-external __ZN18jet_texture_OpenGL8set_dataEPKvjjj.cold.1
0000000203f98058 (__TEXT,__text) non-external (was a private external) __ZN18jet_texture_OpenGLC2EP15NSOpenGLContext
0000000203f989c0 (__TEXT,__text) non-external (was a private external) __ZN18jet_texture_OpenGLD0Ev
0000000203f989bc (__TEXT,__text) non-external (was a private external) __ZN18jet_texture_OpenGLD1Ev
0000000203f989e8 (__TEXT,__text) non-external (was a private external) __ZN18jet_texture_OpenGLD2Ev
0000000203f97cc4 (__TEXT,__text) non-external (was a private external) __ZN19jet_constant_OpenGL8set_dataEPKvj
0000000203f97e14 (__TEXT,__text) non-external (was a private external) __ZN19jet_constant_OpenGL9set_valueE13simd_float2x2
0000000203f97e60 (__TEXT,__text) non-external (was a private external) __ZN19jet_constant_OpenGL9set_valueE13simd_float3x3
0000000203f97eb0 (__TEXT,__text) non-external (was a private external) __ZN19jet_constant_OpenGL9set_valueE13simd_float4x4
0000000203f97d30 (__TEXT,__text) non-external (was a private external) __ZN19jet_constant_OpenGL9set_valueEDv2_f
0000000203f97f74 (__TEXT,__text) non-external (was a private external) __ZN19jet_constant_OpenGL9set_valueEDv2_t
0000000203f97d7c (__TEXT,__text) non-external (was a private external) __ZN19jet_constant_OpenGL9set_valueEDv3_f
0000000203f97fc0 (__TEXT,__text) non-external (was a private external) __ZN19jet_constant_OpenGL9set_valueEDv3_t
0000000203f97dc8 (__TEXT,__text) non-external (was a private external) __ZN19jet_constant_OpenGL9set_valueEDv4_f
0000000203f9800c (__TEXT,__text) non-external (was a private external) __ZN19jet_constant_OpenGL9set_valueEDv4_t
0000000203f97ce4 (__TEXT,__text) non-external (was a private external) __ZN19jet_constant_OpenGL9set_valueEf
0000000203f97f28 (__TEXT,__text) non-external (was a private external) __ZN19jet_constant_OpenGL9set_valueEt
0000000203f97f00 (__TEXT,__text) non-external (was a private external) __ZN19jet_constant_OpenGLD0Ev
0000000203f96388 (__TEXT,__text) non-external (was a private external) __ZN19jet_constant_OpenGLD1Ev
0000000203f99150 (__TEXT,__text) non-external (was a private external) __ZN19jet_constant_OpenGLD2Ev
0000000203f98acc (__TEXT,__text) non-external (was a private external) __ZN19jet_function_OpenGLD0Ev
0000000203f98ac8 (__TEXT,__text) non-external (was a private external) __ZN19jet_function_OpenGLD1Ev
0000000203f98af4 (__TEXT,__text) non-external (was a private external) __ZN19jet_function_OpenGLD2Ev
0000000203f9ef78 (__TEXT,__text) non-external (was a private external) __ZN21jet_buffer_pool_Metal13create_bufferEv
0000000203f9ee34 (__TEXT,__text) non-external (was a private external) __ZN21jet_buffer_pool_MetalC2EPU19objcproto9MTLDevice11objc_object18jet_component_typejj
0000000203f9ef38 (__TEXT,__text) non-external (was a private external) __ZN21jet_buffer_pool_MetalD0Ev
0000000203f9eefc (__TEXT,__text) non-external (was a private external) __ZN21jet_buffer_pool_MetalD1Ev
0000000203f9f470 (__TEXT,__text) non-external (was a private external) __ZN21jet_framebuffer_MetalC2Ev
0000000203f9f54c (__TEXT,__text) non-external (was a private external) __ZN21jet_framebuffer_MetalD0Ev
0000000203f9f518 (__TEXT,__text) non-external (was a private external) __ZN21jet_framebuffer_MetalD1Ev
0000000203f9c130 (__TEXT,__text) non-external (was a private external) __ZN21jet_render_mode_Metal20set_Metal_ReflectionEP27MTLRenderPipelineReflection
0000000203fa0104 (__TEXT,__text) non-external (was a private external) __ZN21jet_render_mode_Metal23get_vertex_buffer_indexERKNSt3__112basic_stringIcNS0_11char_traitsIcEENS0_9allocatorIcEEEE
0000000203fa0180 (__TEXT,__text) non-external (was a private external) __ZN21jet_render_mode_Metal24get_vertex_sampler_indexERKNSt3__112basic_stringIcNS0_11char_traitsIcEENS0_9allocatorIcEEEE
0000000203fa0154 (__TEXT,__text) non-external (was a private external) __ZN21jet_render_mode_Metal24get_vertex_texture_indexERKNSt3__112basic_stringIcNS0_11char_traitsIcEENS0_9allocatorIcEEEE
0000000203fa03f4 (__TEXT,__text) non-external (was a private external) __ZN21jet_render_mode_Metal25get_fragment_buffer_indexERKNSt3__112basic_stringIcNS0_11char_traitsIcEENS0_9allocatorIcEEEE
0000000203fa0130 (__TEXT,__text) non-external (was a private external) __ZN21jet_render_mode_Metal25get_vertex_constant_indexERKNSt3__112basic_stringIcNS0_11char_traitsIcEENS0_9allocatorIcEEEE
0000000203fa02bc (__TEXT,__text) non-external (was a private external) __ZN21jet_render_mode_Metal26get_fragment_sampler_indexERKNSt3__112basic_stringIcNS0_11char_traitsIcEENS0_9allocatorIcEEEE
0000000203fa0290 (__TEXT,__text) non-external (was a private external) __ZN21jet_render_mode_Metal26get_fragment_texture_indexERKNSt3__112basic_stringIcNS0_11char_traitsIcEENS0_9allocatorIcEEEE
0000000203fa026c (__TEXT,__text) non-external (was a private external) __ZN21jet_render_mode_Metal27get_fragment_constant_indexERKNSt3__112basic_stringIcNS0_11char_traitsIcEENS0_9allocatorIcEEEE
0000000203fa03a8 (__TEXT,__text) non-external (was a private external) __ZN21jet_render_mode_Metal5cloneEv
0000000203fa0c4c (__TEXT,__text) non-external (was a private external) __ZN21jet_render_mode_MetalC2ERKS_
0000000203fa00dc (__TEXT,__text) non-external (was a private external) __ZN21jet_render_mode_MetalD0Ev
0000000203fa00d8 (__TEXT,__text) non-external (was a private external) __ZN21jet_render_mode_MetalD1Ev
0000000203fa0420 (__TEXT,__text) non-external (was a private external) __ZN21jet_render_mode_MetalD2Ev
0000000203f97c4c (__TEXT,__text) non-external (was a private external) __ZN22jet_buffer_pool_OpenGL13create_bufferEv
0000000203f97b08 (__TEXT,__text) non-external (was a private external) __ZN22jet_buffer_pool_OpenGLC2EP15NSOpenGLContext18jet_component_typejj
0000000203f97c0c (__TEXT,__text) non-external (was a private external) __ZN22jet_buffer_pool_OpenGLD0Ev
0000000203f97bd0 (__TEXT,__text) non-external (was a private external) __ZN22jet_buffer_pool_OpenGLD1Ev
0000000203fa197c (__TEXT,__text) external __ZN22jet_depth_stencil_modeC1Ev
0000000203fa195c (__TEXT,__text) external __ZN22jet_depth_stencil_modeC2Ev
0000000203fa19a4 (__TEXT,__text) external __ZN22jet_depth_stencil_modeD0Ev
0000000203fa19a0 (__TEXT,__text) external __ZN22jet_depth_stencil_modeD1Ev
0000000203fa199c (__TEXT,__text) external __ZN22jet_depth_stencil_modeD2Ev
0000000203f9938c (__TEXT,__text) non-external (was a private external) __ZN22jet_framebuffer_OpenGLC2Ev
0000000203f99468 (__TEXT,__text) non-external (was a private external) __ZN22jet_framebuffer_OpenGLD0Ev
0000000203f9943c (__TEXT,__text) non-external (was a private external) __ZN22jet_framebuffer_OpenGLD1Ev
0000000203f98d48 (__TEXT,__text) non-external (was a private external) __ZN22jet_render_mode_OpenGL23get_vertex_buffer_indexERKNSt3__112basic_stringIcNS0_11char_traitsIcEENS0_9allocatorIcEEEE
0000000203f98eb0 (__TEXT,__text) non-external (was a private external) __ZN22jet_render_mode_OpenGL24get_vertex_sampler_indexERKNSt3__112basic_stringIcNS0_11char_traitsIcEENS0_9allocatorIcEEEE
0000000203f98e38 (__TEXT,__text) non-external (was a private external) __ZN22jet_render_mode_OpenGL24get_vertex_texture_indexERKNSt3__112basic_stringIcNS0_11char_traitsIcEENS0_9allocatorIcEEEE
0000000203f98dc0 (__TEXT,__text) non-external (was a private external) __ZN22jet_render_mode_OpenGL25get_vertex_constant_indexERKNSt3__112basic_stringIcNS0_11char_traitsIcEENS0_9allocatorIcEEEE
0000000203f98fc4 (__TEXT,__text) non-external (was a private external) __ZN22jet_render_mode_OpenGL26get_fragment_sampler_indexERKNSt3__112basic_stringIcNS0_11char_traitsIcEENS0_9allocatorIcEEEE
0000000203f98f4c (__TEXT,__text) non-external (was a private external) __ZN22jet_render_mode_OpenGL26get_fragment_texture_indexERKNSt3__112basic_stringIcNS0_11char_traitsIcEENS0_9allocatorIcEEEE
0000000203f98ed4 (__TEXT,__text) non-external (was a private external) __ZN22jet_render_mode_OpenGL27get_fragment_constant_indexERKNSt3__112basic_stringIcNS0_11char_traitsIcEENS0_9allocatorIcEEEE
0000000203f98fe8 (__TEXT,__text) non-external (was a private external) __ZN22jet_render_mode_OpenGL5cloneEv
0000000203f98ce4 (__TEXT,__text) non-external (was a private external) __ZN22jet_render_mode_OpenGLD0Ev
0000000203f98c84 (__TEXT,__text) non-external (was a private external) __ZN22jet_render_mode_OpenGLD1Ev
0000000203fa15e4 (__TEXT,__text) non-external (was a private external) __ZN22jet_stencil_mode_MetalD0Ev
0000000203fa15e0 (__TEXT,__text) non-external (was a private external) __ZN22jet_stencil_mode_MetalD1Ev
0000000203fa160c (__TEXT,__text) non-external (was a private external) __ZN22jet_stencil_mode_MetalD2Ev
0000000203f99054 (__TEXT,__text) non-external (was a private external) __ZN23jet_stencil_mode_OpenGLD0Ev
0000000203f99050 (__TEXT,__text) non-external (was a private external) __ZN23jet_stencil_mode_OpenGLD1Ev
0000000203fa1670 (__TEXT,__text) non-external (was a private external) __ZN28jet_depth_stencil_mode_MetalD0Ev
0000000203fa166c (__TEXT,__text) non-external (was a private external) __ZN28jet_depth_stencil_mode_MetalD1Ev
0000000203fa1698 (__TEXT,__text) non-external (was a private external) __ZN28jet_depth_stencil_mode_MetalD2Ev
0000000203f99080 (__TEXT,__text) non-external (was a private external) __ZN29jet_depth_stencil_mode_OpenGLD0Ev
0000000203f9907c (__TEXT,__text) non-external (was a private external) __ZN29jet_depth_stencil_mode_OpenGLD1Ev
0000000203f990a8 (__TEXT,__text) non-external (was a private external) __ZN29jet_depth_stencil_mode_OpenGLD2Ev
0000000203fa45fc (__TEXT,__text) external __ZN9jet_fenceD0Ev
0000000203fa45f8 (__TEXT,__text) external __ZN9jet_fenceD1Ev
0000000203fa45f4 (__TEXT,__text) external __ZN9jet_fenceD2Ev
0000000203f9fe00 (__TEXT,__text) non-external (was a private external) __ZNK11jet_texture19get_bytes_per_imageEv
0000000203fa2bf4 (__TEXT,__text) external __ZNK11jet_texture19is_framebuffer_onlyEv
0000000203f9fd50 (__TEXT,__text) non-external (was a private external) __ZNK11jet_texture21get_bytes_per_elementEv
0000000203fa2b20 (__TEXT,__text) external __ZNK11jet_texture30is_color_attachment_compatibleEv
0000000203fa2b6c (__TEXT,__text) external __ZNK11jet_texture30is_depth_attachment_compatibleEv
0000000203fa2bb0 (__TEXT,__text) external __ZNK11jet_texture32is_stencil_attachment_compatibleEv
0000000203f97cbc (__TEXT,__text) non-external (was a private external) __ZNK12jet_constant17get_element_countEv
0000000203f97cb4 (__TEXT,__text) non-external (was a private external) __ZNK12jet_constant26get_components_per_elementEv
0000000203f97cac (__TEXT,__text) non-external (was a private external) __ZNK12jet_constant8get_typeEv
0000000203fa2510 (__TEXT,__text) external __ZNK15jet_buffer_pool10get_lengthEv
0000000203fa253c (__TEXT,__text) external __ZNK15jet_buffer_pool18get_current_bufferEv
0000000203fa2a68 (__TEXT,__text) external __ZNK15jet_framebuffer5cloneEv
0000000203f9e954 (__TEXT,__text) non-external (was a private external) __ZNK16jet_buffer_Metal10get_lengthEv
0000000203f97440 (__TEXT,__text) non-external (was a private external) __ZNK17jet_buffer_OpenGL10get_lengthEv
0000000203f9e0f8 (__TEXT,__text) external __ZNK17jet_context_Metal20get_max_texture_sizeE16jet_texture_type
0000000203f9f690 (__TEXT,__text) non-external (was a private external) __ZNK17jet_texture_Metal10get_formatEv
0000000203f9f650 (__TEXT,__text) non-external (was a private external) __ZNK17jet_texture_Metal10get_heightEv
0000000203f9f698 (__TEXT,__text) non-external (was a private external) __ZNK17jet_texture_Metal14get_mip_mappedEv
0000000203f9f6bc (__TEXT,__text) non-external (was a private external) __ZNK17jet_texture_Metal15get_slice_countEv
0000000203f9fca0 (__TEXT,__text) non-external (was a private external) __ZNK17jet_texture_Metal19is_framebuffer_onlyEv
0000000203f9fce8 (__TEXT,__text) non-external (was a private external) __ZNK17jet_texture_Metal30is_color_attachment_compatibleEv
0000000203f9fcfc (__TEXT,__text) non-external (was a private external) __ZNK17jet_texture_Metal30is_depth_attachment_compatibleEv
0000000203f9fd10 (__TEXT,__text) non-external (was a private external) __ZNK17jet_texture_Metal32is_stencil_attachment_compatibleEv
0000000203f9f688 (__TEXT,__text) non-external (was a private external) __ZNK17jet_texture_Metal8get_typeEv
0000000203f9f8fc (__TEXT,__text) non-external (was a private external) __ZNK17jet_texture_Metal9copy_dataEPvjj
0000000203f9f66c (__TEXT,__text) non-external (was a private external) __ZNK17jet_texture_Metal9get_depthEv
0000000203f9f634 (__TEXT,__text) non-external (was a private external) __ZNK17jet_texture_Metal9get_widthEv
0000000203f9efd0 (__TEXT,__text) non-external (was a private external) __ZNK18jet_constant_Metal10get_lengthEv
0000000203f9f04c (__TEXT,__text) non-external (was a private external) __ZNK18jet_constant_Metal9copy_dataEPvj
0000000203f93ee8 (__TEXT,__text) external __ZNK18jet_context_OpenGL20get_max_texture_sizeE16jet_texture_type
0000000203f980e8 (__TEXT,__text) non-external (was a private external) __ZNK18jet_texture_OpenGL10get_formatEv
0000000203f980d0 (__TEXT,__text) non-external (was a private external) __ZNK18jet_texture_OpenGL10get_heightEv
0000000203f980f0 (__TEXT,__text) non-external (was a private external) __ZNK18jet_texture_OpenGL14get_mip_mappedEv
0000000203f980f8 (__TEXT,__text) non-external (was a private external) __ZNK18jet_texture_OpenGL15get_slice_countEv
0000000203f98980 (__TEXT,__text) non-external (was a private external) __ZNK18jet_texture_OpenGL30is_color_attachment_compatibleEv
0000000203f98994 (__TEXT,__text) non-external (was a private external) __ZNK18jet_texture_OpenGL30is_depth_attachment_compatibleEv
0000000203f989a8 (__TEXT,__text) non-external (was a private external) __ZNK18jet_texture_OpenGL32is_stencil_attachment_compatibleEv
0000000203f980e0 (__TEXT,__text) non-external (was a private external) __ZNK18jet_texture_OpenGL8get_typeEv
0000000203f986f0 (__TEXT,__text) non-external (was a private external) __ZNK18jet_texture_OpenGL9copy_dataEPvjj
0000000203f980d8 (__TEXT,__text) non-external (was a private external) __ZNK18jet_texture_OpenGL9get_depthEv
0000000203f980c8 (__TEXT,__text) non-external (was a private external) __ZNK18jet_texture_OpenGL9get_widthEv
0000000203f97ca4 (__TEXT,__text) non-external (was a private external) __ZNK19jet_constant_OpenGL10get_lengthEv
0000000203f97cd0 (__TEXT,__text) non-external (was a private external) __ZNK19jet_constant_OpenGL9copy_dataEPvj
0000000203f9f590 (__TEXT,__text) non-external (was a private external) __ZNK21jet_framebuffer_Metal5cloneEv
0000000203f994a4 (__TEXT,__text) non-external (was a private external) __ZNK22jet_framebuffer_OpenGL5cloneEv
0000000203f8f98c (__TEXT,__text) non-external (was a private external) __ZNKSt3__112basic_stringIcNS_11char_traitsIcEENS_9allocatorIcEEE20__throw_length_errorB7v160006Ev
0000000203fa0624 (__TEXT,__text) non-external (was a private external) __ZNKSt3__113__string_hashIcNS_9allocatorIcEEEclERKNS_12basic_stringIcNS_11char_traitsIcEES2_EE
0000000203fa18cc (__TEXT,__text) non-external (was a private external) __ZNKSt3__120__shared_ptr_pointerIP15jet_fence_MetalNS_10shared_ptrIS1_E27__shared_ptr_default_deleteIS1_S1_EENS_9allocatorIS1_EEE13__get_deleterERKSt9type_info
0000000203f998ec (__TEXT,__text) non-external (was a private external) __ZNKSt3__120__shared_ptr_pointerIP16jet_fence_OpenGLNS_10shared_ptrIS1_E27__shared_ptr_default_deleteIS1_S1_EENS_9allocatorIS1_EEE13__get_deleterERKSt9type_info
0000000203fa4348 (__TEXT,__text) non-external (was a private external) __ZNKSt3__14lessINS_12basic_stringIcNS_11char_traitsIcEENS_9allocatorIcEEEEEclB7v160006ERKS6_S9_
0000000203f92290 (__TEXT,__text) non-external (was a private external) __ZNKSt3__16vectorI13jet_render_opNS_9allocatorIS1_EEE20__throw_length_errorB7v160006Ev
0000000203fa0b20 (__TEXT,__text) non-external (was a private external) __ZNKSt3__18equal_toINS_12basic_stringIcNS_11char_traitsIcEENS_9allocatorIcEEEEEclB7v160006ERKS6_S9_
0000000203f90918 (__TEXT,__text) non-external (was a private external) __ZNKSt3__18functionIFvP11jet_contextEEclES2_
                 (undefined) external __ZNKSt9exception4whatEv (from libc++)
0000000203f99930 (__TEXT,__text) non-external (was a private external) __ZNKSt9type_infoeqB7v160006ERKS_
                 (undefined) external __ZNSt11logic_errorC2EPKc (from libc++)
0000000203f8fa00 (__TEXT,__text) non-external (was a private external) __ZNSt12length_errorC1B7v160006EPKc
                 (undefined) external __ZNSt12length_errorD1Ev (from libc++)
                 (undefined) external __ZNSt20bad_array_new_lengthC1Ev (from libc++)
                 (undefined) external __ZNSt20bad_array_new_lengthD1Ev (from libc++)
0000000203f9251c (__TEXT,__text) non-external (was a private external) __ZNSt3__110__function12__value_funcIFvP11jet_contextEEC2B7v160006ERKS5_
0000000203f925b4 (__TEXT,__text) non-external (was a private external) __ZNSt3__110__function12__value_funcIFvP11jet_contextEED2B7v160006Ev
0000000203f92c54 (__TEXT,__text) non-external (was a private external) __ZNSt3__110__function12__value_funcIFvvEEC2B7v160006ERKS3_
0000000203f927fc (__TEXT,__text) non-external (was a private external) __ZNSt3__110__function12__value_funcIFvvEED2B7v160006Ev
0000000203fa284c (__TEXT,__text) non-external (was a private external) __ZNSt3__110__list_impIP10jet_bufferNS_9allocatorIS2_EEE5clearEv
0000000203fa1800 (__TEXT,__text) non-external (was a private external) __ZNSt3__110shared_ptrI15jet_fence_MetalEC2IS1_vEEPT_
0000000203fa4f74 (__TEXT,__text) non-external __ZNSt3__110shared_ptrI15jet_fence_MetalEC2IS1_vEEPT_.cold.1
0000000203f99820 (__TEXT,__text) non-external (was a private external) __ZNSt3__110shared_ptrI16jet_fence_OpenGLEC2IS1_vEEPT_
0000000203fa4a5c (__TEXT,__text) non-external __ZNSt3__110shared_ptrI16jet_fence_OpenGLEC2IS1_vEEPT_.cold.1
0000000203fa0e94 (__TEXT,__text) non-external (was a private external) __ZNSt3__112__hash_tableINS_17__hash_value_typeINS_12basic_stringIcNS_11char_traitsIcEENS_9allocatorIcEEEEiEENS_22__unordered_map_hasherIS7_S8_NS_4hashIS7_EENS_8equal_toIS7_EELb1EEENS_21__unordered_map_equalIS7_S8_SD_SB_Lb1EEENS5_IS8_EEE11__do_rehashILb1EEEvm
0000000203fa04d8 (__TEXT,__text) non-external (was a private external) __ZNSt3__112__hash_tableINS_17__hash_value_typeINS_12basic_stringIcNS_11char_traitsIcEENS_9allocatorIcEEEEiEENS_22__unordered_map_hasherIS7_S8_NS_4hashIS7_EENS_8equal_toIS7_EELb1EEENS_21__unordered_map_equalIS7_S8_SD_SB_Lb1EEENS5_IS8_EEE17__deallocate_nodeEPNS_16__hash_node_baseIPNS_11__hash_nodeIS8_PvEEEE
0000000203fa1264 (__TEXT,__text) non-external (was a private external) __ZNSt3__112__hash_tableINS_17__hash_value_typeINS_12basic_stringIcNS_11char_traitsIcEENS_9allocatorIcEEEEiEENS_22__unordered_map_hasherIS7_S8_NS_4hashIS7_EENS_8equal_toIS7_EELb1EEENS_21__unordered_map_equalIS7_S8_SD_SB_Lb1EEENS5_IS8_EEE21__construct_node_hashIRKNS_4pairIKS7_iEEJEEENS_10unique_ptrINS_11__hash_nodeIS8_PvEENS_22__hash_node_destructorINS5_ISS_EEEEEEmOT_DpOT0_
0000000203fa1358 (__TEXT,__text) non-external (was a private external) __ZNSt3__112__hash_tableINS_17__hash_value_typeINS_12basic_stringIcNS_11char_traitsIcEENS_9allocatorIcEEEEiEENS_22__unordered_map_hasherIS7_S8_NS_4hashIS7_EENS_8equal_toIS7_EELb1EEENS_21__unordered_map_equalIS7_S8_SD_SB_Lb1EEENS5_IS8_EEE25__emplace_unique_key_argsIS7_JRKNS_21piecewise_construct_tENS_5tupleIJOS7_EEENSN_IJEEEEEENS_4pairINS_15__hash_iteratorIPNS_11__hash_nodeIS8_PvEEEEbEERKT_DpOT0_
0000000203fa0ff0 (__TEXT,__text) non-external (was a private external) __ZNSt3__112__hash_tableINS_17__hash_value_typeINS_12basic_stringIcNS_11char_traitsIcEENS_9allocatorIcEEEEiEENS_22__unordered_map_hasherIS7_S8_NS_4hashIS7_EENS_8equal_toIS7_EELb1EEENS_21__unordered_map_equalIS7_S8_SD_SB_Lb1EEENS5_IS8_EEE25__emplace_unique_key_argsIS7_JRKNS_4pairIKS7_iEEEEENSK_INS_15__hash_iteratorIPNS_11__hash_nodeIS8_PvEEEEbEERKT_DpOT0_
0000000203fa0520 (__TEXT,__text) non-external (was a private external) __ZNSt3__112__hash_tableINS_17__hash_value_typeINS_12basic_stringIcNS_11char_traitsIcEENS_9allocatorIcEEEEiEENS_22__unordered_map_hasherIS7_S8_NS_4hashIS7_EENS_8equal_toIS7_EELb1EEENS_21__unordered_map_equalIS7_S8_SD_SB_Lb1EEENS5_IS8_EEE4findIS7_EENS_15__hash_iteratorIPNS_11__hash_nodeIS8_PvEEEERKT_
0000000203fa0da4 (__TEXT,__text) non-external (was a private external) __ZNSt3__112__hash_tableINS_17__hash_value_typeINS_12basic_stringIcNS_11char_traitsIcEENS_9allocatorIcEEEEiEENS_22__unordered_map_hasherIS7_S8_NS_4hashIS7_EENS_8equal_toIS7_EELb1EEENS_21__unordered_map_equalIS7_S8_SD_SB_Lb1EEENS5_IS8_EEE8__rehashILb1EEEvm
0000000203fa049c (__TEXT,__text) non-external (was a private external) __ZNSt3__112__hash_tableINS_17__hash_value_typeINS_12basic_stringIcNS_11char_traitsIcEENS_9allocatorIcEEEEiEENS_22__unordered_map_hasherIS7_S8_NS_4hashIS7_EENS_8equal_toIS7_EELb1EEENS_21__unordered_map_equalIS7_S8_SD_SB_Lb1EEENS5_IS8_EEED2Ev
0000000203f934b0 (__TEXT,__text) non-external (was a private external) __ZNSt3__112__hash_tableIP10jet_bufferNS_4hashIS2_EENS_8equal_toIS2_EENS_9allocatorIS2_EEE11__do_rehashILb1EEEvm
0000000203fa34b8 (__TEXT,__text) non-external (was a private external) __ZNSt3__112__hash_tableIP10jet_bufferNS_4hashIS2_EENS_8equal_toIS2_EENS_9allocatorIS2_EEE14__erase_uniqueIS2_EEmRKT_
0000000203f93178 (__TEXT,__text) non-external (was a private external) __ZNSt3__112__hash_tableIP10jet_bufferNS_4hashIS2_EENS_8equal_toIS2_EENS_9allocatorIS2_EEE25__emplace_unique_key_argsIS2_JRKS2_EEENS_4pairINS_15__hash_iteratorIPNS_11__hash_nodeIS2_PvEEEEbEERKT_DpOT0_
0000000203fa34f0 (__TEXT,__text) non-external (was a private external) __ZNSt3__112__hash_tableIP10jet_bufferNS_4hashIS2_EENS_8equal_toIS2_EENS_9allocatorIS2_EEE4findIS2_EENS_15__hash_iteratorIPNS_11__hash_nodeIS2_PvEEEERKT_
0000000203f93aa0 (__TEXT,__text) non-external (was a private external) __ZNSt3__112__hash_tableIP10jet_bufferNS_4hashIS2_EENS_8equal_toIS2_EENS_9allocatorIS2_EEE5clearEv
0000000203fa35dc (__TEXT,__text) non-external (was a private external) __ZNSt3__112__hash_tableIP10jet_bufferNS_4hashIS2_EENS_8equal_toIS2_EENS_9allocatorIS2_EEE5eraseENS_21__hash_const_iteratorIPNS_11__hash_nodeIS2_PvEEEE
0000000203fa3620 (__TEXT,__text) non-external (was a private external) __ZNSt3__112__hash_tableIP10jet_bufferNS_4hashIS2_EENS_8equal_toIS2_EENS_9allocatorIS2_EEE6removeENS_21__hash_const_iteratorIPNS_11__hash_nodeIS2_PvEEEE
0000000203f933c0 (__TEXT,__text) non-external (was a private external) __ZNSt3__112__hash_tableIP10jet_bufferNS_4hashIS2_EENS_8equal_toIS2_EENS_9allocatorIS2_EEE8__rehashILb1EEEvm
0000000203f928f4 (__TEXT,__text) non-external (was a private external) __ZNSt3__112__hash_tableIP10jet_bufferNS_4hashIS2_EENS_8equal_toIS2_EENS_9allocatorIS2_EEED2Ev
0000000203f93944 (__TEXT,__text) non-external (was a private external) __ZNSt3__112__hash_tableIPNS_13unordered_setIP10jet_bufferNS_4hashIS3_EENS_8equal_toIS3_EENS_9allocatorIS3_EEEENS4_ISB_EENS6_ISB_EENS8_ISB_EEE11__do_rehashILb1EEEvm
0000000203f92940 (__TEXT,__text) non-external (was a private external) __ZNSt3__112__hash_tableIPNS_13unordered_setIP10jet_bufferNS_4hashIS3_EENS_8equal_toIS3_EENS_9allocatorIS3_EEEENS4_ISB_EENS6_ISB_EENS8_ISB_EEE14__erase_uniqueISB_EEmRKT_
0000000203f9360c (__TEXT,__text) non-external (was a private external) __ZNSt3__112__hash_tableIPNS_13unordered_setIP10jet_bufferNS_4hashIS3_EENS_8equal_toIS3_EENS_9allocatorIS3_EEEENS4_ISB_EENS6_ISB_EENS8_ISB_EEE25__emplace_unique_key_argsISB_JSB_EEENS_4pairINS_15__hash_iteratorIPNS_11__hash_nodeISB_PvEEEEbEERKT_DpOT0_
0000000203f92978 (__TEXT,__text) non-external (was a private external) __ZNSt3__112__hash_tableIPNS_13unordered_setIP10jet_bufferNS_4hashIS3_EENS_8equal_toIS3_EENS_9allocatorIS3_EEEENS4_ISB_EENS6_ISB_EENS8_ISB_EEE4findISB_EENS_15__hash_iteratorIPNS_11__hash_nodeISB_PvEEEERKT_
0000000203f92a64 (__TEXT,__text) non-external (was a private external) __ZNSt3__112__hash_tableIPNS_13unordered_setIP10jet_bufferNS_4hashIS3_EENS_8equal_toIS3_EENS_9allocatorIS3_EEEENS4_ISB_EENS6_ISB_EENS8_ISB_EEE5eraseENS_21__hash_const_iteratorIPNS_11__hash_nodeISB_PvEEEE
0000000203f92aa8 (__TEXT,__text) non-external (was a private external) __ZNSt3__112__hash_tableIPNS_13unordered_setIP10jet_bufferNS_4hashIS3_EENS_8equal_toIS3_EENS_9allocatorIS3_EEEENS4_ISB_EENS6_ISB_EENS8_ISB_EEE6removeENS_21__hash_const_iteratorIPNS_11__hash_nodeISB_PvEEEE
0000000203f93854 (__TEXT,__text) non-external (was a private external) __ZNSt3__112__hash_tableIPNS_13unordered_setIP10jet_bufferNS_4hashIS3_EENS_8equal_toIS3_EENS_9allocatorIS3_EEEENS4_ISB_EENS6_ISB_EENS8_ISB_EEE8__rehashILb1EEEvm
0000000203fa346c (__TEXT,__text) non-external (was a private external) __ZNSt3__112__hash_tableIPNS_13unordered_setIP10jet_bufferNS_4hashIS3_EENS_8equal_toIS3_EENS_9allocatorIS3_EEEENS4_ISB_EENS6_ISB_EENS8_ISB_EEED2Ev
                 (undefined) external __ZNSt3__112__next_primeEm (from libc++)
0000000203f92ddc (__TEXT,__text) non-external (was a private external) __ZNSt3__112__tuple_lessILm4EEclB7v160006INS_5tupleIJ14jet_blend_mode18jet_texture_formatS5_S5_jjEEES6_EEbRKT_RKT0_
0000000203f92d78 (__TEXT,__text) non-external (was a private external) __ZNSt3__112__tuple_lessILm6EEclB7v160006INS_5tupleIJ14jet_blend_mode18jet_texture_formatS5_S5_jjEEES6_EEbRKT_RKT0_
                 (undefined) external __ZNSt3__112basic_stringIcNS_11char_traitsIcEENS_9allocatorIcEEEC1ERKS5_ (from libc++)
0000000203fa0bd4 (__TEXT,__text) non-external (was a private external) __ZNSt3__112basic_stringIcNS_11char_traitsIcEENS_9allocatorIcEEEC2B7v160006ENS_24__uninitialized_size_tagEmRKS4_
0000000203f8f8ec (__TEXT,__text) non-external (was a private external) __ZNSt3__112basic_stringIcNS_11char_traitsIcEENS_9allocatorIcEEEC2B7v160006IDnEEPKc
0000000203fa0d2c (__TEXT,__text) non-external (was a private external) __ZNSt3__113unordered_mapINS_12basic_stringIcNS_11char_traitsIcEENS_9allocatorIcEEEEiNS_4hashIS6_EENS_8equal_toIS6_EENS4_INS_4pairIKS6_iEEEEEC2ERKSF_
0000000203f92694 (__TEXT,__text) non-external (was a private external) __ZNSt3__114__split_bufferI13jet_render_opRNS_9allocatorIS1_EEED2Ev
0000000203f92c2c (__TEXT,__text) non-external (was a private external) __ZNSt3__117bad_function_callD0Ev
0000000203f92c28 (__TEXT,__text) non-external (was a private external) __ZNSt3__117bad_function_callD1Ev
0000000203f92320 (__TEXT,__text) non-external (was a private external) __ZNSt3__119__allocate_at_leastB7v160006INS_9allocatorI13jet_render_opEEEENS_19__allocation_resultINS_16allocator_traitsIT_E7pointerEEERS6_m
                 (undefined) external __ZNSt3__119__shared_weak_count14__release_weakEv (from libc++)
0000000203f92880 (__TEXT,__text) non-external (was a private external) __ZNSt3__119__shared_weak_count16__release_sharedB7v160006Ev
                 (undefined) external __ZNSt3__119__shared_weak_countD2Ev (from libc++)
0000000203fa189c (__TEXT,__text) non-external (was a private external) __ZNSt3__120__shared_ptr_pointerIP15jet_fence_MetalNS_10shared_ptrIS1_E27__shared_ptr_default_deleteIS1_S1_EENS_9allocatorIS1_EEE16__on_zero_sharedEv
0000000203fa190c (__TEXT,__text) non-external (was a private external) __ZNSt3__120__shared_ptr_pointerIP15jet_fence_MetalNS_10shared_ptrIS1_E27__shared_ptr_default_deleteIS1_S1_EENS_9allocatorIS1_EEE21__on_zero_shared_weakEv
0000000203fa1874 (__TEXT,__text) non-external (was a private external) __ZNSt3__120__shared_ptr_pointerIP15jet_fence_MetalNS_10shared_ptrIS1_E27__shared_ptr_default_deleteIS1_S1_EENS_9allocatorIS1_EEED0Ev
0000000203fa1870 (__TEXT,__text) non-external (was a private external) __ZNSt3__120__shared_ptr_pointerIP15jet_fence_MetalNS_10shared_ptrIS1_E27__shared_ptr_default_deleteIS1_S1_EENS_9allocatorIS1_EEED1Ev
0000000203f998bc (__TEXT,__text) non-external (was a private external) __ZNSt3__120__shared_ptr_pointerIP16jet_fence_OpenGLNS_10shared_ptrIS1_E27__shared_ptr_default_deleteIS1_S1_EENS_9allocatorIS1_EEE16__on_zero_sharedEv
0000000203f9992c (__TEXT,__text) non-external (was a private external) __ZNSt3__120__shared_ptr_pointerIP16jet_fence_OpenGLNS_10shared_ptrIS1_E27__shared_ptr_default_deleteIS1_S1_EENS_9allocatorIS1_EEE21__on_zero_shared_weakEv
0000000203f99894 (__TEXT,__text) non-external (was a private external) __ZNSt3__120__shared_ptr_pointerIP16jet_fence_OpenGLNS_10shared_ptrIS1_E27__shared_ptr_default_deleteIS1_S1_EENS_9allocatorIS1_EEED0Ev
0000000203f99890 (__TEXT,__text) non-external (was a private external) __ZNSt3__120__shared_ptr_pointerIP16jet_fence_OpenGLNS_10shared_ptrIS1_E27__shared_ptr_default_deleteIS1_S1_EENS_9allocatorIS1_EEED1Ev
0000000203f8f9a4 (__TEXT,__text) non-external (was a private external) __ZNSt3__120__throw_length_errorB7v160006EPKc
0000000203fa086c (__TEXT,__text) non-external (was a private external) __ZNSt3__121__murmur2_or_cityhashImLm64EE18__hash_len_0_to_16EPKcm
0000000203fa0964 (__TEXT,__text) non-external (was a private external) __ZNSt3__121__murmur2_or_cityhashImLm64EE19__hash_len_17_to_32EPKcm
0000000203fa0a10 (__TEXT,__text) non-external (was a private external) __ZNSt3__121__murmur2_or_cityhashImLm64EE19__hash_len_33_to_64EPKcm
0000000203fa0664 (__TEXT,__text) non-external (was a private external) __ZNSt3__121__murmur2_or_cityhashImLm64EEclEPKvm
0000000203fa12f8 (__TEXT,__text) non-external (was a private external) __ZNSt3__122__hash_node_destructorINS_9allocatorINS_11__hash_nodeINS_17__hash_value_typeINS_12basic_stringIcNS_11char_traitsIcEENS1_IcEEEEiEEPvEEEEEclB7v160006EPSB_
0000000203f92bdc (__TEXT,__text) non-external (was a private external) __ZNSt3__125__throw_bad_function_callB7v160006Ev
0000000203f92fe0 (__TEXT,__text) non-external (was a private external) __ZNSt3__127__tree_balance_after_insertB7v160006IPNS_16__tree_node_baseIPvEEEEvT_S5_
0000000203f9239c (__TEXT,__text) non-external (was a private external) __ZNSt3__142__uninitialized_allocator_move_if_noexceptB7v160006INS_9allocatorI13jet_render_opEENS_16reverse_iteratorIPS2_EES6_S6_EET2_RT_T0_T1_S7_
0000000203fa472c (__TEXT,__text) non-external __ZNSt3__142__uninitialized_allocator_move_if_noexceptB7v160006INS_9allocatorI13jet_render_opEENS_16reverse_iteratorIPS2_EES6_S6_EET2_RT_T0_T1_S7_.cold.1
0000000203fa44fc (__TEXT,__text) non-external (was a private external) __ZNSt3__16__treeINS_12__value_typeINS_12basic_stringIcNS_11char_traitsIcEENS_9allocatorIcEEEEiEENS_19__map_value_compareIS7_S8_NS_4lessIS7_EELb1EEENS5_IS8_EEE12__find_equalIS7_EERPNS_16__tree_node_baseIPvEERPNS_15__tree_end_nodeISJ_EERKT_
0000000203fa459c (__TEXT,__text) non-external (was a private external) __ZNSt3__16__treeINS_12__value_typeINS_12basic_stringIcNS_11char_traitsIcEENS_9allocatorIcEEEEiEENS_19__map_value_compareIS7_S8_NS_4lessIS7_EELb1EEENS5_IS8_EEE16__insert_node_atEPNS_15__tree_end_nodeIPNS_16__tree_node_baseIPvEEEERSJ_SJ_
0000000203fa4460 (__TEXT,__text) non-external (was a private external) __ZNSt3__16__treeINS_12__value_typeINS_12basic_stringIcNS_11char_traitsIcEENS_9allocatorIcEEEEiEENS_19__map_value_compareIS7_S8_NS_4lessIS7_EELb1EEENS5_IS8_EEE25__emplace_unique_key_argsIS7_JRKNS_21piecewise_construct_tENS_5tupleIJOS7_EEENSJ_IJEEEEEENS_4pairINS_15__tree_iteratorIS8_PNS_11__tree_nodeIS8_PvEElEEbEERKT_DpOT0_
0000000203fa43d0 (__TEXT,__text) non-external (was a private external) __ZNSt3__16__treeINS_12__value_typeINS_12basic_stringIcNS_11char_traitsIcEENS_9allocatorIcEEEEiEENS_19__map_value_compareIS7_S8_NS_4lessIS7_EELb1EEENS5_IS8_EEE4findIS7_EENS_15__tree_iteratorIS8_PNS_11__tree_nodeIS8_PvEElEERKT_
0000000203fa41f0 (__TEXT,__text) non-external (was a private external) __ZNSt3__16__treeINS_12__value_typeINS_12basic_stringIcNS_11char_traitsIcEENS_9allocatorIcEEEEiEENS_19__map_value_compareIS7_S8_NS_4lessIS7_EELb1EEENS5_IS8_EEE7destroyEPNS_11__tree_nodeIS8_PvEE
0000000203fa42b8 (__TEXT,__text) non-external (was a private external) __ZNSt3__16__treeINS_12__value_typeINS_12basic_stringIcNS_11char_traitsIcEENS_9allocatorIcEEEEjEENS_19__map_value_compareIS7_S8_NS_4lessIS7_EELb1EEENS5_IS8_EEE4findIS7_EENS_15__tree_iteratorIS8_PNS_11__tree_nodeIS8_PvEElEERKT_
0000000203fa4254 (__TEXT,__text) non-external (was a private external) __ZNSt3__16__treeINS_12__value_typeINS_12basic_stringIcNS_11char_traitsIcEENS_9allocatorIcEEEEjEENS_19__map_value_compareIS7_S8_NS_4lessIS7_EELb1EEENS5_IS8_EEE7destroyEPNS_11__tree_nodeIS8_PvEE
0000000203f92ee4 (__TEXT,__text) non-external (was a private external) __ZNSt3__16__treeINS_12__value_typeINS_5tupleIJ14jet_blend_mode18jet_texture_formatS4_S4_jjEEEP15jet_render_modeEENS_19__map_value_compareIS5_S8_NS_4lessIS5_EELb1EEENS_9allocatorIS8_EEE12__find_equalIS5_EERPNS_16__tree_node_baseIPvEERPNS_15__tree_end_nodeISK_EERKT_
0000000203f92f88 (__TEXT,__text) non-external (was a private external) __ZNSt3__16__treeINS_12__value_typeINS_5tupleIJ14jet_blend_mode18jet_texture_formatS4_S4_jjEEEP15jet_render_modeEENS_19__map_value_compareIS5_S8_NS_4lessIS5_EELb1EEENS_9allocatorIS8_EEE16__insert_node_atEPNS_15__tree_end_nodeIPNS_16__tree_node_baseIPvEEEERSK_SK_
0000000203f92e48 (__TEXT,__text) non-external (was a private external) __ZNSt3__16__treeINS_12__value_typeINS_5tupleIJ14jet_blend_mode18jet_texture_formatS4_S4_jjEEEP15jet_render_modeEENS_19__map_value_compareIS5_S8_NS_4lessIS5_EELb1EEENS_9allocatorIS8_EEE25__emplace_unique_key_argsIS5_JRS5_RS7_EEENS_4pairINS_15__tree_iteratorIS8_PNS_11__tree_nodeIS8_PvEElEEbEERKT_DpOT0_
0000000203f92cec (__TEXT,__text) non-external (was a private external) __ZNSt3__16__treeINS_12__value_typeINS_5tupleIJ14jet_blend_mode18jet_texture_formatS4_S4_jjEEEP15jet_render_modeEENS_19__map_value_compareIS5_S8_NS_4lessIS5_EELb1EEENS_9allocatorIS8_EEE4findIS5_EENS_15__tree_iteratorIS8_PNS_11__tree_nodeIS8_PvEElEERKT_
0000000203fa2a14 (__TEXT,__text) non-external (was a private external) __ZNSt3__16__treeINS_12__value_typeINS_5tupleIJ14jet_blend_mode18jet_texture_formatS4_S4_jjEEEP15jet_render_modeEENS_19__map_value_compareIS5_S8_NS_4lessIS5_EELb1EEENS_9allocatorIS8_EEE7destroyEPNS_11__tree_nodeIS8_PvEE
0000000203f997c8 (__TEXT,__text) non-external (was a private external) __ZNSt3__16__treeINS_12__value_typeIjP11jet_samplerEENS_19__map_value_compareIjS4_NS_4lessIjEELb1EEENS_9allocatorIS4_EEE16__insert_node_atEPNS_15__tree_end_nodeIPNS_16__tree_node_baseIPvEEEERSG_SG_
0000000203f99704 (__TEXT,__text) non-external (was a private external) __ZNSt3__16__treeINS_12__value_typeIjP11jet_samplerEENS_19__map_value_compareIjS4_NS_4lessIjEELb1EEENS_9allocatorIS4_EEE25__emplace_unique_key_argsIjJRKNS_21piecewise_construct_tENS_5tupleIJRKjEEENSG_IJEEEEEENS_4pairINS_15__tree_iteratorIS4_PNS_11__tree_nodeIS4_PvEElEEbEERKT_DpOT0_
0000000203f99598 (__TEXT,__text) non-external (was a private external) __ZNSt3__16__treeINS_12__value_typeIjP11jet_samplerEENS_19__map_value_compareIjS4_NS_4lessIjEELb1EEENS_9allocatorIS4_EEE7destroyEPNS_11__tree_nodeIS4_PvEE
0000000203f996ac (__TEXT,__text) non-external (was a private external) __ZNSt3__16__treeINS_12__value_typeIjjEENS_19__map_value_compareIjS2_NS_4lessIjEELb1EEENS_9allocatorIS2_EEE16__insert_node_atEPNS_15__tree_end_nodeIPNS_16__tree_node_baseIPvEEEERSE_SE_
0000000203f995ec (__TEXT,__text) non-external (was a private external) __ZNSt3__16__treeINS_12__value_typeIjjEENS_19__map_value_compareIjS2_NS_4lessIjEELb1EEENS_9allocatorIS2_EEE25__emplace_unique_key_argsIjJRKNS_21piecewise_construct_tENS_5tupleIJRKjEEENSE_IJEEEEEENS_4pairINS_15__tree_iteratorIS2_PNS_11__tree_nodeIS2_PvEElEEbEERKT_DpOT0_
0000000203f99544 (__TEXT,__text) non-external (was a private external) __ZNSt3__16__treeINS_12__value_typeIjjEENS_19__map_value_compareIjS2_NS_4lessIjEELb1EEENS_9allocatorIS2_EEE7destroyEPNS_11__tree_nodeIS2_PvEE
0000000203f9273c (__TEXT,__text) non-external (was a private external) __ZNSt3__16vectorI13jet_render_opNS_9allocatorIS1_EEE16__destroy_vectorclB7v160006Ev
0000000203f922a8 (__TEXT,__text) non-external (was a private external) __ZNSt3__16vectorI13jet_render_opNS_9allocatorIS1_EEE26__swap_out_circular_bufferERNS_14__split_bufferIS1_RS3_EE
0000000203f92188 (__TEXT,__text) non-external (was a private external) __ZNSt3__16vectorI13jet_render_opNS_9allocatorIS1_EEE7reserveEm
0000000203f92700 (__TEXT,__text) non-external (was a private external) __ZNSt3__16vectorI13jet_render_opNS_9allocatorIS1_EEED2B7v160006Ev
0000000203f92430 (__TEXT,__text) non-external (was a private external) __ZNSt3__19allocatorI13jet_render_opE9constructB7v160006IS1_JRKS1_EEEvPT_DpOT0_
0000000203fa5bcb (__TEXT,__const) non-external __ZNSt3__1L19piecewise_constructE
0000000203fa5f1c (__TEXT,__const) non-external __ZNSt3__1L19piecewise_constructE
0000000203fa62bb (__TEXT,__const) non-external __ZNSt3__1L19piecewise_constructE
                 (undefined) external __ZNSt9exceptionD2Ev (from libc++)
0000000203f92368 (__TEXT,__text) non-external (was a private external) __ZSt28__throw_bad_array_new_lengthB7v160006v
                 (undefined) external __ZSt9terminatev (from libc++)
000000023499db60 (__AUTH_CONST,__const) external __ZTI10jet_buffer
000000023499cae8 (__AUTH_CONST,__const) external __ZTI11jet_context
000000023499da28 (__AUTH_CONST,__const) external __ZTI11jet_program
000000023499dbd0 (__AUTH_CONST,__const) external __ZTI11jet_sampler
000000023499db08 (__AUTH_CONST,__const) external __ZTI11jet_texture
000000023499dc68 (__AUTH_CONST,__const) external __ZTI12jet_constant
000000023499cfe0 (__AUTH_CONST,__const) non-external (was a private external) __ZTI12jet_function
000000023499cb48 (__AUTH_CONST,__const) non-external (was a private external) __ZTI13jet_render_op
000000023499d9f8 (__AUTH_CONST,__const) external __ZTI15jet_buffer_pool
000000023499d898 (__AUTH_CONST,__const) non-external (was a private external) __ZTI15jet_fence_Metal
000000023499da60 (__AUTH_CONST,__const) external __ZTI15jet_framebuffer
000000023499c960 (__AUTH_CONST,__const) external __ZTI15jet_render_mode
000000023499d4f0 (__AUTH_CONST,__const) non-external (was a private external) __ZTI16jet_buffer_Metal
000000023499d158 (__AUTH_CONST,__const) non-external (was a private external) __ZTI16jet_fence_OpenGL
000000023499d968 (__AUTH_CONST,__const) external __ZTI16jet_stencil_mode
000000023499cdd0 (__AUTH_CONST,__const) non-external (was a private external) __ZTI17jet_buffer_OpenGL
000000023499d448 (__AUTH_CONST,__const) external __ZTI17jet_context_Metal
000000023499d760 (__AUTH_CONST,__const) non-external (was a private external) __ZTI17jet_program_Metal
000000023499d6f0 (__AUTH_CONST,__const) non-external (was a private external) __ZTI17jet_sampler_Metal
000000023499d3e8 (__AUTH_CONST,__const) non-external (was a private external) __ZTI17jet_texture_Metal
000000023499cb18 (__AUTH_CONST,__const) non-external (was a private external) __ZTI18jet_command_buffer
000000023499d5f8 (__AUTH_CONST,__const) non-external (was a private external) __ZTI18jet_constant_Metal
000000023499cd30 (__AUTH_CONST,__const) external __ZTI18jet_context_OpenGL
000000023499d728 (__AUTH_CONST,__const) non-external (was a private external) __ZTI18jet_function_Metal
000000023499d028 (__AUTH_CONST,__const) non-external (was a private external) __ZTI18jet_program_OpenGL
000000023499cfa8 (__AUTH_CONST,__const) non-external (was a private external) __ZTI18jet_sampler_OpenGL
000000023499cd00 (__AUTH_CONST,__const) non-external (was a private external) __ZTI18jet_texture_OpenGL
000000023499ced8 (__AUTH_CONST,__const) non-external (was a private external) __ZTI19jet_constant_OpenGL
000000023499cff0 (__AUTH_CONST,__const) non-external (was a private external) __ZTI19jet_function_OpenGL
000000023499d538 (__AUTH_CONST,__const) non-external (was a private external) __ZTI21jet_buffer_pool_Metal
000000023499d430 (__AUTH_CONST,__const) non-external (was a private external) __ZTI21jet_framebuffer_Metal
000000023499d7e0 (__AUTH_CONST,__const) non-external (was a private external) __ZTI21jet_render_mode_Metal
000000023499ce18 (__AUTH_CONST,__const) non-external (was a private external) __ZTI22jet_buffer_pool_OpenGL
000000023499d978 (__AUTH_CONST,__const) external __ZTI22jet_depth_stencil_mode
000000023499cd18 (__AUTH_CONST,__const) non-external (was a private external) __ZTI22jet_framebuffer_OpenGL
000000023499d0a0 (__AUTH_CONST,__const) non-external (was a private external) __ZTI22jet_render_mode_OpenGL
000000023499d818 (__AUTH_CONST,__const) non-external (was a private external) __ZTI22jet_stencil_mode_Metal
000000023499d0d8 (__AUTH_CONST,__const) non-external (was a private external) __ZTI23jet_stencil_mode_OpenGL
000000023499d850 (__AUTH_CONST,__const) non-external (was a private external) __ZTI28jet_depth_stencil_mode_Metal
000000023499d110 (__AUTH_CONST,__const) non-external (was a private external) __ZTI29jet_depth_stencil_mode_OpenGL
000000023499dba0 (__AUTH_CONST,__const) external __ZTI9jet_fence
000000023499d910 (__AUTH_CONST,__const) non-external (was a private external) __ZTINSt3__110shared_ptrI15jet_fence_MetalE27__shared_ptr_default_deleteIS1_S1_EE
000000023499d1f8 (__AUTH_CONST,__const) non-external (was a private external) __ZTINSt3__110shared_ptrI16jet_fence_OpenGLE27__shared_ptr_default_deleteIS1_S1_EE
000000023499d900 (__AUTH_CONST,__const) non-external (was a private external) __ZTINSt3__114default_deleteI15jet_fence_MetalEE
000000023499d1e8 (__AUTH_CONST,__const) non-external (was a private external) __ZTINSt3__114default_deleteI16jet_fence_OpenGLEE
000000023499c8e8 (__AUTH_CONST,__const) non-external (was a private external) __ZTINSt3__117bad_function_callE
                 (undefined) external __ZTINSt3__119__shared_weak_countE (from libc++)
000000023499d8e8 (__AUTH_CONST,__const) non-external (was a private external) __ZTINSt3__120__shared_ptr_pointerIP15jet_fence_MetalNS_10shared_ptrIS1_E27__shared_ptr_default_deleteIS1_S1_EENS_9allocatorIS1_EEEE
000000023499d1d0 (__AUTH_CONST,__const) non-external (was a private external) __ZTINSt3__120__shared_ptr_pointerIP16jet_fence_OpenGLNS_10shared_ptrIS1_E27__shared_ptr_default_deleteIS1_S1_EENS_9allocatorIS1_EEEE
                 (undefined) weak external __ZTISt12length_error (from libc++)
                 (undefined) external __ZTISt20bad_array_new_length (from libc++)
                 (undefined) external __ZTISt9exception (from libc++)
0000000203fa62ae (__TEXT,__const) external __ZTS10jet_buffer
0000000203fa59e8 (__TEXT,__const) external __ZTS11jet_context
0000000203fa6236 (__TEXT,__const) external __ZTS11jet_program
0000000203fa62c7 (__TEXT,__const) external __ZTS11jet_sampler
0000000203fa62a0 (__TEXT,__const) external __ZTS11jet_texture
0000000203fa62d5 (__TEXT,__const) external __ZTS12jet_constant
0000000203fa5b41 (__TEXT,__const) non-external (was a private external) __ZTS12jet_function
0000000203fa5a0b (__TEXT,__const) non-external (was a private external) __ZTS13jet_render_op
0000000203fa6224 (__TEXT,__const) external __ZTS15jet_buffer_pool
0000000203fa5f55 (__TEXT,__const) non-external (was a private external) __ZTS15jet_fence_Metal
0000000203fa6244 (__TEXT,__const) external __ZTS15jet_framebuffer
0000000203fa5998 (__TEXT,__const) external __ZTS15jet_render_mode
0000000203fa5e80 (__TEXT,__const) non-external (was a private external) __ZTS16jet_buffer_Metal
0000000203fa5bb8 (__TEXT,__const) non-external (was a private external) __ZTS16jet_fence_OpenGL
0000000203fa61f8 (__TEXT,__const) external __ZTS16jet_stencil_mode
0000000203fa5ad3 (__TEXT,__const) non-external (was a private external) __ZTS17jet_buffer_OpenGL
0000000203fa5e6c (__TEXT,__const) external __ZTS17jet_context_Metal
0000000203fa5ef0 (__TEXT,__const) non-external (was a private external) __ZTS17jet_program_Metal
0000000203fa5ec0 (__TEXT,__const) non-external (was a private external) __ZTS17jet_sampler_Metal
0000000203fa5e40 (__TEXT,__const) non-external (was a private external) __ZTS17jet_texture_Metal
0000000203fa59f6 (__TEXT,__const) non-external (was a private external) __ZTS18jet_command_buffer
0000000203fa5eab (__TEXT,__const) non-external (was a private external) __ZTS18jet_constant_Metal
0000000203fa5abe (__TEXT,__const) external __ZTS18jet_context_OpenGL
0000000203fa5ed4 (__TEXT,__const) non-external (was a private external) __ZTS18jet_function_Metal
0000000203fa5b50 (__TEXT,__const) non-external (was a private external) __ZTS18jet_program_OpenGL
0000000203fa5b16 (__TEXT,__const) non-external (was a private external) __ZTS18jet_sampler_OpenGL
0000000203fa5a90 (__TEXT,__const) non-external (was a private external) __ZTS18jet_texture_OpenGL
0000000203fa5b00 (__TEXT,__const) non-external (was a private external) __ZTS19jet_constant_OpenGL
0000000203fa5b2b (__TEXT,__const) non-external (was a private external) __ZTS19jet_function_OpenGL
0000000203fa5e93 (__TEXT,__const) non-external (was a private external) __ZTS21jet_buffer_pool_Metal
0000000203fa5e54 (__TEXT,__const) non-external (was a private external) __ZTS21jet_framebuffer_Metal
0000000203fa5f04 (__TEXT,__const) non-external (was a private external) __ZTS21jet_render_mode_Metal
0000000203fa5ae7 (__TEXT,__const) non-external (was a private external) __ZTS22jet_buffer_pool_OpenGL
0000000203fa620b (__TEXT,__const) external __ZTS22jet_depth_stencil_mode
0000000203fa5aa5 (__TEXT,__const) non-external (was a private external) __ZTS22jet_framebuffer_OpenGL
0000000203fa5b65 (__TEXT,__const) non-external (was a private external) __ZTS22jet_render_mode_OpenGL
0000000203fa5f1d (__TEXT,__const) non-external (was a private external) __ZTS22jet_stencil_mode_Metal
0000000203fa5b7e (__TEXT,__const) non-external (was a private external) __ZTS23jet_stencil_mode_OpenGL
0000000203fa5f36 (__TEXT,__const) non-external (was a private external) __ZTS28jet_depth_stencil_mode_Metal
0000000203fa5b98 (__TEXT,__const) non-external (was a private external) __ZTS29jet_depth_stencil_mode_OpenGL
0000000203fa62bc (__TEXT,__const) external __ZTS9jet_fence
0000000203fa5feb (__TEXT,__const) non-external (was a private external) __ZTSNSt3__110shared_ptrI15jet_fence_MetalE27__shared_ptr_default_deleteIS1_S1_EE
0000000203fa5c4d (__TEXT,__const) non-external (was a private external) __ZTSNSt3__110shared_ptrI16jet_fence_OpenGLE27__shared_ptr_default_deleteIS1_S1_EE
0000000203fa6038 (__TEXT,__const) non-external (was a private external) __ZTSNSt3__114default_deleteI15jet_fence_MetalEE
0000000203fa5c9b (__TEXT,__const) non-external (was a private external) __ZTSNSt3__114default_deleteI16jet_fence_OpenGLEE
0000000203fa5a1b (__TEXT,__const) non-external (was a private external) __ZTSNSt3__117bad_function_callE
0000000203fa5f6b (__TEXT,__const) non-external (was a private external) __ZTSNSt3__120__shared_ptr_pointerIP15jet_fence_MetalNS_10shared_ptrIS1_E27__shared_ptr_default_deleteIS1_S1_EENS_9allocatorIS1_EEEE
0000000203fa5bcc (__TEXT,__const) non-external (was a private external) __ZTSNSt3__120__shared_ptr_pointerIP16jet_fence_OpenGLNS_10shared_ptrIS1_E27__shared_ptr_default_deleteIS1_S1_EENS_9allocatorIS1_EEEE
000000023499db18 (__AUTH_CONST,__const) external __ZTV10jet_buffer
000000023499c970 (__AUTH_CONST,__const) external __ZTV11jet_context
000000023499da08 (__AUTH_CONST,__const) external __ZTV11jet_program
000000023499dbb0 (__AUTH_CONST,__const) external __ZTV11jet_sampler
000000023499da70 (__AUTH_CONST,__const) external __ZTV11jet_texture
000000023499dbe0 (__AUTH_CONST,__const) external __ZTV12jet_constant
000000023499cb28 (__AUTH_CONST,__const) non-external (was a private external) __ZTV13jet_render_op
000000023499d9c8 (__AUTH_CONST,__const) external __ZTV15jet_buffer_pool
000000023499d868 (__AUTH_CONST,__const) non-external (was a private external) __ZTV15jet_fence_Metal
000000023499da38 (__AUTH_CONST,__const) external __ZTV15jet_framebuffer
000000023499c900 (__AUTH_CONST,__const) external __ZTV15jet_render_mode
000000023499d460 (__AUTH_CONST,__const) non-external (was a private external) __ZTV16jet_buffer_Metal
000000023499d128 (__AUTH_CONST,__const) non-external (was a private external) __ZTV16jet_fence_OpenGL
000000023499d928 (__AUTH_CONST,__const) external __ZTV16jet_stencil_mode
000000023499cd48 (__AUTH_CONST,__const) non-external (was a private external) __ZTV17jet_buffer_OpenGL
000000023499d210 (__AUTH_CONST,__const) external __ZTV17jet_context_Metal
000000023499d740 (__AUTH_CONST,__const) non-external (was a private external) __ZTV17jet_program_Metal
000000023499d6d0 (__AUTH_CONST,__const) non-external (was a private external) __ZTV17jet_sampler_Metal
000000023499d638 (__AUTH_CONST,__const) non-external (was a private external) __ZTV17jet_texture_Metal
000000023499caf8 (__AUTH_CONST,__const) non-external (was a private external) __ZTV18jet_command_buffer
000000023499d550 (__AUTH_CONST,__const) non-external (was a private external) __ZTV18jet_constant_Metal
000000023499cb58 (__AUTH_CONST,__const) external __ZTV18jet_context_OpenGL
000000023499d708 (__AUTH_CONST,__const) non-external (was a private external) __ZTV18jet_function_Metal
000000023499d008 (__AUTH_CONST,__const) non-external (was a private external) __ZTV18jet_program_OpenGL
000000023499cf88 (__AUTH_CONST,__const) non-external (was a private external) __ZTV18jet_sampler_OpenGL
000000023499cef0 (__AUTH_CONST,__const) non-external (was a private external) __ZTV18jet_texture_OpenGL
000000023499ce30 (__AUTH_CONST,__const) non-external (was a private external) __ZTV19jet_constant_OpenGL
000000023499cfc0 (__AUTH_CONST,__const) non-external (was a private external) __ZTV19jet_function_OpenGL
000000023499d508 (__AUTH_CONST,__const) non-external (was a private external) __ZTV21jet_buffer_pool_Metal
000000023499d610 (__AUTH_CONST,__const) non-external (was a private external) __ZTV21jet_framebuffer_Metal
000000023499d778 (__AUTH_CONST,__const) non-external (was a private external) __ZTV21jet_render_mode_Metal
000000023499cde8 (__AUTH_CONST,__const) non-external (was a private external) __ZTV22jet_buffer_pool_OpenGL
000000023499d948 (__AUTH_CONST,__const) external __ZTV22jet_depth_stencil_mode
000000023499d170 (__AUTH_CONST,__const) non-external (was a private external) __ZTV22jet_framebuffer_OpenGL
000000023499d040 (__AUTH_CONST,__const) non-external (was a private external) __ZTV22jet_render_mode_OpenGL
000000023499d7f8 (__AUTH_CONST,__const) non-external (was a private external) __ZTV22jet_stencil_mode_Metal
000000023499d0b8 (__AUTH_CONST,__const) non-external (was a private external) __ZTV23jet_stencil_mode_OpenGL
000000023499d830 (__AUTH_CONST,__const) non-external (was a private external) __ZTV28jet_depth_stencil_mode_Metal
000000023499d0f0 (__AUTH_CONST,__const) non-external (was a private external) __ZTV29jet_depth_stencil_mode_OpenGL
000000023499db70 (__AUTH_CONST,__const) external __ZTV9jet_fence
                 (undefined) external __ZTVN10__cxxabiv117__class_type_infoE (from libc++)
                 (undefined) external __ZTVN10__cxxabiv120__si_class_type_infoE (from libc++)
000000023499c8c0 (__AUTH_CONST,__const) non-external (was a private external) __ZTVNSt3__117bad_function_callE
000000023499d8b0 (__AUTH_CONST,__const) non-external (was a private external) __ZTVNSt3__120__shared_ptr_pointerIP15jet_fence_MetalNS_10shared_ptrIS1_E27__shared_ptr_default_deleteIS1_S1_EENS_9allocatorIS1_EEEE
000000023499d198 (__AUTH_CONST,__const) non-external (was a private external) __ZTVNSt3__120__shared_ptr_pointerIP16jet_fence_OpenGLNS_10shared_ptrIS1_E27__shared_ptr_default_deleteIS1_S1_EENS_9allocatorIS1_EEEE
                 (undefined) external __ZTVSt12length_error (from libc++)
000000022e9e2090 (__DATA,__bss) non-external __ZZ20jet_isMetalSupportedvE17_isMetalSupported
000000022e9e2098 (__DATA,__bss) non-external __ZZ20jet_isMetalSupportedvE9onceToken
000000022e9e20a8 (__DATA,__bss) non-external __ZZ21jet_ensureClientLabelvE9onceToken
000000022e9e2080 (__DATA,__bss) non-external __ZZN17jet_context_Metal22use_depth_stencil_modeEP22jet_depth_stencil_modeE25_defualtDepthStencilState
000000022e9e2088 (__DATA,__bss) non-external __ZZN17jet_context_Metal22use_depth_stencil_modeEP22jet_depth_stencil_modeE9onceToken
                 (undefined) weak external __ZdlPv (from libc++)
                 (undefined) weak external __Znwm (from libc++)
                 (undefined) external ___CFConstantStringClassReference (from CoreFoundation)
0000000203fa19f4 (__TEXT,__text) non-external ____Z20jet_isMetalSupportedv_block_invoke
0000000203fa1d5c (__TEXT,__text) non-external ____Z21jet_ensureClientLabelv_block_invoke
0000000203f9c550 (__TEXT,__text) non-external ____ZN17jet_context_Metal21set_scheduled_handlerENSt3__18functionIFvvEEE_block_invoke
0000000203f9d59c (__TEXT,__text) non-external ____ZN17jet_context_Metal22use_depth_stencil_modeEP22jet_depth_stencil_mode_block_invoke
                 (undefined) external ___assert_rtn (from libSystem)
000000022c002008 (__DATA_CONST,__const) non-external (was a private external) ___block_descriptor_32_e5_v8?0l
000000022c001fe8 (__DATA_CONST,__const) non-external (was a private external) ___block_descriptor_40_e5_v8?0l
000000023499d400 (__AUTH_CONST,__const) non-external (was a private external) ___block_descriptor_64_ea8_32c27_ZTSNSt3__18functionIFvvEEE_e28_v16?0"<MTLCommandBuffer>"8l
000000023499d988 (__AUTH_CONST,__const) non-external ___block_literal_global
000000023499d9a8 (__AUTH_CONST,__const) non-external ___block_literal_global.29
                 (undefined) external ___chkstk_darwin (from libSystem)
0000000203f8fb14 (__TEXT,__text) non-external (was a private external) ___clang_call_terminate
0000000203f9c5d8 (__TEXT,__text) non-external (was a private external) ___copy_helper_block_ea8_32c27_ZTSNSt3__18functionIFvvEEE
                 (undefined) external ___cxa_allocate_exception (from libc++)
                 (undefined) external ___cxa_begin_catch (from libc++)
                 (undefined) external ___cxa_free_exception (from libc++)
                 (undefined) external ___cxa_pure_virtual (from libc++)
                 (undefined) external ___cxa_throw (from libc++)
0000000203f9c5e4 (__TEXT,__text) non-external (was a private external) ___destroy_helper_block_ea8_32c27_ZTSNSt3__18functionIFvvEEE
                 (undefined) external ___dynamic_cast (from libc++)
                 (undefined) external ___gxx_personality_v0 (from libc++)
                 (undefined) external ___stack_chk_fail (from libSystem)
                 (undefined) external ___stack_chk_guard (from libSystem)
                 (undefined) external _abort (from libSystem)
                 (undefined) external _dispatch_once (from libSystem)
                 (undefined) external _dispatch_semaphore_create (from libSystem)
                 (undefined) external _dispatch_semaphore_signal (from libSystem)
                 (undefined) external _dispatch_semaphore_wait (from libSystem)
                 (undefined) external _free (from libSystem)
                 (undefined) external _glActiveTexture (from OpenGL)
                 (undefined) external _glAttachShader (from OpenGL)
                 (undefined) external _glBindBuffer (from OpenGL)
                 (undefined) external _glBindFramebuffer (from OpenGL)
                 (undefined) external _glBindRenderbuffer (from OpenGL)
                 (undefined) external _glBindTexture (from OpenGL)
                 (undefined) external _glBlendEquation (from OpenGL)
                 (undefined) external _glBlendFunc (from OpenGL)
                 (undefined) external _glBlendFuncSeparate (from OpenGL)
                 (undefined) external _glBufferData (from OpenGL)
                 (undefined) external _glBufferParameteriAPPLE (from OpenGL)
                 (undefined) external _glCheckFramebufferStatus (from OpenGL)
                 (undefined) external _glClear (from OpenGL)
                 (undefined) external _glClearColor (from OpenGL)
                 (undefined) external _glClearStencil (from OpenGL)
                 (undefined) external _glClientWaitSync (from OpenGL)
                 (undefined) external _glColorMask (from OpenGL)
                 (undefined) external _glCompileShader (from OpenGL)
                 (undefined) external _glCreateProgram (from OpenGL)
                 (undefined) external _glCreateShader (from OpenGL)
                 (undefined) external _glDeleteBuffers (from OpenGL)
                 (undefined) external _glDeleteFramebuffers (from OpenGL)
                 (undefined) external _glDeleteProgram (from OpenGL)
                 (undefined) external _glDeleteRenderbuffers (from OpenGL)
                 (undefined) external _glDeleteShader (from OpenGL)
                 (undefined) external _glDeleteSync (from OpenGL)
                 (undefined) external _glDeleteTextures (from OpenGL)
                 (undefined) external _glDepthFunc (from OpenGL)
                 (undefined) external _glDepthMask (from OpenGL)
                 (undefined) external _glDetachShader (from OpenGL)
                 (undefined) external _glDisable (from OpenGL)
                 (undefined) external _glDrawArrays (from OpenGL)
                 (undefined) external _glDrawElements (from OpenGL)
                 (undefined) external _glEnable (from OpenGL)
                 (undefined) external _glEnableVertexAttribArray (from OpenGL)
                 (undefined) external _glFenceSync (from OpenGL)
                 (undefined) external _glFlushMappedBufferRangeAPPLE (from OpenGL)
                 (undefined) external _glFlushRenderAPPLE (from OpenGL)
                 (undefined) external _glFramebufferRenderbuffer (from OpenGL)
                 (undefined) external _glFramebufferTexture2D (from OpenGL)
                 (undefined) external _glGenBuffers (from OpenGL)
                 (undefined) external _glGenFramebuffers (from OpenGL)
                 (undefined) external _glGenRenderbuffers (from OpenGL)
                 (undefined) external _glGenTextures (from OpenGL)
                 (undefined) external _glGenerateMipmap (from OpenGL)
                 (undefined) external _glGetAttribLocation (from OpenGL)
                 (undefined) external _glGetBooleanv (from OpenGL)
                 (undefined) external _glGetError (from OpenGL)
                 (undefined) external _glGetFloatv (from OpenGL)
                 (undefined) external _glGetFramebufferAttachmentParameteriv (from OpenGL)
                 (undefined) external _glGetIntegerv (from OpenGL)
                 (undefined) external _glGetProgramInfoLog (from OpenGL)
                 (undefined) external _glGetProgramiv (from OpenGL)
                 (undefined) external _glGetRenderbufferParameteriv (from OpenGL)
                 (undefined) external _glGetShaderInfoLog (from OpenGL)
                 (undefined) external _glGetShaderiv (from OpenGL)
                 (undefined) external _glGetUniformLocation (from OpenGL)
                 (undefined) external _glGetVertexAttribiv (from OpenGL)
                 (undefined) external _glLineWidth (from OpenGL)
                 (undefined) external _glLinkProgram (from OpenGL)
                 (undefined) external _glMapBuffer (from OpenGL)
                 (undefined) external _glPixelStorei (from OpenGL)
                 (undefined) external _glReadPixels (from OpenGL)
                 (undefined) external _glRenderbufferStorage (from OpenGL)
                 (undefined) external _glScissor (from OpenGL)
                 (undefined) external _glShaderSource (from OpenGL)
                 (undefined) external _glStencilFuncSeparate (from OpenGL)
                 (undefined) external _glStencilMask (from OpenGL)
                 (undefined) external _glStencilOpSeparate (from OpenGL)
                 (undefined) external _glTexImage2D (from OpenGL)
                 (undefined) external _glTexParameteri (from OpenGL)
                 (undefined) external _glTexSubImage2D (from OpenGL)
                 (undefined) external _glUniform1f (from OpenGL)
                 (undefined) external _glUniform1fv (from OpenGL)
                 (undefined) external _glUniform1i (from OpenGL)
                 (undefined) external _glUniform1iv (from OpenGL)
                 (undefined) external _glUniform2f (from OpenGL)
                 (undefined) external _glUniform2fv (from OpenGL)
                 (undefined) external _glUniform2i (from OpenGL)
                 (undefined) external _glUniform2iv (from OpenGL)
                 (undefined) external _glUniform3f (from OpenGL)
                 (undefined) external _glUniform3fv (from OpenGL)
                 (undefined) external _glUniform3i (from OpenGL)
                 (undefined) external _glUniform3iv (from OpenGL)
                 (undefined) external _glUniform4f (from OpenGL)
                 (undefined) external _glUniform4fv (from OpenGL)
                 (undefined) external _glUniform4i (from OpenGL)
                 (undefined) external _glUniform4iv (from OpenGL)
                 (undefined) external _glUniformMatrix2fv (from OpenGL)
                 (undefined) external _glUniformMatrix3fv (from OpenGL)
                 (undefined) external _glUniformMatrix4fv (from OpenGL)
                 (undefined) external _glUnmapBuffer (from OpenGL)
                 (undefined) external _glUseProgram (from OpenGL)
                 (undefined) external _glValidateProgram (from OpenGL)
                 (undefined) external _glVertexAttribPointer (from OpenGL)
                 (undefined) external _glViewport (from OpenGL)
                 (undefined) weak external _kCIContextOutputColorSpace (from CoreImage)
                 (undefined) weak external _kCIContextOutputPremultiplied (from CoreImage)
                 (undefined) weak external _kCIContextWorkingColorSpace (from CoreImage)
                 (undefined) weak external _kCIFormatARGB8 (from CoreImage)
                 (undefined) weak external _kCIImageColorSpace (from CoreImage)
                 (undefined) weak external _kCIImageTextureFormat (from CoreImage)
                 (undefined) weak external _kCIImageTextureTarget (from CoreImage)
                 (undefined) external _malloc (from libSystem)
                 (undefined) external _memcmp (from libSystem)
                 (undefined) external _memcpy (from libSystem)
                 (undefined) external _memmove (from libSystem)
                 (undefined) external _objc_alloc (from libobjc)
                 (undefined) external _objc_autoreleaseReturnValue (from libobjc)
                 (undefined) external _objc_enumerationMutation (from libobjc)
                 (undefined) external _objc_msgSend (from libobjc)
0000000203fa9e60 (__TEXT,__objc_stubs) non-external (was a private external) _objc_msgSend$CGLContextObj
0000000203fa9e80 (__TEXT,__objc_stubs) non-external (was a private external) _objc_msgSend$UTF8String
0000000203fa9ea0 (__TEXT,__objc_stubs) non-external (was a private external) _objc_msgSend$addScheduledHandler:
0000000203fa9ec0 (__TEXT,__objc_stubs) non-external (was a private external) _objc_msgSend$arrayLength
0000000203fa9ee0 (__TEXT,__objc_stubs) non-external (was a private external) _objc_msgSend$blitCommandEncoder
0000000203fa9f00 (__TEXT,__objc_stubs) non-external (was a private external) _objc_msgSend$boolValue
0000000203fa9f20 (__TEXT,__objc_stubs) non-external (was a private external) _objc_msgSend$colorAttachments
0000000203fa9f40 (__TEXT,__objc_stubs) non-external (was a private external) _objc_msgSend$commandBuffer
0000000203fa9f60 (__TEXT,__objc_stubs) non-external (was a private external) _objc_msgSend$commit
0000000203fa9f80 (__TEXT,__objc_stubs) non-external (was a private external) _objc_msgSend$contents
0000000203fa9fa0 (__TEXT,__objc_stubs) non-external (was a private external) _objc_msgSend$contextWithCGLContext:pixelFormat:colorSpace:options:
0000000203fa9fc0 (__TEXT,__objc_stubs) non-external (was a private external) _objc_msgSend$contextWithMTLDevice:options:
0000000203fa9fe0 (__TEXT,__objc_stubs) non-external (was a private external) _objc_msgSend$countByEnumeratingWithState:objects:count:
0000000203faa000 (__TEXT,__objc_stubs) non-external (was a private external) _objc_msgSend$currentContext
0000000203faa020 (__TEXT,__objc_stubs) non-external (was a private external) _objc_msgSend$defaultCStringEncoding
0000000203faa040 (__TEXT,__objc_stubs) non-external (was a private external) _objc_msgSend$depth
0000000203faa060 (__TEXT,__objc_stubs) non-external (was a private external) _objc_msgSend$depthAttachment
0000000203faa080 (__TEXT,__objc_stubs) non-external (was a private external) _objc_msgSend$device
0000000203faa0a0 (__TEXT,__objc_stubs) non-external (was a private external) _objc_msgSend$dictionary
0000000203faa0c0 (__TEXT,__objc_stubs) non-external (was a private external) _objc_msgSend$dictionaryForKey:
0000000203faa0e0 (__TEXT,__objc_stubs) non-external (was a private external) _objc_msgSend$drawIndexedPrimitives:indexCount:indexType:indexBuffer:indexBufferOffset:
0000000203faa100 (__TEXT,__objc_stubs) non-external (was a private external) _objc_msgSend$drawPrimitives:vertexStart:vertexCount:
0000000203faa120 (__TEXT,__objc_stubs) non-external (was a private external) _objc_msgSend$endEncoding
0000000203faa140 (__TEXT,__objc_stubs) non-external (was a private external) _objc_msgSend$extent
0000000203faa160 (__TEXT,__objc_stubs) non-external (was a private external) _objc_msgSend$featureProfile
0000000203faa180 (__TEXT,__objc_stubs) non-external (was a private external) _objc_msgSend$flushBuffer
0000000203faa1a0 (__TEXT,__objc_stubs) non-external (was a private external) _objc_msgSend$fragmentArguments
0000000203faa1c0 (__TEXT,__objc_stubs) non-external (was a private external) _objc_msgSend$generateMipmapsForTexture:
0000000203faa1e0 (__TEXT,__objc_stubs) non-external (was a private external) _objc_msgSend$getBytes:bytesPerRow:bytesPerImage:fromRegion:mipmapLevel:slice:
0000000203faa200 (__TEXT,__objc_stubs) non-external (was a private external) _objc_msgSend$height
0000000203faa220 (__TEXT,__objc_stubs) non-external (was a private external) _objc_msgSend$imageWithMTLTexture:options:
0000000203faa240 (__TEXT,__objc_stubs) non-external (was a private external) _objc_msgSend$imageWithTexture:size:flipped:options:
0000000203faa260 (__TEXT,__objc_stubs) non-external (was a private external) _objc_msgSend$index
0000000203faa280 (__TEXT,__objc_stubs) non-external (was a private external) _objc_msgSend$infoDictionary
0000000203faa2a0 (__TEXT,__objc_stubs) non-external (was a private external) _objc_msgSend$initWithCGLPixelFormatObj:
0000000203faa2c0 (__TEXT,__objc_stubs) non-external (was a private external) _objc_msgSend$initWithFormat:shareContext:
0000000203faa2e0 (__TEXT,__objc_stubs) non-external (was a private external) _objc_msgSend$integerValue
0000000203faa300 (__TEXT,__objc_stubs) non-external (was a private external) _objc_msgSend$isFramebufferOnly
0000000203faa320 (__TEXT,__objc_stubs) non-external (was a private external) _objc_msgSend$length
0000000203faa340 (__TEXT,__objc_stubs) non-external (was a private external) _objc_msgSend$localizedDescription
0000000203faa360 (__TEXT,__objc_stubs) non-external (was a private external) _objc_msgSend$mainBundle
0000000203faa380 (__TEXT,__objc_stubs) non-external (was a private external) _objc_msgSend$makeCurrentContext
0000000203faa3a0 (__TEXT,__objc_stubs) non-external (was a private external) _objc_msgSend$mipmapLevelCount
0000000203faa3c0 (__TEXT,__objc_stubs) non-external (was a private external) _objc_msgSend$mutableCopy
0000000203faa3e0 (__TEXT,__objc_stubs) non-external (was a private external) _objc_msgSend$name
0000000203faa400 (__TEXT,__objc_stubs) non-external (was a private external) _objc_msgSend$newBufferWithBytes:length:options:
0000000203faa420 (__TEXT,__objc_stubs) non-external (was a private external) _objc_msgSend$newBufferWithLength:options:
0000000203faa440 (__TEXT,__objc_stubs) non-external (was a private external) _objc_msgSend$newCommandQueue
0000000203faa460 (__TEXT,__objc_stubs) non-external (was a private external) _objc_msgSend$newDefaultLibrary
0000000203faa480 (__TEXT,__objc_stubs) non-external (was a private external) _objc_msgSend$newDepthStencilStateWithDescriptor:
0000000203faa4a0 (__TEXT,__objc_stubs) non-external (was a private external) _objc_msgSend$newFunctionWithName:
0000000203faa4c0 (__TEXT,__objc_stubs) non-external (was a private external) _objc_msgSend$newLibraryWithFile:error:
0000000203faa4e0 (__TEXT,__objc_stubs) non-external (was a private external) _objc_msgSend$newLibraryWithSource:options:error:
0000000203faa500 (__TEXT,__objc_stubs) non-external (was a private external) _objc_msgSend$newRenderPipelineStateWithDescriptor:options:reflection:error:
0000000203faa520 (__TEXT,__objc_stubs) non-external (was a private external) _objc_msgSend$newSamplerStateWithDescriptor:
0000000203faa540 (__TEXT,__objc_stubs) non-external (was a private external) _objc_msgSend$newTextureWithDescriptor:
0000000203faa560 (__TEXT,__objc_stubs) non-external (was a private external) _objc_msgSend$newTextureWithDescriptor:iosurface:plane:
0000000203faa580 (__TEXT,__objc_stubs) non-external (was a private external) _objc_msgSend$null
0000000203faa5a0 (__TEXT,__objc_stubs) non-external (was a private external) _objc_msgSend$numberWithBool:
0000000203faa5c0 (__TEXT,__objc_stubs) non-external (was a private external) _objc_msgSend$numberWithInt:
0000000203faa5e0 (__TEXT,__objc_stubs) non-external (was a private external) _objc_msgSend$objectAtIndexedSubscript:
0000000203faa600 (__TEXT,__objc_stubs) non-external (was a private external) _objc_msgSend$objectForKey:
0000000203faa620 (__TEXT,__objc_stubs) non-external (was a private external) _objc_msgSend$pathForResource:ofType:
0000000203faa640 (__TEXT,__objc_stubs) non-external (was a private external) _objc_msgSend$pixelFormat
0000000203faa660 (__TEXT,__objc_stubs) non-external (was a private external) _objc_msgSend$presentDrawable:
0000000203faa680 (__TEXT,__objc_stubs) non-external (was a private external) _objc_msgSend$render:toMTLTexture:commandBuffer:bounds:colorSpace:
0000000203faa6a0 (__TEXT,__objc_stubs) non-external (was a private external) _objc_msgSend$render:toTexture:target:bounds:colorSpace:
0000000203faa6c0 (__TEXT,__objc_stubs) non-external (was a private external) _objc_msgSend$renderCommandEncoderWithDescriptor:
0000000203faa6e0 (__TEXT,__objc_stubs) non-external (was a private external) _objc_msgSend$renderPassDescriptor
0000000203faa700 (__TEXT,__objc_stubs) non-external (was a private external) _objc_msgSend$replaceRegion:mipmapLevel:slice:withBytes:bytesPerRow:bytesPerImage:
0000000203faa720 (__TEXT,__objc_stubs) non-external (was a private external) _objc_msgSend$sampleCount
0000000203faa740 (__TEXT,__objc_stubs) non-external (was a private external) _objc_msgSend$setAlphaBlendOperation:
0000000203faa760 (__TEXT,__objc_stubs) non-external (was a private external) _objc_msgSend$setBackFaceStencil:
0000000203faa780 (__TEXT,__objc_stubs) non-external (was a private external) _objc_msgSend$setBlendingEnabled:
0000000203faa7a0 (__TEXT,__objc_stubs) non-external (was a private external) _objc_msgSend$setClearColor:
0000000203faa7c0 (__TEXT,__objc_stubs) non-external (was a private external) _objc_msgSend$setClearDepth:
0000000203faa7e0 (__TEXT,__objc_stubs) non-external (was a private external) _objc_msgSend$setClearStencil:
0000000203faa800 (__TEXT,__objc_stubs) non-external (was a private external) _objc_msgSend$setCullMode:
0000000203faa820 (__TEXT,__objc_stubs) non-external (was a private external) _objc_msgSend$setDepthAttachmentPixelFormat:
0000000203faa840 (__TEXT,__objc_stubs) non-external (was a private external) _objc_msgSend$setDepthCompareFunction:
0000000203faa860 (__TEXT,__objc_stubs) non-external (was a private external) _objc_msgSend$setDepthFailureOperation:
0000000203faa880 (__TEXT,__objc_stubs) non-external (was a private external) _objc_msgSend$setDepthStencilPassOperation:
0000000203faa8a0 (__TEXT,__objc_stubs) non-external (was a private external) _objc_msgSend$setDepthStencilState:
0000000203faa8c0 (__TEXT,__objc_stubs) non-external (was a private external) _objc_msgSend$setDepthWriteEnabled:
0000000203faa8e0 (__TEXT,__objc_stubs) non-external (was a private external) _objc_msgSend$setDestinationAlphaBlendFactor:
0000000203faa900 (__TEXT,__objc_stubs) non-external (was a private external) _objc_msgSend$setDestinationRGBBlendFactor:
0000000203faa920 (__TEXT,__objc_stubs) non-external (was a private external) _objc_msgSend$setFragmentBuffer:offset:atIndex:
0000000203faa940 (__TEXT,__objc_stubs) non-external (was a private external) _objc_msgSend$setFragmentBytes:length:atIndex:
0000000203faa960 (__TEXT,__objc_stubs) non-external (was a private external) _objc_msgSend$setFragmentFunction:
0000000203faa980 (__TEXT,__objc_stubs) non-external (was a private external) _objc_msgSend$setFragmentSamplerState:atIndex:
0000000203faa9a0 (__TEXT,__objc_stubs) non-external (was a private external) _objc_msgSend$setFragmentTexture:atIndex:
0000000203faa9c0 (__TEXT,__objc_stubs) non-external (was a private external) _objc_msgSend$setFrontFaceStencil:
0000000203faa9e0 (__TEXT,__objc_stubs) non-external (was a private external) _objc_msgSend$setHeight:
0000000203faaa00 (__TEXT,__objc_stubs) non-external (was a private external) _objc_msgSend$setLabel:
0000000203faaa20 (__TEXT,__objc_stubs) non-external (was a private external) _objc_msgSend$setLoadAction:
0000000203faaa40 (__TEXT,__objc_stubs) non-external (was a private external) _objc_msgSend$setMagFilter:
0000000203faaa60 (__TEXT,__objc_stubs) non-external (was a private external) _objc_msgSend$setMinFilter:
0000000203faaa80 (__TEXT,__objc_stubs) non-external (was a private external) _objc_msgSend$setMipFilter:
0000000203faaaa0 (__TEXT,__objc_stubs) non-external (was a private external) _objc_msgSend$setObject:forKey:
0000000203faaac0 (__TEXT,__objc_stubs) non-external (was a private external) _objc_msgSend$setPixelFormat:
0000000203faaae0 (__TEXT,__objc_stubs) non-external (was a private external) _objc_msgSend$setReadMask:
0000000203faab00 (__TEXT,__objc_stubs) non-external (was a private external) _objc_msgSend$setRenderPipelineState:
0000000203faab20 (__TEXT,__objc_stubs) non-external (was a private external) _objc_msgSend$setRgbBlendOperation:
0000000203faab40 (__TEXT,__objc_stubs) non-external (was a private external) _objc_msgSend$setSAddressMode:
0000000203faab60 (__TEXT,__objc_stubs) non-external (was a private external) _objc_msgSend$setSampleCount:
0000000203faab80 (__TEXT,__objc_stubs) non-external (was a private external) _objc_msgSend$setScissorRect:
0000000203faaba0 (__TEXT,__objc_stubs) non-external (was a private external) _objc_msgSend$setSourceAlphaBlendFactor:
0000000203faabc0 (__TEXT,__objc_stubs) non-external (was a private external) _objc_msgSend$setSourceRGBBlendFactor:
0000000203faabe0 (__TEXT,__objc_stubs) non-external (was a private external) _objc_msgSend$setStencilAttachmentPixelFormat:
0000000203faac00 (__TEXT,__objc_stubs) non-external (was a private external) _objc_msgSend$setStencilCompareFunction:
0000000203faac20 (__TEXT,__objc_stubs) non-external (was a private external) _objc_msgSend$setStencilFailureOperation:
0000000203faac40 (__TEXT,__objc_stubs) non-external (was a private external) _objc_msgSend$setStencilReferenceValue:
0000000203faac60 (__TEXT,__objc_stubs) non-external (was a private external) _objc_msgSend$setStorageMode:
0000000203faac80 (__TEXT,__objc_stubs) non-external (was a private external) _objc_msgSend$setStoreAction:
0000000203faaca0 (__TEXT,__objc_stubs) non-external (was a private external) _objc_msgSend$setTAddressMode:
0000000203faacc0 (__TEXT,__objc_stubs) non-external (was a private external) _objc_msgSend$setTexture:
0000000203faace0 (__TEXT,__objc_stubs) non-external (was a private external) _objc_msgSend$setTriangleFillMode:
0000000203faad00 (__TEXT,__objc_stubs) non-external (was a private external) _objc_msgSend$setUsage:
0000000203faad20 (__TEXT,__objc_stubs) non-external (was a private external) _objc_msgSend$setValue:forKey:
0000000203faad40 (__TEXT,__objc_stubs) non-external (was a private external) _objc_msgSend$setVertexBuffer:offset:atIndex:
0000000203faad60 (__TEXT,__objc_stubs) non-external (was a private external) _objc_msgSend$setVertexBytes:length:atIndex:
0000000203faad80 (__TEXT,__objc_stubs) non-external (was a private external) _objc_msgSend$setVertexFunction:
0000000203faada0 (__TEXT,__objc_stubs) non-external (was a private external) _objc_msgSend$setVertexSamplerState:atIndex:
0000000203faadc0 (__TEXT,__objc_stubs) non-external (was a private external) _objc_msgSend$setVertexTexture:atIndex:
0000000203faade0 (__TEXT,__objc_stubs) non-external (was a private external) _objc_msgSend$setViewport:
0000000203faae00 (__TEXT,__objc_stubs) non-external (was a private external) _objc_msgSend$setWidth:
0000000203faae20 (__TEXT,__objc_stubs) non-external (was a private external) _objc_msgSend$setWriteMask:
0000000203faae40 (__TEXT,__objc_stubs) non-external (was a private external) _objc_msgSend$standardUserDefaults
0000000203faae60 (__TEXT,__objc_stubs) non-external (was a private external) _objc_msgSend$status
0000000203faae80 (__TEXT,__objc_stubs) non-external (was a private external) _objc_msgSend$stencilAttachment
0000000203faaea0 (__TEXT,__objc_stubs) non-external (was a private external) _objc_msgSend$storageMode
0000000203faaec0 (__TEXT,__objc_stubs) non-external (was a private external) _objc_msgSend$stringByAppendingString:
0000000203faaee0 (__TEXT,__objc_stubs) non-external (was a private external) _objc_msgSend$stringWithContentsOfFile:encoding:error:
0000000203faaf00 (__TEXT,__objc_stubs) non-external (was a private external) _objc_msgSend$stringWithUTF8String:
0000000203faaf20 (__TEXT,__objc_stubs) non-external (was a private external) _objc_msgSend$synchronizeResource:
0000000203faaf40 (__TEXT,__objc_stubs) non-external (was a private external) _objc_msgSend$texture
0000000203faaf60 (__TEXT,__objc_stubs) non-external (was a private external) _objc_msgSend$texture2DDescriptorWithPixelFormat:width:height:mipmapped:
0000000203faaf80 (__TEXT,__objc_stubs) non-external (was a private external) _objc_msgSend$textureCubeDescriptorWithPixelFormat:size:mipmapped:
0000000203faafa0 (__TEXT,__objc_stubs) non-external (was a private external) _objc_msgSend$vertexArguments
0000000203faafc0 (__TEXT,__objc_stubs) non-external (was a private external) _objc_msgSend$waitUntilCompleted
0000000203faafe0 (__TEXT,__objc_stubs) non-external (was a private external) _objc_msgSend$width
                 (undefined) external _objc_opt_class (from libobjc)
                 (undefined) external _objc_opt_isKindOfClass (from libobjc)
                 (undefined) external _objc_opt_new (from libobjc)
                 (undefined) external _objc_release (from libobjc)
                 (undefined) external _objc_retain (from libobjc)
                 (undefined) external _objc_retainAutorelease (from libobjc)
                 (undefined) external _objc_retainAutoreleaseReturnValue (from libobjc)
                 (undefined) external _objc_retainAutoreleasedReturnValue (from libobjc)
                 (undefined) external _objc_storeStrong (from libobjc)
                 (undefined) external _pow (from libSystem)
                 (undefined) external _strcmp (from libSystem)
                 (undefined) external _strlen (from libSystem)
