00000001dd34307c (__TEXT,__text) non-external (was a private external) __Z11checkMiddleP11vertexArrayiiff
00000001dd32c354 (__TEXT,__text) non-external (was a private external) __Z11gluCallCFM0P16GLUdescriptorCFM
00000001dd32c358 (__TEXT,__text) non-external (was a private external) __Z11gluCallCFM1PKvP16GLUdescriptorCFM
00000001dd32c35c (__TEXT,__text) non-external (was a private external) __Z11gluCallCFM2PKvS0_P16GLUdescriptorCFM
00000001dd32c360 (__TEXT,__text) non-external (was a private external) __Z11gluCallCFM5PKvS0_S0_S0_S0_P16GLUdescriptorCFM
00000001dd33dd14 (__TEXT,__text) non-external (was a private external) __Z12DBG_isConvexP12directedLine
00000001dd321174 (__TEXT,__text) non-external (was a private external) __Z12__gl_vertLeqP9GLUvertexS0_
00000001dd3211ac (__TEXT,__text) non-external (was a private external) __Z13__gl_edgeEvalP9GLUvertexS0_S0_
00000001dd321204 (__TEXT,__text) non-external (was a private external) __Z13__gl_edgeSignP9GLUvertexS0_S0_
00000001dd3416cc (__TEXT,__text) non-external (was a private external) __Z13findUpCornersPfP11vertexArrayiiS1_iifffRiS2_S2_S2_
00000001dd33f338 (__TEXT,__text) non-external (was a private external) __Z13sampleCompBotPfP11vertexArrayiS1_iP17gridBoundaryChainS3_iiiiiP10primStream
00000001dd34039c (__TEXT,__text) non-external (was a private external) __Z13sampleCompTopPfP11vertexArrayiS1_iP17gridBoundaryChainS3_iiiiiP10primStream
00000001dd32124c (__TEXT,__text) non-external (was a private external) __Z14__gl_transEvalP9GLUvertexS0_S0_
00000001dd340b54 (__TEXT,__text) non-external (was a private external) __Z14polygonConvertP12directedLine
00000001dd33e734 (__TEXT,__text) non-external (was a private external) __Z14sampleCompLeftPfS_P11vertexArrayiiS1_iiP17gridBoundaryChainiiiiiiP10primStream
00000001dd341d4c (__TEXT,__text) non-external (was a private external) __Z14sampleMonoPolyP12directedLineP8gridWrapiiP10primStreamP14rectBlockArray
00000001dd34338c (__TEXT,__text) non-external (was a private external) __Z14stripOfFanLeftP11vertexArrayiiP8gridWrapiiiP10primStreami
00000001dd321ab8 (__TEXT,__text) non-external (was a private external) __Z15__gl_meshDeleteP11GLUhalfEdge
00000001dd32194c (__TEXT,__text) non-external (was a private external) __Z15__gl_meshSpliceP11GLUhalfEdgeS0_
00000001dd322b74 (__TEXT,__text) non-external (was a private external) __Z15__gl_pqSortInitP13PriorityQSort
00000001dd323088 (__TEXT,__text) non-external (was a private external) __Z15__gl_renderMeshP13GLUtesselatorP7GLUmesh
00000001dd34121c (__TEXT,__text) non-external (was a private external) __Z15findDownCornersPfP11vertexArrayiiS1_iifffRiS2_S2_S2_
00000001dd319f34 (__TEXT,__text) non-external (was a private external) __Z15gluScaleImage3DjiiijPKviiijPv
00000001dd33f650 (__TEXT,__text) non-external (was a private external) __Z15sampleCompRightPfS_P11vertexArrayiiS1_iiP17gridBoundaryChainiiiiiiP10primStream
00000001dd3401f8 (__TEXT,__text) non-external (was a private external) __Z15stripOfFanRightP11vertexArrayiiP8gridWrapiiiP10primStreami
00000001dd321dd8 (__TEXT,__text) non-external (was a private external) __Z16__gl_meshConnectP11GLUhalfEdgeS0_
00000001dd322074 (__TEXT,__text) non-external (was a private external) __Z16__gl_meshNewMeshv
00000001dd321f14 (__TEXT,__text) non-external (was a private external) __Z16__gl_meshZapFaceP7GLUface
00000001dd323428 (__TEXT,__text) non-external (was a private external) __Z16__gl_renderCacheP13GLUtesselator
00000001dd3217a0 (__TEXT,__text) non-external (was a private external) __Z17__gl_meshMakeEdgeP7GLUmesh
00000001dd3229c8 (__TEXT,__text) non-external (was a private external) __Z17__gl_pqHeapDeleteP13PriorityQHeapi
00000001dd3227c0 (__TEXT,__text) non-external (was a private external) __Z17__gl_pqHeapInsertP13PriorityQHeapPv
00000001dd323034 (__TEXT,__text) non-external (was a private external) __Z17__gl_pqSortDeleteP13PriorityQSorti
00000001dd322e64 (__TEXT,__text) non-external (was a private external) __Z17__gl_pqSortInsertP13PriorityQSortPv
00000001dd342418 (__TEXT,__text) non-external (was a private external) __Z17sampleMonoPolyRecPfS_P11vertexArrayiS1_iP17gridBoundaryChainS3_iP10primStreamP14rectBlockArray
00000001dd3430c0 (__TEXT,__text) non-external (was a private external) __Z17triangulateXYMonoiPA2_fiS0_P10primStream
00000001dd33df54 (__TEXT,__text) non-external (was a private external) __Z18DBG_intersectChainP11vertexArrayiiPfS1_
00000001dd33ddbc (__TEXT,__text) non-external (was a private external) __Z18DBG_is_U_directionP12directedLine
00000001dd3212a4 (__TEXT,__text) non-external (was a private external) __Z18__gl_edgeIntersectP9GLUvertexS0_S0_S0_S0_
00000001dd321d40 (__TEXT,__text) non-external (was a private external) __Z18__gl_meshSplitEdgeP11GLUhalfEdge
00000001dd322fbc (__TEXT,__text) non-external (was a private external) __Z18__gl_pqSortMinimumP13PriorityQSort
00000001dd336950 (__TEXT,__text) non-external (was a private external) __Z18arcLoopToDLineLoopP3Arc
00000001dd33ec44 (__TEXT,__text) non-external (was a private external) __Z18findBotLeftSegmentP11vertexArrayiifRiS1_
00000001dd33dbcc (__TEXT,__text) non-external (was a private external) __Z18findInteriorCuspsXP12directedLineRiPS0_
00000001dd33d510 (__TEXT,__text) non-external (was a private external) __Z18monoTriangulation2PfS_P11vertexArrayiiiP10primStream
00000001dd310dcc (__TEXT,__text) non-external (was a private external) __Z19__glTessErrorStringi
00000001dd32110c (__TEXT,__text) non-external (was a private external) __Z19__gl_dictListDeleteP8DictListP12DictListNode
00000001dd321124 (__TEXT,__text) non-external (was a private external) __Z19__gl_dictListSearchP8DictListPv
00000001dd3220e0 (__TEXT,__text) non-external (was a private external) __Z19__gl_meshDeleteMeshP7GLUmesh
00000001dd322184 (__TEXT,__text) non-external (was a private external) __Z19__gl_projectPolygonP13GLUtesselator
00000001dd323344 (__TEXT,__text) non-external (was a private external) __Z19__gl_renderBoundaryP13GLUtesselatorP7GLUmesh
00000001dd33ecd4 (__TEXT,__text) non-external (was a private external) __Z19findBotRightSegmentP11vertexArrayiifRiS1_
00000001dd340da8 (__TEXT,__text) non-external (was a private external) __Z19findLeftGridIndicesP12directedLineiiP8gridWrapPiS3_
00000001dd33f444 (__TEXT,__text) non-external (was a private external) __Z19sampleCompBotSimplePfP11vertexArrayiS1_iP17gridBoundaryChainS3_iiiiiP10primStream
00000001dd340934 (__TEXT,__text) non-external (was a private external) __Z19sampleCompTopSimplePfP11vertexArrayiS1_iP17gridBoundaryChainS3_iiiiiP10primStream
00000001dd33e544 (__TEXT,__text) non-external (was a private external) __Z19sampleConnectedCompPfS_P11vertexArrayiiS1_iiP17gridBoundaryChainS3_iiiiiiiiiiP10primStreamP14rectBlockArray
00000001dd342ec0 (__TEXT,__text) non-external (was a private external) __Z19sampleLeftStripRecFP11vertexArrayiiP17gridBoundaryChainiiP10primStream
00000001dd33c7ac (__TEXT,__text) non-external (was a private external) __Z19triangulateXYMonoTBiPPfiS0_P10primStream
00000001dd310dbc (__TEXT,__text) non-external (was a private external) __Z20__glNURBSErrorStringi
00000001dd323d3c (__TEXT,__text) non-external (was a private external) __Z20__gl_computeInteriorP13GLUtesselator
00000001dd320ff4 (__TEXT,__text) non-external (was a private external) __Z20__gl_dictListNewDictPvPFiS_S_S_E
00000001dd312fc8 (__TEXT,__text) non-external (was a private external) __Z20bitmapBuild2DMipmapsP17_CGLContextObjectjiiijjPKv
00000001dd341030 (__TEXT,__text) non-external (was a private external) __Z20findRightGridIndicesP12directedLineiiP8gridWrapPiS3_
00000001dd33c1fc (__TEXT,__text) non-external (was a private external) __Z20monoTriangulationFunP12directedLinePFiPfS1_EP10primStream
00000001dd33c0d8 (__TEXT,__text) non-external (was a private external) __Z20monoTriangulationOptP12directedLineP10primStream
00000001dd33fae0 (__TEXT,__text) non-external (was a private external) __Z20sampleRightStripRecFP11vertexArrayiiP17gridBoundaryChainiiP10primStream
00000001dd33decc (__TEXT,__text) non-external (was a private external) __Z21DBG_edgesIntersectGenPfS_S_S_
00000001dd32294c (__TEXT,__text) non-external (was a private external) __Z21__gl_pqHeapExtractMinP13PriorityQHeap
00000001dd322f10 (__TEXT,__text) non-external (was a private external) __Z21__gl_pqSortExtractMinP13PriorityQSort
00000001dd342a10 (__TEXT,__text) non-external (was a private external) __Z21sampleLeftOneGridStepP11vertexArrayiiP17gridBoundaryChainiP10primStream
00000001dd321ca0 (__TEXT,__text) non-external (was a private external) __Z22__gl_meshAddEdgeVertexP11GLUhalfEdge
00000001dd33fd74 (__TEXT,__text) non-external (was a private external) __Z22sampleRightOneGridStepP11vertexArrayiiP17gridBoundaryChainiP10primStream
00000001dd32103c (__TEXT,__text) non-external (was a private external) __Z23__gl_dictListDeleteDictP8DictList
00000001dd32261c (__TEXT,__text) non-external (was a private external) __Z23__gl_pqHeapNewPriorityQPFiPvS_E
00000001dd322aa4 (__TEXT,__text) non-external (was a private external) __Z23__gl_pqSortNewPriorityQPFiPvS_E
00000001dd33d208 (__TEXT,__text) non-external (was a private external) __Z23monoTriangulationRecFunPfS_P11vertexArrayiS1_iPFiS_S_EP10primStream
00000001dd33c470 (__TEXT,__text) non-external (was a private external) __Z23monoTriangulationRecGenPfS_P11vertexArrayiiS1_iiP10primStream
00000001dd326ae4 (__TEXT,__text) non-external (was a private external) __Z24__gl_meshDiscardExteriorP7GLUmesh
00000001dd33dc50 (__TEXT,__text) non-external (was a private external) __Z24findDiagonal_singleCuspXP12directedLine
00000001dd30f7f4 (__TEXT,__text) non-external (was a private external) __Z24gluBuild2DMipmapsCTXCoreP17_CGLContextObjectjiiiiijjiiiPKv
00000001dd321090 (__TEXT,__text) non-external (was a private external) __Z25__gl_dictListInsertBeforeP8DictListP12DictListNodePv
00000001dd326b2c (__TEXT,__text) non-external (was a private external) __Z25__gl_meshSetWindingNumberP7GLUmeshih
00000001dd33f234 (__TEXT,__text) non-external (was a private external) __Z25sampleBotLeftWithGridLinePfP11vertexArrayiiP8gridWrapiiiP10primStream
00000001dd3226ac (__TEXT,__text) non-external (was a private external) __Z26__gl_pqHeapDeletePriorityQP13PriorityQHeap
00000001dd322b1c (__TEXT,__text) non-external (was a private external) __Z26__gl_pqSortDeletePriorityQP13PriorityQSort
00000001dd33ca9c (__TEXT,__text) non-external (was a private external) __Z26monoTriangulationRecGenOptPfS_P11vertexArrayiiS1_iiP10primStream
00000001dd33efc4 (__TEXT,__text) non-external (was a private external) __Z26sampleBotRightWithGridLinePfP11vertexArrayiiP8gridWrapiiiP10primStream
00000001dd326a94 (__TEXT,__text) non-external (was a private external) __Z27__gl_meshTessellateInteriorP7GLUmesh
00000001dd332360 (__TEXT,__text) non-external (was a private external) __Z27monoTriangulationFunBackendP3ArcPFiPfS1_EP7Backend
00000001dd32688c (__TEXT,__text) non-external (was a private external) __Z29__gl_meshTessellateMonoRegionP7GLUface
00000001dd312570 (__TEXT,__text) non-external (was a private external) __Z29gluBuild1DMipmapLevelsCTXCoreP17_CGLContextObjectjiiijjiiiPKv
00000001dd33f0c8 (__TEXT,__text) non-external (was a private external) __Z29sampleBotLeftWithGridLinePostPfP11vertexArrayiiiiP8gridWrapiiiP10primStream
00000001dd332590 (__TEXT,__text) non-external (was a private external) __Z30monoTriangulationRecFunBackendPfS_P11vertexArrayiS1_iPFiS_S_EP7Backend
00000001dd33ed64 (__TEXT,__text) non-external (was a private external) __Z30sampleBotRightWithGridLinePostPfP11vertexArrayiiiiP8gridWrapiiiP10primStream
00000001dd342844 (__TEXT,__text) non-external (was a private external) __Z30sampleLeftSingleTrimEdgeRegionPfS_P17gridBoundaryChainiiP10primStream
00000001dd33fc88 (__TEXT,__text) non-external (was a private external) __Z31sampleRightSingleTrimEdgeRegionPfS_P17gridBoundaryChainiiP10primStream
00000001dd33e9f4 (__TEXT,__text) non-external (was a private external) __Z33sampleLeftSingleTrimEdgeRegionGenPfS_P11vertexArrayiiP17gridBoundaryChainiiS1_iiiiP10primStream
00000001dd33f960 (__TEXT,__text) non-external (was a private external) __Z34sampleRightSingleTrimEdgeRegionGenPfS_P11vertexArrayiiP17gridBoundaryChainiiS1_iiiiP10primStream
00000001dd33dfcc (__TEXT,__text) non-external (was a private external) __Z4areaPfS_S_
00000001dd33da6c (__TEXT,__text) non-external (was a private external) __Z7isCuspXP12directedLine
00000001dd33b8ac (__TEXT,__text) non-external (was a private external) __Z9compV2InXPfS_
00000001dd33b86c (__TEXT,__text) non-external (was a private external) __Z9compV2InYPfS_
00000001dd33db90 (__TEXT,__text) non-external (was a private external) __Z9cuspTypeXP12directedLine
00000001dd341b58 (__TEXT,__text) non-external (was a private external) __Z9findNeckFP11vertexArrayiS0_iP17gridBoundaryChainS2_iRiS3_
00000001dd33db10 (__TEXT,__text) non-external (was a private external) __Z9isReflexXP12directedLine
00000001dd326300 (__TEXT,__text) non-external __ZL10EmptyCacheP13GLUtesselator
00000001dd3237a4 (__TEXT,__text) non-external __ZL10MaximumFanP11GLUhalfEdge
00000001dd3240e0 (__TEXT,__text) non-external __ZL10SweepEventP13GLUtesselatorP9GLUvertex
00000001dd312cf4 (__TEXT,__text) non-external __ZL10closestFitP17_CGLContextObjectjiiijjPiS1_
00000001dd3148e0 (__TEXT,__text) non-external __ZL10extract332iPKvPf
00000001dd314a20 (__TEXT,__text) non-external __ZL10extract565iPKvPf
00000001dd311ab4 (__TEXT,__text) non-external __ZL10fill_imagePK17PixelStorageModesiijjhPKvPt
00000001dd31d508 (__TEXT,__text) non-external __ZL10shoveFloatdiPv
00000001dd31d478 (__TEXT,__text) non-external __ZL10shoveSbytediPv
00000001dd31d460 (__TEXT,__text) non-external __ZL10shoveUbytediPv
00000001dd324724 (__TEXT,__text) non-external __ZL11AddSentinelP13GLUtesselatord
00000001dd3247ec (__TEXT,__text) non-external __ZL11CallCombineP13GLUtesselatorP9GLUvertexPPvPfi
00000001dd323b70 (__TEXT,__text) non-external __ZL11RenderStripP13GLUtesselatorP11GLUhalfEdgei
00000001dd321870 (__TEXT,__text) non-external __ZL11allocVertexv
00000001dd314b74 (__TEXT,__text) non-external __ZL11extract4444iPKvPf
00000001dd314d0c (__TEXT,__text) non-external __ZL11extract5551iPKvPf
00000001dd314eb4 (__TEXT,__text) non-external __ZL11extract8888iPKvPf
00000001dd31d4d4 (__TEXT,__text) non-external __ZL11extractSintiPKv
00000001dd31d4bc (__TEXT,__text) non-external __ZL11extractUintiPKv
00000001dd311844 (__TEXT,__text) non-external __ZL11legalFormatj
00000001dd3149c8 (__TEXT,__text) non-external __ZL11shove233revPKfiPv
00000001dd314b24 (__TEXT,__text) non-external __ZL11shove565revPKfiPv
00000001dd31d4b0 (__TEXT,__text) non-external __ZL11shoveSshortdiPv
00000001dd31d494 (__TEXT,__text) non-external __ZL11shoveUshortdiPv
00000001dd324dac (__TEXT,__text) non-external __ZL12FinishRegionP13GLUtesselatorP12ActiveRegion
00000001dd323898 (__TEXT,__text) non-external __ZL12MaximumStripP11GLUhalfEdge
00000001dd31d4ec (__TEXT,__text) non-external __ZL12extractFloatiPKv
00000001dd31d46c (__TEXT,__text) non-external __ZL12extractSbyteiPKv
00000001dd31d454 (__TEXT,__text) non-external __ZL12extractUbyteiPKv
00000001dd31cde0 (__TEXT,__text) non-external __ZL12halveImage3DiPFdiPKvEPFvdiPvEiiiS0_S3_iiiii
00000001dd315094 (__TEXT,__text) non-external __ZL12shove1010102PKfiPv
00000001dd314e30 (__TEXT,__text) non-external __ZL12shove1555revPKfiPv
00000001dd314c84 (__TEXT,__text) non-external __ZL12shove4444revPKfiPv
00000001dd314fc4 (__TEXT,__text) non-external __ZL12shove8888revPKfiPv
00000001dd324ab8 (__TEXT,__text) non-external __ZL13AddRightEdgesP13GLUtesselatorP12ActiveRegionP11GLUhalfEdgeS4_S4_h
00000001dd323678 (__TEXT,__text) non-external __ZL13ComputeNormalP13GLUtesselatorPdi
00000001dd32490c (__TEXT,__text) non-external __ZL13TopLeftRegionP12ActiveRegion
00000001dd3257b8 (__TEXT,__text) non-external __ZL13VertexWeightsP9GLUvertexS0_S0_Pf
00000001dd31498c (__TEXT,__text) non-external __ZL13extract233reviPKvPf
00000001dd314ad8 (__TEXT,__text) non-external __ZL13extract565reviPKvPf
00000001dd31d4a0 (__TEXT,__text) non-external __ZL13extractSshortiPKv
00000001dd31d484 (__TEXT,__text) non-external __ZL13extractUshortiPKv
00000001dd344518 (__TEXT,__const) non-external __ZL13versionString
00000001dd324ca0 (__TEXT,__text) non-external __ZL14AddRegionBelowP13GLUtesselatorP12ActiveRegionP11GLUhalfEdge
00000001dd323788 (__TEXT,__text) non-external __ZL14RenderTriangleP13GLUtesselatorP11GLUhalfEdgei
00000001dd31196c (__TEXT,__text) non-external __ZL14__abort_mallocm
00000001e57dae50 (__DATA_CONST,__const) non-external __ZL14__glTessErrors
00000001dd31504c (__TEXT,__text) non-external __ZL14extract1010102iPKvPf
00000001dd314de4 (__TEXT,__text) non-external __ZL14extract1555reviPKvPf
00000001dd314c40 (__TEXT,__text) non-external __ZL14extract4444reviPKvPf
00000001dd314f80 (__TEXT,__text) non-external __ZL14extract8888reviPKvPf
00000001e57dacd0 (__DATA_CONST,__const) non-external __ZL14glErrorStrings
00000001dd314074 (__TEXT,__text) non-external __ZL14halveImage_intijjPiS_iiii
00000001eab5ae68 (__AUTH,__data) non-external __ZL14noOperationCFM
00000001dd312284 (__TEXT,__text) non-external __ZL14scale_internaliiiPKtiiPt
00000001dd324d24 (__TEXT,__text) non-external __ZL15IsWindingInsideP13GLUtesselatori
00000001e57dad20 (__DATA_CONST,__const) non-external __ZL15__glNurbsErrors
00000001dd3369a0 (__TEXT,__text) non-external __ZL15arcToMultDLinesP12directedLineP3Arc
00000001dd31299c (__TEXT,__text) non-external __ZL15checkMipmapArgsjjj
00000001dd344523 (__TEXT,__const) non-external __ZL15extensionString
00000001e57dad08 (__DATA_CONST,__const) non-external __ZL15gluErrorStrings
00000001dd313760 (__TEXT,__text) non-external __ZL15halveImage_byteijjPaS_iii
00000001dd313df0 (__TEXT,__text) non-external __ZL15halveImage_uintijjPjS_iiii
00000001dd325930 (__TEXT,__text) non-external __ZL15noOperationMachv
00000001dd315170 (__TEXT,__text) non-external __ZL15shove2101010revPKfiPv
00000001dd33744c (__TEXT,__text) non-external __ZL15triangulateRectP3ArcR7Backendiii
00000001dd325334 (__TEXT,__text) non-external __ZL16WalkDirtyRegionsP13GLUtesselatorP12ActiveRegion
00000001dd314308 (__TEXT,__text) non-external __ZL16halveImage_floatijjPfS_iiii
00000001dd313b40 (__TEXT,__text) non-external __ZL16halveImage_shortijjPsS_iiii
00000001dd3135d8 (__TEXT,__text) non-external __ZL16halveImage_ubyteijjPhS_iii
00000001dd324e00 (__TEXT,__text) non-external __ZL17CheckForIntersectP13GLUtesselatorP12ActiveRegion
00000001dd3249ac (__TEXT,__text) non-external __ZL17FinishLeftRegionsP13GLUtesselatorP12ActiveRegionS2_
00000001dd313508 (__TEXT,__text) non-external __ZL17bytes_per_elementj
00000001dd31512c (__TEXT,__text) non-external __ZL17extract2101010reviPKvPf
00000001dd313900 (__TEXT,__text) non-external __ZL17halveImage_ushortijjPtS_iiii
00000001dd31cc4c (__TEXT,__text) non-external __ZL17isTypePackedPixelj
00000001dd31e150 (__TEXT,__text) non-external __ZL18__gluInvertMatrixdPKdPd
00000001dd31e0d0 (__TEXT,__text) non-external __ZL18__gluMultMatricesdPKdS0_Pd
00000001dd312200 (__TEXT,__text) non-external __ZL18elements_per_groupjj
00000001dd311994 (__TEXT,__text) non-external __ZL18retrieveStoreModesP17_CGLContextObjectP17PixelStorageModes
00000001dd318120 (__TEXT,__text) non-external __ZL18scale_internal_intiiiPKiiiPiiiii
00000001dd3376f4 (__TEXT,__text) non-external __ZL18triangulateRectAuxP6PwlArcS0_S0_S0_R7Backend
00000001dd325640 (__TEXT,__text) non-external __ZL19CheckForRightSpliceP13GLUtesselatorP12ActiveRegion
00000001dd324028 (__TEXT,__text) non-external __ZL19SpliceMergeVerticesP13GLUtesselatorP11GLUhalfEdgeS2_
00000001dd315b20 (__TEXT,__text) non-external __ZL19scale_internal_byteiiiPKaiiPaiii
00000001dd3177c0 (__TEXT,__text) non-external __ZL19scale_internal_uintiiiPKjiiPjiiii
00000001dd31cc70 (__TEXT,__text) non-external __ZL20retrieveStoreModes3DP17_CGLContextObjectP17PixelStorageModes
00000001dd318a7c (__TEXT,__text) non-external __ZL20scale_internal_floatiiiPKfiiPfiiii
00000001dd316e40 (__TEXT,__text) non-external __ZL20scale_internal_shortiiiPKsiiPsiiii
00000001dd315208 (__TEXT,__text) non-external __ZL20scale_internal_ubyteiiiPKhiiPhiii
00000001dd31457c (__TEXT,__text) non-external __ZL21halveImagePackedPixeliPFviPKvPfEPFvPKfiPvEiiS0_S6_iii
00000001dd316438 (__TEXT,__text) non-external __ZL21scale_internal_ushortiiiPKtiiPtiiii
00000001dd337dcc (__TEXT,__text) non-external __ZL21triangulateRectTopGenP3ArciPffiiR7Backend
00000001dd31d514 (__TEXT,__text) non-external __ZL23halveImagePackedPixel3DiPFviPKvPfEPFvPKfiPvEiiiS0_S6_iiii
00000001dd31b2c8 (__TEXT,__text) non-external __ZL24gluBuild3DMipmapsCTXCoreP17_CGLContextObjectjiiiiiiijjiiiPKv
00000001dd3193a0 (__TEXT,__text) non-external __ZL24scaleInternalPackedPixeliPFviPKvPfEPFvPKfiPvEiiS0_iiS6_iii
00000001dd343530 (__TEXT,__text) non-external __ZL26triangulateConvexPolyHorizP12directedLineS0_P10primStream
00000001dd343738 (__TEXT,__text) non-external __ZL29triangulateConvexPolyVerticalP12directedLineS0_P10primStream
00000001dd3118c8 (__TEXT,__text) non-external __ZL31isLegalFormatForPackedPixelTypejj
00000001dd32462c (__TEXT,__text) non-external __ZL7EdgeLeqP13GLUtesselatorP12ActiveRegionS2_
00000001dd3228b8 (__TEXT,__text) non-external __ZL7FloatUpP13PriorityQHeapi
00000001dd3218c8 (__TEXT,__text) non-external __ZL8MakeEdgeP11GLUhalfEdge
00000001dd314928 (__TEXT,__text) non-external __ZL8shove332PKfiPv
00000001dd314a6c (__TEXT,__text) non-external __ZL8shove565PKfiPv
00000001dd326374 (__TEXT,__text) non-external __ZL9AddVertexP13GLUtesselatorPdPv
00000001dd3226f0 (__TEXT,__text) non-external __ZL9FloatDownP13PriorityQHeapi
00000001dd325980 (__TEXT,__text) non-external __ZL9GotoStateP13GLUtesselator9TessState
00000001dd3239f8 (__TEXT,__text) non-external __ZL9RenderFanP13GLUtesselatorP11GLUhalfEdgei
00000001dd32189c (__TEXT,__text) non-external __ZL9allocFacev
00000001dd311868 (__TEXT,__text) non-external __ZL9legalTypej
00000001dd314bb8 (__TEXT,__text) non-external __ZL9shove4444PKfiPv
00000001dd314d60 (__TEXT,__text) non-external __ZL9shove5551PKfiPv
00000001dd314ef8 (__TEXT,__text) non-external __ZL9shove8888PKfiPv
00000001dd31d4e0 (__TEXT,__text) non-external __ZL9shoveSintdiPv
00000001dd31d4c8 (__TEXT,__text) non-external __ZL9shoveUintdiPv
00000001dd330078 (__TEXT,__text) non-external (was a private external) __ZN10Knotvector4initEiiiPf
00000001dd33023c (__TEXT,__text) non-external (was a private external) __ZN10Knotvector4showEPKc
00000001dd330148 (__TEXT,__text) non-external (was a private external) __ZN10Knotvector8validateEv
00000001dd330100 (__TEXT,__text) non-external (was a private external) __ZN10KnotvectorC1Ev
00000001dd330108 (__TEXT,__text) non-external (was a private external) __ZN10KnotvectorD1Ev
00000001dd3367bc (__TEXT,__text) non-external (was a private external) __ZN10O_pwlcurveC1EiiPfiP10TrimVertex
00000001dd3366b4 (__TEXT,__text) non-external (was a private external) __ZN10O_pwlcurveC2EiiPfiP10TrimVertex
00000001dd33a604 (__TEXT,__text) non-external (was a private external) __ZN10Splinespec10setupquiltEP5Quilt
00000001dd33a548 (__TEXT,__text) non-external (was a private external) __ZN10Splinespec6layoutEi
00000001dd33a50c (__TEXT,__text) non-external (was a private external) __ZN10Splinespec6selectEv
00000001dd33a808 (__TEXT,__text) non-external (was a private external) __ZN10Splinespec9kspecinitER10KnotvectorS1_
00000001dd33a704 (__TEXT,__text) non-external (was a private external) __ZN10Splinespec9transformEv
00000001dd33a8c8 (__TEXT,__text) non-external (was a private external) __ZN10SplinespecD2Ev
00000001dd32df64 (__TEXT,__text) non-external (was a private external) __ZN10Subdivider10ccwTurn_slEP3ArcS1_
00000001dd32dd24 (__TEXT,__text) non-external (was a private external) __ZN10Subdivider10ccwTurn_srEP3ArcS1_
00000001dd32e414 (__TEXT,__text) non-external (was a private external) __ZN10Subdivider10ccwTurn_tlEP3ArcS1_
00000001dd32e1ac (__TEXT,__text) non-external (was a private external) __ZN10Subdivider10ccwTurn_trEP3ArcS1_
00000001dd32ed0c (__TEXT,__text) non-external (was a private external) __ZN10Subdivider10drawCurvesEv
00000001dd3329a0 (__TEXT,__text) non-external (was a private external) __ZN10Subdivider10monotonizeEP3ArcR3Bin
00000001dd3328b4 (__TEXT,__text) non-external (was a private external) __ZN10Subdivider10tessellateEP3Arcf
00000001dd339fd4 (__TEXT,__text) non-external (was a private external) __ZN10Subdivider10tessellateER3Binffff
00000001dd338e80 (__TEXT,__text) non-external (was a private external) __ZN10Subdivider11beginQuiltsEv
00000001dd338e98 (__TEXT,__text) non-external (was a private external) __ZN10Subdivider12drawSurfacesEi
00000001dd339e6c (__TEXT,__text) non-external (was a private external) __ZN10Subdivider12monosplitInSER3Binii
00000001dd33a25c (__TEXT,__text) non-external (was a private external) __ZN10Subdivider12monosplitInTER3Binii
00000001dd339410 (__TEXT,__text) non-external (was a private external) __ZN10Subdivider12subdivideInSER3Bin
00000001dd339ac0 (__TEXT,__text) non-external (was a private external) __ZN10Subdivider12tessellationER3BinR9Patchlist
00000001dd3398e0 (__TEXT,__text) non-external (was a private external) __ZN10Subdivider13samplingSplitER3BinR9Patchlistii
00000001dd32edf4 (__TEXT,__text) non-external (was a private external) __ZN10Subdivider13samplingSplitER9Curvelisti
00000001dd338bc0 (__TEXT,__text) non-external (was a private external) __ZN10Subdivider13setJumpbufferEP10JumpBuffer
00000001dd339d44 (__TEXT,__text) non-external (was a private external) __ZN10Subdivider14findIrregularSER3Bin
00000001dd33a128 (__TEXT,__text) non-external (was a private external) __ZN10Subdivider14findIrregularTER3Bin
00000001dd3391a0 (__TEXT,__text) non-external (was a private external) __ZN10Subdivider14makeBorderTrimEPKfS1_
00000001dd339b4c (__TEXT,__text) non-external (was a private external) __ZN10Subdivider16nonSamplingSplitER3BinR9Patchlistii
00000001dd32f998 (__TEXT,__text) non-external (was a private external) __ZN10Subdivider21classify_headonleft_sER3BinS1_S1_f
00000001dd32fd08 (__TEXT,__text) non-external (was a private external) __ZN10Subdivider21classify_headonleft_tER3BinS1_S1_f
00000001dd32fa74 (__TEXT,__text) non-external (was a private external) __ZN10Subdivider21classify_tailonleft_sER3BinS1_S1_f
00000001dd32fde4 (__TEXT,__text) non-external (was a private external) __ZN10Subdivider21classify_tailonleft_tER3BinS1_S1_f
00000001dd32fb50 (__TEXT,__text) non-external (was a private external) __ZN10Subdivider22classify_headonright_sER3BinS1_S1_f
00000001dd32fec0 (__TEXT,__text) non-external (was a private external) __ZN10Subdivider22classify_headonright_tER3BinS1_S1_f
00000001dd32fc2c (__TEXT,__text) non-external (was a private external) __ZN10Subdivider22classify_tailonright_sER3BinS1_S1_f
00000001dd32ff9c (__TEXT,__text) non-external (was a private external) __ZN10Subdivider22classify_tailonright_tER3BinS1_S1_f
00000001dd338bc8 (__TEXT,__text) non-external (was a private external) __ZN10Subdivider5clearEv
00000001dd3382bc (__TEXT,__text) non-external (was a private external) __ZN10Subdivider5splitER3BinS1_S1_if
00000001dd338c9c (__TEXT,__text) non-external (was a private external) __ZN10Subdivider6addArcEPfP5Quilti
00000001dd338d90 (__TEXT,__text) non-external (was a private external) __ZN10Subdivider6addArcEiP10TrimVertexi
00000001dd338618 (__TEXT,__text) non-external (was a private external) __ZN10Subdivider6join_sER3BinS1_P3ArcS3_
00000001dd3388b4 (__TEXT,__text) non-external (was a private external) __ZN10Subdivider6join_tER3BinS1_P3ArcS3_
00000001dd33a37c (__TEXT,__text) non-external (was a private external) __ZN10Subdivider6renderER3Bin
00000001dd3385b0 (__TEXT,__text) non-external (was a private external) __ZN10Subdivider7check_sEP3ArcS1_
00000001dd33884c (__TEXT,__text) non-external (was a private external) __ZN10Subdivider7check_tEP3ArcS1_
00000001dd3394a4 (__TEXT,__text) non-external (was a private external) __ZN10Subdivider7outlineER3Bin
00000001dd338e88 (__TEXT,__text) non-external (was a private external) __ZN10Subdivider8addQuiltEP5Quilt
00000001dd339558 (__TEXT,__text) non-external (was a private external) __ZN10Subdivider8splitInSER3Binii
00000001dd3396d0 (__TEXT,__text) non-external (was a private external) __ZN10Subdivider8splitInTER3Binii
00000001dd32f5b4 (__TEXT,__text) non-external (was a private external) __ZN10Subdivider9arc_splitEP3Arcifi
00000001dd3327f0 (__TEXT,__text) non-external (was a private external) __ZN10Subdivider9decomposeER3Binf
00000001dd33911c (__TEXT,__text) non-external (was a private external) __ZN10Subdivider9freejarcsER3Bin
00000001dd32f2ec (__TEXT,__text) non-external (was a private external) __ZN10Subdivider9partitionER3BinS1_S1_S1_S1_if
00000001dd338bbc (__TEXT,__text) non-external (was a private external) __ZN10SubdividerC1ER11RenderhintsR7Backend
00000001dd338ae8 (__TEXT,__text) non-external (was a private external) __ZN10SubdividerC2ER11RenderhintsR7Backend
00000001dd338c98 (__TEXT,__text) non-external (was a private external) __ZN10SubdividerD1Ev
00000001dd338c14 (__TEXT,__text) non-external (was a private external) __ZN10SubdividerD2Ev
00000001dd33b3fc (__TEXT,__text) non-external (was a private external) __ZN10TrimRegion5setDuEf
00000001dd33b380 (__TEXT,__text) non-external (was a private external) __ZN10TrimRegionC2Ev
00000001dd33b3b8 (__TEXT,__text) non-external (was a private external) __ZN10TrimRegionD2Ev
00000001dd33e0c8 (__TEXT,__text) non-external (was a private external) __ZN10primStream3endEi
00000001dd33dff4 (__TEXT,__text) non-external (was a private external) __ZN10primStream5beginEv
00000001dd33dffc (__TEXT,__text) non-external (was a private external) __ZN10primStream6insertEff
00000001dd33c738 (__TEXT,__text) non-external (was a private external) __ZN10primStream8triangleEPfS0_S0_
00000001dd33e254 (__TEXT,__text) non-external (was a private external) __ZN10primStreamC1Eii
00000001dd33e1c8 (__TEXT,__text) non-external (was a private external) __ZN10primStreamC2Eii
00000001dd33e294 (__TEXT,__text) non-external (was a private external) __ZN10primStreamD1Ev
00000001dd33e258 (__TEXT,__text) non-external (was a private external) __ZN10primStreamD2Ev
00000001dd32eeec (__TEXT,__text) non-external (was a private external) __ZN11DisplayList6appendEM16NurbsTessellatorFvPvES1_S3_
00000001dd32f1dc (__TEXT,__text) non-external (was a private external) __ZN11FlistSorter5qscmpEPcS0_
00000001dd32f1f4 (__TEXT,__text) non-external (was a private external) __ZN11FlistSorter5qsexcEPcS0_
00000001dd32f1d8 (__TEXT,__text) non-external (was a private external) __ZN11FlistSorter5qsortEPfi
00000001dd32f208 (__TEXT,__text) non-external (was a private external) __ZN11FlistSorter6qstexcEPcS0_S0_
00000001dd32f1a0 (__TEXT,__text) non-external (was a private external) __ZN11FlistSorterC1Ev
00000001dd32f228 (__TEXT,__text) non-external (was a private external) __ZN11FlistSorterD0Ev
00000001dd32f224 (__TEXT,__text) non-external (was a private external) __ZN11FlistSorterD1Ev
00000001dd336834 (__TEXT,__text) non-external (was a private external) __ZN11Renderhints10isPropertyEi
00000001dd336858 (__TEXT,__text) non-external (was a private external) __ZN11Renderhints11getPropertyEi
00000001dd3368d4 (__TEXT,__text) non-external (was a private external) __ZN11Renderhints11setPropertyEif
00000001dd3367d0 (__TEXT,__text) non-external (was a private external) __ZN11Renderhints4initEv
00000001dd3367c0 (__TEXT,__text) non-external (was a private external) __ZN11RenderhintsC1Ev
00000001dd33cf00 (__TEXT,__text) non-external (was a private external) __ZN11reflexChain16processNewVertexEPfP10primStream
00000001dd332214 (__TEXT,__text) non-external (was a private external) __ZN11reflexChain16processNewVertexEPfP7Backend
00000001dd33da64 (__TEXT,__text) non-external (was a private external) __ZN11reflexChain6insertEPf
00000001dd33d9a4 (__TEXT,__text) non-external (was a private external) __ZN11reflexChain6insertEff
00000001dd33d07c (__TEXT,__text) non-external (was a private external) __ZN11reflexChain9outputFanEPfP10primStream
00000001dd332148 (__TEXT,__text) non-external (was a private external) __ZN11reflexChain9outputFanEPfP7Backend
00000001dd33cefc (__TEXT,__text) non-external (was a private external) __ZN11reflexChainC1Eii
00000001dd33d94c (__TEXT,__text) non-external (was a private external) __ZN11reflexChainC2Eii
00000001dd33d050 (__TEXT,__text) non-external (was a private external) __ZN11reflexChainD1Ev
00000001dd343a54 (__TEXT,__text) non-external (was a private external) __ZN11sampledLine8setPointEiPf
00000001dd343bd8 (__TEXT,__text) non-external (was a private external) __ZN11sampledLineC1EPfS0_
00000001dd343ae0 (__TEXT,__text) non-external (was a private external) __ZN11sampledLineC1Ei
00000001dd343b5c (__TEXT,__text) non-external (was a private external) __ZN11sampledLineC1EiPA2_f
00000001dd343b60 (__TEXT,__text) non-external (was a private external) __ZN11sampledLineC2EPfS0_
00000001dd343a9c (__TEXT,__text) non-external (was a private external) __ZN11sampledLineC2Ei
00000001dd343ae4 (__TEXT,__text) non-external (was a private external) __ZN11sampledLineC2EiPA2_f
00000001dd343a70 (__TEXT,__text) non-external (was a private external) __ZN11sampledLineD1Ev
00000001dd33d150 (__TEXT,__text) non-external (was a private external) __ZN11vertexArray12appendVertexEPf
00000001dd33d888 (__TEXT,__text) non-external (was a private external) __ZN11vertexArray17findIndexAboveGenEfii
00000001dd33d748 (__TEXT,__text) non-external (was a private external) __ZN11vertexArray17findIndexBelowGenEfii
00000001dd33d8ec (__TEXT,__text) non-external (was a private external) __ZN11vertexArray21skipEqualityFromStartEfii
00000001dd33d7a8 (__TEXT,__text) non-external (was a private external) __ZN11vertexArray23findIndexStrictBelowGenEfii
00000001dd33d808 (__TEXT,__text) non-external (was a private external) __ZN11vertexArray27findIndexFirstAboveEqualGenEfii
00000001dd33d14c (__TEXT,__text) non-external (was a private external) __ZN11vertexArrayC1Ei
00000001dd33d700 (__TEXT,__text) non-external (was a private external) __ZN11vertexArrayC2Ei
00000001dd33d4e4 (__TEXT,__text) non-external (was a private external) __ZN11vertexArrayD1Ev
00000001dd32e674 (__TEXT,__text) non-external (was a private external) __ZN12CoveAndTilerC2ER7Backend
00000001dd32e698 (__TEXT,__text) non-external (was a private external) __ZN12CoveAndTilerD2Ev
00000001dd33b8ec (__TEXT,__text) non-external (was a private external) __ZN12directedLine23connectDiagonal_2slinesEPS_S0_PS0_S1_S0_
00000001dd33b788 (__TEXT,__text) non-external (was a private external) __ZN12directedLine28deleteSinglePolygonWithSlineEv
00000001dd33b744 (__TEXT,__text) non-external (was a private external) __ZN12directedLine4headEv
00000001dd33b764 (__TEXT,__text) non-external (was a private external) __ZN12directedLine4tailEv
00000001dd33b82c (__TEXT,__text) non-external (was a private external) __ZN12directedLine6insertEPS_
00000001dd33b848 (__TEXT,__text) non-external (was a private external) __ZN12directedLine8numEdgesEv
00000001dd33b808 (__TEXT,__text) non-external (was a private external) __ZN12directedLine9getVertexEi
00000001dd33b7f0 (__TEXT,__text) non-external (was a private external) __ZN12directedLineC1EsP11sampledLine
00000001dd32c56c (__TEXT,__text) non-external (was a private external) __ZN13ArcSdirSorter5qscmpEPcS0_
00000001dd32c524 (__TEXT,__text) non-external (was a private external) __ZN13ArcSdirSorterC1ER10Subdivider
00000001dd32c808 (__TEXT,__text) non-external (was a private external) __ZN13ArcSdirSorterD0Ev
00000001dd32c804 (__TEXT,__text) non-external (was a private external) __ZN13ArcSdirSorterD1Ev
00000001dd32c6dc (__TEXT,__text) non-external (was a private external) __ZN13ArcTdirSorter5qscmpEPcS0_
00000001dd32c694 (__TEXT,__text) non-external (was a private external) __ZN13ArcTdirSorterC1ER10Subdivider
00000001dd32c820 (__TEXT,__text) non-external (was a private external) __ZN13ArcTdirSorterD0Ev
00000001dd32c81c (__TEXT,__text) non-external (was a private external) __ZN13ArcTdirSorterD1Ev
00000001dd32cc58 (__TEXT,__text) non-external (was a private external) __ZN14ArcTessellator10pwl_bottomEP3Arcffff
00000001dd344628 (__TEXT,__const) non-external (was a private external) __ZN14ArcTessellator12gl_BernsteinE
00000001dd32cedc (__TEXT,__text) non-external (was a private external) __ZN14ArcTessellator16tessellateLinearEP3Arcffi
00000001dd32d358 (__TEXT,__text) non-external (was a private external) __ZN14ArcTessellator17trim_power_coeffsEP9BezierArcPfi
00000001dd32cf94 (__TEXT,__text) non-external (was a private external) __ZN14ArcTessellator19tessellateNonlinearEP3Arcffi
00000001dd32cd74 (__TEXT,__text) non-external (was a private external) __ZN14ArcTessellator3pwlEP3Arcfffff
00000001dd32c840 (__TEXT,__text) non-external (was a private external) __ZN14ArcTessellator6bezierEP3Arcffff
00000001dd32cb44 (__TEXT,__text) non-external (was a private external) __ZN14ArcTessellator7pwl_topEP3Arcffff
00000001dd32c914 (__TEXT,__text) non-external (was a private external) __ZN14ArcTessellator8pwl_leftEP3Arcffff
00000001dd32ca28 (__TEXT,__text) non-external (was a private external) __ZN14ArcTessellator9pwl_rightEP3Arcffff
00000001dd32c834 (__TEXT,__text) non-external (was a private external) __ZN14ArcTessellatorC1ER14TrimVertexPoolR4Pool
00000001dd32c83c (__TEXT,__text) non-external (was a private external) __ZN14ArcTessellatorD1Ev
00000001dd33b5ac (__TEXT,__text) non-external (was a private external) __ZN14TrimVertexPool3getEi
00000001dd33b4f8 (__TEXT,__text) non-external (was a private external) __ZN14TrimVertexPool5clearEv
00000001dd33b40c (__TEXT,__text) non-external (was a private external) __ZN14TrimVertexPoolC1Ev
00000001dd33b4f4 (__TEXT,__text) non-external (was a private external) __ZN14TrimVertexPoolD1Ev
00000001dd33b46c (__TEXT,__text) non-external (was a private external) __ZN14TrimVertexPoolD2Ev
00000001dd33e46c (__TEXT,__text) non-external (was a private external) __ZN14rectBlockArray6insertEP9rectBlock
00000001dd33e3dc (__TEXT,__text) non-external (was a private external) __ZN14rectBlockArrayC1Ei
00000001dd33e370 (__TEXT,__text) non-external (was a private external) __ZN14rectBlockArrayC2Ei
00000001dd33e468 (__TEXT,__text) non-external (was a private external) __ZN14rectBlockArrayD1Ev
00000001dd33e3e0 (__TEXT,__text) non-external (was a private external) __ZN14rectBlockArrayD2Ev
00000001dd32dd14 (__TEXT,__text) non-external (was a private external) __ZN16CachingEvaluator11beginOutputENS_11ServiceModeEi
00000001dd32dd0c (__TEXT,__text) non-external (was a private external) __ZN16CachingEvaluator12createHandleEi
00000001dd32dd20 (__TEXT,__text) non-external (was a private external) __ZN16CachingEvaluator13playRecordingEi
00000001dd32dd04 (__TEXT,__text) non-external (was a private external) __ZN16CachingEvaluator16canPlayAndRecordEv
00000001dd32dd1c (__TEXT,__text) non-external (was a private external) __ZN16CachingEvaluator16discardRecordingEi
00000001dd32dcfc (__TEXT,__text) non-external (was a private external) __ZN16CachingEvaluator9canRecordEv
00000001dd32dd18 (__TEXT,__text) non-external (was a private external) __ZN16CachingEvaluator9endOutputEv
00000001dd332f6c (__TEXT,__text) non-external (was a private external) __ZN16NurbsTessellator10bgnsurfaceEi
00000001dd334600 (__TEXT,__text) non-external (was a private external) __ZN16NurbsTessellator10do_bgntrimEP6O_trim
00000001dd3346d8 (__TEXT,__text) non-external (was a private external) __ZN16NurbsTessellator10do_endtrimEv
00000001dd334484 (__TEXT,__text) non-external (was a private external) __ZN16NurbsTessellator10do_freeallEv
00000001dd33317c (__TEXT,__text) non-external (was a private external) __ZN16NurbsTessellator10endsurfaceEv
00000001dd333434 (__TEXT,__text) non-external (was a private external) __ZN16NurbsTessellator10nurbscurveEiPfiS0_ii
00000001dd333de0 (__TEXT,__text) non-external (was a private external) __ZN16NurbsTessellator11do_bgncurveEP7O_curve
00000001dd333ec4 (__TEXT,__text) non-external (was a private external) __ZN16NurbsTessellator11do_endcurveEv
00000001dd3347a8 (__TEXT,__text) non-external (was a private external) __ZN16NurbsTessellator11do_pwlcurveEP10O_pwlcurve
00000001dd334be4 (__TEXT,__text) non-external (was a private external) __ZN16NurbsTessellator12errorHandlerEi
00000001dd333624 (__TEXT,__text) non-external (was a private external) __ZN16NurbsTessellator12nurbssurfaceEiPfiS0_iiS0_iii
00000001dd333cbc (__TEXT,__text) non-external (was a private external) __ZN16NurbsTessellator12redefineMapsEv
00000001dd333d04 (__TEXT,__text) non-external (was a private external) __ZN16NurbsTessellator13do_bgnsurfaceEP9O_surface
00000001dd3341b4 (__TEXT,__text) non-external (was a private external) __ZN16NurbsTessellator13do_endsurfaceEv
00000001dd334924 (__TEXT,__text) non-external (was a private external) __ZN16NurbsTessellator13do_nurbscurveEP12O_nurbscurve
00000001dd333dbc (__TEXT,__text) non-external (was a private external) __ZN16NurbsTessellator13do_nurbserrorEi
00000001dd334be8 (__TEXT,__text) non-external (was a private external) __ZN16NurbsTessellator14do_check_knotsEP10KnotvectorPKc
00000001dd334550 (__TEXT,__text) non-external (was a private external) __ZN16NurbsTessellator14do_freebgntrimEP6O_trim
00000001dd3345f0 (__TEXT,__text) non-external (was a private external) __ZN16NurbsTessellator15do_freebgncurveEP7O_curve
00000001dd3340f0 (__TEXT,__text) non-external (was a private external) __ZN16NurbsTessellator15do_freecurveallEP7O_curve
00000001dd3345e0 (__TEXT,__text) non-external (was a private external) __ZN16NurbsTessellator15do_freepwlcurveEP10O_pwlcurve
00000001dd334a54 (__TEXT,__text) non-external (was a private external) __ZN16NurbsTessellator15do_nurbssurfaceEP14O_nurbssurface
00000001dd333af0 (__TEXT,__text) non-external (was a private external) __ZN16NurbsTessellator16getnurbspropertyEiPf
00000001dd333b68 (__TEXT,__text) non-external (was a private external) __ZN16NurbsTessellator16getnurbspropertyEiiPf
00000001dd33386c (__TEXT,__text) non-external (was a private external) __ZN16NurbsTessellator16setnurbspropertyEif
00000001dd333bfc (__TEXT,__text) non-external (was a private external) __ZN16NurbsTessellator16setnurbspropertyEiiPfii
00000001dd333998 (__TEXT,__text) non-external (was a private external) __ZN16NurbsTessellator16setnurbspropertyEiif
00000001dd333cf4 (__TEXT,__text) non-external (was a private external) __ZN16NurbsTessellator17do_freebgnsurfaceEP9O_surface
00000001dd3345a0 (__TEXT,__text) non-external (was a private external) __ZN16NurbsTessellator17do_freenurbscurveEP12O_nurbscurve
00000001dd334560 (__TEXT,__text) non-external (was a private external) __ZN16NurbsTessellator19do_freenurbssurfaceEP14O_nurbssurface
00000001dd334b4c (__TEXT,__text) non-external (was a private external) __ZN16NurbsTessellator19do_setnurbspropertyEP8Property
00000001dd334b3c (__TEXT,__text) non-external (was a private external) __ZN16NurbsTessellator20do_freenurbspropertyEP8Property
00000001dd334b94 (__TEXT,__text) non-external (was a private external) __ZN16NurbsTessellator20do_setnurbsproperty2EP8Property
00000001dd333ccc (__TEXT,__text) non-external (was a private external) __ZN16NurbsTessellator26set_domain_distance_u_rateEf
00000001dd333cd4 (__TEXT,__text) non-external (was a private external) __ZN16NurbsTessellator26set_domain_distance_v_rateEf
00000001dd333cdc (__TEXT,__text) non-external (was a private external) __ZN16NurbsTessellator31set_is_domain_distance_samplingEi
00000001dd3331b8 (__TEXT,__text) non-external (was a private external) __ZN16NurbsTessellator7bgntrimEv
00000001dd332ef4 (__TEXT,__text) non-external (was a private external) __ZN16NurbsTessellator7endtrimEv
00000001dd333ce4 (__TEXT,__text) non-external (was a private external) __ZN16NurbsTessellator7makeobjEi
00000001dd333054 (__TEXT,__text) non-external (was a private external) __ZN16NurbsTessellator8bgncurveEi
00000001dd333ce8 (__TEXT,__text) non-external (was a private external) __ZN16NurbsTessellator8closeobjEv
00000001dd333140 (__TEXT,__text) non-external (was a private external) __ZN16NurbsTessellator8endcurveEv
00000001dd333294 (__TEXT,__text) non-external (was a private external) __ZN16NurbsTessellator8pwlcurveEiPfii
00000001dd333cec (__TEXT,__text) non-external (was a private external) __ZN16NurbsTessellator9bgnrenderEv
00000001dd333cc4 (__TEXT,__text) non-external (was a private external) __ZN16NurbsTessellator9defineMapEiii
00000001dd333cf0 (__TEXT,__text) non-external (was a private external) __ZN16NurbsTessellator9endrenderEv
00000001dd332c4c (__TEXT,__text) non-external (was a private external) __ZN16NurbsTessellatorC2EP17_CGLContextObjectR19BasicCurveEvaluatorR21BasicSurfaceEvaluator
00000001dd332f34 (__TEXT,__text) non-external (was a private external) __ZN16NurbsTessellatorD0Ev
00000001dd332f30 (__TEXT,__text) non-external (was a private external) __ZN16NurbsTessellatorD1Ev
00000001dd332e04 (__TEXT,__text) non-external (was a private external) __ZN16NurbsTessellatorD2Ev
00000001dd33bf84 (__TEXT,__text) non-external (was a private external) __ZN17gridBoundaryChain10leftEndFanEiP10primStream
00000001dd33be30 (__TEXT,__text) non-external (was a private external) __ZN17gridBoundaryChain11rightEndFanEiP10primStream
00000001dd33bdec (__TEXT,__text) non-external (was a private external) __ZN17gridBoundaryChain7lookforEfii
00000001dd33bde8 (__TEXT,__text) non-external (was a private external) __ZN17gridBoundaryChainC1EP8gridWrapiiPiS2_
00000001dd33bce4 (__TEXT,__text) non-external (was a private external) __ZN17gridBoundaryChainC2EP8gridWrapiiPiS2_
00000001dd327324 (__TEXT,__text) non-external (was a private external) __ZN20OpenGLCurveEvaluator11endCallBackEPv
00000001dd32749c (__TEXT,__text) non-external (was a private external) __ZN20OpenGLCurveEvaluator11evalcoord1fEif
00000001dd32a40c (__TEXT,__text) non-external (was a private external) __ZN20OpenGLCurveEvaluator11inDoDomain1EP16curveEvalMachinefPf
00000001dd32a5d8 (__TEXT,__text) non-external (was a private external) __ZN20OpenGLCurveEvaluator11inMapMesh1fEii
00000001dd3274ac (__TEXT,__text) non-external (was a private external) __ZN20OpenGLCurveEvaluator11putCallBackEj13GLUdescriptor
00000001dd3272b0 (__TEXT,__text) non-external (was a private external) __ZN20OpenGLCurveEvaluator13beginCallBackEjPv
00000001dd327618 (__TEXT,__text) non-external (was a private external) __ZN20OpenGLCurveEvaluator13colorCallBackEPKfPv
00000001dd32a2ec (__TEXT,__text) non-external (was a private external) __ZN20OpenGLCurveEvaluator13inPreEvaluateEifPf
00000001dd32a4d8 (__TEXT,__text) non-external (was a private external) __ZN20OpenGLCurveEvaluator14inDoEvalCoord1Ef
00000001dd3275c4 (__TEXT,__text) non-external (was a private external) __ZN20OpenGLCurveEvaluator14normalCallBackEPKfPv
00000001dd327570 (__TEXT,__text) non-external (was a private external) __ZN20OpenGLCurveEvaluator14vertexCallBackEPKfPv
00000001dd32766c (__TEXT,__text) non-external (was a private external) __ZN20OpenGLCurveEvaluator16texcoordCallBackEPKfPv
00000001dd327400 (__TEXT,__text) non-external (was a private external) __ZN20OpenGLCurveEvaluator5map1fEiffiiPf
00000001dd327378 (__TEXT,__text) non-external (was a private external) __ZN20OpenGLCurveEvaluator6enableEi
00000001dd327288 (__TEXT,__text) non-external (was a private external) __ZN20OpenGLCurveEvaluator7bgnlineEv
00000001dd327368 (__TEXT,__text) non-external (was a private external) __ZN20OpenGLCurveEvaluator7disableEi
00000001dd327304 (__TEXT,__text) non-external (was a private external) __ZN20OpenGLCurveEvaluator7endlineEv
00000001dd32a364 (__TEXT,__text) non-external (was a private external) __ZN20OpenGLCurveEvaluator7inMap1fEiiffiiPf
00000001dd3273b8 (__TEXT,__text) non-external (was a private external) __ZN20OpenGLCurveEvaluator8bgnmap1fEi
00000001dd3273e4 (__TEXT,__text) non-external (was a private external) __ZN20OpenGLCurveEvaluator8endmap1fEv
00000001dd327388 (__TEXT,__text) non-external (was a private external) __ZN20OpenGLCurveEvaluator9mapgrid1fEiff
00000001dd327464 (__TEXT,__text) non-external (was a private external) __ZN20OpenGLCurveEvaluator9mapmesh1fEiii
00000001dd327214 (__TEXT,__text) non-external (was a private external) __ZN20OpenGLCurveEvaluatorC1Ev
00000001dd327274 (__TEXT,__text) non-external (was a private external) __ZN20OpenGLCurveEvaluatorD0Ev
00000001dd327270 (__TEXT,__text) non-external (was a private external) __ZN20OpenGLCurveEvaluatorD1Ev
00000001dd328fc4 (__TEXT,__text) non-external (was a private external) __ZN22OpenGLSurfaceEvaluator10evalUStripEifPfifS0_
00000001dd32935c (__TEXT,__text) non-external (was a private external) __ZN22OpenGLSurfaceEvaluator10evalVStripEifPfifS0_
00000001dd32a108 (__TEXT,__text) non-external (was a private external) __ZN22OpenGLSurfaceEvaluator11endCallBackEPv
00000001dd329d48 (__TEXT,__text) non-external (was a private external) __ZN22OpenGLSurfaceEvaluator11evalcoord2fEiff
00000001dd329e60 (__TEXT,__text) non-external (was a private external) __ZN22OpenGLSurfaceEvaluator11evalpoint2iEii
00000001dd32c194 (__TEXT,__text) non-external (was a private external) __ZN22OpenGLSurfaceEvaluator11inBPMEvalEMEP15bezierPatchMesh
00000001dd329ff0 (__TEXT,__text) non-external (was a private external) __ZN22OpenGLSurfaceEvaluator11putCallBackEj13GLUdescriptor
00000001dd329d4c (__TEXT,__text) non-external (was a private external) __ZN22OpenGLSurfaceEvaluator12newtmeshvertEff
00000001dd329e64 (__TEXT,__text) non-external (was a private external) __ZN22OpenGLSurfaceEvaluator12newtmeshvertEii
00000001dd32a0b4 (__TEXT,__text) non-external (was a private external) __ZN22OpenGLSurfaceEvaluator13beginCallBackEjPv
00000001dd328ec4 (__TEXT,__text) non-external (was a private external) __ZN22OpenGLSurfaceEvaluator13bgnclosedlineEv
00000001dd32a1f4 (__TEXT,__text) non-external (was a private external) __ZN22OpenGLSurfaceEvaluator13colorCallBackEPKfPv
00000001dd328eec (__TEXT,__text) non-external (was a private external) __ZN22OpenGLSurfaceEvaluator13endclosedlineEv
00000001dd32bb5c (__TEXT,__text) non-external (was a private external) __ZN22OpenGLSurfaceEvaluator13inDoDomain2EMEP15surfEvalMachineffPf
00000001dd32b830 (__TEXT,__text) non-external (was a private external) __ZN22OpenGLSurfaceEvaluator13inPreEvaluateEifPf
00000001dd32a1a0 (__TEXT,__text) non-external (was a private external) __ZN22OpenGLSurfaceEvaluator14normalCallBackEPKfPv
00000001dd32a14c (__TEXT,__text) non-external (was a private external) __ZN22OpenGLSurfaceEvaluator14vertexCallBackEPKfPv
00000001dd32c314 (__TEXT,__text) non-external (was a private external) __ZN22OpenGLSurfaceEvaluator15inBPMListEvalEMEP15bezierPatchMesh
00000001dd32b6f0 (__TEXT,__text) non-external (was a private external) __ZN22OpenGLSurfaceEvaluator15inPreEvaluateBUEiiifPf
00000001dd32b4a0 (__TEXT,__text) non-external (was a private external) __ZN22OpenGLSurfaceEvaluator15inPreEvaluateBVEiiifPf
00000001dd32bcac (__TEXT,__text) non-external (was a private external) __ZN22OpenGLSurfaceEvaluator16inDoEvalCoord2EMEff
00000001dd32a248 (__TEXT,__text) non-external (was a private external) __ZN22OpenGLSurfaceEvaluator16texcoordCallBackEPKfPv
00000001dd32b16c (__TEXT,__text) non-external (was a private external) __ZN22OpenGLSurfaceEvaluator18inDoEvalCoord2NOGEEffPfS0_
00000001dd32a6f0 (__TEXT,__text) non-external (was a private external) __ZN22OpenGLSurfaceEvaluator21inDoDomain2WithDerivsEiffffiffiPfS0_S0_S0_
00000001dd32a8b4 (__TEXT,__text) non-external (was a private external) __ZN22OpenGLSurfaceEvaluator21inDoEvalCoord2NOGE_BUEffPfS0_
00000001dd32ad10 (__TEXT,__text) non-external (was a private external) __ZN22OpenGLSurfaceEvaluator21inDoEvalCoord2NOGE_BVEffPfS0_
00000001dd32a2c4 (__TEXT,__text) non-external (was a private external) __ZN22OpenGLSurfaceEvaluator22inPreEvaluateBU_intfacEf
00000001dd32a29c (__TEXT,__text) non-external (was a private external) __ZN22OpenGLSurfaceEvaluator22inPreEvaluateBV_intfacEf
00000001dd32b5c8 (__TEXT,__text) non-external (was a private external) __ZN22OpenGLSurfaceEvaluator22inPreEvaluateWithDerivEifPfS0_
00000001dd32abe0 (__TEXT,__text) non-external (was a private external) __ZN22OpenGLSurfaceEvaluator23inDoDomain2WithDerivsBUEiffffiffiPfS0_S0_S0_
00000001dd32b03c (__TEXT,__text) non-external (was a private external) __ZN22OpenGLSurfaceEvaluator23inDoDomain2WithDerivsBVEiffffiffiPfS0_S0_S0_
00000001dd32b9a4 (__TEXT,__text) non-external (was a private external) __ZN22OpenGLSurfaceEvaluator23inDoDomain2WithDerivsEMEP15surfEvalMachineffPfS2_S2_
00000001dd329858 (__TEXT,__text) non-external (was a private external) __ZN22OpenGLSurfaceEvaluator5map2fEiffiiffiiPf
00000001dd328df0 (__TEXT,__text) non-external (was a private external) __ZN22OpenGLSurfaceEvaluator6enableEi
00000001dd328e7c (__TEXT,__text) non-external (was a private external) __ZN22OpenGLSurfaceEvaluator7bgnlineEv
00000001dd328f7c (__TEXT,__text) non-external (was a private external) __ZN22OpenGLSurfaceEvaluator7bgntfanEv
00000001dd32933c (__TEXT,__text) non-external (was a private external) __ZN22OpenGLSurfaceEvaluator7coord2fEff
00000001dd328de0 (__TEXT,__text) non-external (was a private external) __ZN22OpenGLSurfaceEvaluator7disableEi
00000001dd328ea4 (__TEXT,__text) non-external (was a private external) __ZN22OpenGLSurfaceEvaluator7endlineEv
00000001dd328fa4 (__TEXT,__text) non-external (was a private external) __ZN22OpenGLSurfaceEvaluator7endtfanEv
00000001dd329f80 (__TEXT,__text) non-external (was a private external) __ZN22OpenGLSurfaceEvaluator7point2iEii
00000001dd32971c (__TEXT,__text) non-external (was a private external) __ZN22OpenGLSurfaceEvaluator8bgnmap2fEi
00000001dd328f0c (__TEXT,__text) non-external (was a private external) __ZN22OpenGLSurfaceEvaluator8bgntmeshEv
00000001dd3297c0 (__TEXT,__text) non-external (was a private external) __ZN22OpenGLSurfaceEvaluator8endmap2fEv
00000001dd328f58 (__TEXT,__text) non-external (was a private external) __ZN22OpenGLSurfaceEvaluator8endtmeshEv
00000001dd328e44 (__TEXT,__text) non-external (was a private external) __ZN22OpenGLSurfaceEvaluator8polymodeEi
00000001dd3296d4 (__TEXT,__text) non-external (was a private external) __ZN22OpenGLSurfaceEvaluator9bgnqstripEv
00000001dd3296fc (__TEXT,__text) non-external (was a private external) __ZN22OpenGLSurfaceEvaluator9endqstripEv
00000001dd32b8a8 (__TEXT,__text) non-external (was a private external) __ZN22OpenGLSurfaceEvaluator9inMap2fEMEiiffiiffiiPf
00000001dd328e00 (__TEXT,__text) non-external (was a private external) __ZN22OpenGLSurfaceEvaluator9mapgrid2fEiffiff
00000001dd329a3c (__TEXT,__text) non-external (was a private external) __ZN22OpenGLSurfaceEvaluator9mapmesh2fEiiiii
00000001dd328f44 (__TEXT,__text) non-external (was a private external) __ZN22OpenGLSurfaceEvaluator9swaptmeshEv
00000001dd328d30 (__TEXT,__text) non-external (was a private external) __ZN22OpenGLSurfaceEvaluatorC1Ev
00000001dd328c20 (__TEXT,__text) non-external (was a private external) __ZN22OpenGLSurfaceEvaluatorC2Ev
00000001dd328da8 (__TEXT,__text) non-external (was a private external) __ZN22OpenGLSurfaceEvaluatorD0Ev
00000001dd328da4 (__TEXT,__text) non-external (was a private external) __ZN22OpenGLSurfaceEvaluatorD1Ev
00000001dd328d34 (__TEXT,__text) non-external (was a private external) __ZN22OpenGLSurfaceEvaluatorD2Ev
00000001dd344608 (__TEXT,__const) non-external (was a private external) __ZN3Arc10bezier_tagE
00000001dd32c404 (__TEXT,__text) non-external (was a private external) __ZN3Arc14isDisconnectedEv
00000001dd32c4c8 (__TEXT,__text) non-external (was a private external) __ZN3Arc6appendEPS_
00000001dd34460c (__TEXT,__const) non-external (was a private external) __ZN3Arc7arc_tagE
00000001dd32c364 (__TEXT,__text) non-external (was a private external) __ZN3Arc8makeSideEP6PwlArc8arc_side
00000001dd344610 (__TEXT,__const) non-external (was a private external) __ZN3Arc8tail_tagE
00000001dd32c380 (__TEXT,__text) non-external (was a private external) __ZN3Arc9markvertsEv
00000001dd32d9e0 (__TEXT,__text) non-external (was a private external) __ZN3Bin15remove_this_arcEP3Arc
00000001dd32da4c (__TEXT,__text) non-external (was a private external) __ZN3Bin5adoptEv
00000001dd32dae4 (__TEXT,__text) non-external (was a private external) __ZN3Bin7markallEv
00000001dd32da24 (__TEXT,__text) non-external (was a private external) __ZN3Bin7numarcsEv
00000001dd32d9d4 (__TEXT,__text) non-external (was a private external) __ZN3BinC1Ev
00000001dd32d9dc (__TEXT,__text) non-external (was a private external) __ZN3BinD1Ev
00000001dd32f23c (__TEXT,__text) non-external (was a private external) __ZN4HullC2Ev
00000001dd32f294 (__TEXT,__text) non-external (was a private external) __ZN4HullD2Ev
00000001dd32dbf0 (__TEXT,__text) non-external (was a private external) __ZN4Pool4growEv
00000001dd32dc5c (__TEXT,__text) non-external (was a private external) __ZN4Pool5clearEv
00000001dd32db30 (__TEXT,__text) non-external (was a private external) __ZN4PoolC1EiiPKc
00000001dd32dbec (__TEXT,__text) non-external (was a private external) __ZN4PoolD1Ev
00000001dd32db6c (__TEXT,__text) non-external (was a private external) __ZN4PoolD2Ev
00000001dd32e90c (__TEXT,__text) non-external (was a private external) __ZN5Curve11getstepsizeEv
00000001dd32ea88 (__TEXT,__text) non-external (was a private external) __ZN5Curve24needsSamplingSubdivisionEv
00000001dd32e8e8 (__TEXT,__text) non-external (was a private external) __ZN5Curve5clampEv
00000001dd32ea9c (__TEXT,__text) non-external (was a private external) __ZN5Curve9cullCheckEv
00000001dd32e81c (__TEXT,__text) non-external (was a private external) __ZN5CurveC1EP5QuiltffPS_
00000001dd32e818 (__TEXT,__text) non-external (was a private external) __ZN5CurveC1ERS_fPS_
00000001dd32e69c (__TEXT,__text) non-external (was a private external) __ZN5CurveC2EP5QuiltffPS_
00000001dd32e820 (__TEXT,__text) non-external (was a private external) __ZN5CurveC2ERS_fPS_
00000001dd32f004 (__TEXT,__text) non-external (was a private external) __ZN5Flist3addEf
00000001dd32f0b4 (__TEXT,__text) non-external (was a private external) __ZN5Flist4growEi
00000001dd32f134 (__TEXT,__text) non-external (was a private external) __ZN5Flist5taperEff
00000001dd32f01c (__TEXT,__text) non-external (was a private external) __ZN5Flist6filterEv
00000001dd32ef88 (__TEXT,__text) non-external (was a private external) __ZN5FlistC1Ev
00000001dd32efbc (__TEXT,__text) non-external (was a private external) __ZN5FlistD1Ev
00000001dd33535c (__TEXT,__text) non-external (was a private external) __ZN5Patch11getstepsizeEv
00000001dd334ff4 (__TEXT,__text) non-external (was a private external) __ZN5Patch19checkBboxConstraintEv
00000001dd335bb0 (__TEXT,__text) non-external (was a private external) __ZN5Patch27needsNonSamplingSubdivisionEv
00000001dd335358 (__TEXT,__text) non-external (was a private external) __ZN5Patch4bboxEv
00000001dd3352c8 (__TEXT,__text) non-external (was a private external) __ZN5Patch5clampEv
00000001dd335bb8 (__TEXT,__text) non-external (was a private external) __ZN5Patch9cullCheckEv
00000001dd335050 (__TEXT,__text) non-external (was a private external) __ZN5PatchC1EP5QuiltPfS2_PS_
00000001dd334ff0 (__TEXT,__text) non-external (was a private external) __ZN5PatchC1ERS_ifPS_
00000001dd334c70 (__TEXT,__text) non-external (was a private external) __ZN5PatchC2EP5QuiltPfS2_PS_
00000001dd335054 (__TEXT,__text) non-external (was a private external) __ZN5PatchC2ERS_ifPS_
00000001dd336210 (__TEXT,__text) non-external (was a private external) __ZN5Quilt11downloadAllEPfS0_R7Backend
00000001dd3364ec (__TEXT,__text) non-external (was a private external) __ZN5Quilt15findSampleRatesER5FlistS1_
00000001dd3360a0 (__TEXT,__text) non-external (was a private external) __ZN5Quilt6selectEPfS0_
00000001dd336004 (__TEXT,__text) non-external (was a private external) __ZN5Quilt8deleteMeER4Pool
00000001dd33613c (__TEXT,__text) non-external (was a private external) __ZN5Quilt8downloadER7Backend
00000001dd336458 (__TEXT,__text) non-external (was a private external) __ZN5Quilt8getRangeEPfS0_R5Flist
00000001dd3362bc (__TEXT,__text) non-external (was a private external) __ZN5Quilt8getRangeEPfS0_R5FlistS2_
00000001dd336320 (__TEXT,__text) non-external (was a private external) __ZN5Quilt8getRangeEPfS0_iR5Flist
00000001dd336270 (__TEXT,__text) non-external (was a private external) __ZN5Quilt8isCulledEv
00000001dd33a440 (__TEXT,__text) non-external (was a private external) __ZN5Quilt8toBezierER10KnotvectorPfi
00000001dd33a780 (__TEXT,__text) non-external (was a private external) __ZN5Quilt8toBezierER10KnotvectorS1_Pfi
00000001dd336464 (__TEXT,__text) non-external (was a private external) __ZN5Quilt9findRatesER5FlistS1_Pf
00000001dd335ffc (__TEXT,__text) non-external (was a private external) __ZN5QuiltC1EP7Mapdesc
00000001dd332044 (__TEXT,__text) non-external (was a private external) __ZN6MesherC2ER7Backend
00000001dd3320c8 (__TEXT,__text) non-external (was a private external) __ZN6MesherD2Ev
00000001dd336c94 (__TEXT,__text) non-external (was a private external) __ZN6Slicer10evalStreamEP10primStream
00000001dd336bc4 (__TEXT,__text) non-external (was a private external) __ZN6Slicer11evalRBArrayEP14rectBlockArrayP8gridWrap
00000001dd337628 (__TEXT,__text) non-external (was a private external) __ZN6Slicer11setisolinesEi
00000001dd337630 (__TEXT,__text) non-external (was a private external) __ZN6Slicer20setstriptessellationEff
00000001dd337558 (__TEXT,__text) non-external (was a private external) __ZN6Slicer5sliceEP3Arc
00000001dd337648 (__TEXT,__text) non-external (was a private external) __ZN6Slicer7outlineEP3Arc
00000001dd336da0 (__TEXT,__text) non-external (was a private external) __ZN6Slicer9slice_newEP3Arc
00000001dd33755c (__TEXT,__text) non-external (was a private external) __ZN6SlicerC1ER7Backend
00000001dd3375dc (__TEXT,__text) non-external (was a private external) __ZN6SlicerD1Ev
00000001dd337fd0 (__TEXT,__text) non-external (was a private external) __ZN6Sorter3qs1EPcS0_
00000001dd338294 (__TEXT,__text) non-external (was a private external) __ZN6Sorter5qscmpEPcS0_
00000001dd33829c (__TEXT,__text) non-external (was a private external) __ZN6Sorter5qsexcEPcS0_
00000001dd337fc4 (__TEXT,__text) non-external (was a private external) __ZN6Sorter5qsortEPvi
00000001dd3382a0 (__TEXT,__text) non-external (was a private external) __ZN6Sorter6qstexcEPcS0_S0_
00000001dd337fa0 (__TEXT,__text) non-external (was a private external) __ZN6SorterC2Ei
00000001dd3382a8 (__TEXT,__text) non-external (was a private external) __ZN6SorterD0Ev
00000001dd3382a4 (__TEXT,__text) non-external (was a private external) __ZN6SorterD1Ev
00000001dd33b6f8 (__TEXT,__text) non-external (was a private external) __ZN6UarrayC1Ev
00000001dd33b704 (__TEXT,__text) non-external (was a private external) __ZN6UarrayD1Ev
00000001dd32d6e8 (__TEXT,__text) non-external (was a private external) __ZN7Backend10bgnoutlineEv
00000001dd32d744 (__TEXT,__text) non-external (was a private external) __ZN7Backend10endoutlineEv
00000001dd32d63c (__TEXT,__text) non-external (was a private external) __ZN7Backend10evalUStripEifPfifS0_
00000001dd32d664 (__TEXT,__text) non-external (was a private external) __ZN7Backend10evalVStripEifPfifS0_
00000001dd32d88c (__TEXT,__text) non-external (was a private external) __ZN7Backend7bgncurvEv
00000001dd32d3dc (__TEXT,__text) non-external (was a private external) __ZN7Backend7bgnsurfEiii
00000001dd32d59c (__TEXT,__text) non-external (was a private external) __ZN7Backend7bgntfanEv
00000001dd32d8b8 (__TEXT,__text) non-external (was a private external) __ZN7Backend7curvptsEiPfiiff
00000001dd32d9ac (__TEXT,__text) non-external (was a private external) __ZN7Backend7endcurvEv
00000001dd32d574 (__TEXT,__text) non-external (was a private external) __ZN7Backend7endsurfEv
00000001dd32d5c4 (__TEXT,__text) non-external (was a private external) __ZN7Backend7endtfanEv
00000001dd32d46c (__TEXT,__text) non-external (was a private external) __ZN7Backend7surfptsEiPfiiiiffff
00000001dd32d94c (__TEXT,__text) non-external (was a private external) __ZN7Backend8curvgridEffi
00000001dd32d974 (__TEXT,__text) non-external (was a private external) __ZN7Backend8curvmeshEii
00000001dd32d710 (__TEXT,__text) non-external (was a private external) __ZN7Backend8linevertEP10TrimVertex
00000001dd32d504 (__TEXT,__text) non-external (was a private external) __ZN7Backend8surfgridEffiffi
00000001dd32d52c (__TEXT,__text) non-external (was a private external) __ZN7Backend8surfmeshEiiii
00000001dd32d76c (__TEXT,__text) non-external (was a private external) __ZN7Backend8triangleEP10TrimVertexS1_S1_
00000001dd32d5ec (__TEXT,__text) non-external (was a private external) __ZN7Backend9bgnqstripEv
00000001dd32d614 (__TEXT,__text) non-external (was a private external) __ZN7Backend9endqstripEv
00000001dd32d68c (__TEXT,__text) non-external (was a private external) __ZN7Backend9tmeshvertEP10TrimVertex
00000001dd32d6bc (__TEXT,__text) non-external (was a private external) __ZN7Backend9tmeshvertEff
00000001dd3313b8 (__TEXT,__text) non-external (was a private external) __ZN7Mapdesc10bboxTooBigEPfiiiiPA5_f
00000001dd331674 (__TEXT,__text) non-external (was a private external) __ZN7Mapdesc10isPropertyEi
00000001dd331698 (__TEXT,__text) non-external (was a private external) __ZN7Mapdesc11getPropertyEi
00000001dd331770 (__TEXT,__text) non-external (was a private external) __ZN7Mapdesc11setPropertyEif
00000001dd330df0 (__TEXT,__text) non-external (was a private external) __ZN7Mapdesc12xformCullingEPfiiS0_i
00000001dd330e0c (__TEXT,__text) non-external (was a private external) __ZN7Mapdesc12xformCullingEPfiiiiS0_ii
00000001dd330fec (__TEXT,__text) non-external (was a private external) __ZN7Mapdesc13xformBoundingEPfiiiiS0_ii
00000001dd330760 (__TEXT,__text) non-external (was a private external) __ZN7Mapdesc13xformRationalEPA5_fPfS2_
00000001dd330d0c (__TEXT,__text) non-external (was a private external) __ZN7Mapdesc13xformSamplingEPfiiS0_i
00000001dd330fa4 (__TEXT,__text) non-external (was a private external) __ZN7Mapdesc13xformSamplingEPfiiiiS0_ii
00000001dd3308bc (__TEXT,__text) non-external (was a private external) __ZN7Mapdesc16xformNonrationalEPA5_fPfS2_
00000001dd330a34 (__TEXT,__text) non-external (was a private external) __ZN7Mapdesc17xformAndCullCheckEPfiiii
00000001dd331a68 (__TEXT,__text) non-external (was a private external) __ZN7Mapdesc19calcPartialVelocityEPfS0_iiiiiiffi
00000001dd331890 (__TEXT,__text) non-external (was a private external) __ZN7Mapdesc19calcPartialVelocityEPfiiif
00000001dd3315dc (__TEXT,__text) non-external (was a private external) __ZN7Mapdesc20calcVelocityRationalEPfii
00000001dd331668 (__TEXT,__text) non-external (was a private external) __ZN7Mapdesc23calcVelocityNonrationalEPfii
00000001dd331514 (__TEXT,__text) non-external (was a private external) __ZN7Mapdesc4bboxEPA5_fPfiiii
00000001dd330434 (__TEXT,__text) non-external (was a private external) __ZN7Mapdesc4copyEPA5_fiPfii
00000001dd33050c (__TEXT,__text) non-external (was a private external) __ZN7Mapdesc5sumPtEPfS0_S0_ff
00000001dd330480 (__TEXT,__text) non-external (was a private external) __ZN7Mapdesc6copyPtEPfS0_
00000001dd331324 (__TEXT,__text) non-external (was a private external) __ZN7Mapdesc7projectEPfiS0_ii
00000001dd331258 (__TEXT,__text) non-external (was a private external) __ZN7Mapdesc7projectEPfiiS0_iiii
00000001dd3305d8 (__TEXT,__text) non-external (was a private external) __ZN7Mapdesc8clipbitsEPf
00000001dd330d28 (__TEXT,__text) non-external (was a private external) __ZN7Mapdesc8xformMatEPA5_fPfiiS2_i
00000001dd330e54 (__TEXT,__text) non-external (was a private external) __ZN7Mapdesc8xformMatEPA5_fPfiiiiS2_ii
00000001dd330c54 (__TEXT,__text) non-external (was a private external) __ZN7Mapdesc9cullCheckEPfii
00000001dd330b7c (__TEXT,__text) non-external (was a private external) __ZN7Mapdesc9cullCheckEPfiiii
00000001dd331034 (__TEXT,__text) non-external (was a private external) __ZN7Mapdesc9subdivideEPfS0_fii
00000001dd331114 (__TEXT,__text) non-external (was a private external) __ZN7Mapdesc9subdivideEPfS0_fiiii
00000001dd330430 (__TEXT,__text) non-external (was a private external) __ZN7MapdescC1EiiiR7Backend
00000001dd330240 (__TEXT,__text) non-external (was a private external) __ZN7MapdescC2EiiiR7Backend
00000001dd331f00 (__TEXT,__text) non-external (was a private external) __ZN7Maplist10initializeEv
00000001dd331f64 (__TEXT,__text) non-external (was a private external) __ZN7Maplist3addEiii
00000001dd332004 (__TEXT,__text) non-external (was a private external) __ZN7Maplist4findEi
00000001dd331f60 (__TEXT,__text) non-external (was a private external) __ZN7Maplist6defineEiii
00000001dd332024 (__TEXT,__text) non-external (was a private external) __ZN7Maplist6locateEi
00000001dd331ec0 (__TEXT,__text) non-external (was a private external) __ZN7MaplistC1ER7Backend
00000001dd328a88 (__TEXT,__text) non-external (was a private external) __ZN8GLUnurbs11transform4dEPfS0_PA4_f
00000001dd3285f0 (__TEXT,__text) non-external (was a private external) __ZN8GLUnurbs12errorHandlerEi
00000001dd328624 (__TEXT,__text) non-external (was a private external) __ZN8GLUnurbs12grabGLMatrixEP17_CGLContextObjectPA4_f
00000001dd328930 (__TEXT,__text) non-external (was a private external) __ZN8GLUnurbs12multmatrix4dEPA4_fS1_S1_
00000001dd3288b4 (__TEXT,__text) non-external (was a private external) __ZN8GLUnurbs13useGLMatricesEPKfS1_PKi
00000001dd328558 (__TEXT,__text) non-external (was a private external) __ZN8GLUnurbs14loadGLMatricesEv
00000001dd3286b4 (__TEXT,__text) non-external (was a private external) __ZN8GLUnurbs17loadCullingMatrixEPA4_f
00000001dd328784 (__TEXT,__text) non-external (was a private external) __ZN8GLUnurbs18loadSamplingMatrixEPA4_KfPKi
00000001dd3289a0 (__TEXT,__text) non-external (was a private external) __ZN8GLUnurbs25setSamplingMatrixIdentityEv
00000001dd328544 (__TEXT,__text) non-external (was a private external) __ZN8GLUnurbs9bgnrenderEv
00000001dd3285ec (__TEXT,__text) non-external (was a private external) __ZN8GLUnurbs9endrenderEv
00000001dd328540 (__TEXT,__text) non-external (was a private external) __ZN8GLUnurbsC1EP17_CGLContextObject
00000001dd328158 (__TEXT,__text) non-external (was a private external) __ZN8GLUnurbsC2EP17_CGLContextObject
00000001dd328ba4 (__TEXT,__text) non-external (was a private external) __ZN8GLUnurbsD0Ev
00000001dd328b3c (__TEXT,__text) non-external (was a private external) __ZN8GLUnurbsD1Ev
00000001dd33acc0 (__TEXT,__text) non-external (was a private external) __ZN8Knotspec10pt_io_copyEPfS0_
00000001dd33b090 (__TEXT,__text) non-external (was a private external) __ZN8Knotspec10pt_oo_copyEPfS0_
00000001dd33b110 (__TEXT,__text) non-external (was a private external) __ZN8Knotspec11breakpointsEv
00000001dd33aaf0 (__TEXT,__text) non-external (was a private external) __ZN8Knotspec4copyEPfS0_
00000001dd33b22c (__TEXT,__text) non-external (was a private external) __ZN8Knotspec5knotsEv
00000001dd33adf4 (__TEXT,__text) non-external (was a private external) __ZN8Knotspec6insertEPf
00000001dd33aa64 (__TEXT,__text) non-external (was a private external) __ZN8Knotspec6selectEv
00000001dd33ad40 (__TEXT,__text) non-external (was a private external) __ZN8Knotspec7factorsEv
00000001dd33a918 (__TEXT,__text) non-external (was a private external) __ZN8Knotspec9preselectEv
00000001dd33afd4 (__TEXT,__text) non-external (was a private external) __ZN8Knotspec9pt_oo_sumEPfS0_S0_ff
00000001dd33ab88 (__TEXT,__text) non-external (was a private external) __ZN8Knotspec9transformEPf
00000001dd33b2ac (__TEXT,__text) non-external (was a private external) __ZN8KnotspecD2Ev
00000001dd33b324 (__TEXT,__text) non-external (was a private external) __ZN8TrimlineC1Ev
00000001dd33b340 (__TEXT,__text) non-external (was a private external) __ZN8TrimlineD1Ev
00000001dd33bbf0 (__TEXT,__text) non-external (was a private external) __ZN8gridWrap18outputFanWithPointEiiiPfP10primStream
00000001dd33bbb8 (__TEXT,__text) non-external (was a private external) __ZN8gridWrapC1Eiiffff
00000001dd33ba9c (__TEXT,__text) non-external (was a private external) __ZN8gridWrapC2Eiiffff
00000001dd33bbbc (__TEXT,__text) non-external (was a private external) __ZN8gridWrapD1Ev
00000001dd32c4f4 (__TEXT,__text) non-external (was a private external) __ZN9ArcSorter5qsexcEPcS0_
00000001dd32c4f0 (__TEXT,__text) non-external (was a private external) __ZN9ArcSorter5qsortEPP3Arci
00000001dd32c508 (__TEXT,__text) non-external (was a private external) __ZN9ArcSorter6qstexcEPcS0_S0_
00000001dd32ec94 (__TEXT,__text) non-external (was a private external) __ZN9Curvelist11getstepsizeEv
00000001dd32ed04 (__TEXT,__text) non-external (was a private external) __ZN9Curvelist24needsSamplingSubdivisionEv
00000001dd32ec58 (__TEXT,__text) non-external (was a private external) __ZN9Curvelist9cullCheckEv
00000001dd32eb60 (__TEXT,__text) non-external (was a private external) __ZN9CurvelistC1EP5Quiltff
00000001dd32ec04 (__TEXT,__text) non-external (was a private external) __ZN9CurvelistC1ERS_f
00000001dd32eadc (__TEXT,__text) non-external (was a private external) __ZN9CurvelistC2EP5Quiltff
00000001dd32eb64 (__TEXT,__text) non-external (was a private external) __ZN9CurvelistC2ERS_f
00000001dd32ec08 (__TEXT,__text) non-external (was a private external) __ZN9CurvelistD1Ev
00000001dd335e38 (__TEXT,__text) non-external (was a private external) __ZN9Patchlist11getstepsizeEv
00000001dd335fec (__TEXT,__text) non-external (was a private external) __ZN9Patchlist16needsSubdivisionEi
00000001dd335f94 (__TEXT,__text) non-external (was a private external) __ZN9Patchlist24needsSamplingSubdivisionEv
00000001dd335f44 (__TEXT,__text) non-external (was a private external) __ZN9Patchlist27needsNonSamplingSubdivisionEv
00000001dd335f10 (__TEXT,__text) non-external (was a private external) __ZN9Patchlist4bboxEv
00000001dd335dfc (__TEXT,__text) non-external (was a private external) __ZN9Patchlist9cullCheckEv
00000001dd335cbc (__TEXT,__text) non-external (was a private external) __ZN9PatchlistC1EP5QuiltPfS2_
00000001dd335da8 (__TEXT,__text) non-external (was a private external) __ZN9PatchlistC1ERS_if
00000001dd335c04 (__TEXT,__text) non-external (was a private external) __ZN9PatchlistC2EP5QuiltPfS2_
00000001dd335cc0 (__TEXT,__text) non-external (was a private external) __ZN9PatchlistC2ERS_if
00000001dd335dac (__TEXT,__text) non-external (was a private external) __ZN9PatchlistD1Ev
00000001dd33e36c (__TEXT,__text) non-external (was a private external) __ZN9rectBlockC1EP17gridBoundaryChainS1_ii
00000001dd33e298 (__TEXT,__text) non-external (was a private external) __ZN9rectBlockC2EP17gridBoundaryChainS1_ii
00000001dd348f18 (__TEXT,__const) non-external (was a private external) __ZTC6Slicer0_12CoveAndTiler
00000001dd348f48 (__TEXT,__const) non-external (was a private external) __ZTC6Slicer16_4Hull
00000001dd348f30 (__TEXT,__const) non-external (was a private external) __ZTC6Slicer16_6Mesher
00000001f1d78b88 (__AUTH_CONST,__const) non-external (was a private external) __ZTT6Slicer
00000001f1d78b08 (__AUTH_CONST,__const) non-external (was a private external) __ZTV11FlistSorter
00000001f1d78a98 (__AUTH_CONST,__const) non-external (was a private external) __ZTV13ArcSdirSorter
00000001f1d78ad0 (__AUTH_CONST,__const) non-external (was a private external) __ZTV13ArcTdirSorter
00000001f1d78b40 (__AUTH_CONST,__const) non-external (was a private external) __ZTV16NurbsTessellator
00000001f1d78870 (__AUTH_CONST,__const) non-external (was a private external) __ZTV20OpenGLCurveEvaluator
00000001f1d78960 (__AUTH_CONST,__const) non-external (was a private external) __ZTV22OpenGLSurfaceEvaluator
00000001dd348ee8 (__TEXT,__const) non-external (was a private external) __ZTV6Slicer
00000001f1d78bb0 (__AUTH_CONST,__const) non-external (was a private external) __ZTV6Sorter
00000001f1d78918 (__AUTH_CONST,__const) non-external (was a private external) __ZTV8GLUnurbs
                 (undefined) external __ZdaPvSt19__type_descriptor_t (from libc++)
                 (undefined) external __ZdlPvSt19__type_descriptor_t (from libc++)
                 (undefined) external __ZnamSt19__type_descriptor_t (from libc++)
                 (undefined) external __ZnwmSt19__type_descriptor_t (from libc++)
                 (undefined) external ___chkstk_darwin (from libSystem)
                 (undefined) external ___sincosf_stret (from libSystem)
                 (undefined) external ___stack_chk_fail (from libSystem)
                 (undefined) external ___stack_chk_guard (from libSystem)
                 (undefined) external __longjmp (from libSystem)
                 (undefined) external __setjmp (from libSystem)
                 (undefined) external _abort (from libSystem)
00000001dd326d14 (__TEXT,__text) non-external (was a private external) _bezierPatchDelete
00000001dd326bc4 (__TEXT,__text) non-external (was a private external) _bezierPatchMake2
00000001dd327038 (__TEXT,__text) non-external (was a private external) _bezierPatchMeshBeginStrip
00000001dd327040 (__TEXT,__text) non-external (was a private external) _bezierPatchMeshEndStrip
00000001dd32713c (__TEXT,__text) non-external (was a private external) _bezierPatchMeshInsertUV
00000001dd326d50 (__TEXT,__text) non-external (was a private external) _bezierPatchMeshListDelete
00000001dd327208 (__TEXT,__text) non-external (was a private external) _bezierPatchMeshListInsert
00000001dd326dec (__TEXT,__text) non-external (was a private external) _bezierPatchMeshMake2
00000001dd326ea8 (__TEXT,__text) non-external (was a private external) _bezierPatchMeshPutPatch
                 (undefined) external _bzero (from libSystem)
                 (undefined) external _cosf (from libSystem)
                 (undefined) external _exit (from libSystem)
                 (undefined) external _free (from libSystem)
00000001dd327798 (__TEXT,__text) external _gluBeginCurve
00000001dd326784 (__TEXT,__text) external _gluBeginPolygon
00000001dd327790 (__TEXT,__text) external _gluBeginSurface
00000001dd3277a8 (__TEXT,__text) external _gluBeginTrim
00000001dd312b94 (__TEXT,__text) external _gluBuild1DMipmapLevels
00000001dd312a74 (__TEXT,__text) external _gluBuild1DMipmapLevelsCTX
00000001dd312fa4 (__TEXT,__text) external _gluBuild1DMipmaps
00000001dd312be8 (__TEXT,__text) external _gluBuild1DMipmapsCTX
00000001dd319d7c (__TEXT,__text) external _gluBuild2DMipmapLevels
00000001dd319c38 (__TEXT,__text) external _gluBuild2DMipmapLevelsCTX
00000001dd319f0c (__TEXT,__text) external _gluBuild2DMipmaps
00000001dd319db8 (__TEXT,__text) external _gluBuild2DMipmapsCTX
00000001dd31c888 (__TEXT,__text) external _gluBuild3DMipmapLevels
00000001dd31b134 (__TEXT,__text) external _gluBuild3DMipmapLevelsCTX
00000001dd31cc00 (__TEXT,__text) external _gluBuild3DMipmaps
00000001dd31c8e4 (__TEXT,__text) external _gluBuild3DMipmapsCTX
00000001dd320f38 (__TEXT,__text) external _gluCheckExtension
00000001dd31e74c (__TEXT,__text) external _gluCylinder
00000001dd31e764 (__TEXT,__text) external _gluCylinderCTX
00000001dd327764 (__TEXT,__text) external _gluDeleteNurbsRenderer
00000001dd31e600 (__TEXT,__text) external _gluDeleteQuadric
00000001dd325938 (__TEXT,__text) external _gluDeleteTess
00000001dd31f47c (__TEXT,__text) external _gluDisk
00000001dd31f4a0 (__TEXT,__text) external _gluDiskCTX
00000001dd3277a0 (__TEXT,__text) external _gluEndCurve
00000001dd326838 (__TEXT,__text) external _gluEndPolygon
00000001dd3277a4 (__TEXT,__text) external _gluEndSurface
00000001dd3277ac (__TEXT,__text) external _gluEndTrim
00000001dd310d1c (__TEXT,__text) external _gluErrorString
00000001dd327ce8 (__TEXT,__text) external _gluGetNurbsProperty
00000001dd320f08 (__TEXT,__text) external _gluGetString
00000001dd325c0c (__TEXT,__text) external _gluGetTessProperty
00000001dd32781c (__TEXT,__text) external _gluLoadSamplingMatrices
00000001dd31dc7c (__TEXT,__text) external _gluLookAt
00000001dd31dc90 (__TEXT,__text) external _gluLookAtCTX
00000001dd3276c0 (__TEXT,__text) external _gluNewNurbsRenderer
00000001dd327714 (__TEXT,__text) external _gluNewNurbsRendererCTX
00000001dd31e5b0 (__TEXT,__text) external _gluNewQuadric
00000001dd31e5b4 (__TEXT,__text) external _gluNewQuadricCTX
00000001dd325880 (__TEXT,__text) external _gluNewTess
00000001dd325934 (__TEXT,__text) external _gluNewTessCTX
00000001dd3267e4 (__TEXT,__text) external _gluNextContour
00000001dd327f40 (__TEXT,__text) external _gluNurbsCallback
00000001dd328044 (__TEXT,__text) external _gluNurbsCallbackCFM
00000001dd328130 (__TEXT,__text) external _gluNurbsCallbackData
00000001dd328144 (__TEXT,__text) external _gluNurbsCallbackDataEXT
00000001dd3277d8 (__TEXT,__text) external _gluNurbsCurve
00000001dd327820 (__TEXT,__text) external _gluNurbsProperty
00000001dd327800 (__TEXT,__text) external _gluNurbsSurface
00000001dd31db50 (__TEXT,__text) external _gluOrtho2D
00000001dd31db6c (__TEXT,__text) external _gluOrtho2DCTX
00000001dd31ff38 (__TEXT,__text) external _gluPartialDisk
00000001dd31f4b0 (__TEXT,__text) external _gluPartialDiskCTX
00000001dd31db80 (__TEXT,__text) external _gluPerspective
00000001dd31dc00 (__TEXT,__text) external _gluPerspectiveCTX
00000001dd31e4e0 (__TEXT,__text) external _gluPickMatrix
00000001dd31e4f0 (__TEXT,__text) external _gluPickMatrixCTX
00000001dd31ddfc (__TEXT,__text) external _gluProject
00000001dd3277b0 (__TEXT,__text) external _gluPwlCurve
00000001dd31e604 (__TEXT,__text) external _gluQuadricCallback
00000001dd31e644 (__TEXT,__text) external _gluQuadricCallbackCFM
00000001dd31e70c (__TEXT,__text) external _gluQuadricDrawStyle
00000001dd31e684 (__TEXT,__text) external _gluQuadricNormals
00000001dd31e6cc (__TEXT,__text) external _gluQuadricOrientation
00000001dd31e6c4 (__TEXT,__text) external _gluQuadricTexture
00000001dd310ddc (__TEXT,__text) external _gluScaleImage
00000001dd310e30 (__TEXT,__text) external _gluScaleImageCTX
00000001dd31ff50 (__TEXT,__text) external _gluSphere
00000001dd31ff68 (__TEXT,__text) external _gluSphereCTX
00000001dd326464 (__TEXT,__text) external _gluTessBeginContour
00000001dd326414 (__TEXT,__text) external _gluTessBeginPolygon
00000001dd325c98 (__TEXT,__text) external _gluTessCallback
00000001dd325eec (__TEXT,__text) external _gluTessCallbackCFM
00000001dd3264bc (__TEXT,__text) external _gluTessEndContour
00000001dd3264fc (__TEXT,__text) external _gluTessEndPolygon
00000001dd325c8c (__TEXT,__text) external _gluTessNormal
00000001dd325b24 (__TEXT,__text) external _gluTessProperty
00000001dd3260ec (__TEXT,__text) external _gluTessVertex
00000001dd31df64 (__TEXT,__text) external _gluUnProject
00000001dd31e350 (__TEXT,__text) external _gluUnProject4
                 (undefined) external _malloc_type_malloc (from libSystem)
                 (undefined) external _malloc_type_realloc (from libSystem)
                 (undefined) external _memcpy (from libSystem)
                 (undefined) external _memset_pattern16 (from libSystem)
                 (undefined) external _sinf (from libSystem)
                 (undefined) external _strcspn (from libSystem)
                 (undefined) external _strlen (from libSystem)
                 (undefined) external _strncmp (from libSystem)
                 (undefined) external _tan (from libSystem)
