00000001acee5944 (__TEXT,__text) non-external +[AGAppObserver background:]
00000001acee5938 (__TEXT,__text) non-external +[AGAppObserver foreground:]
00000001acf16e10 (__TEXT,__gcc_except_tab) non-external GCC_except_table0
00000001acf17400 (__TEXT,__gcc_except_tab) non-external GCC_except_table0
00000001acf17548 (__TEXT,__gcc_except_tab) non-external GCC_except_table0
00000001acf17910 (__TEXT,__gcc_except_tab) non-external GCC_except_table0
00000001acf16eb0 (__TEXT,__gcc_except_tab) non-external GCC_except_table1
00000001acf17070 (__TEXT,__gcc_except_tab) non-external GCC_except_table1
00000001acf17764 (__TEXT,__gcc_except_tab) non-external GCC_except_table1
00000001acf16f34 (__TEXT,__gcc_except_tab) non-external GCC_except_table10
00000001acf172c0 (__TEXT,__gcc_except_tab) non-external GCC_except_table10
00000001acf1795c (__TEXT,__gcc_except_tab) non-external GCC_except_table10
00000001acf1727c (__TEXT,__gcc_except_tab) non-external GCC_except_table101
00000001acf16e60 (__TEXT,__gcc_except_tab) non-external GCC_except_table11
00000001acf16f4c (__TEXT,__gcc_except_tab) non-external GCC_except_table11
00000001acf17120 (__TEXT,__gcc_except_tab) non-external GCC_except_table11
00000001acf171b4 (__TEXT,__gcc_except_tab) non-external GCC_except_table11
00000001acf172d4 (__TEXT,__gcc_except_tab) non-external GCC_except_table11
00000001acf1733c (__TEXT,__gcc_except_tab) non-external GCC_except_table11
00000001acf17058 (__TEXT,__gcc_except_tab) non-external GCC_except_table12
00000001acf1715c (__TEXT,__gcc_except_tab) non-external GCC_except_table12
00000001acf177d0 (__TEXT,__gcc_except_tab) non-external GCC_except_table12
00000001acf16ee4 (__TEXT,__gcc_except_tab) non-external GCC_except_table13
00000001acf17170 (__TEXT,__gcc_except_tab) non-external GCC_except_table13
00000001acf17358 (__TEXT,__gcc_except_tab) non-external GCC_except_table13
00000001acf17498 (__TEXT,__gcc_except_tab) non-external GCC_except_table13
00000001acf16f64 (__TEXT,__gcc_except_tab) non-external GCC_except_table14
00000001acf17180 (__TEXT,__gcc_except_tab) non-external GCC_except_table14
00000001acf1737c (__TEXT,__gcc_except_tab) non-external GCC_except_table14
00000001acf17cec (__TEXT,__gcc_except_tab) non-external GCC_except_table14
00000001acf16f90 (__TEXT,__gcc_except_tab) non-external GCC_except_table15
00000001acf16fb0 (__TEXT,__gcc_except_tab) non-external GCC_except_table16
00000001acf171d0 (__TEXT,__gcc_except_tab) non-external GCC_except_table16
00000001acf174d0 (__TEXT,__gcc_except_tab) non-external GCC_except_table16
00000001acf16ff4 (__TEXT,__gcc_except_tab) non-external GCC_except_table17
00000001acf17504 (__TEXT,__gcc_except_tab) non-external GCC_except_table17
00000001acf17048 (__TEXT,__gcc_except_tab) non-external GCC_except_table18
00000001acf17394 (__TEXT,__gcc_except_tab) non-external GCC_except_table18
00000001acf17514 (__TEXT,__gcc_except_tab) non-external GCC_except_table18
00000001acf177e0 (__TEXT,__gcc_except_tab) non-external GCC_except_table19
00000001acf170a4 (__TEXT,__gcc_except_tab) non-external GCC_except_table2
00000001acf172ec (__TEXT,__gcc_except_tab) non-external GCC_except_table2
00000001acf17554 (__TEXT,__gcc_except_tab) non-external GCC_except_table2
00000001acf17ccc (__TEXT,__gcc_except_tab) non-external GCC_except_table2
00000001acf17194 (__TEXT,__gcc_except_tab) non-external GCC_except_table20
00000001acf171f4 (__TEXT,__gcc_except_tab) non-external GCC_except_table20
00000001acf17d00 (__TEXT,__gcc_except_tab) non-external GCC_except_table20
00000001acf17200 (__TEXT,__gcc_except_tab) non-external GCC_except_table21
00000001acf17528 (__TEXT,__gcc_except_tab) non-external GCC_except_table22
00000001acf177fc (__TEXT,__gcc_except_tab) non-external GCC_except_table22
00000001acf17bf4 (__TEXT,__gcc_except_tab) non-external GCC_except_table22
00000001acf1720c (__TEXT,__gcc_except_tab) non-external GCC_except_table23
00000001acf17538 (__TEXT,__gcc_except_tab) non-external GCC_except_table23
00000001acf17d0c (__TEXT,__gcc_except_tab) non-external GCC_except_table23
00000001acf173b0 (__TEXT,__gcc_except_tab) non-external GCC_except_table24
00000001acf17d1c (__TEXT,__gcc_except_tab) non-external GCC_except_table24
00000001acf17220 (__TEXT,__gcc_except_tab) non-external GCC_except_table25
00000001acf17830 (__TEXT,__gcc_except_tab) non-external GCC_except_table27
00000001acf17860 (__TEXT,__gcc_except_tab) non-external GCC_except_table29
00000001acf17c0c (__TEXT,__gcc_except_tab) non-external GCC_except_table29
00000001acf16e38 (__TEXT,__gcc_except_tab) non-external GCC_except_table3
00000001acf170b4 (__TEXT,__gcc_except_tab) non-external GCC_except_table3
00000001acf17980 (__TEXT,__gcc_except_tab) non-external GCC_except_table3
00000001acf179a0 (__TEXT,__gcc_except_tab) non-external GCC_except_table3
00000001acf17cd8 (__TEXT,__gcc_except_tab) non-external GCC_except_table3
00000001acf17d7c (__TEXT,__gcc_except_tab) non-external GCC_except_table3
00000001acf175d0 (__TEXT,__gcc_except_tab) non-external GCC_except_table31
00000001acf175e0 (__TEXT,__gcc_except_tab) non-external GCC_except_table33
00000001acf17878 (__TEXT,__gcc_except_tab) non-external GCC_except_table33
00000001acf178a0 (__TEXT,__gcc_except_tab) non-external GCC_except_table34
00000001acf1765c (__TEXT,__gcc_except_tab) non-external GCC_except_table35
00000001acf17c24 (__TEXT,__gcc_except_tab) non-external GCC_except_table35
00000001acf1766c (__TEXT,__gcc_except_tab) non-external GCC_except_table36
00000001acf1767c (__TEXT,__gcc_except_tab) non-external GCC_except_table37
00000001acf1768c (__TEXT,__gcc_except_tab) non-external GCC_except_table38
00000001acf173bc (__TEXT,__gcc_except_tab) non-external GCC_except_table39
00000001acf178b4 (__TEXT,__gcc_except_tab) non-external GCC_except_table39
00000001acf171a0 (__TEXT,__gcc_except_tab) non-external GCC_except_table4
00000001acf17294 (__TEXT,__gcc_except_tab) non-external GCC_except_table4
00000001acf17410 (__TEXT,__gcc_except_tab) non-external GCC_except_table4
00000001acf17598 (__TEXT,__gcc_except_tab) non-external GCC_except_table4
00000001acf17b78 (__TEXT,__gcc_except_tab) non-external GCC_except_table4
00000001acf176b4 (__TEXT,__gcc_except_tab) non-external GCC_except_table40
00000001acf178c4 (__TEXT,__gcc_except_tab) non-external GCC_except_table40
00000001acf17c3c (__TEXT,__gcc_except_tab) non-external GCC_except_table40
00000001acf176c4 (__TEXT,__gcc_except_tab) non-external GCC_except_table41
00000001acf176e4 (__TEXT,__gcc_except_tab) non-external GCC_except_table42
00000001acf176f4 (__TEXT,__gcc_except_tab) non-external GCC_except_table44
00000001acf17c54 (__TEXT,__gcc_except_tab) non-external GCC_except_table44
00000001acf178d4 (__TEXT,__gcc_except_tab) non-external GCC_except_table48
00000001acf16ef0 (__TEXT,__gcc_except_tab) non-external GCC_except_table5
00000001acf17780 (__TEXT,__gcc_except_tab) non-external GCC_except_table5
00000001acf17944 (__TEXT,__gcc_except_tab) non-external GCC_except_table5
00000001acf1798c (__TEXT,__gcc_except_tab) non-external GCC_except_table5
00000001acf17d90 (__TEXT,__gcc_except_tab) non-external GCC_except_table5
00000001acf17c6c (__TEXT,__gcc_except_tab) non-external GCC_except_table51
00000001acf17708 (__TEXT,__gcc_except_tab) non-external GCC_except_table53
00000001acf17c84 (__TEXT,__gcc_except_tab) non-external GCC_except_table54
00000001acf17724 (__TEXT,__gcc_except_tab) non-external GCC_except_table55
00000001acf1773c (__TEXT,__gcc_except_tab) non-external GCC_except_table57
00000001acf17c9c (__TEXT,__gcc_except_tab) non-external GCC_except_table58
00000001acf170fc (__TEXT,__gcc_except_tab) non-external GCC_except_table6
00000001acf17460 (__TEXT,__gcc_except_tab) non-external GCC_except_table6
00000001acf16e74 (__TEXT,__gcc_except_tab) non-external GCC_except_table61
00000001acf173dc (__TEXT,__gcc_except_tab) non-external GCC_except_table61
00000001acf17cb4 (__TEXT,__gcc_except_tab) non-external GCC_except_table61
00000001acf16e88 (__TEXT,__gcc_except_tab) non-external GCC_except_table68
00000001acf178e4 (__TEXT,__gcc_except_tab) non-external GCC_except_table68
00000001acf16e94 (__TEXT,__gcc_except_tab) non-external GCC_except_table69
00000001acf16e48 (__TEXT,__gcc_except_tab) non-external GCC_except_table7
00000001acf16f04 (__TEXT,__gcc_except_tab) non-external GCC_except_table7
00000001acf175c0 (__TEXT,__gcc_except_tab) non-external GCC_except_table7
00000001acf16ea0 (__TEXT,__gcc_except_tab) non-external GCC_except_table70
00000001acf178f4 (__TEXT,__gcc_except_tab) non-external GCC_except_table70
00000001acf17234 (__TEXT,__gcc_except_tab) non-external GCC_except_table72
00000001acf17d28 (__TEXT,__gcc_except_tab) non-external GCC_except_table73
00000001acf17d58 (__TEXT,__gcc_except_tab) non-external GCC_except_table76
00000001acf16f18 (__TEXT,__gcc_except_tab) non-external GCC_except_table8
00000001acf17474 (__TEXT,__gcc_except_tab) non-external GCC_except_table8
00000001acf17790 (__TEXT,__gcc_except_tab) non-external GCC_except_table8
00000001acf17da4 (__TEXT,__gcc_except_tab) non-external GCC_except_table8
00000001acf173f0 (__TEXT,__gcc_except_tab) non-external GCC_except_table81
00000001acf1774c (__TEXT,__gcc_except_tab) non-external GCC_except_table82
00000001acf1724c (__TEXT,__gcc_except_tab) non-external GCC_except_table87
00000001acf16ec0 (__TEXT,__gcc_except_tab) non-external GCC_except_table9
00000001acf172ac (__TEXT,__gcc_except_tab) non-external GCC_except_table9
00000001acf17314 (__TEXT,__gcc_except_tab) non-external GCC_except_table9
00000001acf17484 (__TEXT,__gcc_except_tab) non-external GCC_except_table9
00000001acf17bc4 (__TEXT,__gcc_except_tab) non-external GCC_except_table9
00000001acf17264 (__TEXT,__gcc_except_tab) non-external GCC_except_table93
00000001acf15b68 (__TEXT,__const) external _AGAttributeNil
00000001acf15b70 (__TEXT,__const) external _AGAttributeNullType
00000001acf15ba8 (__TEXT,__const) external _AGAttributeNullVTable
00000001acee765c (__TEXT,__text) external _AGCompareValues
00000001acf03c9c (__TEXT,__text) external _AGCreateWeakAttribute
00000001acf07564 (__TEXT,__text) external _AGDebugServerCopyURL
00000001acf0757c (__TEXT,__text) external _AGDebugServerRun
00000001acf0755c (__TEXT,__text) external _AGDebugServerStart
00000001acf07560 (__TEXT,__text) external _AGDebugServerStop
00000001d91130a0 (__DATA_CONST,__const) external _AGDescriptionFormat
00000001d91130a8 (__DATA_CONST,__const) external _AGDescriptionIncludeValues
00000001d91130b8 (__DATA_CONST,__const) external _AGDescriptionMaxFrames
00000001d91130b0 (__DATA_CONST,__const) external _AGDescriptionTruncationLimit
00000001acf10428 (__TEXT,__text) non-external (was a private external) _AGDispatchEquatable
00000001acf046a8 (__TEXT,__text) external _AGGraphAddInput
00000001acf06870 (__TEXT,__text) external _AGGraphAddNamedTraceEvent
00000001acf06478 (__TEXT,__text) external _AGGraphAddTrace
00000001acf06558 (__TEXT,__text) external _AGGraphAddTraceEvent
00000001acf057cc (__TEXT,__text) external _AGGraphAnyInputsChanged
00000001acf05ec8 (__TEXT,__text) external _AGGraphArchiveJSON
00000001acf03784 (__TEXT,__text) external _AGGraphBeginDeferringSubgraphInvalidation
00000001acf05ab8 (__TEXT,__text) external _AGGraphBeginProfileEvent
00000001acf039d8 (__TEXT,__text) external _AGGraphClearUpdate
00000001acf037fc (__TEXT,__text) external _AGGraphContextGetGraph
00000001acf034cc (__TEXT,__text) external _AGGraphCreate
00000001acf03d38 (__TEXT,__text) external _AGGraphCreateAttribute
00000001acf041e8 (__TEXT,__text) external _AGGraphCreateIndirectAttribute
00000001acf04250 (__TEXT,__text) external _AGGraphCreateIndirectAttribute2
00000001acf040fc (__TEXT,__text) external _AGGraphCreateOffsetAttribute
00000001acf041e0 (__TEXT,__text) external _AGGraphCreateOffsetAttribute2
00000001acf03400 (__TEXT,__text) external _AGGraphCreateShared
00000001acf0390c (__TEXT,__text) external _AGGraphCurrentAttributeWasModified
00000001acf05e1c (__TEXT,__text) external _AGGraphDescription
00000001acf037bc (__TEXT,__text) external _AGGraphEndDeferringSubgraphInvalidation
00000001acf05b5c (__TEXT,__text) external _AGGraphEndProfileEvent
00000001acf03804 (__TEXT,__text) external _AGGraphGetAttributeGraph
00000001acf0446c (__TEXT,__text) external _AGGraphGetAttributeInfo
00000001acf03884 (__TEXT,__text) external _AGGraphGetAttributeSubgraph
00000001acf03564 (__TEXT,__text) external _AGGraphGetContext
00000001acf03590 (__TEXT,__text) external _AGGraphGetCounter
00000001acf038cc (__TEXT,__text) external _AGGraphGetCurrentAttribute
00000001acf03b9c (__TEXT,__text) external _AGGraphGetDeadline
00000001acf043c4 (__TEXT,__text) external _AGGraphGetFlags
00000001acf034d4 (__TEXT,__text) external _AGGraphGetGraphContext
00000001acf04258 (__TEXT,__text) external _AGGraphGetIndirectAttribute
00000001acf042ec (__TEXT,__text) external _AGGraphGetIndirectDependency
00000001acf048f8 (__TEXT,__text) external _AGGraphGetInputValue
00000001acf0575c (__TEXT,__text) external _AGGraphGetOutputValue
00000001acf06778 (__TEXT,__text) external _AGGraphGetTraceEventName
00000001acf06710 (__TEXT,__text) external _AGGraphGetTraceEventSubsystem
00000001acf03384 (__TEXT,__text) external _AGGraphGetTypeID
00000001acf04b5c (__TEXT,__text) external _AGGraphGetValue
00000001acf051d4 (__TEXT,__text) external _AGGraphGetValueState
00000001acf04ddc (__TEXT,__text) external _AGGraphGetWeakValue
00000001acf03c04 (__TEXT,__text) external _AGGraphHasDeadlinePassed
00000001acf04860 (__TEXT,__text) external _AGGraphHasValue
00000001acf03c80 (__TEXT,__text) external _AGGraphInternAttributeType
00000001acf03500 (__TEXT,__text) external _AGGraphInvalidate
00000001acf0478c (__TEXT,__text) external _AGGraphInvalidateAllValues
00000001acf047c8 (__TEXT,__text) external _AGGraphInvalidateValue
00000001acf05978 (__TEXT,__text) external _AGGraphIsProfilingEnabled
00000001acf06368 (__TEXT,__text) external _AGGraphIsTracingActive
00000001acf05a3c (__TEXT,__text) external _AGGraphMarkProfile
00000001acf04504 (__TEXT,__text) external _AGGraphMutateAttribute
00000001acf05104 (__TEXT,__text) external _AGGraphPrefetchValue
00000001acf062d8 (__TEXT,__text) external _AGGraphPrepareTrace
00000001acf03d90 (__TEXT,__text) external _AGGraphReadCachedAttribute
00000001acf040b4 (__TEXT,__text) external _AGGraphReadCachedAttributeIfExists
00000001acf06600 (__TEXT,__text) external _AGGraphRegisterNamedTraceEvent
00000001acf0651c (__TEXT,__text) external _AGGraphRemoveTrace
00000001acf059e4 (__TEXT,__text) external _AGGraphResetProfile
00000001acf06448 (__TEXT,__text) external _AGGraphResetTrace
00000001acf05840 (__TEXT,__text) external _AGGraphSearch
00000001acf03538 (__TEXT,__text) external _AGGraphSetContext
00000001acf03bc8 (__TEXT,__text) external _AGGraphSetDeadline
00000001acf0440c (__TEXT,__text) external _AGGraphSetFlags
00000001acf0427c (__TEXT,__text) external _AGGraphSetIndirectAttribute
00000001acf04354 (__TEXT,__text) external _AGGraphSetIndirectDependency
00000001acf036f0 (__TEXT,__text) external _AGGraphSetInvalidationCallback
00000001acf03748 (__TEXT,__text) external _AGGraphSetNeedsUpdate
00000001acf052f0 (__TEXT,__text) external _AGGraphSetOutputValue
00000001acf06390 (__TEXT,__text) external _AGGraphSetTrace
00000001acf03a08 (__TEXT,__text) external _AGGraphSetUpdate
00000001acf03698 (__TEXT,__text) external _AGGraphSetUpdateCallback
00000001acf05254 (__TEXT,__text) external _AGGraphSetValue
00000001acf058c0 (__TEXT,__text) external _AGGraphStartProfiling
00000001acf05c18 (__TEXT,__text) external _AGGraphStartTracing
00000001acf05c20 (__TEXT,__text) external _AGGraphStartTracing2
00000001acf05920 (__TEXT,__text) external _AGGraphStopProfiling
00000001acf05d6c (__TEXT,__text) external _AGGraphStopTracing
00000001acf05dc4 (__TEXT,__text) external _AGGraphSyncTracing
00000001acf067e0 (__TEXT,__text) external _AGGraphTraceEventEnabled
00000001acf05068 (__TEXT,__text) external _AGGraphUpdateValue
00000001d6157380 (__DATA,__common) external _AGGraphVMRegionBaseAddress
00000001acf045a8 (__TEXT,__text) external _AGGraphVerifyType
00000001acf03b30 (__TEXT,__text) external _AGGraphWithMainThreadHandler
00000001acf03a20 (__TEXT,__text) external _AGGraphWithUpdate
00000001acf03970 (__TEXT,__text) external _AGGraphWithoutUpdate
00000001acee7f78 (__TEXT,__text) external _AGMakeUniqueID
00000001acee1ccc (__TEXT,__text) external _AGNewTupleType
00000001acee7708 (__TEXT,__text) external _AGOverrideComparisonForTypeDescriptor
00000001acee7704 (__TEXT,__text) external _AGPrefetchCompareValues
00000001acee75a0 (__TEXT,__text) external _AGReleaseClosure
00000001acee7570 (__TEXT,__text) external _AGRetainClosure
00000001acf10450 (__TEXT,__text) non-external (was a private external) _AGSetTypeForKey
00000001acefc628 (__TEXT,__text) external _AGSubgraphAddChild
00000001acefc5e0 (__TEXT,__text) external _AGSubgraphAddObserver
00000001acefc970 (__TEXT,__text) external _AGSubgraphAddTreeValue
00000001acefc810 (__TEXT,__text) external _AGSubgraphApply
00000001acefc940 (__TEXT,__text) external _AGSubgraphBeginTreeElement
00000001acefc3f0 (__TEXT,__text) external _AGSubgraphCreate
00000001acefc400 (__TEXT,__text) external _AGSubgraphCreate2
00000001acefc9a4 (__TEXT,__text) external _AGSubgraphEndTreeElement
00000001acefc494 (__TEXT,__text) external _AGSubgraphGetCurrent
00000001acefc534 (__TEXT,__text) external _AGSubgraphGetCurrentGraphContext
00000001acefc590 (__TEXT,__text) external _AGSubgraphGetGraph
00000001acefc718 (__TEXT,__text) external _AGSubgraphGetParent
00000001acefc6e8 (__TEXT,__text) external _AGSubgraphGetParentCount
00000001acefc9cc (__TEXT,__text) external _AGSubgraphGetTreeRoot
00000001acefc374 (__TEXT,__text) external _AGSubgraphGetTypeID
00000001acefc7b0 (__TEXT,__text) external _AGSubgraphIntersects
00000001acefc55c (__TEXT,__text) external _AGSubgraphInvalidate
00000001acefc790 (__TEXT,__text) external _AGSubgraphIsAncestor
00000001acefc7d8 (__TEXT,__text) external _AGSubgraphIsDirty
00000001acefc570 (__TEXT,__text) external _AGSubgraphIsValid
00000001acefc670 (__TEXT,__text) external _AGSubgraphRemoveChild
00000001acefc618 (__TEXT,__text) external _AGSubgraphRemoveObserver
00000001acefc4bc (__TEXT,__text) external _AGSubgraphSetCurrent
00000001acefc6bc (__TEXT,__text) external _AGSubgraphSetIndex
00000001acefc8b0 (__TEXT,__text) external _AGSubgraphSetShouldRecordTree
00000001acefc904 (__TEXT,__text) external _AGSubgraphSetTreeOwner
00000001acefc820 (__TEXT,__text) external _AGSubgraphShouldRecordTree
00000001acefc800 (__TEXT,__text) external _AGSubgraphUpdate
00000001acefca2c (__TEXT,__text) external _AGTreeElementGetFlags
00000001acefca68 (__TEXT,__text) external _AGTreeElementGetNextChild
00000001acefcb3c (__TEXT,__text) external _AGTreeElementGetNextNode
00000001acefcb0c (__TEXT,__text) external _AGTreeElementGetNextValue
00000001acefc9e8 (__TEXT,__text) external _AGTreeElementGetParent
00000001acefca00 (__TEXT,__text) external _AGTreeElementGetType
00000001acefca14 (__TEXT,__text) external _AGTreeElementGetValue
00000001acefca44 (__TEXT,__text) external _AGTreeElementMakeChildIterator
00000001acefcb34 (__TEXT,__text) external _AGTreeElementMakeNodeIterator
00000001acefcaec (__TEXT,__text) external _AGTreeElementMakeValueIterator
00000001acefcbf0 (__TEXT,__text) external _AGTreeValueGetFlags
00000001acefcbcc (__TEXT,__text) external _AGTreeValueGetKey
00000001acefcba0 (__TEXT,__text) external _AGTreeValueGetType
00000001acefcbb4 (__TEXT,__text) external _AGTreeValueGetValue
00000001acee1d18 (__TEXT,__text) external _AGTupleCount
00000001acee2120 (__TEXT,__text) external _AGTupleDestroy
00000001acee2174 (__TEXT,__text) external _AGTupleDestroyElement
00000001acee1e08 (__TEXT,__text) external _AGTupleElementOffset
00000001acee1e60 (__TEXT,__text) external _AGTupleElementOffsetChecked
00000001acee1da0 (__TEXT,__text) external _AGTupleElementSize
00000001acee1d4c (__TEXT,__text) external _AGTupleElementType
00000001acee2098 (__TEXT,__text) external _AGTupleGetElement
00000001acee1ed8 (__TEXT,__text) external _AGTupleSetElement
00000001acee1d34 (__TEXT,__text) external _AGTupleSize
00000001acee226c (__TEXT,__text) external _AGTupleWithBuffer
00000001acee7a14 (__TEXT,__text) external _AGTypeApplyEnumData
00000001acee770c (__TEXT,__text) external _AGTypeApplyFields
00000001acee7754 (__TEXT,__text) external _AGTypeApplyFields2
00000001acee7c64 (__TEXT,__text) external _AGTypeApplyMutableEnumData
00000001acee7ec0 (__TEXT,__text) external _AGTypeDescription
00000001acee7f44 (__TEXT,__text) external _AGTypeGetDescriptor
00000001acee7818 (__TEXT,__text) external _AGTypeGetEnumTag
00000001acee75a8 (__TEXT,__text) external _AGTypeGetKind
00000001acee7f00 (__TEXT,__text) external _AGTypeGetSignature
00000001acee7968 (__TEXT,__text) external _AGTypeInjectEnumTag
00000001acee7f48 (__TEXT,__text) external _AGTypeNominalDescriptor
00000001acee7f4c (__TEXT,__text) external _AGTypeNominalDescriptorName
00000001acee78bc (__TEXT,__text) external _AGTypeProjectEnumData
00000001acf15afc (__TEXT,__const) external _AGVersion
00000001acf03cd8 (__TEXT,__text) external _AGWeakAttributeGetAttribute
00000001acf15ab0 (__TEXT,__const) non-external (was a private external) _AttributeGraphVersionNumber
00000001acf15a70 (__TEXT,__const) non-external (was a private external) _AttributeGraphVersionString
                 (undefined) external _CC_SHA1_Final (from libSystem)
                 (undefined) external _CC_SHA1_Init (from libSystem)
                 (undefined) external _CC_SHA1_Update (from libSystem)
                 (undefined) external _CFArrayGetCount (from CoreFoundation)
                 (undefined) external _CFArrayGetValueAtIndex (from CoreFoundation)
                 (undefined) external _CFDataCreateMutable (from CoreFoundation)
                 (undefined) external _CFDataGetBytePtr (from CoreFoundation)
                 (undefined) external _CFDataGetLength (from CoreFoundation)
                 (undefined) external _CFDataGetMutableBytePtr (from CoreFoundation)
                 (undefined) external _CFDataSetLength (from CoreFoundation)
                 (undefined) external _CFGetTypeID (from CoreFoundation)
                 (undefined) external _CFRelease (from CoreFoundation)
                 (undefined) external _CFRetain (from CoreFoundation)
                 (undefined) external _CFRunLoopAddObserver (from CoreFoundation)
                 (undefined) external _CFRunLoopGetMain (from CoreFoundation)
                 (undefined) external _CFRunLoopObserverCreate (from CoreFoundation)
                 (undefined) external _CFStringAppendCString (from CoreFoundation)
                 (undefined) external _CFStringCreateMutable (from CoreFoundation)
                 (undefined) external _CFStringGetBytes (from CoreFoundation)
                 (undefined) external _CFStringGetLength (from CoreFoundation)
                 (undefined) external _CFStringGetTypeID (from CoreFoundation)
                 (undefined) external _CFURLCreateWithBytes (from CoreFoundation)
                 (undefined) external _NSClassFromString (from Foundation)
                 (undefined) external _NSTemporaryDirectory (from Foundation)
00000001d76734d8 (__AUTH,__objc_data) non-external (was a private external) _OBJC_CLASS_$_AGAppObserver
                 (undefined) external _OBJC_CLASS_$_NSArray (from CoreFoundation)
                 (undefined) external _OBJC_CLASS_$_NSConstantIntegerNumber (from Foundation)
                 (undefined) external _OBJC_CLASS_$_NSDictionary (from CoreFoundation)
                 (undefined) external _OBJC_CLASS_$_NSIndexSet (from Foundation)
                 (undefined) external _OBJC_CLASS_$_NSJSONSerialization (from Foundation)
                 (undefined) external _OBJC_CLASS_$_NSMutableArray (from CoreFoundation)
                 (undefined) external _OBJC_CLASS_$_NSMutableDictionary (from CoreFoundation)
                 (undefined) external _OBJC_CLASS_$_NSMutableIndexSet (from Foundation)
                 (undefined) external _OBJC_CLASS_$_NSMutableString (from Foundation)
                 (undefined) external _OBJC_CLASS_$_NSNotificationCenter (from Foundation)
                 (undefined) external _OBJC_CLASS_$_NSNull (from CoreFoundation)
                 (undefined) external _OBJC_CLASS_$_NSNumber (from Foundation)
                 (undefined) external _OBJC_CLASS_$_NSObject (from libobjc)
                 (undefined) external _OBJC_CLASS_$_NSString (from Foundation)
00000001d7673500 (__AUTH,__objc_data) non-external (was a private external) _OBJC_METACLASS_$_AGAppObserver
                 (undefined) external _OBJC_METACLASS_$_NSObject (from libobjc)
                 (undefined) external __CFRuntimeCreateInstance (from CoreFoundation)
                 (undefined) external __CFRuntimeRegisterClass (from CoreFoundation)
                 (undefined) external __NSConcreteGlobalBlock (from libSystem)
00000001acf15a50 (__TEXT,__objc_methlist) non-external __OBJC_$_CLASS_METHODS_AGAppObserver
00000001d9113320 (__DATA_CONST,__objc_const) non-external __OBJC_CLASS_RO_$_AGAppObserver
00000001d9115bb8 (__AUTH_CONST,__objc_const) non-external __OBJC_METACLASS_RO_$_AGAppObserver
                 (undefined) external __Unwind_Resume (from libSystem)
00000001d6ee27d0 (__DATA_DIRTY,__bss) non-external __ZGVZ16AGGraphGetTypeIDE4type
00000001d6ee27c0 (__DATA_DIRTY,__bss) non-external __ZGVZ19AGSubgraphGetTypeIDE4type
00000001d61558a0 (__DATA,__bss) non-external __ZGVZN2AG12_GLOBAL__N_119TypeDescriptorCache5fetchEPKNS_5swift8metadataEjNS_16LayoutDescriptor8HeapModeEiE13async_layouts
00000001d6ee27b0 (__DATA_DIRTY,__bss) non-external __ZGVZN2AG16LayoutDescriptor7Builder6commitEPKNS_5swift8metadataEE13print_layouts
00000001d6ee2780 (__DATA_DIRTY,__bss) non-external __ZGVZN2AG4data5table19make_pages_reusableEjbE14unmap_reusable
00000001d6155818 (__DATA,__bss) non-external __ZGVZN2AG5Graph13TraceRecorder15field_backtraceERNS_7EncoderEmE14n_stack_frames
00000001d6155808 (__DATA,__bss) non-external __ZGVZN2AG5Graph13TraceRecorder15field_timestampERNS_7EncoderEmE10time_scale
00000001d6155878 (__DATA,__bss) non-external __ZGVZN2AG5GraphC1EvEDC14profiler_flags11trace_flags16trace_subsystemsE
00000001d61558e0 (__DATA,__bss) non-external __ZGVZN2AG8misc_logEvE3log
00000001d61558f0 (__DATA,__bss) non-external __ZGVZN2AG9error_logEvE3log
00000001d61558d0 (__DATA,__bss) non-external __ZGVZNK2AG5Graph11print_cycleENS_4data3ptrINS_4NodeEEEE5traps
00000001d61558c0 (__DATA,__bss) non-external __ZGVZNK2AG5Graph11print_cycleENS_4data3ptrINS_4NodeEEEE9verbosity
00000001d6155500 (__DATA,__data) non-external (was a private external) __ZGVZNK2AG5swift8metadata17visit_heap_localsERNS0_16metadata_visitorEE12pointer_type
00000001d6155840 (__DATA,__bss) non-external __ZGVZNK2AG5swift8metadata28mangled_type_name_ref_cachedEPKcPNS1_8ref_kindEE5cache
00000001d6ee27a0 (__DATA_DIRTY,__bss) non-external __ZGVZNK2AG5swift8metadata5visitERNS0_16metadata_visitorEE13native_object
00000001d6ee2790 (__DATA_DIRTY,__bss) non-external __ZGVZNK2AG5swift8metadata9equatableEvE20nsobject_conformance
00000001d6155850 (__DATA,__bss) non-external __ZGVZNK2AG5swift8metadata9signatureEvE5cache
00000001d61558b0 (__DATA,__bss) non-external __ZL18should_record_tree
00000001acefc870 (__TEXT,__text) non-external __ZL23init_should_record_treePv
00000001d61558a8 (__DATA,__bss) non-external __ZL23should_record_tree_once
00000001acee1f64 (__TEXT,__text) non-external __ZL6updatePvPKvPKN2AG5swift8metadataEj
00000001d61573a8 (__DATA,__common) non-external (was a private external) __ZN11NamedEvents4lockE
00000001d61573b0 (__DATA,__common) non-external (was a private external) __ZN11NamedEvents5namesE
00000001acf00e14 (__TEXT,__text) non-external __ZN12_GLOBAL__N_114escaped_stringEP8NSStringm
00000001acf03ddc (__TEXT,__text) non-external __ZN12_GLOBAL__N_121read_cached_attributeEmPK15AGSwiftMetadataPKvS2_jjRhN2AG17ClosureFunctionCIImJP21AGUnownedGraphContextEEE
00000001acf04108 (__TEXT,__text) non-external __ZN12_GLOBAL__N_123create_offset_attributeEjmNSt3__18optionalImEE
00000001acf041f4 (__TEXT,__text) non-external __ZN12_GLOBAL__N_125create_indirect_attributeEjNSt3__18optionalImEE
00000001acf06d60 (__TEXT,__text) non-external (was a private external) __ZN13ExternalTrace10end_modifyEN2AG4data3ptrINS0_4NodeEEE
00000001acf06b70 (__TEXT,__text) non-external (was a private external) __ZN13ExternalTrace10end_updateEN2AG4data3ptrINS0_4NodeEEEb
00000001acf06b30 (__TEXT,__text) non-external (was a private external) __ZN13ExternalTrace10end_updateERN2AG5Graph11UpdateStackENS0_4data3ptrINS0_4NodeEEENS1_12UpdateStatusE
00000001acf06bf4 (__TEXT,__text) non-external (was a private external) __ZN13ExternalTrace10end_updateERN2AG5Graph7ContextE
00000001acf06aa8 (__TEXT,__text) non-external (was a private external) __ZN13ExternalTrace10end_updateERN2AG8SubgraphE
00000001acf07038 (__TEXT,__text) non-external (was a private external) __ZN13ExternalTrace10invalidateERN2AG8SubgraphE
00000001acf072bc (__TEXT,__text) non-external (was a private external) __ZN13ExternalTrace10mark_valueEN2AG4data3ptrINS0_4NodeEEE
00000001acf072f0 (__TEXT,__text) non-external (was a private external) __ZN13ExternalTrace10set_sourceEN2AG4data3ptrINS0_12IndirectNodeEEENS0_11AttributeIDE
00000001acf06d78 (__TEXT,__text) non-external (was a private external) __ZN13ExternalTrace11begin_eventEN2AG4data3ptrINS0_4NodeEEEj
00000001acf06934 (__TEXT,__text) non-external (was a private external) __ZN13ExternalTrace11begin_traceERN2AG5GraphE
00000001acf07428 (__TEXT,__text) non-external (was a private external) __ZN13ExternalTrace11named_eventERN2AG5Graph7ContextEjmPKjPK8__CFDataj
00000001acf071ec (__TEXT,__text) non-external (was a private external) __ZN13ExternalTrace11remove_edgeEN2AG4data3ptrINS0_4NodeEEEm
00000001acf0728c (__TEXT,__text) non-external (was a private external) __ZN13ExternalTrace11set_pendingEN2AG4data3ptrINS0_4NodeEEEb
00000001acf06d48 (__TEXT,__text) non-external (was a private external) __ZN13ExternalTrace12begin_modifyEN2AG4data3ptrINS0_4NodeEEE
00000001acf06b58 (__TEXT,__text) non-external (was a private external) __ZN13ExternalTrace12begin_updateEN2AG4data3ptrINS0_4NodeEEE
00000001acf06b14 (__TEXT,__text) non-external (was a private external) __ZN13ExternalTrace12begin_updateERN2AG5Graph11UpdateStackENS0_4data3ptrINS0_4NodeEEEj
00000001acf06b88 (__TEXT,__text) non-external (was a private external) __ZN13ExternalTrace12begin_updateERN2AG5Graph7ContextE
00000001acf06a34 (__TEXT,__text) non-external (was a private external) __ZN13ExternalTrace12begin_updateERN2AG8SubgraphEj
00000001acf07390 (__TEXT,__text) non-external (was a private external) __ZN13ExternalTrace12custom_eventERN2AG5Graph7ContextEPKcPKvPK15AGSwiftMetadata
00000001acf07328 (__TEXT,__text) non-external (was a private external) __ZN13ExternalTrace12mark_profileERN2AG5GraphEj
00000001acf06f60 (__TEXT,__text) non-external (was a private external) __ZN13ExternalTrace12needs_updateERN2AG5Graph7ContextE
00000001acf07130 (__TEXT,__text) non-external (was a private external) __ZN13ExternalTrace12remove_childERN2AG8SubgraphES2_
00000001acf0730c (__TEXT,__text) non-external (was a private external) __ZN13ExternalTrace14set_dependencyEN2AG4data3ptrINS0_12IndirectNodeEEENS0_11AttributeIDE
00000001acf06cd4 (__TEXT,__text) non-external (was a private external) __ZN13ExternalTrace16end_invalidationERN2AG5Graph7ContextENS0_11AttributeIDE
00000001acf07230 (__TEXT,__text) non-external (was a private external) __ZN13ExternalTrace16set_edge_pendingEN2AG4data3ptrINS0_4NodeEEEmb
00000001acf06c60 (__TEXT,__text) non-external (was a private external) __ZN13ExternalTrace18begin_invalidationERN2AG5Graph7ContextENS0_11AttributeIDE
00000001acf074e0 (__TEXT,__text) non-external (was a private external) __ZN13ExternalTrace19named_event_enabledEj
00000001acf072d4 (__TEXT,__text) non-external (was a private external) __ZN13ExternalTrace5addedEN2AG4data3ptrINS0_12IndirectNodeEEE
00000001acf071bc (__TEXT,__text) non-external (was a private external) __ZN13ExternalTrace5addedEN2AG4data3ptrINS0_4NodeEEE
00000001acf06e88 (__TEXT,__text) non-external (was a private external) __ZN13ExternalTrace7createdERN2AG5Graph7ContextE
00000001acf06fcc (__TEXT,__text) non-external (was a private external) __ZN13ExternalTrace7createdERN2AG8SubgraphE
00000001acf06ef4 (__TEXT,__text) non-external (was a private external) __ZN13ExternalTrace7destroyERN2AG5Graph7ContextE
00000001acf071d4 (__TEXT,__text) non-external (was a private external) __ZN13ExternalTrace8add_edgeEN2AG4data3ptrINS0_4NodeEEENS0_11AttributeIDEj
00000001acf070a4 (__TEXT,__text) non-external (was a private external) __ZN13ExternalTrace9add_childERN2AG8SubgraphES2_
00000001acf06e00 (__TEXT,__text) non-external (was a private external) __ZN13ExternalTrace9end_eventEN2AG4data3ptrINS0_4NodeEEEj
00000001acf069b4 (__TEXT,__text) non-external (was a private external) __ZN13ExternalTrace9end_traceERN2AG5GraphE
00000001acf07274 (__TEXT,__text) non-external (was a private external) __ZN13ExternalTrace9set_dirtyEN2AG4data3ptrINS0_4NodeEEEb
00000001acf072a4 (__TEXT,__text) non-external (was a private external) __ZN13ExternalTrace9set_valueEN2AG4data3ptrINS0_4NodeEEEPKv
00000001acf06930 (__TEXT,__text) non-external (was a private external) __ZN13ExternalTraceD0Ev
00000001acf06364 (__TEXT,__text) non-external (was a private external) __ZN13ExternalTraceD1Ev
00000001aceef500 (__TEXT,__text) non-external (was a private external) __ZN2AG11DebugServer10Connection7handlerEPv
00000001aceefafc (__TEXT,__text) non-external (was a private external) __ZN2AG11DebugServer10ConnectionC2EPS0_i
00000001aceefba4 (__TEXT,__text) non-external (was a private external) __ZN2AG11DebugServer10ConnectionD2Ev
00000001d6157398 (__DATA,__common) non-external (was a private external) __ZN2AG11DebugServer14_shared_serverE
00000001aceeefd4 (__TEXT,__text) non-external (was a private external) __ZN2AG11DebugServer14accept_handlerEPv
00000001aceef678 (__TEXT,__text) non-external (was a private external) __ZN2AG11DebugServer16close_connectionEPNS0_10ConnectionE
00000001aceef2c0 (__TEXT,__text) non-external (was a private external) __ZN2AG11DebugServer3runEi
00000001aceeec08 (__TEXT,__text) non-external (was a private external) __ZN2AG11DebugServer4stopEv
00000001aceeeb88 (__TEXT,__text) non-external (was a private external) __ZN2AG11DebugServer5startEj
00000001aceef6cc (__TEXT,__text) non-external (was a private external) __ZN2AG11DebugServer7receiveEPNS0_10ConnectionER26AGDebugServerMessageHeaderP8__CFData
00000001aceeef78 (__TEXT,__text) non-external (was a private external) __ZN2AG11DebugServer8shutdownEv
00000001aceeec3c (__TEXT,__text) non-external (was a private external) __ZN2AG11DebugServerC2Ej
00000001aceef168 (__TEXT,__text) non-external (was a private external) __ZN2AG11DebugServerD2Ev
00000001acefb914 (__TEXT,__text) non-external (was a private external) __ZN2AG12IndirectNode6modifyENS_11AttributeIDEm
00000001acedac14 (__TEXT,__text) non-external __ZN2AG12_GLOBAL__N_110uuid_equalEPhS1_
00000001acf00174 (__TEXT,__text) non-external __ZN2AG12_GLOBAL__N_111trap_cyclesEv
00000001aceefbf8 (__TEXT,__text) non-external __ZN2AG12_GLOBAL__N_113blocking_readEiPvm
00000001acf14afc (__TEXT,__text) non-external __ZN2AG12_GLOBAL__N_113blocking_readEiPvm.cold.1
00000001aceefcc0 (__TEXT,__text) non-external __ZN2AG12_GLOBAL__N_114blocking_writeEiPKvm
00000001acf14b28 (__TEXT,__text) non-external __ZN2AG12_GLOBAL__N_114blocking_writeEiPKvm.cold.1
00000001acf00134 (__TEXT,__text) non-external __ZN2AG12_GLOBAL__N_115cycle_verbosityEv
00000001acef99ac (__TEXT,__text) non-external __ZN2AG12_GLOBAL__N_119TypeDescriptorCache11drain_queueEPv
00000001d6155888 (__DATA,__bss) non-external __ZN2AG12_GLOBAL__N_119TypeDescriptorCache12_shared_onceE
00000001d6155890 (__DATA,__bss) non-external __ZN2AG12_GLOBAL__N_119TypeDescriptorCache13_shared_cacheE
00000001acef98ec (__TEXT,__text) non-external __ZN2AG12_GLOBAL__N_119TypeDescriptorCache17init_shared_cacheEPv
00000001acef8520 (__TEXT,__text) non-external __ZN2AG12_GLOBAL__N_119TypeDescriptorCache5fetchEPKNS_5swift8metadataEjNS_16LayoutDescriptor8HeapModeEi
00000001acedac0c (__TEXT,__text) non-external __ZN2AG12_GLOBAL__N_19uuid_hashEPh
00000001acef66dc (__TEXT,__text) non-external (was a private external) __ZN2AG13compare_bytesEPKvS1_m
00000001acef8070 (__TEXT,__text) non-external (was a private external) __ZN2AG16LayoutDescriptor11make_layoutEPKNS_5swift8metadataE16AGComparisonModeNS0_8HeapModeE
00000001d61573a0 (__DATA,__common) non-external (was a private external) __ZN2AG16LayoutDescriptor12base_addressE
00000001acef5644 (__TEXT,__text) non-external (was a private external) __ZN2AG16LayoutDescriptor12find_partialEPKhmm
00000001acef8348 (__TEXT,__text) non-external (was a private external) __ZN2AG16LayoutDescriptor13mode_for_typeEPKNS_5swift8metadataE16AGComparisonMode
00000001acef6a14 (__TEXT,__text) non-external (was a private external) __ZN2AG16LayoutDescriptor15compare_partialEPKhS2_S2_mmj
00000001acef591c (__TEXT,__text) non-external (was a private external) __ZN2AG16LayoutDescriptor16compare_indirectERNS_11ValueLayoutEPKNS_5swift8metadataES6_jPKhS8_
00000001acef6748 (__TEXT,__text) non-external (was a private external) __ZN2AG16LayoutDescriptor20compare_heap_objectsEPKvS2_jb
00000001acef5bf8 (__TEXT,__text) non-external (was a private external) __ZN2AG16LayoutDescriptor26compare_existential_valuesEPKNS_5swift25existential_type_metadataEPKhS6_j
00000001acef8718 (__TEXT,__text) non-external (was a private external) __ZN2AG16LayoutDescriptor28add_type_descriptor_overrideEPKv16AGComparisonMode
00000001acef8494 (__TEXT,__text) non-external (was a private external) __ZN2AG16LayoutDescriptor5fetchEPKNS_5swift8metadataEji
00000001acef6c08 (__TEXT,__text) non-external (was a private external) __ZN2AG16LayoutDescriptor5printEPKh
00000001acef6afc (__TEXT,__text) non-external (was a private external) __ZN2AG16LayoutDescriptor6lengthEPKh
00000001acef75bc (__TEXT,__text) non-external (was a private external) __ZN2AG16LayoutDescriptor7Builder10visit_caseEPKNS_5swift8metadataERKNS2_12field_recordEj
00000001acef7184 (__TEXT,__text) non-external (was a private external) __ZN2AG16LayoutDescriptor7Builder13visit_elementEPKNS_5swift8metadataENS3_8ref_kindEmm
00000001acef7b68 (__TEXT,__text) non-external (was a private external) __ZN2AG16LayoutDescriptor7Builder14visit_functionEPKNS_5swift22function_type_metadataE
00000001acef7a98 (__TEXT,__text) non-external (was a private external) __ZN2AG16LayoutDescriptor7Builder17visit_existentialEPKNS_5swift25existential_type_metadataE
00000001acef7320 (__TEXT,__text) non-external (was a private external) __ZN2AG16LayoutDescriptor7Builder19should_visit_fieldsEPKNS_5swift8metadataEb
00000001acef7c30 (__TEXT,__text) non-external (was a private external) __ZN2AG16LayoutDescriptor7Builder19visit_native_objectEPKNS_5swift8metadataE
00000001d61573a4 (__DATA,__common) non-external (was a private external) __ZN2AG16LayoutDescriptor7Builder5_lockE
00000001d6ee2778 (__DATA_DIRTY,__common) non-external (was a private external) __ZN2AG16LayoutDescriptor7Builder6_availE
00000001acef7ccc (__TEXT,__text) non-external (was a private external) __ZN2AG16LayoutDescriptor7Builder6commitEPKNS_5swift8metadataE
00000001acef7500 (__TEXT,__text) non-external (was a private external) __ZN2AG16LayoutDescriptor7Builder6revertENSt3__14pairImNS1_8DataItemEEE
00000001acef8cd8 (__TEXT,__text) non-external (was a private external) __ZN2AG16LayoutDescriptor7Builder7EmitterINS_6vectorIhLm512EmEEE5enterERKNS1_9RangeItemE
00000001acef8ef4 (__TEXT,__text) non-external (was a private external) __ZN2AG16LayoutDescriptor7Builder7EmitterINS_6vectorIhLm512EmEEEclERKNS1_10EqualsItemE
00000001acef9288 (__TEXT,__text) non-external (was a private external) __ZN2AG16LayoutDescriptor7Builder7EmitterINS_6vectorIhLm512EmEEEclERKNS1_10NestedItemE
00000001acef91f4 (__TEXT,__text) non-external (was a private external) __ZN2AG16LayoutDescriptor7Builder7EmitterINS_6vectorIhLm512EmEEEclERKNS1_11HeapRefItemE
00000001acef900c (__TEXT,__text) non-external (was a private external) __ZN2AG16LayoutDescriptor7Builder7EmitterINS_6vectorIhLm512EmEEEclERKNS1_12IndirectItemE
00000001acef9120 (__TEXT,__text) non-external (was a private external) __ZN2AG16LayoutDescriptor7Builder7EmitterINS_6vectorIhLm512EmEEEclERKNS1_15ExistentialItemE
00000001acef8be0 (__TEXT,__text) non-external (was a private external) __ZN2AG16LayoutDescriptor7Builder7EmitterINS_6vectorIhLm512EmEEEclERKNS1_8DataItemE
00000001acef9578 (__TEXT,__text) non-external (was a private external) __ZN2AG16LayoutDescriptor7Builder7EmitterINS_6vectorIhLm512EmEEEclERKNS1_8EnumItemE
00000001d6ee2770 (__DATA_DIRTY,__common) non-external (was a private external) __ZN2AG16LayoutDescriptor7Builder7_bufferE
00000001acef79f0 (__TEXT,__text) non-external (was a private external) __ZN2AG16LayoutDescriptor7Builder8EnumItemD1Ev
00000001acef70bc (__TEXT,__text) non-external (was a private external) __ZN2AG16LayoutDescriptor7Builder9add_fieldEm
00000001acef8420 (__TEXT,__text) non-external (was a private external) __ZN2AG16LayoutDescriptor7BuilderD1Ev
00000001acef5d24 (__TEXT,__text) non-external (was a private external) __ZN2AG16LayoutDescriptor7Compare4EnumC2EPKNS_5swift8metadataENS2_4ModeEjmPKhS9_PhSA_b
00000001acef5e1c (__TEXT,__text) non-external (was a private external) __ZN2AG16LayoutDescriptor7Compare4EnumD2Ev
00000001acef6860 (__TEXT,__text) non-external (was a private external) __ZN2AG16LayoutDescriptor7Compare5FrameD1Ev
00000001acef69b0 (__TEXT,__text) non-external (was a private external) __ZN2AG16LayoutDescriptor7CompareD1Ev
00000001acef5f1c (__TEXT,__text) non-external (was a private external) __ZN2AG16LayoutDescriptor7CompareclEPKhS3_S3_mj
00000001acef68bc (__TEXT,__text) non-external (was a private external) __ZN2AG16LayoutDescriptor7compareEPKhS2_S2_mj
00000001acf05fc8 (__TEXT,__text) non-external (was a private external) __ZN2AG20precondition_failureEPKcz
00000001acef130c (__TEXT,__text) non-external (was a private external) __ZN2AG23indirect_pointer_vectorINS_8SubgraphEmE5clearEv
00000001acef1958 (__TEXT,__text) non-external (was a private external) __ZN2AG23indirect_pointer_vectorINS_8SubgraphEmE6resizeEm
00000001acef2274 (__TEXT,__text) non-external (was a private external) __ZN2AG23indirect_pointer_vectorINS_8SubgraphEmE9push_backEPS1_
00000001acef1068 (__TEXT,__text) non-external (was a private external) __ZN2AG23indirect_pointer_vectorINS_8SubgraphEmED1Ev
00000001acf060a0 (__TEXT,__text) non-external (was a private external) __ZN2AG30non_fatal_precondition_failureEPKcz
00000001acf14b54 (__TEXT,__text) non-external __ZN2AG30non_fatal_precondition_failureEPKcz.cold.1
00000001acefb3f0 (__TEXT,__text) non-external (was a private external) __ZN2AG4Node11update_selfERNS_5GraphEPKv
00000001acefb518 (__TEXT,__text) non-external (was a private external) __ZN2AG4Node12destroy_selfERNS_5GraphE
00000001acefb604 (__TEXT,__text) non-external (was a private external) __ZN2AG4Node13destroy_valueERNS_5GraphE
00000001acefb69c (__TEXT,__text) non-external (was a private external) __ZN2AG4Node14allocate_valueERNS_5GraphERNS_4data4zoneE
00000001acefb258 (__TEXT,__text) non-external (was a private external) __ZN2AG4Node7destroyERNS_5GraphE
00000001d6ee26f0 (__DATA_DIRTY,__common) non-external (was a private external) __ZN2AG4data19_shared_table_bytesE
00000001acedf060 (__TEXT,__text) non-external (was a private external) __ZN2AG4data4zone10alloc_slowEjj
00000001acedf5fc (__TEXT,__text) non-external (was a private external) __ZN2AG4data4zone12print_headerEv
00000001acedf260 (__TEXT,__text) non-external (was a private external) __ZN2AG4data4zone13realloc_bytesERNS0_3ptrIvEEjjj
00000001acedf1c8 (__TEXT,__text) non-external (was a private external) __ZN2AG4data4zone16alloc_persistentEmm
00000001acedf350 (__TEXT,__text) non-external (was a private external) __ZN2AG4data4zone19alloc_bytes_recycleEjj
00000001acedefd8 (__TEXT,__text) non-external (was a private external) __ZN2AG4data4zone5clearEv
00000001acef10b0 (__TEXT,__text) non-external (was a private external) __ZN2AG4data4zoneD1Ev
00000001acedeb98 (__TEXT,__text) non-external (was a private external) __ZN2AG4data5table10alloc_pageERNS0_4zoneEj
00000001acede958 (__TEXT,__text) non-external (was a private external) __ZN2AG4data5table11grow_regionEv
00000001d6157388 (__DATA,__common) non-external (was a private external) __ZN2AG4data5table12_malloc_zoneE
00000001acede7f8 (__TEXT,__text) non-external (was a private external) __ZN2AG4data5table13ensure_sharedEv
00000001acedee4c (__TEXT,__text) non-external (was a private external) __ZN2AG4data5table19dealloc_page_lockedENS0_3ptrINS0_4pageEEE
00000001acedea94 (__TEXT,__text) non-external (was a private external) __ZN2AG4data5table19make_pages_reusableEjb
00000001acede848 (__TEXT,__text) non-external (was a private external) __ZN2AG4data5tableC2Ev
00000001acf14a80 (__TEXT,__text) non-external __ZN2AG4data5tableC2Ev.cold.1
00000001aceee89c (__TEXT,__text) non-external (was a private external) __ZN2AG4data6vectorINS_10OutputEdgeEE12reserve_slowERNS0_4zoneEj
00000001aceeea30 (__TEXT,__text) non-external (was a private external) __ZN2AG4data6vectorINS_9InputEdgeEE12reserve_slowERNS0_4zoneEj
00000001aceecd68 (__TEXT,__text) non-external (was a private external) __ZN2AG5Graph10intern_keyEPKc
00000001aceec3dc (__TEXT,__text) non-external (was a private external) __ZN2AG5Graph10value_markENS_4data3ptrINS_4NodeEEE
00000001acee50e8 (__TEXT,__text) non-external (was a private external) __ZN2AG5Graph11ProfileData11remove_nodeENS_4data3ptrINS_4NodeEEEj
00000001acee4de8 (__TEXT,__text) non-external (was a private external) __ZN2AG5Graph11ProfileData4Item4markEjy
00000001acee4c9c (__TEXT,__text) non-external (was a private external) __ZN2AG5Graph11ProfileData4ItempLERKS2_
00000001acee4e78 (__TEXT,__text) non-external (was a private external) __ZN2AG5Graph11ProfileData8Category10add_updateENS_4data3ptrINS_4NodeEEEyb
00000001acee5074 (__TEXT,__text) non-external (was a private external) __ZN2AG5Graph11ProfileData8Category4markEjy
00000001acee5034 (__TEXT,__text) non-external (was a private external) __ZN2AG5Graph11ProfileData8CategoryD1Ev
00000001acee4f34 (__TEXT,__text) non-external (was a private external) __ZN2AG5Graph11ProfileDataC2ERKS0_
00000001acee35a4 (__TEXT,__text) non-external (was a private external) __ZN2AG5Graph11UpdateStack6updateEv
00000001acee338c (__TEXT,__text) non-external (was a private external) __ZN2AG5Graph11UpdateStack9push_slowENS_4data3ptrINS_4NodeEEERS4_bb
00000001acee41f4 (__TEXT,__text) non-external (was a private external) __ZN2AG5Graph11UpdateStackD1Ev
00000001d6ee2758 (__DATA_DIRTY,__common) non-external (was a private external) __ZN2AG5Graph11_all_graphsE
00000001acee9ae8 (__TEXT,__text) non-external (was a private external) __ZN2AG5Graph11call_updateEv
00000001acefcef0 (__TEXT,__text) non-external (was a private external) __ZN2AG5Graph11descriptionEPKS0_P12NSDictionary
00000001acee9bd8 (__TEXT,__text) non-external (was a private external) __ZN2AG5Graph11intern_typeEPKNS_5swift8metadataENS_17ClosureFunctionVPIPvJEEE
00000001aceeac88 (__TEXT,__text) non-external (was a private external) __ZN2AG5Graph11remove_nodeENS_4data3ptrINS_4NodeEEE
00000001acee42b8 (__TEXT,__text) non-external (was a private external) __ZN2AG5Graph11with_updateENS_4data3ptrINS_4NodeEEENS_17ClosureFunctionVVIvJEEE
00000001acee4b3c (__TEXT,__text) non-external (was a private external) __ZN2AG5Graph12ProfileTrace10end_updateENS_4data3ptrINS_4NodeEEEb
00000001acee4a10 (__TEXT,__text) non-external (was a private external) __ZN2AG5Graph12ProfileTrace10end_updateERNS0_11UpdateStackENS_4data3ptrINS_4NodeEEENS0_12UpdateStatusE
00000001acee4ac4 (__TEXT,__text) non-external (was a private external) __ZN2AG5Graph12ProfileTrace12begin_updateENS_4data3ptrINS_4NodeEEE
00000001acee4998 (__TEXT,__text) non-external (was a private external) __ZN2AG5Graph12ProfileTrace12begin_updateERNS0_11UpdateStackENS_4data3ptrINS_4NodeEEEj
00000001acee5994 (__TEXT,__text) non-external (was a private external) __ZN2AG5Graph12ProfileTraceD0Ev
00000001acee5950 (__TEXT,__text) non-external (was a private external) __ZN2AG5Graph12ProfileTraceD1Ev
00000001acee2558 (__TEXT,__text) non-external (was a private external) __ZN2AG5Graph12mark_changedENS_11AttributeIDEPKNS_13AttributeTypeEPKvS6_m
00000001acee2394 (__TEXT,__text) non-external (was a private external) __ZN2AG5Graph12mark_changedENS_4data3ptrINS_4NodeEEEPKNS_13AttributeTypeEPKvS9_
00000001acee2dbc (__TEXT,__text) non-external (was a private external) __ZN2AG5Graph12mark_pendingENS_4data3ptrINS_4NodeEEERS3_
00000001acee5418 (__TEXT,__text) non-external (was a private external) __ZN2AG5Graph12mark_profileEjy
00000001aceebc28 (__TEXT,__text) non-external (was a private external) __ZN2AG5Graph12remove_inputENS_4data3ptrINS_4NodeEEEm
00000001acee9a0c (__TEXT,__text) non-external (was a private external) __ZN2AG5Graph12remove_traceEm
00000001acee44c4 (__TEXT,__text) non-external (was a private external) __ZN2AG5Graph12reset_updateENS_4data3ptrINS_4NodeEEE
00000001acede33c (__TEXT,__text) non-external (was a private external) __ZN2AG5Graph12stop_tracingEv
00000001acede370 (__TEXT,__text) non-external (was a private external) __ZN2AG5Graph12sync_tracingEv
00000001acedc4dc (__TEXT,__text) non-external (was a private external) __ZN2AG5Graph13TraceRecorder10end_modifyENS_4data3ptrINS_4NodeEEE
00000001acedc048 (__TEXT,__text) non-external (was a private external) __ZN2AG5Graph13TraceRecorder10end_updateENS_4data3ptrINS_4NodeEEEb
00000001acedbec0 (__TEXT,__text) non-external (was a private external) __ZN2AG5Graph13TraceRecorder10end_updateERNS0_11UpdateStackENS_4data3ptrINS_4NodeEEENS0_12UpdateStatusE
00000001acedc1cc (__TEXT,__text) non-external (was a private external) __ZN2AG5Graph13TraceRecorder10end_updateERNS0_7ContextE
00000001acedbd34 (__TEXT,__text) non-external (was a private external) __ZN2AG5Graph13TraceRecorder10end_updateERNS_8SubgraphE
00000001acedca2c (__TEXT,__text) non-external (was a private external) __ZN2AG5Graph13TraceRecorder10invalidateERNS_8SubgraphE
00000001acedd3ac (__TEXT,__text) non-external (was a private external) __ZN2AG5Graph13TraceRecorder10mark_valueENS_4data3ptrINS_4NodeEEE
00000001acedd540 (__TEXT,__text) non-external (was a private external) __ZN2AG5Graph13TraceRecorder10set_sourceENS_4data3ptrINS_12IndirectNodeEEENS_11AttributeIDE
00000001acedbafc (__TEXT,__text) non-external (was a private external) __ZN2AG5Graph13TraceRecorder10sync_traceEv
00000001acedc59c (__TEXT,__text) non-external (was a private external) __ZN2AG5Graph13TraceRecorder11begin_eventENS_4data3ptrINS_4NodeEEEj
00000001acedba20 (__TEXT,__text) non-external (was a private external) __ZN2AG5Graph13TraceRecorder11begin_traceERS0_
00000001acedb5e4 (__TEXT,__text) non-external (was a private external) __ZN2AG5Graph13TraceRecorder11encode_keysEv
00000001acedd894 (__TEXT,__text) non-external (was a private external) __ZN2AG5Graph13TraceRecorder11named_eventERNS0_7ContextEjmPKjPK8__CFDataj
00000001acedcf70 (__TEXT,__text) non-external (was a private external) __ZN2AG5Graph13TraceRecorder11remove_edgeENS_4data3ptrINS_4NodeEEEm
00000001acedd238 (__TEXT,__text) non-external (was a private external) __ZN2AG5Graph13TraceRecorder11set_pendingENS_4data3ptrINS_4NodeEEEb
00000001acedc430 (__TEXT,__text) non-external (was a private external) __ZN2AG5Graph13TraceRecorder12begin_modifyENS_4data3ptrINS_4NodeEEE
00000001acedbf9c (__TEXT,__text) non-external (was a private external) __ZN2AG5Graph13TraceRecorder12begin_updateENS_4data3ptrINS_4NodeEEE
00000001acedbde4 (__TEXT,__text) non-external (was a private external) __ZN2AG5Graph13TraceRecorder12begin_updateERNS0_11UpdateStackENS_4data3ptrINS_4NodeEEEj
00000001acedc120 (__TEXT,__text) non-external (was a private external) __ZN2AG5Graph13TraceRecorder12begin_updateERNS0_7ContextE
00000001acedbc54 (__TEXT,__text) non-external (was a private external) __ZN2AG5Graph13TraceRecorder12begin_updateERNS_8SubgraphEj
00000001acedd7e0 (__TEXT,__text) non-external (was a private external) __ZN2AG5Graph13TraceRecorder12custom_eventERNS0_7ContextEPKcPKvPK15AGSwiftMetadata
00000001acedb2f4 (__TEXT,__text) non-external (was a private external) __ZN2AG5Graph13TraceRecorder12encode_stackEv
00000001acedb448 (__TEXT,__text) non-external (was a private external) __ZN2AG5Graph13TraceRecorder12encode_typesEv
00000001acedd738 (__TEXT,__text) non-external (was a private external) __ZN2AG5Graph13TraceRecorder12mark_profileERS0_j
00000001acedc8ac (__TEXT,__text) non-external (was a private external) __ZN2AG5Graph13TraceRecorder12needs_updateERNS0_7ContextE
00000001acedcc9c (__TEXT,__text) non-external (was a private external) __ZN2AG5Graph13TraceRecorder12remove_childERNS_8SubgraphES3_
00000001acedb7fc (__TEXT,__text) non-external (was a private external) __ZN2AG5Graph13TraceRecorder13flush_encoderERNS_7EncoderE
00000001acedbb34 (__TEXT,__text) non-external (was a private external) __ZN2AG5Graph13TraceRecorder13log_message_vEPKcPc
00000001acedd650 (__TEXT,__text) non-external (was a private external) __ZN2AG5Graph13TraceRecorder14set_dependencyENS_4data3ptrINS_12IndirectNodeEEENS_11AttributeIDE
00000001acedb6c0 (__TEXT,__text) non-external (was a private external) __ZN2AG5Graph13TraceRecorder15encode_snapshotEv
00000001acedaedc (__TEXT,__text) non-external (was a private external) __ZN2AG5Graph13TraceRecorder15field_backtraceERNS_7EncoderEm
00000001acedae08 (__TEXT,__text) non-external (was a private external) __ZN2AG5Graph13TraceRecorder15field_timestampERNS_7EncoderEm
00000001acedc354 (__TEXT,__text) non-external (was a private external) __ZN2AG5Graph13TraceRecorder16end_invalidationERNS0_7ContextENS_11AttributeIDE
00000001acedd060 (__TEXT,__text) non-external (was a private external) __ZN2AG5Graph13TraceRecorder16set_edge_pendingENS_4data3ptrINS_4NodeEEEmb
00000001acedc278 (__TEXT,__text) non-external (was a private external) __ZN2AG5Graph13TraceRecorder18begin_invalidationERNS0_7ContextENS_11AttributeIDE
00000001acedda34 (__TEXT,__text) non-external (was a private external) __ZN2AG5Graph13TraceRecorder19named_event_enabledEj
00000001acedd450 (__TEXT,__text) non-external (was a private external) __ZN2AG5Graph13TraceRecorder5addedENS_4data3ptrINS_12IndirectNodeEEE
00000001acedcd6c (__TEXT,__text) non-external (was a private external) __ZN2AG5Graph13TraceRecorder5addedENS_4data3ptrINS_4NodeEEE
00000001acedc73c (__TEXT,__text) non-external (was a private external) __ZN2AG5Graph13TraceRecorder7createdERNS0_7ContextE
00000001acedc950 (__TEXT,__text) non-external (was a private external) __ZN2AG5Graph13TraceRecorder7createdERNS_8SubgraphE
00000001acedc7f4 (__TEXT,__text) non-external (was a private external) __ZN2AG5Graph13TraceRecorder7destroyERNS0_7ContextE
00000001acedcb10 (__TEXT,__text) non-external (was a private external) __ZN2AG5Graph13TraceRecorder7destroyERNS_8SubgraphE
00000001acedce94 (__TEXT,__text) non-external (was a private external) __ZN2AG5Graph13TraceRecorder8add_edgeENS_4data3ptrINS_4NodeEEENS_11AttributeIDEj
00000001acedcbcc (__TEXT,__text) non-external (was a private external) __ZN2AG5Graph13TraceRecorder9add_childERNS_8SubgraphES3_
00000001acedc66c (__TEXT,__text) non-external (was a private external) __ZN2AG5Graph13TraceRecorder9end_eventENS_4data3ptrINS_4NodeEEEj
00000001acedba88 (__TEXT,__text) non-external (was a private external) __ZN2AG5Graph13TraceRecorder9end_traceERS0_
00000001acedd168 (__TEXT,__text) non-external (was a private external) __ZN2AG5Graph13TraceRecorder9set_dirtyENS_4data3ptrINS_4NodeEEEb
00000001acedd308 (__TEXT,__text) non-external (was a private external) __ZN2AG5Graph13TraceRecorder9set_valueENS_4data3ptrINS_4NodeEEEPKv
00000001aceda9b8 (__TEXT,__text) non-external (was a private external) __ZN2AG5Graph13TraceRecorderC2ERKS0_jNSt3__14spanIPKcLm18446744073709551615EEE
00000001acedade0 (__TEXT,__text) non-external (was a private external) __ZN2AG5Graph13TraceRecorderD0Ev
00000001acedaddc (__TEXT,__text) non-external (was a private external) __ZN2AG5Graph13TraceRecorderD1Ev
00000001acedad0c (__TEXT,__text) non-external (was a private external) __ZN2AG5Graph13TraceRecorderD2Ev
00000001aceea058 (__TEXT,__text) non-external (was a private external) __ZN2AG5Graph13add_attributeERNS_8SubgraphEjPKvS4_
00000001acee9920 (__TEXT,__text) non-external (was a private external) __ZN2AG5Graph13context_by_idEm
00000001acee5404 (__TEXT,__text) non-external (was a private external) __ZN2AG5Graph13reset_profileEv
00000001aceddc60 (__TEXT,__text) non-external (was a private external) __ZN2AG5Graph13start_tracingEjNSt3__14spanIPKcLm18446744073709551615EEE
00000001acf005d0 (__TEXT,__text) non-external (was a private external) __ZN2AG5Graph13write_to_fileEPKS0_PKc
00000001aceecb84 (__TEXT,__text) non-external (was a private external) __ZN2AG5Graph14index_of_inputERNS_4NodeENS_9InputEdge10ComparatorE
00000001acee53c8 (__TEXT,__text) non-external (was a private external) __ZN2AG5Graph14stop_profilingEv
00000001aceec1c8 (__TEXT,__text) non-external (was a private external) __ZN2AG5Graph14value_mark_allEv
00000001aceecf28 (__TEXT,__text) non-external (was a private external) __ZN2AG5Graph15TreeDataElement10sort_nodesEv
00000001acee9e40 (__TEXT,__text) non-external (was a private external) __ZN2AG5Graph15add_output_edgeINS_19MutableIndirectNodeEEEvNS_4data3ptrIT_EENS_11AttributeIDE
00000001acee9db8 (__TEXT,__text) non-external (was a private external) __ZN2AG5Graph15add_output_edgeINS_4NodeEEEvNS_4data3ptrIT_EENS_11AttributeIDE
00000001acee3de8 (__TEXT,__text) non-external (was a private external) __ZN2AG5Graph15passed_deadlineEv
00000001acee28ec (__TEXT,__text) non-external (was a private external) __ZN2AG5Graph15propagate_dirtyENS_11AttributeIDE
00000001acef1804 (__TEXT,__text) non-external (was a private external) __ZN2AG5Graph15remove_subgraphERNS_8SubgraphE
00000001acee51e8 (__TEXT,__text) non-external (was a private external) __ZN2AG5Graph15start_profilingEj
00000001d6157390 (__DATA,__common) non-external (was a private external) __ZN2AG5Graph16_all_graphs_lockE
00000001acee5674 (__TEXT,__text) non-external (was a private external) __ZN2AG5Graph16all_mark_profileEPKc
00000001acede470 (__TEXT,__text) non-external (was a private external) __ZN2AG5Graph16all_stop_tracingEv
00000001acede4f8 (__TEXT,__text) non-external (was a private external) __ZN2AG5Graph16all_sync_tracingEv
00000001aceeb080 (__TEXT,__text) non-external (was a private external) __ZN2AG5Graph16attribute_modifyENS_4data3ptrINS_4NodeEEEPK15AGSwiftMetadataNS_17ClosureFunctionPVIvJPvEEEb
00000001aceecc9c (__TEXT,__text) non-external (was a private external) __ZN2AG5Graph16output_value_refENS_4data3ptrINS_4NodeEEEPK15AGSwiftMetadata
00000001acee3e38 (__TEXT,__text) non-external (was a private external) __ZN2AG5Graph16update_attributeENS_4data3ptrINS_4NodeEEEj
00000001acee2f2c (__TEXT,__text) non-external (was a private external) __ZN2AG5Graph16update_main_refsENS_11AttributeIDE
00000001acee5608 (__TEXT,__text) non-external (was a private external) __ZN2AG5Graph17all_reset_profileEv
00000001acede3dc (__TEXT,__text) non-external (was a private external) __ZN2AG5Graph17all_start_tracingEjNSt3__14spanIPKcLm18446744073709551615EEE
00000001acee9b44 (__TEXT,__text) non-external (was a private external) __ZN2AG5Graph17call_main_handlerEPKvPFvS2_E
00000001acefd058 (__TEXT,__text) non-external (was a private external) __ZN2AG5Graph17description_graphEPKS0_P12NSDictionary
00000001acee57dc (__TEXT,__text) non-external (was a private external) __ZN2AG5Graph17end_profile_eventENS_4data3ptrINS_4NodeEEEPKcyb
00000001aceebca0 (__TEXT,__text) non-external (was a private external) __ZN2AG5Graph17remove_all_inputsENS_4data3ptrINS_4NodeEEE
00000001aceeab44 (__TEXT,__text) non-external (was a private external) __ZN2AG5Graph17remove_input_edgeENS_4data3ptrINS_4NodeEEERS3_m
00000001acee4bf0 (__TEXT,__text) non-external (was a private external) __ZN2AG5Graph18add_profile_updateENS_4data3ptrINS_4NodeEEEyb
00000001aceebd58 (__TEXT,__text) non-external (was a private external) __ZN2AG5Graph18all_inputs_removedENS_4data3ptrINS_4NodeEEE
00000001acee557c (__TEXT,__text) non-external (was a private external) __ZN2AG5Graph18all_stop_profilingEv
00000001aceecbf8 (__TEXT,__text) non-external (was a private external) __ZN2AG5Graph18any_inputs_changedENS_4data3ptrINS_4NodeEEEPKjm
00000001acee9ff0 (__TEXT,__text) non-external (was a private external) __ZN2AG5Graph18remove_output_edgeINS_19MutableIndirectNodeEEEvNS_4data3ptrIT_EENS_11AttributeIDE
00000001acee9f64 (__TEXT,__text) non-external (was a private external) __ZN2AG5Graph18remove_output_edgeINS_4NodeEEEvNS_4data3ptrIT_EENS_11AttributeIDE
00000001aceea3b4 (__TEXT,__text) non-external (was a private external) __ZN2AG5Graph18value_set_internalENS_4data3ptrINS_4NodeEEERS3_PKvPK15AGSwiftMetadata
00000001d6ee2750 (__DATA_DIRTY,__common) non-external (was a private external) __ZN2AG5Graph19_current_update_keyE
00000001acee5500 (__TEXT,__text) non-external (was a private external) __ZN2AG5Graph19all_start_profilingEj
00000001acee5710 (__TEXT,__text) non-external (was a private external) __ZN2AG5Graph19begin_profile_eventENS_4data3ptrINS_4NodeEEEPKc
00000001acefb7dc (__TEXT,__text) non-external (was a private external) __ZN2AG5Graph19compare_edge_valuesENS_9InputEdgeEPKNS_13AttributeTypeEPKvS6_
00000001aceebda0 (__TEXT,__text) non-external (was a private external) __ZN2AG5Graph19index_of_input_slowERNS_4NodeENS_9InputEdge10ComparatorE
00000001aceec728 (__TEXT,__text) non-external (was a private external) __ZN2AG5Graph20input_value_ref_slowENS_4data3ptrINS_4NodeEEENS_11AttributeIDEjjPK15AGSwiftMetadataRhl
00000001acef042c (__TEXT,__text) non-external (was a private external) __ZN2AG5Graph20invalidate_subgraphsEv
00000001aceead9c (__TEXT,__text) non-external (was a private external) __ZN2AG5Graph20remove_indirect_nodeENS_4data3ptrINS_12IndirectNodeEEE
00000001aceea7c0 (__TEXT,__text) non-external (was a private external) __ZN2AG5Graph20remove_removed_inputENS_11AttributeIDES1_
00000001acef2ee8 (__TEXT,__text) non-external (was a private external) __ZN2AG5Graph20without_invalidatingD1Ev
00000001aceea8cc (__TEXT,__text) non-external (was a private external) __ZN2AG5Graph21remove_removed_outputENS_11AttributeIDES1_b
00000001aceeb22c (__TEXT,__text) non-external (was a private external) __ZN2AG5Graph22add_indirect_attributeERNS_8SubgraphENS_11AttributeIDEmNSt3__18optionalImEEb
00000001acee9d1c (__TEXT,__text) non-external (was a private external) __ZN2AG5Graph22add_input_dependenciesENS_11AttributeIDES1_
00000001aceeb4b4 (__TEXT,__text) non-external (was a private external) __ZN2AG5Graph22indirect_attribute_setENS_4data3ptrINS_12IndirectNodeEEENS_11AttributeIDE
00000001acede244 (__TEXT,__text) non-external (was a private external) __ZN2AG5Graph23trace_assertion_failureEbPKcz
00000001acee9ec8 (__TEXT,__text) non-external (was a private external) __ZN2AG5Graph25remove_input_dependenciesENS_11AttributeIDES1_
00000001aceeb6bc (__TEXT,__text) non-external (was a private external) __ZN2AG5Graph29indirect_attribute_dependencyENS_4data3ptrINS_12IndirectNodeEEE
00000001aceeb708 (__TEXT,__text) non-external (was a private external) __ZN2AG5Graph33indirect_attribute_set_dependencyENS_4data3ptrINS_12IndirectNodeEEENS_11AttributeIDE
00000001acee8d58 (__TEXT,__text) non-external (was a private external) __ZN2AG5Graph7Context11call_updateEv
00000001acee9110 (__TEXT,__text) non-external (was a private external) __ZN2AG5Graph7Context12set_deadlineEy
00000001acee8cc4 (__TEXT,__text) non-external (was a private external) __ZN2AG5Graph7Context16set_needs_updateEv
00000001acee8fc0 (__TEXT,__text) non-external (was a private external) __ZN2AG5Graph7Context17call_invalidationENS_11AttributeIDE
00000001acf0337c (__TEXT,__text) non-external (was a private external) __ZN2AG5Graph7Context5to_cfEv
00000001acf03350 (__TEXT,__text) non-external (was a private external) __ZN2AG5Graph7Context7from_cfEP14AGGraphStorage
00000001acee8a30 (__TEXT,__text) non-external (was a private external) __ZN2AG5Graph7ContextC1ERS0_
00000001acee88dc (__TEXT,__text) non-external (was a private external) __ZN2AG5Graph7ContextC2ERS0_
00000001acee8c3c (__TEXT,__text) non-external (was a private external) __ZN2AG5Graph7ContextD1Ev
00000001acee8a34 (__TEXT,__text) non-external (was a private external) __ZN2AG5Graph7ContextD2Ev
00000001aceeb8d0 (__TEXT,__text) non-external (was a private external) __ZN2AG5Graph9add_inputENS_4data3ptrINS_4NodeEEENS_11AttributeIDEbj
00000001acee9984 (__TEXT,__text) non-external (was a private external) __ZN2AG5Graph9add_traceEPNS_5TraceE
00000001aceebec4 (__TEXT,__text) non-external (was a private external) __ZN2AG5Graph9value_refENS_11AttributeIDEjPK15AGSwiftMetadataRh
00000001aceec648 (__TEXT,__text) non-external (was a private external) __ZN2AG5Graph9value_setENS_4data3ptrINS_4NodeEEEPK15AGSwiftMetadataPKv
00000001acee9758 (__TEXT,__text) non-external (was a private external) __ZN2AG5GraphC1Ev
00000001acee9160 (__TEXT,__text) non-external (was a private external) __ZN2AG5GraphC2Ev
00000001acee991c (__TEXT,__text) non-external (was a private external) __ZN2AG5GraphD1Ev
00000001acee975c (__TEXT,__text) non-external (was a private external) __ZN2AG5GraphD2Ev
00000001acede5fc (__TEXT,__text) non-external (was a private external) __ZN2AG5Trace10end_modifyENS_4data3ptrINS_4NodeEEE
00000001acede5e4 (__TEXT,__text) non-external (was a private external) __ZN2AG5Trace10end_updateENS_4data3ptrINS_4NodeEEEb
00000001acede5dc (__TEXT,__text) non-external (was a private external) __ZN2AG5Trace10end_updateERNS_5Graph11UpdateStackENS_4data3ptrINS_4NodeEEENS1_12UpdateStatusE
00000001acede5ec (__TEXT,__text) non-external (was a private external) __ZN2AG5Trace10end_updateERNS_5Graph7ContextE
00000001acede5d4 (__TEXT,__text) non-external (was a private external) __ZN2AG5Trace10end_updateERNS_8SubgraphE
00000001acede618 (__TEXT,__text) non-external (was a private external) __ZN2AG5Trace10invalidateERNS_8SubgraphE
00000001acede644 (__TEXT,__text) non-external (was a private external) __ZN2AG5Trace10mark_valueENS_4data3ptrINS_4NodeEEE
00000001acede64c (__TEXT,__text) non-external (was a private external) __ZN2AG5Trace10set_sourceENS_4data3ptrINS_12IndirectNodeEEENS_11AttributeIDE
00000001acede5c8 (__TEXT,__text) non-external (was a private external) __ZN2AG5Trace10sync_traceEv
00000001acede600 (__TEXT,__text) non-external (was a private external) __ZN2AG5Trace11begin_eventENS_4data3ptrINS_4NodeEEEj
00000001acede5c0 (__TEXT,__text) non-external (was a private external) __ZN2AG5Trace11begin_traceERNS_5GraphE
00000001acf000e8 (__TEXT,__text) non-external (was a private external) __ZN2AG5Trace11log_messageEPKcz
00000001acede65c (__TEXT,__text) non-external (was a private external) __ZN2AG5Trace11named_eventERNS_5Graph7ContextEjmPKjPK8__CFDataj
00000001acede630 (__TEXT,__text) non-external (was a private external) __ZN2AG5Trace11remove_edgeENS_4data3ptrINS_4NodeEEEm
00000001acede63c (__TEXT,__text) non-external (was a private external) __ZN2AG5Trace11set_pendingENS_4data3ptrINS_4NodeEEEb
00000001acede5f8 (__TEXT,__text) non-external (was a private external) __ZN2AG5Trace12begin_modifyENS_4data3ptrINS_4NodeEEE
00000001acede5e0 (__TEXT,__text) non-external (was a private external) __ZN2AG5Trace12begin_updateENS_4data3ptrINS_4NodeEEE
00000001acede5d8 (__TEXT,__text) non-external (was a private external) __ZN2AG5Trace12begin_updateERNS_5Graph11UpdateStackENS_4data3ptrINS_4NodeEEEj
00000001acede5e8 (__TEXT,__text) non-external (was a private external) __ZN2AG5Trace12begin_updateERNS_5Graph7ContextE
00000001acede5d0 (__TEXT,__text) non-external (was a private external) __ZN2AG5Trace12begin_updateERNS_8SubgraphEj
00000001acede658 (__TEXT,__text) non-external (was a private external) __ZN2AG5Trace12custom_eventERNS_5Graph7ContextEPKcPKvPK15AGSwiftMetadata
00000001acede654 (__TEXT,__text) non-external (was a private external) __ZN2AG5Trace12mark_profileERNS_5GraphEj
00000001acede610 (__TEXT,__text) non-external (was a private external) __ZN2AG5Trace12needs_updateERNS_5Graph7ContextE
00000001acede624 (__TEXT,__text) non-external (was a private external) __ZN2AG5Trace12remove_childERNS_8SubgraphES2_
00000001acede5cc (__TEXT,__text) non-external (was a private external) __ZN2AG5Trace13log_message_vEPKcPc
00000001acede650 (__TEXT,__text) non-external (was a private external) __ZN2AG5Trace14set_dependencyENS_4data3ptrINS_12IndirectNodeEEENS_11AttributeIDE
00000001acede5f4 (__TEXT,__text) non-external (was a private external) __ZN2AG5Trace16end_invalidationERNS_5Graph7ContextENS_11AttributeIDE
00000001acede634 (__TEXT,__text) non-external (was a private external) __ZN2AG5Trace16set_edge_pendingENS_4data3ptrINS_4NodeEEEmb
00000001acede5f0 (__TEXT,__text) non-external (was a private external) __ZN2AG5Trace18begin_invalidationERNS_5Graph7ContextENS_11AttributeIDE
00000001acede660 (__TEXT,__text) non-external (was a private external) __ZN2AG5Trace19named_event_enabledEj
00000001acede648 (__TEXT,__text) non-external (was a private external) __ZN2AG5Trace5addedENS_4data3ptrINS_12IndirectNodeEEE
00000001acede628 (__TEXT,__text) non-external (was a private external) __ZN2AG5Trace5addedENS_4data3ptrINS_4NodeEEE
00000001acede608 (__TEXT,__text) non-external (was a private external) __ZN2AG5Trace7createdERNS_5Graph7ContextE
00000001acede614 (__TEXT,__text) non-external (was a private external) __ZN2AG5Trace7createdERNS_8SubgraphE
00000001acede60c (__TEXT,__text) non-external (was a private external) __ZN2AG5Trace7destroyERNS_5Graph7ContextE
00000001acede61c (__TEXT,__text) non-external (was a private external) __ZN2AG5Trace7destroyERNS_8SubgraphE
00000001acede62c (__TEXT,__text) non-external (was a private external) __ZN2AG5Trace8add_edgeENS_4data3ptrINS_4NodeEEENS_11AttributeIDEj
00000001acede620 (__TEXT,__text) non-external (was a private external) __ZN2AG5Trace9add_childERNS_8SubgraphES2_
00000001acede604 (__TEXT,__text) non-external (was a private external) __ZN2AG5Trace9end_eventENS_4data3ptrINS_4NodeEEEj
00000001acede5c4 (__TEXT,__text) non-external (was a private external) __ZN2AG5Trace9end_traceERNS_5GraphE
00000001acede638 (__TEXT,__text) non-external (was a private external) __ZN2AG5Trace9set_dirtyENS_4data3ptrINS_4NodeEEEb
00000001acede640 (__TEXT,__text) non-external (was a private external) __ZN2AG5Trace9set_valueENS_4data3ptrINS_4NodeEEEPKv
00000001acede5bc (__TEXT,__text) non-external (was a private external) __ZN2AG5TraceD0Ev
00000001acede5b8 (__TEXT,__text) non-external (was a private external) __ZN2AG5TraceD1Ev
00000001acee15c0 (__TEXT,__text) non-external __ZN2AG5swift12_GLOBAL__N_118TypeSignatureCacheC1Ev
00000001acee0b30 (__TEXT,__text) non-external __ZN2AG5swift12_GLOBAL__N_19TypeCacheC1Ev
00000001acee1870 (__TEXT,__text) non-external (was a private external) __ZN2AG5swift16metadata_visitor10visit_caseEPKNS0_8metadataERKNS0_12field_recordEj
00000001acee1894 (__TEXT,__text) non-external (was a private external) __ZN2AG5swift16metadata_visitor11visit_classEPKNS0_23any_class_type_metadataE
00000001acee0884 (__TEXT,__text) non-external (was a private external) __ZN2AG5swift16metadata_visitor11visit_fieldEPKNS0_8metadataERKNS0_12field_recordEmm
00000001acee184c (__TEXT,__text) non-external (was a private external) __ZN2AG5swift16metadata_visitor13visit_elementEPKNS0_8metadataENS2_8ref_kindEmm
00000001acee18dc (__TEXT,__text) non-external (was a private external) __ZN2AG5swift16metadata_visitor14visit_functionEPKNS0_22function_type_metadataE
00000001acee18b8 (__TEXT,__text) non-external (was a private external) __ZN2AG5swift16metadata_visitor17visit_existentialEPKNS0_25existential_type_metadataE
00000001acee1900 (__TEXT,__text) non-external (was a private external) __ZN2AG5swift16metadata_visitor19visit_native_objectEPKNS0_8metadataE
00000001acee1ab4 (__TEXT,__text) non-external (was a private external) __ZN2AG6vectorI22dyld_image_uuid_offsetLm8EmE12reserve_slowEm
00000001acef40fc (__TEXT,__text) non-external (was a private external) __ZN2AG6vectorIN4util6cf_ptrIP17AGSubgraphStorageEELm32EmE12reserve_slowEm
00000001aceee924 (__TEXT,__text) non-external (was a private external) __ZN2AG6vectorINS_11AttributeIDELm8EmE12reserve_slowEm
00000001acef9ba0 (__TEXT,__text) non-external __ZN2AG6vectorINS_12_GLOBAL__N_119TypeDescriptorCache10QueueEntryELm8EmE12reserve_slowEm
00000001acef9da8 (__TEXT,__text) non-external (was a private external) __ZN2AG6vectorINS_16LayoutDescriptor7Builder8EnumItem4CaseELm0EmE12reserve_slowEm
00000001acef9c9c (__TEXT,__text) non-external (was a private external) __ZN2AG6vectorINS_16LayoutDescriptor7Compare4EnumELm8EmE12reserve_slowEm
00000001acee4888 (__TEXT,__text) non-external (was a private external) __ZN2AG6vectorINS_23ConstOutputEdgeArrayRefELm64EmE12reserve_slowEm
00000001acee48d0 (__TEXT,__text) non-external (was a private external) __ZN2AG6vectorINS_4data3ptrINS_4NodeEEELm0EmE12reserve_slowEm
00000001acef54dc (__TEXT,__text) non-external (was a private external) __ZN2AG6vectorINS_4data3ptrINS_4NodeEEELm256EmE12reserve_slowEm
00000001acf023ec (__TEXT,__text) non-external (was a private external) __ZN2AG6vectorINS_4data3ptrINS_5Graph11TreeElementEEELm0EmE12reserve_slowEm
00000001acee6f14 (__TEXT,__text) non-external (was a private external) __ZN2AG6vectorINS_5Graph11ProfileData4MarkELm0EmE12reserve_slowEm
00000001acee4840 (__TEXT,__text) non-external (was a private external) __ZN2AG6vectorINS_5Graph11UpdateStack5FrameELm8EmE12reserve_slowEm
00000001aceeeb44 (__TEXT,__text) non-external (was a private external) __ZN2AG6vectorINSt3__110unique_ptrIKcN4util12free_deleterEEELm0EjE12reserve_slowEj
00000001acede668 (__TEXT,__text) non-external (was a private external) __ZN2AG6vectorINSt3__110unique_ptrIKcN4util12free_deleterEEELm0EmE12reserve_slowEm
00000001acedac68 (__TEXT,__text) non-external (was a private external) __ZN2AG6vectorINSt3__110unique_ptrIKcN4util12free_deleterEEELm0EmED1Ev
00000001aceefe30 (__TEXT,__text) non-external (was a private external) __ZN2AG6vectorINSt3__110unique_ptrINS_11DebugServer10ConnectionENS1_14default_deleteIS4_EEEELm0EmE12reserve_slowEm
00000001aceef0d0 (__TEXT,__text) non-external (was a private external) __ZN2AG6vectorINSt3__110unique_ptrINS_11DebugServer10ConnectionENS1_14default_deleteIS4_EEEELm0EmED1Ev
00000001aceee814 (__TEXT,__text) non-external (was a private external) __ZN2AG6vectorINSt3__110unique_ptrINS_13AttributeTypeENS3_7deleterEEELm0EjE12reserve_slowEj
00000001acee96ec (__TEXT,__text) non-external (was a private external) __ZN2AG6vectorINSt3__110unique_ptrINS_13AttributeTypeENS3_7deleterEEELm0EjED1Ev
00000001acedf790 (__TEXT,__text) non-external (was a private external) __ZN2AG6vectorINSt3__110unique_ptrIvNS_4data5table19malloc_zone_deleterEEELm0EjE12reserve_slowEj
00000001acef4d08 (__TEXT,__text) non-external (was a private external) __ZN2AG6vectorINSt3__14pairINS_17ClosureFunctionVVIvJEEEmEELm0EmE12reserve_slowEm
00000001acef5450 (__TEXT,__text) non-external (was a private external) __ZN2AG6vectorINSt3__14pairINS_4data3ptrINS_5Graph11TreeElementEEENS4_INS_4NodeEEEEELm0EmE12reserve_slowEm
00000001acf07518 (__TEXT,__text) non-external (was a private external) __ZN2AG6vectorINSt3__14pairIPKcS4_EELm0EjE12reserve_slowEj
00000001acee1bc0 (__TEXT,__text) non-external (was a private external) __ZN2AG6vectorINSt3__14pairIPKcmEELm8EmE12reserve_slowEm
00000001acef9e80 (__TEXT,__text) non-external (was a private external) __ZN2AG6vectorINSt3__14pairIPKv16AGComparisonModeEELm0EmE12reserve_slowEm
00000001acedf684 (__TEXT,__text) non-external (was a private external) __ZN2AG6vectorINSt3__14pairIPhjEELm0EjE12reserve_slowEj
00000001acede730 (__TEXT,__text) non-external (was a private external) __ZN2AG6vectorINSt3__14pairIjbEELm0EjE12reserve_slowEj
00000001acef888c (__TEXT,__text) non-external (was a private external) __ZN2AG6vectorINSt3__17variantIJNS_16LayoutDescriptor7Builder8DataItemENS4_10EqualsItemENS4_12IndirectItemENS4_15ExistentialItemENS4_11HeapRefItemENS4_10NestedItemENS4_8EnumItemEEEELm0EmE12reserve_slowEm
00000001acf00918 (__TEXT,__text) non-external (was a private external) __ZN2AG6vectorIPKNS_5GraphELm0EmE12reserve_slowEm
00000001acee1960 (__TEXT,__text) non-external (was a private external) __ZN2AG6vectorIPKNS_5swift8metadataELm8EmE12reserve_slowEm
00000001acef5494 (__TEXT,__text) non-external (was a private external) __ZN2AG6vectorIPKNS_8SubgraphELm32EmE12reserve_slowEm
00000001aceecfb0 (__TEXT,__text) non-external (was a private external) __ZN2AG6vectorIPKcLm0EmE12reserve_slowEm
00000001acee1a6c (__TEXT,__text) non-external (was a private external) __ZN2AG6vectorIPKvLm8EmE12reserve_slowEm
00000001aceee6d8 (__TEXT,__text) non-external (was a private external) __ZN2AG6vectorIPNS_5Graph7ContextELm0EjE12reserve_slowEj
00000001aceee858 (__TEXT,__text) non-external (was a private external) __ZN2AG6vectorIPNS_5TraceELm0EjE12reserve_slowEj
00000001acef3e7c (__TEXT,__text) non-external (was a private external) __ZN2AG6vectorIPNS_8SubgraphELm0EjE12reserve_slowEj
00000001acef4eec (__TEXT,__text) non-external (was a private external) __ZN2AG6vectorIPNS_8SubgraphELm16EmE12reserve_slowEm
00000001acef4de0 (__TEXT,__text) non-external (was a private external) __ZN2AG6vectorIPNS_8SubgraphELm2EjE12reserve_slowEj
00000001acef55fc (__TEXT,__text) non-external (was a private external) __ZN2AG6vectorIPNS_8SubgraphELm32EmE12reserve_slowEm
00000001acef4f34 (__TEXT,__text) non-external (was a private external) __ZN2AG6vectorIPNS_8SubgraphELm4EmE12reserve_slowEm
00000001acef0320 (__TEXT,__text) non-external (was a private external) __ZN2AG6vectorIhLm0EmE12reserve_slowEm
00000001acef8dec (__TEXT,__text) non-external (was a private external) __ZN2AG6vectorIhLm512EmE12reserve_slowEm
00000001acf0095c (__TEXT,__text) non-external (was a private external) __ZN2AG6vectorIjLm0EmE12reserve_slowEm
00000001acedf74c (__TEXT,__text) non-external (was a private external) __ZN2AG6vectorImLm0EjE12reserve_slowEj
00000001acef03e8 (__TEXT,__text) non-external (was a private external) __ZN2AG6vectorImLm0EmE12reserve_slowEm
00000001acef0098 (__TEXT,__text) non-external (was a private external) __ZN2AG7Encoder11encode_dataEPKvm
00000001aceeff58 (__TEXT,__text) non-external (was a private external) __ZN2AG7Encoder13encode_varintEm
00000001acef0034 (__TEXT,__text) non-external (was a private external) __ZN2AG7Encoder14encode_fixed64Ey
00000001acef01c8 (__TEXT,__text) non-external (was a private external) __ZN2AG7Encoder20end_length_delimitedEv
00000001acef0140 (__TEXT,__text) non-external (was a private external) __ZN2AG7Encoder22begin_length_delimitedEv
00000001aceefefc (__TEXT,__text) non-external (was a private external) __ZN2AG7Encoder5flushEv
00000001aceefef8 (__TEXT,__text) non-external (was a private external) __ZN2AG7EncoderC1EPNS0_8DelegateEm
00000001aceefe74 (__TEXT,__text) non-external (was a private external) __ZN2AG7EncoderC2EPNS0_8DelegateEm
00000001acedacd0 (__TEXT,__text) non-external (was a private external) __ZN2AG7EncoderD1Ev
00000001acedf6c8 (__TEXT,__text) non-external (was a private external) __ZN2AG7details14realloc_vectorIjLm16EEEPvS2_RT_S3_
00000001acede774 (__TEXT,__text) non-external (was a private external) __ZN2AG7details14realloc_vectorIjLm8EEEPvS2_RT_S3_
00000001acef4e28 (__TEXT,__text) non-external (was a private external) __ZN2AG7details14realloc_vectorIjLm8EEEPvS2_S2_T_RS3_S3_
00000001acef9ec4 (__TEXT,__text) non-external (was a private external) __ZN2AG7details14realloc_vectorImLm16EEEPvS2_RT_S3_
00000001acee1c08 (__TEXT,__text) non-external (was a private external) __ZN2AG7details14realloc_vectorImLm16EEEPvS2_S2_T_RS3_S3_
00000001acef0364 (__TEXT,__text) non-external (was a private external) __ZN2AG7details14realloc_vectorImLm1EEEPvS2_RT_S3_
00000001acef8e34 (__TEXT,__text) non-external (was a private external) __ZN2AG7details14realloc_vectorImLm1EEEPvS2_S2_T_RS3_S3_
00000001acef4d4c (__TEXT,__text) non-external (was a private external) __ZN2AG7details14realloc_vectorImLm24EEEPvS2_RT_S3_
00000001acee1afc (__TEXT,__text) non-external (was a private external) __ZN2AG7details14realloc_vectorImLm32EEEPvS2_S2_T_RS3_S3_
00000001acef9dec (__TEXT,__text) non-external (was a private external) __ZN2AG7details14realloc_vectorImLm40EEEPvS2_RT_S3_
00000001acee6f58 (__TEXT,__text) non-external (was a private external) __ZN2AG7details14realloc_vectorImLm48EEEPvS2_RT_S3_
00000001acee4914 (__TEXT,__text) non-external (was a private external) __ZN2AG7details14realloc_vectorImLm4EEEPvS2_RT_S3_
00000001aceee96c (__TEXT,__text) non-external (was a private external) __ZN2AG7details14realloc_vectorImLm4EEEPvS2_S2_T_RS3_S3_
00000001acef88d0 (__TEXT,__text) non-external (was a private external) __ZN2AG7details14realloc_vectorImLm56EEEPvS2_RT_S3_
00000001acef9ce4 (__TEXT,__text) non-external (was a private external) __ZN2AG7details14realloc_vectorImLm64EEEPvS2_S2_T_RS3_S3_
00000001acede6ac (__TEXT,__text) non-external (was a private external) __ZN2AG7details14realloc_vectorImLm8EEEPvS2_RT_S3_
00000001acee19a8 (__TEXT,__text) non-external (was a private external) __ZN2AG7details14realloc_vectorImLm8EEEPvS2_S2_T_RS3_S3_
00000001acef3548 (__TEXT,__text) non-external (was a private external) __ZN2AG8Subgraph10begin_treeENS_11AttributeIDEPKNS_5swift8metadataEj
00000001acef30c4 (__TEXT,__text) non-external (was a private external) __ZN2AG8Subgraph11cache_fetchEmPKNS_5swift8metadataEPKvNS_17ClosureFunctionCIImJP21AGUnownedGraphContextEEE
00000001acef1d88 (__TEXT,__text) non-external (was a private external) __ZN2AG8Subgraph12add_indirectENS_4data3ptrINS_12IndirectNodeEEEb
00000001acef1354 (__TEXT,__text) non-external (was a private external) __ZN2AG8Subgraph12add_observerENS_17ClosureFunctionVVIvJEEE
00000001acef33ec (__TEXT,__text) non-external (was a private external) __ZN2AG8Subgraph12cache_insertENS_4data3ptrINS_4NodeEEE
00000001acefc338 (__TEXT,__text) non-external (was a private external) __ZN2AG8Subgraph12clear_objectEv
00000001acef16a8 (__TEXT,__text) non-external (was a private external) __ZN2AG8Subgraph12remove_childERS0_b
00000001acef0508 (__TEXT,__text) non-external (was a private external) __ZN2AG8Subgraph13cache_collectEv
00000001acef3610 (__TEXT,__text) non-external (was a private external) __ZN2AG8Subgraph14add_tree_valueENS_11AttributeIDEPKNS_5swift8metadataEPKcj
00000001acef0574 (__TEXT,__text) non-external (was a private external) __ZN2AG8Subgraph14invalidate_nowERNS_5GraphE
00000001acef3504 (__TEXT,__text) non-external (was a private external) __ZN2AG8Subgraph14set_tree_ownerENS_11AttributeIDE
00000001acee2d94 (__TEXT,__text) non-external (was a private external) __ZN2AG8Subgraph15add_dirty_flagsEj
00000001acef112c (__TEXT,__text) non-external (was a private external) __ZN2AG8Subgraph15graph_destroyedEv
00000001acef1454 (__TEXT,__text) non-external (was a private external) __ZN2AG8Subgraph15remove_observerEm
00000001acef1e20 (__TEXT,__text) non-external __ZN2AG8Subgraph16foreach_ancestorIZNS0_15propagate_flagsEvE4$_12EEvRKT_
00000001acef1f08 (__TEXT,__text) non-external __ZN2AG8Subgraph16foreach_ancestorIZNS0_21propagate_dirty_flagsEvE4$_13EEvRKT_
00000001acef1a0c (__TEXT,__text) non-external (was a private external) __ZN2AG8Subgraph16insert_attributeENS_11AttributeIDEb
00000001acef1298 (__TEXT,__text) non-external (was a private external) __ZN2AG8Subgraph16notify_observersEv
00000001acef1b5c (__TEXT,__text) non-external (was a private external) __ZN2AG8Subgraph16unlink_attributeENS_11AttributeIDE
00000001acef3988 (__TEXT,__text) non-external (was a private external) __ZN2AG8Subgraph18tree_node_at_indexENS_4data3ptrINS_5Graph11TreeElementEEEm
00000001acef3700 (__TEXT,__text) non-external (was a private external) __ZN2AG8Subgraph19tree_subgraph_childENS_4data3ptrINS_5Graph11TreeElementEEE
00000001d6ee2760 (__DATA_DIRTY,__common) non-external (was a private external) __ZN2AG8Subgraph20_last_traversal_seedE
00000001d6ee2768 (__DATA_DIRTY,__common) non-external (was a private external) __ZN2AG8Subgraph21_current_subgraph_keyE
00000001acef1ed4 (__TEXT,__text) non-external (was a private external) __ZN2AG8Subgraph21propagate_dirty_flagsEv
00000001acef1504 (__TEXT,__text) non-external (was a private external) __ZN2AG8Subgraph22invalidate_and_delete_Eb
00000001acef0bac (__TEXT,__text) non-external (was a private external) __ZN2AG8Subgraph25make_current_subgraph_keyEv
00000001acef2be4 (__TEXT,__text) non-external (was a private external) __ZN2AG8Subgraph5applyEjNS_17ClosureFunctionAVIvJjEEE
00000001acefc330 (__TEXT,__text) non-external (was a private external) __ZN2AG8Subgraph5to_cfEv
00000001acef24d8 (__TEXT,__text) non-external (was a private external) __ZN2AG8Subgraph6updateEj
00000001acefc328 (__TEXT,__text) non-external (was a private external) __ZN2AG8Subgraph7from_cfEP17AGSubgraphStorage
00000001acef1c2c (__TEXT,__text) non-external (was a private external) __ZN2AG8Subgraph8add_nodeENS_4data3ptrINS_4NodeEEE
00000001acef36d8 (__TEXT,__text) non-external (was a private external) __ZN2AG8Subgraph8end_treeENS_11AttributeIDE
00000001acef2f28 (__TEXT,__text) non-external (was a private external) __ZN2AG8Subgraph9NodeCacheC2Ev
00000001acef3048 (__TEXT,__text) non-external (was a private external) __ZN2AG8Subgraph9NodeCacheD2Ev
00000001acef2094 (__TEXT,__text) non-external (was a private external) __ZN2AG8Subgraph9add_childERS0_
00000001acef1fa8 (__TEXT,__text) non-external (was a private external) __ZN2AG8Subgraph9set_flagsENS_4data3ptrINS_4NodeEEEj
00000001acef1124 (__TEXT,__text) non-external (was a private external) __ZN2AG8SubgraphC1EPNS_14SubgraphObjectERNS_5Graph7ContextENS_11AttributeIDE
00000001acef0bbc (__TEXT,__text) non-external (was a private external) __ZN2AG8SubgraphC2EPNS_14SubgraphObjectERNS_5Graph7ContextENS_11AttributeIDE
00000001acef3a5c (__TEXT,__text) non-external (was a private external) __ZN2AG8SubgraphD2Ev
00000001acf05ee8 (__TEXT,__text) non-external (was a private external) __ZN2AG8misc_logEv
00000001acf05f58 (__TEXT,__text) non-external (was a private external) __ZN2AG9error_logEv
00000001acedac34 (__TEXT,__text) non-external (was a private external) __ZN4util10InlineHeapILm256EED1Ev
00000001acee28b8 (__TEXT,__text) non-external (was a private external) __ZN4util10InlineHeapILm8192EED1Ev
00000001acee88ac (__TEXT,__text) non-external (was a private external) __ZN4util11string_hashEPKv
00000001acee87f4 (__TEXT,__text) non-external (was a private external) __ZN4util12UntypedTable10remove_ptrEPv
00000001acee853c (__TEXT,__text) non-external (was a private external) __ZN4util12UntypedTable12grow_bucketsEv
00000001acee849c (__TEXT,__text) non-external (was a private external) __ZN4util12UntypedTable14create_bucketsEv
00000001acf14ad0 (__TEXT,__text) non-external __ZN4util12UntypedTable14create_bucketsEv.cold.1
00000001acee8688 (__TEXT,__text) non-external (was a private external) __ZN4util12UntypedTable6insertEPvS1_
00000001acee81d4 (__TEXT,__text) non-external (was a private external) __ZN4util12UntypedTableC2EPFmPKvEPFbS2_S2_EPFvPvES9_PNS_4HeapE
00000001acee827c (__TEXT,__text) non-external (was a private external) __ZN4util12UntypedTableD2Ev
00000001acee823c (__TEXT,__text) non-external (was a private external) __ZN4util12pointer_hashEPKv
00000001acee8270 (__TEXT,__text) non-external (was a private external) __ZN4util15pointer_compareEPKvS1_
00000001acf0616c (__TEXT,__text) non-external (was a private external) __ZN4util4Heap5resetEPvm
00000001acf0621c (__TEXT,__text) non-external (was a private external) __ZN4util4Heap6alloc_Em
00000001acf061d8 (__TEXT,__text) non-external (was a private external) __ZN4util4HeapC1EPvmm
00000001acf06128 (__TEXT,__text) non-external (was a private external) __ZN4util4HeapC2EPvmm
00000001acef3014 (__TEXT,__text) non-external (was a private external) __ZN4util4HeapD1Ev
00000001acef2b08 (__TEXT,__text) non-external (was a private external) __ZN4util6cf_ptrIP17AGSubgraphStorageED1Ev
00000001aceefdbc (__TEXT,__text) non-external (was a private external) __ZN4util6cf_ptrIP8__CFDataED1Ev
00000001aceefd88 (__TEXT,__text) non-external (was a private external) __ZN4util6cf_ptrIPK8__CFDataED1Ev
00000001aceef138 (__TEXT,__text) non-external (was a private external) __ZN4util8objc_ptrIPU29objcproto18OS_dispatch_source8NSObjectED1Ev
00000001acefc0f4 (__TEXT,__text) non-external (was a private external) __ZNK2AG11AttributeID12resolve_slowEj
00000001acefc230 (__TEXT,__text) non-external (was a private external) __ZNK2AG11AttributeID4sizeEv
00000001acefc2d8 (__TEXT,__text) non-external (was a private external) __ZNK2AG11AttributeID9traversesES0_j
00000001aceef1e4 (__TEXT,__text) non-external (was a private external) __ZNK2AG11DebugServer8copy_urlEv
00000001acedf4d0 (__TEXT,__text) non-external (was a private external) __ZNK2AG4data4zone5printEv
00000001acedef1c (__TEXT,__text) non-external (was a private external) __ZNK2AG4data5table13raw_page_seedENS0_3ptrINS0_4pageEEE
00000001acedf430 (__TEXT,__text) non-external (was a private external) __ZNK2AG4data5table5printEv
00000001acf00814 (__TEXT,__text) non-external (was a private external) __ZNK2AG5Graph10print_dataEv
00000001acefcc58 (__TEXT,__text) non-external (was a private external) __ZNK2AG5Graph11ProfileData9json_dataERKNS1_4DataE
00000001acefcd9c (__TEXT,__text) non-external (was a private external) __ZNK2AG5Graph11ProfileData9json_dataERKNS1_4ItemERKS0_
00000001acee3354 (__TEXT,__text) non-external (was a private external) __ZNK2AG5Graph11UpdateStack10global_topEv
00000001acf001a4 (__TEXT,__text) non-external (was a private external) __ZNK2AG5Graph11descriptionENS_4data3ptrINS_4NodeEEE
00000001acefb960 (__TEXT,__text) non-external (was a private external) __ZNK2AG5Graph11encode_nodeERNS_7EncoderERKNS_4NodeEb
00000001acefbed8 (__TEXT,__text) non-external (was a private external) __ZNK2AG5Graph11encode_treeERNS_7EncoderENS_4data3ptrINS0_11TreeElementEEE
00000001aceffe2c (__TEXT,__text) non-external (was a private external) __ZNK2AG5Graph11print_cycleENS_4data3ptrINS_4NodeEEE
00000001acee4684 (__TEXT,__text) non-external (was a private external) __ZNK2AG5Graph11print_stackEv
00000001aceec124 (__TEXT,__text) non-external (was a private external) __ZNK2AG5Graph11value_stateENS_11AttributeIDE
00000001aceebeac (__TEXT,__text) non-external (was a private external) __ZNK2AG5Graph12value_existsENS_4data3ptrINS_4NodeEEE
00000001aceeb038 (__TEXT,__text) non-external (was a private external) __ZNK2AG5Graph13attribute_refENS_4data3ptrINS_4NodeEEEPPKv
00000001acee452c (__TEXT,__text) non-external (was a private external) __ZNK2AG5Graph13collect_stackERNS_6vectorINS_4data3ptrINS_4NodeEEELm0EmEE
00000001aceddd44 (__TEXT,__text) non-external (was a private external) __ZNK2AG5Graph13prepare_traceERNS_5TraceE
00000001acf0054c (__TEXT,__text) non-external (was a private external) __ZNK2AG5Graph15print_attributeENS_4data3ptrINS_4NodeEEE
00000001aceff648 (__TEXT,__text) non-external (was a private external) __ZNK2AG5Graph17description_stackEP12NSDictionary
00000001acee8c40 (__TEXT,__text) non-external (was a private external) __ZNK2AG5Graph18thread_is_updatingEv
00000001acee45ec (__TEXT,__text) non-external (was a private external) __ZNK2AG5Graph19is_context_updatingEm
00000001acef9f48 (__TEXT,__text) non-external (was a private external) __ZNK2AG5Graph20breadth_first_searchENS_11AttributeIDEjNS_17ClosureFunctionABIbJjEEE
00000001acefbd7c (__TEXT,__text) non-external (was a private external) __ZNK2AG5Graph20encode_indirect_nodeERNS_7EncoderERKNS_12IndirectNodeE
00000001acefeed0 (__TEXT,__text) non-external (was a private external) __ZNK2AG5Graph21description_graph_dotEP12NSDictionary
00000001aceffa38 (__TEXT,__text) non-external (was a private external) __ZNK2AG5Graph23description_stack_frameEP12NSDictionary
00000001aceff948 (__TEXT,__text) non-external (was a private external) __ZNK2AG5Graph23description_stack_nodesEP12NSDictionary
00000001aceffdcc (__TEXT,__text) non-external (was a private external) __ZNK2AG5Graph5printEv
00000001acee8c80 (__TEXT,__text) non-external (was a private external) __ZNK2AG5Graph7Context18thread_is_updatingEv
00000001aceecee0 (__TEXT,__text) non-external (was a private external) __ZNK2AG5Graph8key_nameEj
00000001acee1844 (__TEXT,__text) non-external (was a private external) __ZNK2AG5swift16metadata_visitor14unknown_resultEv
00000001acee1724 (__TEXT,__text) non-external (was a private external) __ZNK2AG5swift21class_type_descriptor24immediate_members_offsetEv
00000001acee1808 (__TEXT,__text) non-external (was a private external) __ZNK2AG5swift25existential_type_metadata12dynamic_typeEPKv
00000001acee1790 (__TEXT,__text) non-external (was a private external) __ZNK2AG5swift25existential_type_metadata13project_valueEPKv
00000001acee1774 (__TEXT,__text) non-external (was a private external) __ZNK2AG5swift25existential_type_metadata14representationEv
00000001acedf7d4 (__TEXT,__text) non-external (was a private external) __ZNK2AG5swift8metadata10descriptorEv
00000001acee0188 (__TEXT,__text) non-external (was a private external) __ZNK2AG5swift8metadata10visit_heapERNS0_16metadata_visitorEj
00000001acee026c (__TEXT,__text) non-external (was a private external) __ZNK2AG5swift8metadata16visit_heap_classERNS0_16metadata_visitorE
00000001acee05d8 (__TEXT,__text) non-external (was a private external) __ZNK2AG5swift8metadata17visit_heap_localsERNS0_16metadata_visitorE
00000001acee0bc8 (__TEXT,__text) non-external (was a private external) __ZNK2AG5swift8metadata18append_descriptionEP10__CFString
00000001acedf844 (__TEXT,__text) non-external (was a private external) __ZNK2AG5swift8metadata18nominal_descriptorEv
00000001acedff14 (__TEXT,__text) non-external (was a private external) __ZNK2AG5swift8metadata21mangled_type_name_refEPKcbPNS1_8ref_kindE
00000001acee1624 (__TEXT,__text) non-external (was a private external) __ZNK2AG5swift8metadata25copy_on_write_heap_objectERPv
00000001acee097c (__TEXT,__text) non-external (was a private external) __ZNK2AG5swift8metadata28mangled_type_name_ref_cachedEPKcPNS1_8ref_kindE
00000001acee0978 (__TEXT,__text) non-external (was a private external) __ZNK2AG5swift8metadata4nameEb
00000001acedf9a4 (__TEXT,__text) non-external (was a private external) __ZNK2AG5swift8metadata5visitERNS0_16metadata_visitorE
00000001acedf874 (__TEXT,__text) non-external (was a private external) __ZNK2AG5swift8metadata9equatableEv
00000001acee118c (__TEXT,__text) non-external (was a private external) __ZNK2AG5swift8metadata9signatureEv
00000001acef231c (__TEXT,__text) non-external (was a private external) __ZNK2AG8Subgraph11ancestor_ofEPKS0_
00000001acef0e50 (__TEXT,__text) non-external (was a private external) __ZNK2AG8Subgraph5printEi
00000001acef3b48 (__TEXT,__text) non-external (was a private external) __ZNK2AG8Subgraph6encodeERNS_7EncoderE
00000001acee834c (__TEXT,__text) non-external (was a private external) __ZNK4util12UntypedTable6lookupEPvPS1_
00000001acee8428 (__TEXT,__text) non-external (was a private external) __ZNK4util12UntypedTable8for_eachEPFvPKvS2_S2_ES2_
00000001acefa378 (__TEXT,__text) non-external (was a private external) __ZNKSt3__112__hash_tableIN2AG11AttributeIDENS_4hashIS2_EENS_8equal_toIS2_EENS_9allocatorIS2_EEE4findIS2_EENS_21__hash_const_iteratorIPNS_11__hash_nodeIS2_PvEEEERKT_
00000001acf02e3c (__TEXT,__text) non-external (was a private external) __ZNKSt3__112__hash_tableIN2AG4data3ptrINS1_12IndirectNodeEEENS_4hashIS5_EENS_8equal_toIS5_EENS_9allocatorIS5_EEE4findIS5_EENS_21__hash_const_iteratorIPNS_11__hash_nodeIS5_PvEEEERKT_
00000001acf019d0 (__TEXT,__text) non-external (was a private external) __ZNKSt3__112__hash_tableINS_17__hash_value_typeIN2AG4data3ptrINS2_4NodeEEENS2_5Graph11ProfileData4ItemEEENS_22__unordered_map_hasherIS6_SA_NS_4hashIS6_EENS_8equal_toIS6_EELb1EEENS_21__unordered_map_equalIS6_SA_SF_SD_Lb1EEENS_9allocatorISA_EEE4findIS6_EENS_21__hash_const_iteratorIPNS_11__hash_nodeISA_PvEEEERKT_
00000001acf01d54 (__TEXT,__text) non-external (was a private external) __ZNKSt3__112__hash_tableINS_17__hash_value_typeIjN2AG5Graph11ProfileData4ItemEEENS_22__unordered_map_hasherIjS6_NS_4hashIjEENS_8equal_toIjEELb1EEENS_21__unordered_map_equalIjS6_SB_S9_Lb1EEENS_9allocatorIS6_EEE4findIjEENS_21__hash_const_iteratorIPNS_11__hash_nodeIS6_PvEEEERKT_
00000001acee7510 (__TEXT,__text) non-external (was a private external) __ZNKSt3__114default_deleteIN2AG5Graph11ProfileDataEEclB7v160006EPS3_
00000001aceeeab8 (__TEXT,__text) non-external (was a private external) __ZNKSt3__114default_deleteIN2AG5Graph8KeyTableEEclB7v160006EPS3_
00000001acef8ba4 (__TEXT,__text) non-external (was a private external) __ZNSt18bad_variant_accessD1Ev
                 (undefined) external __ZNSt20bad_array_new_lengthC1Ev (from libc++)
                 (undefined) external __ZNSt20bad_array_new_lengthD1Ev (from libc++)
00000001aceefdf0 (__TEXT,__text) non-external (was a private external) __ZNSt3__110unique_ptrIN2AG11DebugServer10ConnectionENS_14default_deleteIS3_EEE5resetB7v160006EPS3_
00000001aceee71c (__TEXT,__text) non-external (was a private external) __ZNSt3__110unique_ptrIN2AG13AttributeTypeENS2_7deleterEE5resetB7v160006EPS2_
00000001acee678c (__TEXT,__text) non-external (was a private external) __ZNSt3__110unique_ptrINS_11__hash_nodeINS_17__hash_value_typeIjN2AG5Graph11ProfileData8CategoryEEEPvEENS_22__hash_node_destructorINS_9allocatorIS9_EEEEE5resetB7v160006EPS9_
00000001aceee754 (__TEXT,__text) non-external (was a private external) __ZNSt3__110unique_ptrINS_13unordered_mapIPN2AG8SubgraphENS2_5Graph15TreeDataElementENS_4hashIS4_EENS_8equal_toIS4_EENS_9allocatorINS_4pairIKS4_S6_EEEEEENS_14default_deleteISG_EEE5resetB7v160006EPSG_
00000001acef3e44 (__TEXT,__text) non-external (was a private external) __ZNSt3__110unique_ptrIvN2AG4data5table19malloc_zone_deleterEE5resetB7v160006EPv
00000001aceedc58 (__TEXT,__text) non-external __ZNSt3__111__introsortINS_17_ClassicAlgPolicyERZN2AG5Graph15TreeDataElement10sort_nodesEvE3$_9PNS_4pairINS2_4data3ptrINS3_11TreeElementEEENS9_INS2_4NodeEEEEEEEvT1_SG_T0_NS_15iterator_traitsISG_E15difference_typeE
00000001aceecff4 (__TEXT,__text) non-external __ZNSt3__111__introsortINS_17_ClassicAlgPolicyERZN2AG5Graph19index_of_input_slowERNS2_4NodeENS2_9InputEdge10ComparatorEE3$_7PS6_EEvT1_SB_T0_NS_15iterator_traitsISB_E15difference_typeE
00000001acef4258 (__TEXT,__text) non-external __ZNSt3__111__introsortINS_17_ClassicAlgPolicyERZN2AG8Subgraph19tree_subgraph_childENS2_4data3ptrINS2_5Graph11TreeElementEEEE3$_2PPS3_EEvT1_SD_T0_NS_15iterator_traitsISD_E15difference_typeE
00000001acee67e4 (__TEXT,__text) non-external (was a private external) __ZNSt3__112__destroy_atB7v160006INS_4pairIKjN2AG5Graph11ProfileData8CategoryEEELi0EEEvPT_
00000001acefa874 (__TEXT,__text) non-external (was a private external) __ZNSt3__112__hash_tableIN2AG11AttributeIDENS_4hashIS2_EENS_8equal_toIS2_EENS_9allocatorIS2_EEE11__do_rehashILb1EEEvm
00000001acefa570 (__TEXT,__text) non-external (was a private external) __ZNSt3__112__hash_tableIN2AG11AttributeIDENS_4hashIS2_EENS_8equal_toIS2_EENS_9allocatorIS2_EEE25__emplace_unique_key_argsIS2_JRKS2_EEENS_4pairINS_15__hash_iteratorIPNS_11__hash_nodeIS2_PvEEEEbEERKT_DpOT0_
00000001acefa784 (__TEXT,__text) non-external (was a private external) __ZNSt3__112__hash_tableIN2AG11AttributeIDENS_4hashIS2_EENS_8equal_toIS2_EENS_9allocatorIS2_EEE8__rehashILb1EEEvm
00000001acefa524 (__TEXT,__text) non-external (was a private external) __ZNSt3__112__hash_tableIN2AG11AttributeIDENS_4hashIS2_EENS_8equal_toIS2_EENS_9allocatorIS2_EEED2Ev
00000001acf031f4 (__TEXT,__text) non-external (was a private external) __ZNSt3__112__hash_tableIN2AG4data3ptrINS1_12IndirectNodeEEENS_4hashIS5_EENS_8equal_toIS5_EENS_9allocatorIS5_EEE11__do_rehashILb1EEEvm
00000001acf02ef0 (__TEXT,__text) non-external (was a private external) __ZNSt3__112__hash_tableIN2AG4data3ptrINS1_12IndirectNodeEEENS_4hashIS5_EENS_8equal_toIS5_EENS_9allocatorIS5_EEE25__emplace_unique_key_argsIS5_JRKS5_EEENS_4pairINS_15__hash_iteratorIPNS_11__hash_nodeIS5_PvEEEEbEERKT_DpOT0_
00000001acf03104 (__TEXT,__text) non-external (was a private external) __ZNSt3__112__hash_tableIN2AG4data3ptrINS1_12IndirectNodeEEENS_4hashIS5_EENS_8equal_toIS5_EENS_9allocatorIS5_EEE8__rehashILb1EEEvm
00000001acf02df0 (__TEXT,__text) non-external (was a private external) __ZNSt3__112__hash_tableIN2AG4data3ptrINS1_12IndirectNodeEEENS_4hashIS5_EENS_8equal_toIS5_EENS_9allocatorIS5_EEED2Ev
00000001acee7338 (__TEXT,__text) non-external (was a private external) __ZNSt3__112__hash_tableINS_17__hash_value_typeIN2AG4data3ptrINS2_4NodeEEENS2_5Graph11ProfileData4ItemEEENS_22__unordered_map_hasherIS6_SA_NS_4hashIS6_EENS_8equal_toIS6_EELb1EEENS_21__unordered_map_equalIS6_SA_SF_SD_Lb1EEENS_9allocatorISA_EEE11__do_rehashILb1EEEvm
00000001acee5aa4 (__TEXT,__text) non-external (was a private external) __ZNSt3__112__hash_tableINS_17__hash_value_typeIN2AG4data3ptrINS2_4NodeEEENS2_5Graph11ProfileData4ItemEEENS_22__unordered_map_hasherIS6_SA_NS_4hashIS6_EENS_8equal_toIS6_EELb1EEENS_21__unordered_map_equalIS6_SA_SF_SD_Lb1EEENS_9allocatorISA_EEE17__deallocate_nodeEPNS_16__hash_node_baseIPNS_11__hash_nodeISA_PvEEEE
00000001acee6fec (__TEXT,__text) non-external (was a private external) __ZNSt3__112__hash_tableINS_17__hash_value_typeIN2AG4data3ptrINS2_4NodeEEENS2_5Graph11ProfileData4ItemEEENS_22__unordered_map_hasherIS6_SA_NS_4hashIS6_EENS_8equal_toIS6_EELb1EEENS_21__unordered_map_equalIS6_SA_SF_SD_Lb1EEENS_9allocatorISA_EEE25__emplace_unique_key_argsIS6_JRKNS_21piecewise_construct_tENS_5tupleIJRKS6_EEENSQ_IJEEEEEENS_4pairINS_15__hash_iteratorIPNS_11__hash_nodeISA_PvEEEEbEERKT_DpOT0_
00000001acee5ae8 (__TEXT,__text) non-external (was a private external) __ZNSt3__112__hash_tableINS_17__hash_value_typeIN2AG4data3ptrINS2_4NodeEEENS2_5Graph11ProfileData4ItemEEENS_22__unordered_map_hasherIS6_SA_NS_4hashIS6_EENS_8equal_toIS6_EELb1EEENS_21__unordered_map_equalIS6_SA_SF_SD_Lb1EEENS_9allocatorISA_EEE4findIS6_EENS_15__hash_iteratorIPNS_11__hash_nodeISA_PvEEEERKT_
00000001acee60d4 (__TEXT,__text) non-external (was a private external) __ZNSt3__112__hash_tableINS_17__hash_value_typeIN2AG4data3ptrINS2_4NodeEEENS2_5Graph11ProfileData4ItemEEENS_22__unordered_map_hasherIS6_SA_NS_4hashIS6_EENS_8equal_toIS6_EELb1EEENS_21__unordered_map_equalIS6_SA_SF_SD_Lb1EEENS_9allocatorISA_EEE5eraseENS_21__hash_const_iteratorIPNS_11__hash_nodeISA_PvEEEE
00000001acee6120 (__TEXT,__text) non-external (was a private external) __ZNSt3__112__hash_tableINS_17__hash_value_typeIN2AG4data3ptrINS2_4NodeEEENS2_5Graph11ProfileData4ItemEEENS_22__unordered_map_hasherIS6_SA_NS_4hashIS6_EENS_8equal_toIS6_EELb1EEENS_21__unordered_map_equalIS6_SA_SF_SD_Lb1EEENS_9allocatorISA_EEE6removeENS_21__hash_const_iteratorIPNS_11__hash_nodeISA_PvEEEE
00000001acee7248 (__TEXT,__text) non-external (was a private external) __ZNSt3__112__hash_tableINS_17__hash_value_typeIN2AG4data3ptrINS2_4NodeEEENS2_5Graph11ProfileData4ItemEEENS_22__unordered_map_hasherIS6_SA_NS_4hashIS6_EENS_8equal_toIS6_EELb1EEENS_21__unordered_map_equalIS6_SA_SF_SD_Lb1EEENS_9allocatorISA_EEE8__rehashILb1EEEvm
00000001acee5a68 (__TEXT,__text) non-external (was a private external) __ZNSt3__112__hash_tableINS_17__hash_value_typeIN2AG4data3ptrINS2_4NodeEEENS2_5Graph11ProfileData4ItemEEENS_22__unordered_map_hasherIS6_SA_NS_4hashIS6_EENS_8equal_toIS6_EELb1EEENS_21__unordered_map_equalIS6_SA_SF_SD_Lb1EEENS_9allocatorISA_EEED2Ev
00000001acf01874 (__TEXT,__text) non-external (was a private external) __ZNSt3__112__hash_tableINS_17__hash_value_typeIN2AG4data3ptrINS2_4NodeEEEmEENS_22__unordered_map_hasherIS6_S7_NS_4hashIS6_EENS_8equal_toIS6_EELb1EEENS_21__unordered_map_equalIS6_S7_SC_SA_Lb1EEENS_9allocatorIS7_EEE11__do_rehashILb1EEEvm
00000001acf01a84 (__TEXT,__text) non-external (was a private external) __ZNSt3__112__hash_tableINS_17__hash_value_typeIN2AG4data3ptrINS2_4NodeEEEmEENS_22__unordered_map_hasherIS6_S7_NS_4hashIS6_EENS_8equal_toIS6_EELb1EEENS_21__unordered_map_equalIS6_S7_SC_SA_Lb1EEENS_9allocatorIS7_EEE25__emplace_unique_key_argsIS6_JRKNS_21piecewise_construct_tENS_5tupleIJOS6_EEENSN_IJEEEEEENS_4pairINS_15__hash_iteratorIPNS_11__hash_nodeIS7_PvEEEEbEERKT_DpOT0_
00000001acf01568 (__TEXT,__text) non-external (was a private external) __ZNSt3__112__hash_tableINS_17__hash_value_typeIN2AG4data3ptrINS2_4NodeEEEmEENS_22__unordered_map_hasherIS6_S7_NS_4hashIS6_EENS_8equal_toIS6_EELb1EEENS_21__unordered_map_equalIS6_S7_SC_SA_Lb1EEENS_9allocatorIS7_EEE25__emplace_unique_key_argsIS6_JRKNS_21piecewise_construct_tENS_5tupleIJRKS6_EEENSN_IJEEEEEENS_4pairINS_15__hash_iteratorIPNS_11__hash_nodeIS7_PvEEEEbEERKT_DpOT0_
00000001acf022ec (__TEXT,__text) non-external (was a private external) __ZNSt3__112__hash_tableINS_17__hash_value_typeIN2AG4data3ptrINS2_4NodeEEEmEENS_22__unordered_map_hasherIS6_S7_NS_4hashIS6_EENS_8equal_toIS6_EELb1EEENS_21__unordered_map_equalIS6_S7_SC_SA_Lb1EEENS_9allocatorIS7_EEE4findIS6_EENS_15__hash_iteratorIPNS_11__hash_nodeIS7_PvEEEERKT_
00000001acf01784 (__TEXT,__text) non-external (was a private external) __ZNSt3__112__hash_tableINS_17__hash_value_typeIN2AG4data3ptrINS2_4NodeEEEmEENS_22__unordered_map_hasherIS6_S7_NS_4hashIS6_EENS_8equal_toIS6_EELb1EEENS_21__unordered_map_equalIS6_S7_SC_SA_Lb1EEENS_9allocatorIS7_EEE8__rehashILb1EEEvm
00000001acf01468 (__TEXT,__text) non-external (was a private external) __ZNSt3__112__hash_tableINS_17__hash_value_typeIN2AG4data3ptrINS2_4NodeEEEmEENS_22__unordered_map_hasherIS6_S7_NS_4hashIS6_EENS_8equal_toIS6_EELb1EEENS_21__unordered_map_equalIS6_S7_SC_SA_Lb1EEENS_9allocatorIS7_EEED2Ev
00000001acf027f0 (__TEXT,__text) non-external (was a private external) __ZNSt3__112__hash_tableINS_17__hash_value_typeIN2AG4data3ptrINS2_5Graph11TreeElementEEEmEENS_22__unordered_map_hasherIS7_S8_NS_4hashIS7_EENS_8equal_toIS7_EELb1EEENS_21__unordered_map_equalIS7_S8_SD_SB_Lb1EEENS_9allocatorIS8_EEE11__do_rehashILb1EEEvm
00000001acf024e4 (__TEXT,__text) non-external (was a private external) __ZNSt3__112__hash_tableINS_17__hash_value_typeIN2AG4data3ptrINS2_5Graph11TreeElementEEEmEENS_22__unordered_map_hasherIS7_S8_NS_4hashIS7_EENS_8equal_toIS7_EELb1EEENS_21__unordered_map_equalIS7_S8_SD_SB_Lb1EEENS_9allocatorIS8_EEE25__emplace_unique_key_argsIS7_JNS_4pairIS7_mEEEEENSL_INS_15__hash_iteratorIPNS_11__hash_nodeIS8_PvEEEEbEERKT_DpOT0_
00000001acf02bd4 (__TEXT,__text) non-external (was a private external) __ZNSt3__112__hash_tableINS_17__hash_value_typeIN2AG4data3ptrINS2_5Graph11TreeElementEEEmEENS_22__unordered_map_hasherIS7_S8_NS_4hashIS7_EENS_8equal_toIS7_EELb1EEENS_21__unordered_map_equalIS7_S8_SD_SB_Lb1EEENS_9allocatorIS8_EEE25__emplace_unique_key_argsIS7_JRKNS_21piecewise_construct_tENS_5tupleIJRKS7_EEENSO_IJEEEEEENS_4pairINS_15__hash_iteratorIPNS_11__hash_nodeIS8_PvEEEEbEERKT_DpOT0_
00000001acf02430 (__TEXT,__text) non-external (was a private external) __ZNSt3__112__hash_tableINS_17__hash_value_typeIN2AG4data3ptrINS2_5Graph11TreeElementEEEmEENS_22__unordered_map_hasherIS7_S8_NS_4hashIS7_EENS_8equal_toIS7_EELb1EEENS_21__unordered_map_equalIS7_S8_SD_SB_Lb1EEENS_9allocatorIS8_EEE4findIS7_EENS_15__hash_iteratorIPNS_11__hash_nodeIS8_PvEEEERKT_
00000001acf02700 (__TEXT,__text) non-external (was a private external) __ZNSt3__112__hash_tableINS_17__hash_value_typeIN2AG4data3ptrINS2_5Graph11TreeElementEEEmEENS_22__unordered_map_hasherIS7_S8_NS_4hashIS7_EENS_8equal_toIS7_EELb1EEENS_21__unordered_map_equalIS7_S8_SD_SB_Lb1EEENS_9allocatorIS8_EEE8__rehashILb1EEEvm
00000001acf023a0 (__TEXT,__text) non-external (was a private external) __ZNSt3__112__hash_tableINS_17__hash_value_typeIN2AG4data3ptrINS2_5Graph11TreeElementEEEmEENS_22__unordered_map_hasherIS7_S8_NS_4hashIS7_EENS_8equal_toIS7_EELb1EEENS_21__unordered_map_equalIS7_S8_SD_SB_Lb1EEENS_9allocatorIS8_EEED2Ev
00000001acf02190 (__TEXT,__text) non-external (was a private external) __ZNSt3__112__hash_tableINS_17__hash_value_typeIPKN2AG8SubgraphEmEENS_22__unordered_map_hasherIS5_S6_NS_4hashIS5_EENS_8equal_toIS5_EELb1EEENS_21__unordered_map_equalIS5_S6_SB_S9_Lb1EEENS_9allocatorIS6_EEE11__do_rehashILb1EEEvm
00000001acf01e54 (__TEXT,__text) non-external (was a private external) __ZNSt3__112__hash_tableINS_17__hash_value_typeIPKN2AG8SubgraphEmEENS_22__unordered_map_hasherIS5_S6_NS_4hashIS5_EENS_8equal_toIS5_EELb1EEENS_21__unordered_map_equalIS5_S6_SB_S9_Lb1EEENS_9allocatorIS6_EEE25__emplace_unique_key_argsIS5_JRKNS_21piecewise_construct_tENS_5tupleIJRKS5_EEENSM_IJEEEEEENS_4pairINS_15__hash_iteratorIPNS_11__hash_nodeIS6_PvEEEEbEERKT_DpOT0_
00000001acf00e84 (__TEXT,__text) non-external (was a private external) __ZNSt3__112__hash_tableINS_17__hash_value_typeIPKN2AG8SubgraphEmEENS_22__unordered_map_hasherIS5_S6_NS_4hashIS5_EENS_8equal_toIS5_EELb1EEENS_21__unordered_map_equalIS5_S6_SB_S9_Lb1EEENS_9allocatorIS6_EEE4findIS5_EENS_15__hash_iteratorIPNS_11__hash_nodeIS6_PvEEEERKT_
00000001acf020a0 (__TEXT,__text) non-external (was a private external) __ZNSt3__112__hash_tableINS_17__hash_value_typeIPKN2AG8SubgraphEmEENS_22__unordered_map_hasherIS5_S6_NS_4hashIS5_EENS_8equal_toIS5_EELb1EEENS_21__unordered_map_equalIS5_S6_SB_S9_Lb1EEENS_9allocatorIS6_EEE8__rehashILb1EEEvm
00000001acf01e08 (__TEXT,__text) non-external (was a private external) __ZNSt3__112__hash_tableINS_17__hash_value_typeIPKN2AG8SubgraphEmEENS_22__unordered_map_hasherIS5_S6_NS_4hashIS5_EENS_8equal_toIS5_EELb1EEENS_21__unordered_map_equalIS5_S6_SB_S9_Lb1EEENS_9allocatorIS6_EEED2Ev
00000001acef52f4 (__TEXT,__text) non-external (was a private external) __ZNSt3__112__hash_tableINS_17__hash_value_typeIPN2AG8SubgraphENS2_5Graph15TreeDataElementEEENS_22__unordered_map_hasherIS4_S7_NS_4hashIS4_EENS_8equal_toIS4_EELb1EEENS_21__unordered_map_equalIS4_S7_SC_SA_Lb1EEENS_9allocatorIS7_EEE11__do_rehashILb1EEEvm
00000001aceee7d0 (__TEXT,__text) non-external (was a private external) __ZNSt3__112__hash_tableINS_17__hash_value_typeIPN2AG8SubgraphENS2_5Graph15TreeDataElementEEENS_22__unordered_map_hasherIS4_S7_NS_4hashIS4_EENS_8equal_toIS4_EELb1EEENS_21__unordered_map_equalIS4_S7_SC_SA_Lb1EEENS_9allocatorIS7_EEE17__deallocate_nodeEPNS_16__hash_node_baseIPNS_11__hash_nodeIS7_PvEEEE
00000001acef4f7c (__TEXT,__text) non-external (was a private external) __ZNSt3__112__hash_tableINS_17__hash_value_typeIPN2AG8SubgraphENS2_5Graph15TreeDataElementEEENS_22__unordered_map_hasherIS4_S7_NS_4hashIS4_EENS_8equal_toIS4_EELb1EEENS_21__unordered_map_equalIS4_S7_SC_SA_Lb1EEENS_9allocatorIS7_EEE25__emplace_unique_key_argsIS4_JRKNS_21piecewise_construct_tENS_5tupleIJOS4_EEENSN_IJEEEEEENS_4pairINS_15__hash_iteratorIPNS_11__hash_nodeIS7_PvEEEEbEERKT_DpOT0_
00000001acf0294c (__TEXT,__text) non-external (was a private external) __ZNSt3__112__hash_tableINS_17__hash_value_typeIPN2AG8SubgraphENS2_5Graph15TreeDataElementEEENS_22__unordered_map_hasherIS4_S7_NS_4hashIS4_EENS_8equal_toIS4_EELb1EEENS_21__unordered_map_equalIS4_S7_SC_SA_Lb1EEENS_9allocatorIS7_EEE25__emplace_unique_key_argsIS4_JRKNS_21piecewise_construct_tENS_5tupleIJRKS4_EEENSN_IJEEEEEENS_4pairINS_15__hash_iteratorIPNS_11__hash_nodeIS7_PvEEEEbEERKT_DpOT0_
00000001acef4c1c (__TEXT,__text) non-external (was a private external) __ZNSt3__112__hash_tableINS_17__hash_value_typeIPN2AG8SubgraphENS2_5Graph15TreeDataElementEEENS_22__unordered_map_hasherIS4_S7_NS_4hashIS4_EENS_8equal_toIS4_EELb1EEENS_21__unordered_map_equalIS4_S7_SC_SA_Lb1EEENS_9allocatorIS7_EEE4findIS4_EENS_15__hash_iteratorIPNS_11__hash_nodeIS7_PvEEEERKT_
00000001acef3f20 (__TEXT,__text) non-external (was a private external) __ZNSt3__112__hash_tableINS_17__hash_value_typeIPN2AG8SubgraphENS2_5Graph15TreeDataElementEEENS_22__unordered_map_hasherIS4_S7_NS_4hashIS4_EENS_8equal_toIS4_EELb1EEENS_21__unordered_map_equalIS4_S7_SC_SA_Lb1EEENS_9allocatorIS7_EEE5eraseENS_21__hash_const_iteratorIPNS_11__hash_nodeIS7_PvEEEE
00000001acef3f6c (__TEXT,__text) non-external (was a private external) __ZNSt3__112__hash_tableINS_17__hash_value_typeIPN2AG8SubgraphENS2_5Graph15TreeDataElementEEENS_22__unordered_map_hasherIS4_S7_NS_4hashIS4_EENS_8equal_toIS4_EELb1EEENS_21__unordered_map_equalIS4_S7_SC_SA_Lb1EEENS_9allocatorIS7_EEE6removeENS_21__hash_const_iteratorIPNS_11__hash_nodeIS7_PvEEEE
00000001acef5204 (__TEXT,__text) non-external (was a private external) __ZNSt3__112__hash_tableINS_17__hash_value_typeIPN2AG8SubgraphENS2_5Graph15TreeDataElementEEENS_22__unordered_map_hasherIS4_S7_NS_4hashIS4_EENS_8equal_toIS4_EELb1EEENS_21__unordered_map_equalIS4_S7_SC_SA_Lb1EEENS_9allocatorIS7_EEE8__rehashILb1EEEvm
00000001aceee794 (__TEXT,__text) non-external (was a private external) __ZNSt3__112__hash_tableINS_17__hash_value_typeIPN2AG8SubgraphENS2_5Graph15TreeDataElementEEENS_22__unordered_map_hasherIS4_S7_NS_4hashIS4_EENS_8equal_toIS4_EELb1EEENS_21__unordered_map_equalIS4_S7_SC_SA_Lb1EEENS_9allocatorIS7_EEED2Ev
00000001acee5f1c (__TEXT,__text) non-external (was a private external) __ZNSt3__112__hash_tableINS_17__hash_value_typeIjN2AG5Graph11ProfileData4ItemEEENS_22__unordered_map_hasherIjS6_NS_4hashIjEENS_8equal_toIjEELb1EEENS_21__unordered_map_equalIjS6_SB_S9_Lb1EEENS_9allocatorIS6_EEE11__do_rehashILb1EEEvm
00000001acee5a24 (__TEXT,__text) non-external (was a private external) __ZNSt3__112__hash_tableINS_17__hash_value_typeIjN2AG5Graph11ProfileData4ItemEEENS_22__unordered_map_hasherIjS6_NS_4hashIjEENS_8equal_toIjEELb1EEENS_21__unordered_map_equalIjS6_SB_S9_Lb1EEENS_9allocatorIS6_EEE17__deallocate_nodeEPNS_16__hash_node_baseIPNS_11__hash_nodeIS6_PvEEEE
00000001acee5b9c (__TEXT,__text) non-external (was a private external) __ZNSt3__112__hash_tableINS_17__hash_value_typeIjN2AG5Graph11ProfileData4ItemEEENS_22__unordered_map_hasherIjS6_NS_4hashIjEENS_8equal_toIjEELb1EEENS_21__unordered_map_equalIjS6_SB_S9_Lb1EEENS_9allocatorIS6_EEE25__emplace_unique_key_argsIjJRKNS_21piecewise_construct_tENS_5tupleIJRKjEEENSM_IJEEEEEENS_4pairINS_15__hash_iteratorIPNS_11__hash_nodeIS6_PvEEEEbEERKT_DpOT0_
00000001acf01ca0 (__TEXT,__text) non-external (was a private external) __ZNSt3__112__hash_tableINS_17__hash_value_typeIjN2AG5Graph11ProfileData4ItemEEENS_22__unordered_map_hasherIjS6_NS_4hashIjEENS_8equal_toIjEELb1EEENS_21__unordered_map_equalIjS6_SB_S9_Lb1EEENS_9allocatorIS6_EEE4findIjEENS_15__hash_iteratorIPNS_11__hash_nodeIS6_PvEEEERKT_
00000001acee5e2c (__TEXT,__text) non-external (was a private external) __ZNSt3__112__hash_tableINS_17__hash_value_typeIjN2AG5Graph11ProfileData4ItemEEENS_22__unordered_map_hasherIjS6_NS_4hashIjEENS_8equal_toIjEELb1EEENS_21__unordered_map_equalIjS6_SB_S9_Lb1EEENS_9allocatorIS6_EEE8__rehashILb1EEEvm
00000001acee59e8 (__TEXT,__text) non-external (was a private external) __ZNSt3__112__hash_tableINS_17__hash_value_typeIjN2AG5Graph11ProfileData4ItemEEENS_22__unordered_map_hasherIjS6_NS_4hashIjEENS_8equal_toIjEELb1EEENS_21__unordered_map_equalIjS6_SB_S9_Lb1EEENS_9allocatorIS6_EEED2Ev
00000001acee6630 (__TEXT,__text) non-external (was a private external) __ZNSt3__112__hash_tableINS_17__hash_value_typeIjN2AG5Graph11ProfileData8CategoryEEENS_22__unordered_map_hasherIjS6_NS_4hashIjEENS_8equal_toIjEELb1EEENS_21__unordered_map_equalIjS6_SB_S9_Lb1EEENS_9allocatorIS6_EEE11__do_rehashILb1EEEvm
00000001acee74d0 (__TEXT,__text) non-external (was a private external) __ZNSt3__112__hash_tableINS_17__hash_value_typeIjN2AG5Graph11ProfileData8CategoryEEENS_22__unordered_map_hasherIjS6_NS_4hashIjEENS_8equal_toIjEELb1EEENS_21__unordered_map_equalIjS6_SB_S9_Lb1EEENS_9allocatorIS6_EEE17__deallocate_nodeEPNS_16__hash_node_baseIPNS_11__hash_nodeIS6_PvEEEE
00000001acee62bc (__TEXT,__text) non-external (was a private external) __ZNSt3__112__hash_tableINS_17__hash_value_typeIjN2AG5Graph11ProfileData8CategoryEEENS_22__unordered_map_hasherIjS6_NS_4hashIjEENS_8equal_toIjEELb1EEENS_21__unordered_map_equalIjS6_SB_S9_Lb1EEENS_9allocatorIS6_EEE25__emplace_unique_key_argsIjJRKNS_21piecewise_construct_tENS_5tupleIJRKjEEENSM_IJEEEEEENS_4pairINS_15__hash_iteratorIPNS_11__hash_nodeIS6_PvEEEEbEERKT_DpOT0_
00000001acee6540 (__TEXT,__text) non-external (was a private external) __ZNSt3__112__hash_tableINS_17__hash_value_typeIjN2AG5Graph11ProfileData8CategoryEEENS_22__unordered_map_hasherIjS6_NS_4hashIjEENS_8equal_toIjEELb1EEENS_21__unordered_map_equalIjS6_SB_S9_Lb1EEENS_9allocatorIS6_EEE8__rehashILb1EEEvm
00000001acee7494 (__TEXT,__text) non-external (was a private external) __ZNSt3__112__hash_tableINS_17__hash_value_typeIjN2AG5Graph11ProfileData8CategoryEEENS_22__unordered_map_hasherIjS6_NS_4hashIjEENS_8equal_toIjEELb1EEENS_21__unordered_map_equalIjS6_SB_S9_Lb1EEENS_9allocatorIS6_EEED2Ev
00000001acf00cb8 (__TEXT,__text) non-external (was a private external) __ZNSt3__112__hash_tableINS_17__hash_value_typeIjmEENS_22__unordered_map_hasherIjS2_NS_4hashIjEENS_8equal_toIjEELb1EEENS_21__unordered_map_equalIjS2_S7_S5_Lb1EEENS_9allocatorIS2_EEE11__do_rehashILb1EEEvm
00000001acf009a0 (__TEXT,__text) non-external (was a private external) __ZNSt3__112__hash_tableINS_17__hash_value_typeIjmEENS_22__unordered_map_hasherIjS2_NS_4hashIjEENS_8equal_toIjEELb1EEENS_21__unordered_map_equalIjS2_S7_S5_Lb1EEENS_9allocatorIS2_EEE25__emplace_unique_key_argsIjJRjRmEEENS_4pairINS_15__hash_iteratorIPNS_11__hash_nodeIS2_PvEEEEbEERKT_DpOT0_
00000001acf014b4 (__TEXT,__text) non-external (was a private external) __ZNSt3__112__hash_tableINS_17__hash_value_typeIjmEENS_22__unordered_map_hasherIjS2_NS_4hashIjEENS_8equal_toIjEELb1EEENS_21__unordered_map_equalIjS2_S7_S5_Lb1EEENS_9allocatorIS2_EEE4findIjEENS_15__hash_iteratorIPNS_11__hash_nodeIS2_PvEEEERKT_
00000001acf00bc8 (__TEXT,__text) non-external (was a private external) __ZNSt3__112__hash_tableINS_17__hash_value_typeIjmEENS_22__unordered_map_hasherIjS2_NS_4hashIjEENS_8equal_toIjEELb1EEENS_21__unordered_map_equalIjS2_S7_S5_Lb1EEENS_9allocatorIS2_EEE8__rehashILb1EEEvm
00000001acf0141c (__TEXT,__text) non-external (was a private external) __ZNSt3__112__hash_tableINS_17__hash_value_typeIjmEENS_22__unordered_map_hasherIjS2_NS_4hashIjEENS_8equal_toIjEELb1EEENS_21__unordered_map_equalIjS2_S7_S5_Lb1EEENS_9allocatorIS2_EEED2Ev
00000001acee6b8c (__TEXT,__text) non-external (was a private external) __ZNSt3__112__hash_tableINS_17__hash_value_typeImN2AG5Graph12ProfileTrace10UpdateDataEEENS_22__unordered_map_hasherImS6_NS_4hashImEENS_8equal_toImEELb1EEENS_21__unordered_map_equalImS6_SB_S9_Lb1EEENS_9allocatorIS6_EEE11__do_rehashILb1EEEvm
00000001acee6884 (__TEXT,__text) non-external (was a private external) __ZNSt3__112__hash_tableINS_17__hash_value_typeImN2AG5Graph12ProfileTrace10UpdateDataEEENS_22__unordered_map_hasherImS6_NS_4hashImEENS_8equal_toImEELb1EEENS_21__unordered_map_equalImS6_SB_S9_Lb1EEENS_9allocatorIS6_EEE25__emplace_unique_key_argsImJRKNS_21piecewise_construct_tENS_5tupleIJOmEEENSM_IJEEEEEENS_4pairINS_15__hash_iteratorIPNS_11__hash_nodeIS6_PvEEEEbEERKT_DpOT0_
00000001acee6ce8 (__TEXT,__text) non-external (was a private external) __ZNSt3__112__hash_tableINS_17__hash_value_typeImN2AG5Graph12ProfileTrace10UpdateDataEEENS_22__unordered_map_hasherImS6_NS_4hashImEENS_8equal_toImEELb1EEENS_21__unordered_map_equalImS6_SB_S9_Lb1EEENS_9allocatorIS6_EEE4findImEENS_15__hash_iteratorIPNS_11__hash_nodeIS6_PvEEEERKT_
00000001acee6d9c (__TEXT,__text) non-external (was a private external) __ZNSt3__112__hash_tableINS_17__hash_value_typeImN2AG5Graph12ProfileTrace10UpdateDataEEENS_22__unordered_map_hasherImS6_NS_4hashImEENS_8equal_toImEELb1EEENS_21__unordered_map_equalImS6_SB_S9_Lb1EEENS_9allocatorIS6_EEE5eraseENS_21__hash_const_iteratorIPNS_11__hash_nodeIS6_PvEEEE
00000001acee6de0 (__TEXT,__text) non-external (was a private external) __ZNSt3__112__hash_tableINS_17__hash_value_typeImN2AG5Graph12ProfileTrace10UpdateDataEEENS_22__unordered_map_hasherImS6_NS_4hashImEENS_8equal_toImEELb1EEENS_21__unordered_map_equalImS6_SB_S9_Lb1EEENS_9allocatorIS6_EEE6removeENS_21__hash_const_iteratorIPNS_11__hash_nodeIS6_PvEEEE
00000001acee6a9c (__TEXT,__text) non-external (was a private external) __ZNSt3__112__hash_tableINS_17__hash_value_typeImN2AG5Graph12ProfileTrace10UpdateDataEEENS_22__unordered_map_hasherImS6_NS_4hashImEENS_8equal_toImEELb1EEENS_21__unordered_map_equalImS6_SB_S9_Lb1EEENS_9allocatorIS6_EEE8__rehashILb1EEEvm
00000001acee6838 (__TEXT,__text) non-external (was a private external) __ZNSt3__112__hash_tableINS_17__hash_value_typeImN2AG5Graph12ProfileTrace10UpdateDataEEENS_22__unordered_map_hasherImS6_NS_4hashImEENS_8equal_toImEELb1EEENS_21__unordered_map_equalImS6_SB_S9_Lb1EEENS_9allocatorIS6_EEED2Ev
00000001acf012c0 (__TEXT,__text) non-external (was a private external) __ZNSt3__112__hash_tableINS_17__hash_value_typeImmEENS_22__unordered_map_hasherImS2_NS_4hashImEENS_8equal_toImEELb1EEENS_21__unordered_map_equalImS2_S7_S5_Lb1EEENS_9allocatorIS2_EEE11__do_rehashILb1EEEvm
00000001acf00fbc (__TEXT,__text) non-external (was a private external) __ZNSt3__112__hash_tableINS_17__hash_value_typeImmEENS_22__unordered_map_hasherImS2_NS_4hashImEENS_8equal_toImEELb1EEENS_21__unordered_map_equalImS2_S7_S5_Lb1EEENS_9allocatorIS2_EEE25__emplace_unique_key_argsImJRKNS_21piecewise_construct_tENS_5tupleIJOmEEENSI_IJEEEEEENS_4pairINS_15__hash_iteratorIPNS_11__hash_nodeIS2_PvEEEEbEERKT_DpOT0_
00000001acf00864 (__TEXT,__text) non-external (was a private external) __ZNSt3__112__hash_tableINS_17__hash_value_typeImmEENS_22__unordered_map_hasherImS2_NS_4hashImEENS_8equal_toImEELb1EEENS_21__unordered_map_equalImS2_S7_S5_Lb1EEENS_9allocatorIS2_EEE4findImEENS_15__hash_iteratorIPNS_11__hash_nodeIS2_PvEEEERKT_
00000001acf011d0 (__TEXT,__text) non-external (was a private external) __ZNSt3__112__hash_tableINS_17__hash_value_typeImmEENS_22__unordered_map_hasherImS2_NS_4hashImEENS_8equal_toImEELb1EEENS_21__unordered_map_equalImS2_S7_S5_Lb1EEENS_9allocatorIS2_EEE8__rehashILb1EEEvm
00000001acf00f70 (__TEXT,__text) non-external (was a private external) __ZNSt3__112__hash_tableINS_17__hash_value_typeImmEENS_22__unordered_map_hasherImS2_NS_4hashImEENS_8equal_toImEELb1EEENS_21__unordered_map_equalImS2_S7_S5_Lb1EEENS_9allocatorIS2_EEED2Ev
                 (undefined) external __ZNSt3__112__next_primeEm (from libc++)
                 (undefined) external __ZNSt3__112basic_stringIcNS_11char_traitsIcEENS_9allocatorIcEEE6appendEPKcm (from libc++)
                 (undefined) external __ZNSt3__112basic_stringIcNS_11char_traitsIcEENS_9allocatorIcEEE9push_backEc (from libc++)
00000001acefaedc (__TEXT,__text) non-external (was a private external) __ZNSt3__114__split_bufferIPN2AG11AttributeIDENS_9allocatorIS3_EEE10push_frontEOS3_
00000001acefadd4 (__TEXT,__text) non-external (was a private external) __ZNSt3__114__split_bufferIPN2AG11AttributeIDENS_9allocatorIS3_EEE9push_backEOS3_
00000001acefa4d4 (__TEXT,__text) non-external (was a private external) __ZNSt3__114__split_bufferIPN2AG11AttributeIDENS_9allocatorIS3_EEED2Ev
00000001acefb104 (__TEXT,__text) non-external (was a private external) __ZNSt3__114__split_bufferIPN2AG11AttributeIDERNS_9allocatorIS3_EEE10push_frontERKS3_
00000001acefaffc (__TEXT,__text) non-external (was a private external) __ZNSt3__114__split_bufferIPN2AG11AttributeIDERNS_9allocatorIS3_EEE9push_backEOS3_
00000001acef89b0 (__TEXT,__text) non-external (was a private external) __ZNSt3__116__variant_detail12__assignmentINS0_8__traitsIJN2AG16LayoutDescriptor7Builder8DataItemENS5_10EqualsItemENS5_12IndirectItemENS5_15ExistentialItemENS5_11HeapRefItemENS5_10NestedItemENS5_8EnumItemEEEEE9__emplaceB7v160006ILm0EJRS6_EEERDaDpOT0_
00000001acef8ba8 (__TEXT,__text) non-external (was a private external) __ZNSt3__116__variant_detail12__visitation6__base12__dispatcherIJLm0EEE10__dispatchB7v160006IONS1_9__variant15__value_visitorIRN2AG16LayoutDescriptor7Builder7EmitterINS8_6vectorIhLm512EmEEEEEEJRKNS0_6__baseILNS0_6_TraitE1EJNSA_8DataItemENSA_10EqualsItemENSA_12IndirectItemENSA_15ExistentialItemENSA_11HeapRefItemENSA_10NestedItemENSA_8EnumItemEEEEEEEDcT_DpT0_
00000001acef8a1c (__TEXT,__text) non-external (was a private external) __ZNSt3__116__variant_detail12__visitation6__base12__dispatcherIJLm0EEE10__dispatchB7v160006IOZNS0_6__dtorINS0_8__traitsIJN2AG16LayoutDescriptor7Builder8DataItemENSA_10EqualsItemENSA_12IndirectItemENSA_15ExistentialItemENSA_11HeapRefItemENSA_10NestedItemENSA_8EnumItemEEEELNS0_6_TraitE1EE9__destroyB7v160006EvEUlRT_E_JRNS0_6__baseILSJ_1EJSB_SC_SD_SE_SF_SG_SH_EEEEEEDcSL_DpT0_
00000001acef8bb0 (__TEXT,__text) non-external (was a private external) __ZNSt3__116__variant_detail12__visitation6__base12__dispatcherIJLm1EEE10__dispatchB7v160006IONS1_9__variant15__value_visitorIRN2AG16LayoutDescriptor7Builder7EmitterINS8_6vectorIhLm512EmEEEEEEJRKNS0_6__baseILNS0_6_TraitE1EJNSA_8DataItemENSA_10EqualsItemENSA_12IndirectItemENSA_15ExistentialItemENSA_11HeapRefItemENSA_10NestedItemENSA_8EnumItemEEEEEEEDcT_DpT0_
00000001acef8a20 (__TEXT,__text) non-external (was a private external) __ZNSt3__116__variant_detail12__visitation6__base12__dispatcherIJLm1EEE10__dispatchB7v160006IOZNS0_6__dtorINS0_8__traitsIJN2AG16LayoutDescriptor7Builder8DataItemENSA_10EqualsItemENSA_12IndirectItemENSA_15ExistentialItemENSA_11HeapRefItemENSA_10NestedItemENSA_8EnumItemEEEELNS0_6_TraitE1EE9__destroyB7v160006EvEUlRT_E_JRNS0_6__baseILSJ_1EJSB_SC_SD_SE_SF_SG_SH_EEEEEEDcSL_DpT0_
00000001acef8bb8 (__TEXT,__text) non-external (was a private external) __ZNSt3__116__variant_detail12__visitation6__base12__dispatcherIJLm2EEE10__dispatchB7v160006IONS1_9__variant15__value_visitorIRN2AG16LayoutDescriptor7Builder7EmitterINS8_6vectorIhLm512EmEEEEEEJRKNS0_6__baseILNS0_6_TraitE1EJNSA_8DataItemENSA_10EqualsItemENSA_12IndirectItemENSA_15ExistentialItemENSA_11HeapRefItemENSA_10NestedItemENSA_8EnumItemEEEEEEEDcT_DpT0_
00000001acef8a24 (__TEXT,__text) non-external (was a private external) __ZNSt3__116__variant_detail12__visitation6__base12__dispatcherIJLm2EEE10__dispatchB7v160006IOZNS0_6__dtorINS0_8__traitsIJN2AG16LayoutDescriptor7Builder8DataItemENSA_10EqualsItemENSA_12IndirectItemENSA_15ExistentialItemENSA_11HeapRefItemENSA_10NestedItemENSA_8EnumItemEEEELNS0_6_TraitE1EE9__destroyB7v160006EvEUlRT_E_JRNS0_6__baseILSJ_1EJSB_SC_SD_SE_SF_SG_SH_EEEEEEDcSL_DpT0_
00000001acef8bc0 (__TEXT,__text) non-external (was a private external) __ZNSt3__116__variant_detail12__visitation6__base12__dispatcherIJLm3EEE10__dispatchB7v160006IONS1_9__variant15__value_visitorIRN2AG16LayoutDescriptor7Builder7EmitterINS8_6vectorIhLm512EmEEEEEEJRKNS0_6__baseILNS0_6_TraitE1EJNSA_8DataItemENSA_10EqualsItemENSA_12IndirectItemENSA_15ExistentialItemENSA_11HeapRefItemENSA_10NestedItemENSA_8EnumItemEEEEEEEDcT_DpT0_
00000001acef8a28 (__TEXT,__text) non-external (was a private external) __ZNSt3__116__variant_detail12__visitation6__base12__dispatcherIJLm3EEE10__dispatchB7v160006IOZNS0_6__dtorINS0_8__traitsIJN2AG16LayoutDescriptor7Builder8DataItemENSA_10EqualsItemENSA_12IndirectItemENSA_15ExistentialItemENSA_11HeapRefItemENSA_10NestedItemENSA_8EnumItemEEEELNS0_6_TraitE1EE9__destroyB7v160006EvEUlRT_E_JRNS0_6__baseILSJ_1EJSB_SC_SD_SE_SF_SG_SH_EEEEEEDcSL_DpT0_
00000001acef8bc8 (__TEXT,__text) non-external (was a private external) __ZNSt3__116__variant_detail12__visitation6__base12__dispatcherIJLm4EEE10__dispatchB7v160006IONS1_9__variant15__value_visitorIRN2AG16LayoutDescriptor7Builder7EmitterINS8_6vectorIhLm512EmEEEEEEJRKNS0_6__baseILNS0_6_TraitE1EJNSA_8DataItemENSA_10EqualsItemENSA_12IndirectItemENSA_15ExistentialItemENSA_11HeapRefItemENSA_10NestedItemENSA_8EnumItemEEEEEEEDcT_DpT0_
00000001acef8a2c (__TEXT,__text) non-external (was a private external) __ZNSt3__116__variant_detail12__visitation6__base12__dispatcherIJLm4EEE10__dispatchB7v160006IOZNS0_6__dtorINS0_8__traitsIJN2AG16LayoutDescriptor7Builder8DataItemENSA_10EqualsItemENSA_12IndirectItemENSA_15ExistentialItemENSA_11HeapRefItemENSA_10NestedItemENSA_8EnumItemEEEELNS0_6_TraitE1EE9__destroyB7v160006EvEUlRT_E_JRNS0_6__baseILSJ_1EJSB_SC_SD_SE_SF_SG_SH_EEEEEEDcSL_DpT0_
00000001acef8bd0 (__TEXT,__text) non-external (was a private external) __ZNSt3__116__variant_detail12__visitation6__base12__dispatcherIJLm5EEE10__dispatchB7v160006IONS1_9__variant15__value_visitorIRN2AG16LayoutDescriptor7Builder7EmitterINS8_6vectorIhLm512EmEEEEEEJRKNS0_6__baseILNS0_6_TraitE1EJNSA_8DataItemENSA_10EqualsItemENSA_12IndirectItemENSA_15ExistentialItemENSA_11HeapRefItemENSA_10NestedItemENSA_8EnumItemEEEEEEEDcT_DpT0_
00000001acef8a30 (__TEXT,__text) non-external (was a private external) __ZNSt3__116__variant_detail12__visitation6__base12__dispatcherIJLm5EEE10__dispatchB7v160006IOZNS0_6__dtorINS0_8__traitsIJN2AG16LayoutDescriptor7Builder8DataItemENSA_10EqualsItemENSA_12IndirectItemENSA_15ExistentialItemENSA_11HeapRefItemENSA_10NestedItemENSA_8EnumItemEEEELNS0_6_TraitE1EE9__destroyB7v160006EvEUlRT_E_JRNS0_6__baseILSJ_1EJSB_SC_SD_SE_SF_SG_SH_EEEEEEDcSL_DpT0_
00000001acef8bd8 (__TEXT,__text) non-external (was a private external) __ZNSt3__116__variant_detail12__visitation6__base12__dispatcherIJLm6EEE10__dispatchB7v160006IONS1_9__variant15__value_visitorIRN2AG16LayoutDescriptor7Builder7EmitterINS8_6vectorIhLm512EmEEEEEEJRKNS0_6__baseILNS0_6_TraitE1EJNSA_8DataItemENSA_10EqualsItemENSA_12IndirectItemENSA_15ExistentialItemENSA_11HeapRefItemENSA_10NestedItemENSA_8EnumItemEEEEEEEDcT_DpT0_
00000001acef8a34 (__TEXT,__text) non-external (was a private external) __ZNSt3__116__variant_detail12__visitation6__base12__dispatcherIJLm6EEE10__dispatchB7v160006IOZNS0_6__dtorINS0_8__traitsIJN2AG16LayoutDescriptor7Builder8DataItemENSA_10EqualsItemENSA_12IndirectItemENSA_15ExistentialItemENSA_11HeapRefItemENSA_10NestedItemENSA_8EnumItemEEEELNS0_6_TraitE1EE9__destroyB7v160006EvEUlRT_E_JRNS0_6__baseILSJ_1EJSB_SC_SD_SE_SF_SG_SH_EEEEEEDcSL_DpT0_
00000001acef8afc (__TEXT,__text) non-external (was a private external) __ZNSt3__116__variant_detail6__dtorINS0_8__traitsIJN2AG16LayoutDescriptor7Builder8DataItemENS5_10EqualsItemENS5_12IndirectItemENS5_15ExistentialItemENS5_11HeapRefItemENS5_10NestedItemENS5_8EnumItemEEEELNS0_6_TraitE1EED2Ev
00000001acefb220 (__TEXT,__text) non-external (was a private external) __ZNSt3__119__allocate_at_leastB7v160006INS_9allocatorIPN2AG11AttributeIDEEEEENS_19__allocation_resultINS_16allocator_traitsIT_E7pointerEEERS8_m
00000001aceee2a0 (__TEXT,__text) non-external __ZNSt3__119__sort5_wrap_policyB7v160006INS_17_ClassicAlgPolicyERZN2AG5Graph15TreeDataElement10sort_nodesEvE3$_9PNS_4pairINS2_4data3ptrINS3_11TreeElementEEENS9_INS2_4NodeEEEEEEEjT1_SG_SG_SG_SG_T0_
00000001aceed75c (__TEXT,__text) non-external __ZNSt3__119__sort5_wrap_policyB7v160006INS_17_ClassicAlgPolicyERZN2AG5Graph19index_of_input_slowERNS2_4NodeENS2_9InputEdge10ComparatorEE3$_7PS6_EEjT1_SB_SB_SB_SB_T0_
00000001acef485c (__TEXT,__text) non-external __ZNSt3__119__sort5_wrap_policyB7v160006INS_17_ClassicAlgPolicyERZN2AG8Subgraph19tree_subgraph_childENS2_4data3ptrINS2_5Graph11TreeElementEEEE3$_2PPS3_EEjT1_SD_SD_SD_SD_T0_
00000001acee6254 (__TEXT,__text) non-external (was a private external) __ZNSt3__122__hash_node_destructorINS_9allocatorINS_11__hash_nodeINS_17__hash_value_typeIN2AG4data3ptrINS4_4NodeEEENS4_5Graph11ProfileData4ItemEEEPvEEEEEclB7v160006EPSE_
00000001acef40a0 (__TEXT,__text) non-external (was a private external) __ZNSt3__122__hash_node_destructorINS_9allocatorINS_11__hash_nodeINS_17__hash_value_typeIPN2AG8SubgraphENS4_5Graph15TreeDataElementEEEPvEEEEEclB7v160006EPSB_
00000001acee6078 (__TEXT,__text) non-external (was a private external) __ZNSt3__122__hash_node_destructorINS_9allocatorINS_11__hash_nodeINS_17__hash_value_typeIjN2AG5Graph11ProfileData4ItemEEEPvEEEEEclB7v160006EPSA_
00000001acef8b58 (__TEXT,__text) non-external (was a private external) __ZNSt3__126__throw_bad_variant_accessB7v160006Ev
00000001aceee478 (__TEXT,__text) non-external __ZNSt3__127__insertion_sort_incompleteIRZN2AG5Graph15TreeDataElement10sort_nodesEvE3$_9PNS_4pairINS1_4data3ptrINS2_11TreeElementEEENS8_INS1_4NodeEEEEEEEbT0_SF_T_
00000001aceed990 (__TEXT,__text) non-external __ZNSt3__127__insertion_sort_incompleteIRZN2AG5Graph19index_of_input_slowERNS1_4NodeENS1_9InputEdge10ComparatorEE3$_7PS5_EEbT0_SA_T_
00000001acef49dc (__TEXT,__text) non-external __ZNSt3__127__insertion_sort_incompleteIRZN2AG8Subgraph19tree_subgraph_childENS1_4data3ptrINS1_5Graph11TreeElementEEEE3$_2PPS2_EEbT0_SC_T_
00000001acefaa68 (__TEXT,__text) non-external (was a private external) __ZNSt3__15dequeIN2AG11AttributeIDENS_9allocatorIS2_EEE19__add_back_capacityEv
00000001acefa9d0 (__TEXT,__text) non-external (was a private external) __ZNSt3__15dequeIN2AG11AttributeIDENS_9allocatorIS2_EEE9push_backERKS2_
00000001acefa42c (__TEXT,__text) non-external (was a private external) __ZNSt3__15dequeIN2AG11AttributeIDENS_9allocatorIS2_EEED2B7v160006Ev
00000001acef2b3c (__TEXT,__text) non-external (was a private external) __ZNSt3__15stackIN4util6cf_ptrIP17AGSubgraphStorageEEN2AG6vectorIS5_Lm32EmEEE3popB7v160006Ev
00000001acef2aa4 (__TEXT,__text) non-external (was a private external) __ZNSt3__15stackIN4util6cf_ptrIP17AGSubgraphStorageEEN2AG6vectorIS5_Lm32EmEEE7emplaceB7v160006IJS5_EEEDcDpOT_
00000001acef2b74 (__TEXT,__text) non-external (was a private external) __ZNSt3__15stackIN4util6cf_ptrIP17AGSubgraphStorageEEN2AG6vectorIS5_Lm32EmEEED1Ev
00000001acef2e88 (__TEXT,__text) non-external (was a private external) __ZNSt3__15stackIPKN2AG8SubgraphENS1_6vectorIS4_Lm32EmEEE4pushB7v160006EOS4_
00000001acef2478 (__TEXT,__text) non-external (was a private external) __ZNSt3__15stackIPKN2AG8SubgraphENS1_6vectorIS4_Lm32EmEEE4pushB7v160006ERKS4_
00000001acef3ec0 (__TEXT,__text) non-external (was a private external) __ZNSt3__15stackIPN2AG8SubgraphENS1_6vectorIS3_Lm16EmEEE4pushB7v160006ERKS3_
00000001acee96bc (__TEXT,__text) non-external (was a private external) __ZNSt3__15tupleIJjjN2AG6vectorIPKcLm0EmEEEED1Ev
00000001aceee3a0 (__TEXT,__text) non-external __ZNSt3__17__sort3B7v160006INS_17_ClassicAlgPolicyERZN2AG5Graph15TreeDataElement10sort_nodesEvE3$_9PNS_4pairINS2_4data3ptrINS3_11TreeElementEEENS9_INS2_4NodeEEEEEEEjT1_SG_SG_T0_
00000001aceed884 (__TEXT,__text) non-external __ZNSt3__17__sort3B7v160006INS_17_ClassicAlgPolicyERZN2AG5Graph19index_of_input_slowERNS2_4NodeENS2_9InputEdge10ComparatorEE3$_7PS6_EEjT1_SB_SB_T0_
00000001acef493c (__TEXT,__text) non-external __ZNSt3__17__sort3B7v160006INS_17_ClassicAlgPolicyERZN2AG8Subgraph19tree_subgraph_childENS2_4data3ptrINS2_5Graph11TreeElementEEEE3$_2PPS3_EEjT1_SD_SD_T0_
00000001aceee614 (__TEXT,__text) non-external __ZNSt3__17__sort4B7v160006INS_17_ClassicAlgPolicyERZN2AG5Graph15TreeDataElement10sort_nodesEvE3$_9PNS_4pairINS2_4data3ptrINS3_11TreeElementEEENS9_INS2_4NodeEEEEEEEjT1_SG_SG_SG_T0_
00000001aceedb50 (__TEXT,__text) non-external __ZNSt3__17__sort4B7v160006INS_17_ClassicAlgPolicyERZN2AG5Graph19index_of_input_slowERNS2_4NodeENS2_9InputEdge10ComparatorEE3$_7PS6_EEjT1_SB_SB_SB_T0_
00000001acef4b70 (__TEXT,__text) non-external __ZNSt3__17__sort4B7v160006INS_17_ClassicAlgPolicyERZN2AG8Subgraph19tree_subgraph_childENS2_4data3ptrINS2_5Graph11TreeElementEEEE3$_2PPS3_EEjT1_SD_SD_SD_T0_
00000001acef896c (__TEXT,__text) non-external (was a private external) __ZNSt3__17variantIJN2AG16LayoutDescriptor7Builder8DataItemENS3_10EqualsItemENS3_12IndirectItemENS3_15ExistentialItemENS3_11HeapRefItemENS3_10NestedItemENS3_8EnumItemEEEaSB7v160006IRS4_Li0ES4_Lm0ELi0EEERSB_OT_
00000001acef9be8 (__TEXT,__text) non-external __ZNSt3__19__sift_upB7v160006INS_17_ClassicAlgPolicyERNS_4lessIN2AG12_GLOBAL__N_119TypeDescriptorCache10QueueEntryEEEPS6_EEvT1_SA_OT0_NS_15iterator_traitsISA_E15difference_typeE
00000001acf15ac8 (__TEXT,__const) non-external __ZNSt3__1L19piecewise_constructE
00000001acf15b20 (__TEXT,__const) non-external __ZNSt3__1L19piecewise_constructE
00000001acf15b60 (__TEXT,__const) non-external __ZNSt3__1L19piecewise_constructE
                 (undefined) external __ZNSt9exceptionD2Ev (from libc++)
00000001acee5df8 (__TEXT,__text) non-external (was a private external) __ZSt28__throw_bad_array_new_lengthB7v160006v
                 (undefined) external __ZSt9terminatev (from libc++)
00000001d9113b08 (__AUTH_CONST,__const) non-external (was a private external) __ZTISt18bad_variant_access
00000001d91139c8 (__AUTH_CONST,__const) non-external (was a private external) __ZTISt20bad_array_new_length
00000001d91139b0 (__AUTH_CONST,__const) non-external (was a private external) __ZTISt9bad_alloc
00000001d91139a0 (__AUTH_CONST,__const) non-external (was a private external) __ZTISt9exception
00000001acf15b40 (__TEXT,__const) non-external (was a private external) __ZTSSt18bad_variant_access
00000001acf15ac9 (__TEXT,__const) non-external (was a private external) __ZTSSt20bad_array_new_length
00000001acf15ae2 (__TEXT,__const) non-external (was a private external) __ZTSSt9bad_alloc
00000001acf15aef (__TEXT,__const) non-external (was a private external) __ZTSSt9exception
00000001d9113c18 (__AUTH_CONST,__const) non-external (was a private external) __ZTV13ExternalTrace
                 (undefined) external __ZTVN10__cxxabiv117__class_type_infoE (from libc++)
                 (undefined) external __ZTVN10__cxxabiv120__si_class_type_infoE (from libc++)
00000001d9113a80 (__AUTH_CONST,__const) non-external (was a private external) __ZTVN2AG16LayoutDescriptor7BuilderE
00000001d9113838 (__AUTH_CONST,__const) non-external (was a private external) __ZTVN2AG5Graph12ProfileTraceE
00000001d9113508 (__AUTH_CONST,__const) non-external (was a private external) __ZTVN2AG5Graph13TraceRecorderE
00000001d91136d0 (__AUTH_CONST,__const) non-external (was a private external) __ZTVN2AG5TraceE
                 (undefined) external __ZTVSt18bad_variant_access (from libc++)
00000001d91139e0 (__AUTH_CONST,__const) non-external __ZTVZ17AGTypeApplyFieldsE7Visitor
00000001d9113a30 (__AUTH_CONST,__const) non-external __ZTVZ18AGTypeApplyFields2E7Visitor
00000001acedba18 (__TEXT,__text) non-external (was a private external) __ZThn16_N2AG5Graph13TraceRecorder13flush_encoderERNS_7EncoderE
00000001d6ee2330 (__DATA_DIRTY,__data) non-external __ZZ14AGMakeUniqueIDE7counter
00000001d6ee27c8 (__DATA_DIRTY,__bss) non-external __ZZ16AGGraphGetTypeIDE4type
00000001acee7f94 (__TEXT,__text) non-external __ZZ17AGTypeApplyFieldsEN7Visitor11visit_fieldEPKN2AG5swift8metadataERKNS1_12field_recordEmm
00000001acee7f8c (__TEXT,__text) non-external __ZZ17AGTypeApplyFieldsENK7Visitor14unknown_resultEv
00000001acee8100 (__TEXT,__text) non-external __ZZ18AGTypeApplyFields2EN7Visitor10visit_caseEPKN2AG5swift8metadataERKNS1_12field_recordEj
00000001acee802c (__TEXT,__text) non-external __ZZ18AGTypeApplyFields2EN7Visitor11visit_fieldEPKN2AG5swift8metadataERKNS1_12field_recordEmm
00000001acee8020 (__TEXT,__text) non-external __ZZ18AGTypeApplyFields2ENK7Visitor14unknown_resultEv
00000001d6ee27b8 (__DATA_DIRTY,__bss) non-external __ZZ19AGSubgraphGetTypeIDE4type
00000001d9113bb8 (__AUTH_CONST,__const) non-external __ZZN12_GLOBAL__N_113graph_type_idEvE5klass
00000001acf05ed4 (__TEXT,__text) non-external __ZZN12_GLOBAL__N_113graph_type_idEvEN3$_08__invokeIPKvEEDaT_
00000001d9113b58 (__AUTH_CONST,__const) non-external __ZZN12_GLOBAL__N_116subgraph_type_idEvE5klass
00000001acefcc08 (__TEXT,__text) non-external __ZZN12_GLOBAL__N_116subgraph_type_idEvEN3$_08__invokeIPKvEEDaT_
00000001d6155898 (__DATA,__bss) non-external __ZZN2AG12_GLOBAL__N_119TypeDescriptorCache5fetchEPKNS_5swift8metadataEjNS_16LayoutDescriptor8HeapModeEiE13async_layouts
00000001acef9974 (__TEXT,__text) non-external __ZZN2AG12_GLOBAL__N_119TypeDescriptorCache5fetchEPKNS_5swift8metadataEjNS_16LayoutDescriptor8HeapModeEiENK3$_7clEv
00000001acef7084 (__TEXT,__text) non-external __ZZN2AG16LayoutDescriptor5printEPKhENK3$_5clEPKcz
00000001d6155880 (__DATA,__bss) non-external __ZZN2AG16LayoutDescriptor7Builder6commitEPKNS_5swift8metadataEE13print_layouts
00000001acef8040 (__TEXT,__text) non-external __ZZN2AG16LayoutDescriptor7Builder6commitEPKNS_5swift8metadataEENK3$_6clEv
00000001d6155828 (__DATA,__bss) non-external __ZZN2AG4data5table13ensure_sharedEvE4once
00000001acedf678 (__TEXT,__text) non-external __ZZN2AG4data5table13ensure_sharedEvEN3$_08__invokeEPv
00000001d6155830 (__DATA,__bss) non-external __ZZN2AG4data5table19make_pages_reusableEjbE14unmap_reusable
00000001acedeb68 (__TEXT,__text) non-external __ZZN2AG4data5table19make_pages_reusableEjbENK3$_1clEv
00000001acee43f4 (__TEXT,__text) non-external __ZZN2AG5Graph11with_updateENS_4data3ptrINS_4NodeEEENS_17ClosureFunctionVVIvJEEEEN13scoped_updateD1Ev
00000001d6155810 (__DATA,__bss) non-external __ZZN2AG5Graph13TraceRecorder15field_backtraceERNS_7EncoderEmE14n_stack_frames
00000001acedb2b4 (__TEXT,__text) non-external __ZZN2AG5Graph13TraceRecorder15field_backtraceERNS_7EncoderEmENK3$_2clEv
00000001d6155800 (__DATA,__bss) non-external __ZZN2AG5Graph13TraceRecorder15field_timestampERNS_7EncoderEmE10time_scale
00000001d6155820 (__DATA,__bss) non-external __ZZN2AG5Graph13start_tracingEjNSt3__14spanIPKcLm18446744073709551615EEEE7cleanup
00000001acee62b0 (__TEXT,__text) non-external __ZZN2AG5Graph15start_profilingEjEN3$_08__invokeIP19__CFRunLoopObservermPvEEDaT_T0_T1_
00000001acee47dc (__TEXT,__text) non-external __ZZN2AG5Graph16update_attributeENS_4data3ptrINS_4NodeEEEjEN3$_38__invokeEPKv
00000001acee9bd0 (__TEXT,__text) non-external __ZZN2AG5Graph17call_main_handlerEPKvPFvS2_EEN14MainTrampoline5thunkES2_
00000001aceedc34 (__TEXT,__text) non-external (was a private external) __ZZN2AG5Graph8KeyTableC1EvENUlPKcE_8__invokeES3_
00000001aceedc38 (__TEXT,__text) non-external (was a private external) __ZZN2AG5Graph8KeyTableC1EvENUlPKcS3_E_8__invokeES3_S3_
00000001d6ee27a8 (__DATA_DIRTY,__bss) non-external __ZZN2AG5GraphC1EvE9make_keys
00000001d6155858 (__DATA,__bss) non-external __ZZN2AG5GraphC1EvEDC14profiler_flags11trace_flags16trace_subsystemsE
00000001aceecf7c (__TEXT,__text) non-external __ZZN2AG5GraphC1EvEN4$_108__invokeEPv
00000001acee9444 (__TEXT,__text) non-external __ZZN2AG5GraphC1EvENK4$_11clEv
00000001acee1924 (__TEXT,__text) non-external __ZZN2AG5swift12_GLOBAL__N_19TypeCacheC1EvEN3$_58__invokeEPKNSt3__14pairIPKNS0_8metadataEPKcEE
00000001acee1934 (__TEXT,__text) non-external __ZZN2AG5swift12_GLOBAL__N_19TypeCacheC1EvEN3$_68__invokeEPKNSt3__14pairIPKNS0_8metadataEPKcEESD_
00000001acef4144 (__TEXT,__text) non-external __ZZN2AG8Subgraph9NodeCacheC1EvEN4$_168__invokeEPKNS1_4ItemE
00000001acef4150 (__TEXT,__text) non-external __ZZN2AG8Subgraph9NodeCacheC1EvEN4$_178__invokeEPKNS1_4ItemES5_
00000001d61558d8 (__DATA,__bss) non-external __ZZN2AG8misc_logEvE3log
00000001d61558e8 (__DATA,__bss) non-external __ZZN2AG9error_logEvE3log
00000001d61558c8 (__DATA,__bss) non-external __ZZNK2AG5Graph11print_cycleENS_4data3ptrINS_4NodeEEEE5traps
00000001d61558b8 (__DATA,__bss) non-external __ZZNK2AG5Graph11print_cycleENS_4data3ptrINS_4NodeEEEE9verbosity
00000001d61554f8 (__DATA,__data) non-external (was a private external) __ZZNK2AG5swift8metadata17visit_heap_localsERNS0_16metadata_visitorEE12pointer_type
00000001d6155838 (__DATA,__bss) non-external __ZZNK2AG5swift8metadata28mangled_type_name_ref_cachedEPKcPNS1_8ref_kindEE5cache
00000001d6ee2798 (__DATA_DIRTY,__bss) non-external __ZZNK2AG5swift8metadata5visitERNS0_16metadata_visitorEE13native_object
00000001d6ee2788 (__DATA_DIRTY,__bss) non-external __ZZNK2AG5swift8metadata9equatableEvE20nsobject_conformance
00000001acedf954 (__TEXT,__text) non-external __ZZNK2AG5swift8metadata9equatableEvENK3$_2clEv
00000001d6155848 (__DATA,__bss) non-external __ZZNK2AG5swift8metadata9signatureEvE5cache
00000001acef5524 (__TEXT,__text) non-external __ZZNK4util5TableIN2AG4data3ptrINS1_4NodeEEEPNS1_8Subgraph9NodeCache4ItemEE8for_eachIZNS7_D1EvE4$_18EEvRKT_ENUlPKvSH_SH_E_8__invokeESH_SH_SH_
00000001acef5534 (__TEXT,__text) non-external __ZZNK4util5TableIPKN2AG5swift8metadataENS1_4data3ptrINS1_8Subgraph9NodeCache4TypeEEEE8for_eachIZNS8_13cache_collectEvE4$_19EEvRKT_ENUlPKvSJ_SJ_E_8__invokeESJ_SJ_SJ_
                 (undefined) weak external __ZdlPv (from libc++)
                 (undefined) weak external __Znwm (from libc++)
                 (undefined) external ___CFConstantStringClassReference (from CoreFoundation)
                 (undefined) external ___NSDictionary0__struct (from CoreFoundation)
00000001acede228 (__TEXT,__text) non-external ____ZN2AG5Graph13start_tracingEjNSt3__14spanIPKcLm18446744073709551615EEE_block_invoke
00000001acede234 (__TEXT,__text) non-external ____ZN2AG5Graph13start_tracingEjNSt3__14spanIPKcLm18446744073709551615EEE_block_invoke_2
                 (undefined) external ___assert_rtn (from libSystem)
00000001d9113060 (__DATA_CONST,__const) non-external ___block_descriptor_tmp
00000001d9113080 (__DATA_CONST,__const) non-external ___block_descriptor_tmp.9
00000001d9113690 (__AUTH_CONST,__const) non-external ___block_literal_global
00000001d91136b0 (__AUTH_CONST,__const) non-external ___block_literal_global.11
                 (undefined) external ___chkstk_darwin (from libSystem)
00000001acedadd0 (__TEXT,__text) non-external (was a private external) ___clang_call_terminate
                 (undefined) external ___cxa_allocate_exception (from libc++)
                 (undefined) external ___cxa_atexit (from libSystem)
                 (undefined) external ___cxa_begin_catch (from libc++)
                 (undefined) external ___cxa_guard_abort (from libc++)
                 (undefined) external ___cxa_guard_acquire (from libc++)
                 (undefined) external ___cxa_guard_release (from libc++)
                 (undefined) external ___cxa_throw (from libc++)
                 (undefined) external ___darwin_check_fd_set_overflow (from libSystem)
                 (undefined) external ___error (from libSystem)
                 (undefined) external ___gxx_personality_v0 (from libc++)
                 (undefined) external ___kCFBooleanFalse (from CoreFoundation)
                 (undefined) external ___kCFBooleanTrue (from CoreFoundation)
                 (undefined) external ___stack_chk_fail (from libSystem)
                 (undefined) external ___stack_chk_guard (from libSystem)
                 (undefined) external ___stderrp (from libSystem)
00000001acf0f858 (__TEXT,__text) non-external (was a private external) ___swift_destroy_boxed_opaque_existential_1
00000001acf0e1a8 (__TEXT,__text) non-external (was a private external) ___swift_instantiateConcreteTypeFromMangledName
00000001acf09440 (__TEXT,__text) non-external (was a private external) ___swift_instantiateConcreteTypeFromMangledNameAbstract
00000001acf094c0 (__TEXT,__text) non-external (was a private external) ___swift_instantiateGenericMetadata
00000001acf08be4 (__TEXT,__text) non-external (was a private external) ___swift_memcpy16_8
00000001acf08d20 (__TEXT,__text) non-external (was a private external) ___swift_memcpy20_1
00000001acf08cac (__TEXT,__text) non-external (was a private external) ___swift_memcpy24_8
00000001acf09544 (__TEXT,__text) non-external (was a private external) ___swift_memcpy48_8
00000001acf096f0 (__TEXT,__text) non-external (was a private external) ___swift_memcpy56_8
00000001acf08b98 (__TEXT,__text) non-external (was a private external) ___swift_memcpy8_4
00000001acf08c28 (__TEXT,__text) non-external (was a private external) ___swift_memcpy8_8
00000001acf08ba4 (__TEXT,__text) non-external (was a private external) ___swift_noop_void_return
00000001acf0f814 (__TEXT,__text) non-external (was a private external) ___swift_project_boxed_opaque_existential_1
00000001acf168e0 (__TEXT,__const) non-external (was a private external) ___swift_reflection_version
00000001acf15d08 (__TEXT,__const) non-external ___unnamed_1
00000001acf16638 (__TEXT,__const) non-external ___unnamed_1
00000001acf168a0 (__TEXT,__const) non-external ___unnamed_1
00000001acf16c50 (__TEXT,__const) non-external ___unnamed_1
00000001acf16b28 (__TEXT,__const) non-external ___unnamed_2
00000001acf16bf8 (__TEXT,__const) non-external ___unnamed_2
00000001acf16dd8 (__TEXT,__const) non-external ___unnamed_2
00000001acf16c20 (__TEXT,__const) non-external ___unnamed_5
                 (undefined) external __dispatch_main_q (from libSystem)
                 (undefined) external __dispatch_source_type_read (from libSystem)
                 (undefined) external __dyld_images_for_addresses (from libSystem)
                 (undefined) external __objc_empty_cache (from libobjc)
                 (undefined) external __os_log_error_impl (from libSystem)
                 (undefined) external __os_log_fault_impl (from libSystem)
                 (undefined) external __os_log_impl (from libSystem)
                 (undefined) external __swiftEmptyArrayStorage (from libswiftCore)
                 (undefined) external __swiftEmptyDictionarySingleton (from libswiftCore)
                 (undefined) weak external __swift_FORCE_LOAD_$_swiftCoreFoundation (from libswiftCoreFoundation)
00000001d9113108 (__DATA_CONST,__const) non-external (was a private external) __swift_FORCE_LOAD_$_swiftCoreFoundation_$_AttributeGraph
                 (undefined) weak external __swift_FORCE_LOAD_$_swiftDarwin (from libswiftDarwin)
00000001d9113110 (__DATA_CONST,__const) non-external (was a private external) __swift_FORCE_LOAD_$_swiftDarwin_$_AttributeGraph
                 (undefined) weak external __swift_FORCE_LOAD_$_swiftDispatch (from libswiftDispatch)
00000001d9113118 (__DATA_CONST,__const) non-external (was a private external) __swift_FORCE_LOAD_$_swiftDispatch_$_AttributeGraph
                 (undefined) weak external automatically hidden __swift_FORCE_LOAD_$_swiftFoundation (from Foundation)
00000001d9113128 (__DATA_CONST,__const) non-external (was a private external) __swift_FORCE_LOAD_$_swiftFoundation_$_AttributeGraph
                 (undefined) weak external __swift_FORCE_LOAD_$_swiftIOKit (from libswiftIOKit)
00000001d9113138 (__DATA_CONST,__const) non-external (was a private external) __swift_FORCE_LOAD_$_swiftIOKit_$_AttributeGraph
                 (undefined) weak external __swift_FORCE_LOAD_$_swiftObjectiveC (from libswiftObjectiveC)
00000001d9113120 (__DATA_CONST,__const) non-external (was a private external) __swift_FORCE_LOAD_$_swiftObjectiveC_$_AttributeGraph
                 (undefined) weak external __swift_FORCE_LOAD_$_swiftXPC (from libswiftXPC)
00000001d9113130 (__DATA_CONST,__const) non-external (was a private external) __swift_FORCE_LOAD_$_swiftXPC_$_AttributeGraph
00000001acf12170 (__TEXT,__text) non-external __swift_stdlib_malloc_size
                 (undefined) external _abort (from libSystem)
                 (undefined) external _accept (from libSystem)
                 (undefined) external _arc4random (from libSystem)
                 (undefined) external _asprintf (from libSystem)
00000001acf196e0 (__TEXT,__swift5_typeref) non-external (was a private external) _associated conformance 14AttributeGraph011AnyOptionalA0VSHAASQ
00000001acf1932a (__TEXT,__swift5_typeref) non-external (was a private external) _associated conformance 14AttributeGraph04WeakA0VyxGSHAASQ
00000001acf19640 (__TEXT,__swift5_typeref) non-external (was a private external) _associated conformance 14AttributeGraph08IndirectA0VyxGSHAASQ
00000001acf196e8 (__TEXT,__swift5_typeref) non-external (was a private external) _associated conformance 14AttributeGraph08OptionalA0VyxGSHAASQ
00000001acf1956a (__TEXT,__swift5_typeref) non-external (was a private external) _associated conformance 14AttributeGraph0A0VyxGSHAASQ
00000001acf19478 (__TEXT,__swift5_typeref) non-external (was a private external) _associated conformance So10AGGraphRefa14CoreFoundation9_CFObjectSCSH
00000001acf19470 (__TEXT,__swift5_typeref) non-external (was a private external) _associated conformance So10AGGraphRefaSHSCSQ
00000001acf19562 (__TEXT,__swift5_typeref) non-external (was a private external) _associated conformance So11AGAttributeaSH14AttributeGraphSQ
00000001acf19452 (__TEXT,__swift5_typeref) non-external (was a private external) _associated conformance So11AGAttributeas20_SwiftNewtypeWrapperSCSY
00000001acf1945a (__TEXT,__swift5_typeref) non-external (was a private external) _associated conformance So11AGAttributeas20_SwiftNewtypeWrapperSCs35_HasCustomAnyHashableRepresentation
00000001acf19322 (__TEXT,__swift5_typeref) non-external (was a private external) _associated conformance So15AGWeakAttributeaSH0B5GraphSQ
00000001acf194b0 (__TEXT,__swift5_typeref) non-external (was a private external) _associated conformance So19AGDescriptionOptionaSHSCSQ
00000001acf193e4 (__TEXT,__swift5_typeref) non-external (was a private external) _associated conformance So19AGDescriptionOptionas20_SwiftNewtypeWrapperSCSY
00000001acf193ec (__TEXT,__swift5_typeref) non-external (was a private external) _associated conformance So19AGDescriptionOptionas20_SwiftNewtypeWrapperSCs35_HasCustomAnyHashableRepresentation
00000001acf19430 (__TEXT,__swift5_typeref) non-external (was a private external) _associated conformance So20AGAttributeTypeFlagsVs10SetAlgebraSCSQ
00000001acf19438 (__TEXT,__swift5_typeref) non-external (was a private external) _associated conformance So20AGAttributeTypeFlagsVs10SetAlgebraSCs25ExpressibleByArrayLiteral
00000001acf19490 (__TEXT,__swift5_typeref) non-external (was a private external) _associated conformance So20AGAttributeTypeFlagsVs9OptionSetSCSY
00000001acf19498 (__TEXT,__swift5_typeref) non-external (was a private external) _associated conformance So20AGAttributeTypeFlagsVs9OptionSetSCs0E7Algebra
00000001acf1966a (__TEXT,__swift5_typeref) non-external (was a private external) _associated conformance So25AGTreeElementNodeIteratoraST14AttributeGraph0D0ST_St
00000001acf1964e (__TEXT,__swift5_typeref) non-external (was a private external) _associated conformance So26AGTreeElementChildIteratoraST14AttributeGraph0D0ST_St
00000001acf19662 (__TEXT,__swift5_typeref) non-external (was a private external) _associated conformance So26AGTreeElementValueIteratoraST14AttributeGraph0D0ST_St
00000001acf19638 (__TEXT,__swift5_typeref) non-external (was a private external) _associated conformance So8AGTypeIDaSH14AttributeGraphSQ
00000001acf19480 (__TEXT,__swift5_typeref) non-external (was a private external) _associated conformance So8AGTypeIDas20_SwiftNewtypeWrapperSCSY
00000001acf19488 (__TEXT,__swift5_typeref) non-external (was a private external) _associated conformance So8AGTypeIDas20_SwiftNewtypeWrapperSCs35_HasCustomAnyHashableRepresentation
                 (undefined) external _atexit_b (from libSystem)
                 (undefined) external _atoi (from libSystem)
                 (undefined) external _backtrace (from libSystem)
                 (undefined) external _backtrace_image_offsets (from libSystem)
                 (undefined) external _bind (from libSystem)
                 (undefined) external _bzero (from libSystem)
                 (undefined) external _class_copyIvarList (from libobjc)
                 (undefined) external _close (from libSystem)
                 (undefined) external _dispatch_async_f (from libSystem)
                 (undefined) external _dispatch_get_global_queue (from libSystem)
                 (undefined) external _dispatch_once (from libSystem)
                 (undefined) external _dispatch_once_f (from libSystem)
                 (undefined) external _dispatch_resume (from libSystem)
                 (undefined) external _dispatch_set_context (from libSystem)
                 (undefined) external _dispatch_source_create (from libSystem)
                 (undefined) external _dispatch_source_set_event_handler_f (from libSystem)
                 (undefined) external _dladdr (from libSystem)
                 (undefined) external _fcntl (from libSystem)
                 (undefined) external _fprintf (from libSystem)
                 (undefined) external _fputc (from libSystem)
                 (undefined) external _fputs (from libSystem)
                 (undefined) external _free (from libSystem)
                 (undefined) external _freeifaddrs (from libSystem)
                 (undefined) external _fwrite (from libSystem)
00000001d61557b8 (__DATA,__crash_info) non-external (was a private external) _gCRAnnotations
                 (undefined) external _getenv (from libSystem)
                 (undefined) external _getifaddrs (from libSystem)
                 (undefined) external _getpid (from libSystem)
                 (undefined) external _getsockname (from libSystem)
                 (undefined) external _gzclose (from libz)
                 (undefined) external _gzopen (from libz)
                 (undefined) external _gzwrite (from libz)
                 (undefined) external _inet_ntop (from libSystem)
                 (undefined) external _ivar_getOffset (from libobjc)
                 (undefined) external _kCFRunLoopCommonModes (from CoreFoundation)
00000001acf11468 (__TEXT,__text) non-external _keypath_get.11Tm
00000001acf0da00 (__TEXT,__text) non-external _keypath_get.12Tm
00000001acf149ec (__TEXT,__text) non-external _keypath_get.2Tm
00000001acf08af8 (__TEXT,__text) non-external _keypath_getTm
00000001acf08b44 (__TEXT,__text) non-external _keypath_setTm
                 (undefined) external _listen (from libSystem)
                 (undefined) external _mach_absolute_time (from libSystem)
                 (undefined) external _mach_port_deallocate (from libSystem)
                 (undefined) external _mach_task_self_ (from libSystem)
                 (undefined) external _mach_timebase_info (from libSystem)
                 (undefined) external _mach_vm_region (from libSystem)
                 (undefined) external _madvise (from libSystem)
                 (undefined) external _malloc (from libSystem)
                 (undefined) external _malloc_create_zone (from libSystem)
                 (undefined) external _malloc_good_size (from libSystem)
                 (undefined) external _malloc_set_zone_name (from libSystem)
                 (undefined) external _malloc_size (from libSystem)
                 (undefined) external _malloc_zone_free (from libSystem)
                 (undefined) external _malloc_zone_malloc (from libSystem)
                 (undefined) external _memcpy (from libSystem)
                 (undefined) external _memmove (from libSystem)
                 (undefined) external _memset (from libSystem)
                 (undefined) external _mmap (from libSystem)
                 (undefined) external _mprotect (from libSystem)
                 (undefined) external _objc_autorelease (from libobjc)
                 (undefined) external _objc_autoreleasePoolPop (from libobjc)
                 (undefined) external _objc_autoreleasePoolPush (from libobjc)
                 (undefined) external _objc_autoreleaseReturnValue (from libobjc)
                 (undefined) external _objc_enumerationMutation (from libobjc)
                 (undefined) external _objc_getClass (from libobjc)
                 (undefined) external _objc_msgSend (from libobjc)
00000001acf1c9c0 (__TEXT,__objc_stubs) non-external (was a private external) _objc_msgSend$JSONObjectWithData:options:error:
00000001acf1c9e0 (__TEXT,__objc_stubs) non-external (was a private external) _objc_msgSend$UTF8String
00000001acf1ca00 (__TEXT,__objc_stubs) non-external (was a private external) _objc_msgSend$addEntriesFromDictionary:
00000001acf1ca20 (__TEXT,__objc_stubs) non-external (was a private external) _objc_msgSend$addIndex:
00000001acf1ca40 (__TEXT,__objc_stubs) non-external (was a private external) _objc_msgSend$addObject:
00000001acf1ca60 (__TEXT,__objc_stubs) non-external (was a private external) _objc_msgSend$addObserver:selector:name:object:
00000001acf1ca80 (__TEXT,__objc_stubs) non-external (was a private external) _objc_msgSend$appendFormat:
00000001acf1caa0 (__TEXT,__objc_stubs) non-external (was a private external) _objc_msgSend$appendString:
00000001acf1cac0 (__TEXT,__objc_stubs) non-external (was a private external) _objc_msgSend$array
00000001acf1cae0 (__TEXT,__objc_stubs) non-external (was a private external) _objc_msgSend$boolValue
00000001acf1cb00 (__TEXT,__objc_stubs) non-external (was a private external) _objc_msgSend$bytes
00000001acf1cb20 (__TEXT,__objc_stubs) non-external (was a private external) _objc_msgSend$componentsJoinedByString:
00000001acf1cb40 (__TEXT,__objc_stubs) non-external (was a private external) _objc_msgSend$containsIndex:
00000001acf1cb60 (__TEXT,__objc_stubs) non-external (was a private external) _objc_msgSend$containsObject:
00000001acf1cb80 (__TEXT,__objc_stubs) non-external (was a private external) _objc_msgSend$count
00000001acf1cba0 (__TEXT,__objc_stubs) non-external (was a private external) _objc_msgSend$countByEnumeratingWithState:objects:count:
00000001acf1cbc0 (__TEXT,__objc_stubs) non-external (was a private external) _objc_msgSend$dataWithJSONObject:options:error:
00000001acf1cbe0 (__TEXT,__objc_stubs) non-external (was a private external) _objc_msgSend$defaultCenter
00000001acf1cc00 (__TEXT,__objc_stubs) non-external (was a private external) _objc_msgSend$description
00000001acf1cc20 (__TEXT,__objc_stubs) non-external (was a private external) _objc_msgSend$dictionary
00000001acf1cc40 (__TEXT,__objc_stubs) non-external (was a private external) _objc_msgSend$dictionaryWithDictionary:
00000001acf1cc60 (__TEXT,__objc_stubs) non-external (was a private external) _objc_msgSend$dictionaryWithObjects:forKeys:count:
00000001acf1cc80 (__TEXT,__objc_stubs) non-external (was a private external) _objc_msgSend$fileSystemRepresentation
00000001acf1cca0 (__TEXT,__objc_stubs) non-external (was a private external) _objc_msgSend$hasPrefix:
00000001acf1ccc0 (__TEXT,__objc_stubs) non-external (was a private external) _objc_msgSend$indexSet
00000001acf1cce0 (__TEXT,__objc_stubs) non-external (was a private external) _objc_msgSend$isEqual:
00000001acf1cd00 (__TEXT,__objc_stubs) non-external (was a private external) _objc_msgSend$isEqualToString:
00000001acf1cd20 (__TEXT,__objc_stubs) non-external (was a private external) _objc_msgSend$length
00000001acf1cd40 (__TEXT,__objc_stubs) non-external (was a private external) _objc_msgSend$mutableCopy
00000001acf1cd60 (__TEXT,__objc_stubs) non-external (was a private external) _objc_msgSend$null
00000001acf1cd80 (__TEXT,__objc_stubs) non-external (was a private external) _objc_msgSend$numberWithBool:
00000001acf1cda0 (__TEXT,__objc_stubs) non-external (was a private external) _objc_msgSend$numberWithDouble:
00000001acf1cdc0 (__TEXT,__objc_stubs) non-external (was a private external) _objc_msgSend$numberWithUnsignedChar:
00000001acf1cde0 (__TEXT,__objc_stubs) non-external (was a private external) _objc_msgSend$numberWithUnsignedInt:
00000001acf1ce00 (__TEXT,__objc_stubs) non-external (was a private external) _objc_msgSend$numberWithUnsignedLong:
00000001acf1ce20 (__TEXT,__objc_stubs) non-external (was a private external) _objc_msgSend$objectAtIndexedSubscript:
00000001acf1ce40 (__TEXT,__objc_stubs) non-external (was a private external) _objc_msgSend$objectForKeyedSubscript:
00000001acf1ce60 (__TEXT,__objc_stubs) non-external (was a private external) _objc_msgSend$pathExtension
00000001acf1ce80 (__TEXT,__objc_stubs) non-external (was a private external) _objc_msgSend$setObject:atIndexedSubscript:
00000001acf1cea0 (__TEXT,__objc_stubs) non-external (was a private external) _objc_msgSend$setObject:forKeyedSubscript:
00000001acf1cec0 (__TEXT,__objc_stubs) non-external (was a private external) _objc_msgSend$string
00000001acf1cee0 (__TEXT,__objc_stubs) non-external (was a private external) _objc_msgSend$stringByAppendingPathComponent:
00000001acf1cf00 (__TEXT,__objc_stubs) non-external (was a private external) _objc_msgSend$stringByAppendingString:
00000001acf1cf20 (__TEXT,__objc_stubs) non-external (was a private external) _objc_msgSend$stringByReplacingOccurrencesOfString:withString:
00000001acf1cf40 (__TEXT,__objc_stubs) non-external (was a private external) _objc_msgSend$stringWithFormat:
00000001acf1cf60 (__TEXT,__objc_stubs) non-external (was a private external) _objc_msgSend$stringWithUTF8String:
00000001acf1cf80 (__TEXT,__objc_stubs) non-external (was a private external) _objc_msgSend$substringToIndex:
00000001acf1cfa0 (__TEXT,__objc_stubs) non-external (was a private external) _objc_msgSend$unsignedIntValue
00000001acf1cfc0 (__TEXT,__objc_stubs) non-external (was a private external) _objc_msgSend$unsignedLongValue
00000001acf1cfe0 (__TEXT,__objc_stubs) non-external (was a private external) _objc_msgSend$writeToFile:options:error:
                 (undefined) external _objc_opt_class (from libobjc)
                 (undefined) external _objc_opt_isKindOfClass (from libobjc)
                 (undefined) external _objc_opt_self (from libobjc)
                 (undefined) external _objc_release (from libobjc)
                 (undefined) external _objc_retain (from libobjc)
                 (undefined) external _objc_retainAutorelease (from libobjc)
                 (undefined) external _objc_retainAutoreleasedReturnValue (from libobjc)
                 (undefined) external _open (from libSystem)
                 (undefined) external _os_log_create (from libSystem)
                 (undefined) external _os_log_type_enabled (from libSystem)
                 (undefined) external _os_unfair_lock_lock (from libSystem)
                 (undefined) external _os_unfair_lock_trylock (from libSystem)
                 (undefined) external _os_unfair_lock_unlock (from libSystem)
                 (undefined) external _os_variant_has_internal_diagnostics (from libSystem)
                 (undefined) external _perror (from libSystem)
                 (undefined) external _pthread_key_create (from libSystem)
                 (undefined) external _read (from libSystem)
                 (undefined) external _realloc (from libSystem)
                 (undefined) external _select (from libSystem)
                 (undefined) external _setsockopt (from libSystem)
                 (undefined) external _snprintf_l (from libSystem)
                 (undefined) external _socket (from libSystem)
                 (undefined) external _strcasecmp (from libSystem)
                 (undefined) external _strcmp (from libSystem)
                 (undefined) external _strcspn (from libSystem)
                 (undefined) external _strdup (from libSystem)
                 (undefined) external _strlen (from libSystem)
                 (undefined) external _strspn (from libSystem)
                 (undefined) external _strtol (from libSystem)
                 (undefined) external _swift_allocObject (from libswiftCore)
                 (undefined) external _swift_allocateGenericValueMetadata (from libswiftCore)
                 (undefined) external _swift_bridgeObjectRelease (from libswiftCore)
                 (undefined) external _swift_bridgeObjectRelease_n (from libswiftCore)
                 (undefined) external _swift_bridgeObjectRetain (from libswiftCore)
                 (undefined) external _swift_checkMetadataState (from libswiftCore)
                 (undefined) external _swift_conformsToProtocol (from libswiftCore)
                 (undefined) external _swift_deallocObject (from libswiftCore)
                 (undefined) external _swift_dynamicCast (from libswiftCore)
                 (undefined) external _swift_errorRelease (from libswiftCore)
                 (undefined) external _swift_getAssociatedTypeWitness (from libswiftCore)
                 (undefined) external _swift_getAtKeyPath (from libswiftCore)
                 (undefined) external _swift_getForeignTypeMetadata (from libswiftCore)
                 (undefined) external _swift_getGenericMetadata (from libswiftCore)
                 (undefined) external _swift_getObjCClassMetadata (from libswiftCore)
                 (undefined) external _swift_getObjectType (from libswiftCore)
                 (undefined) external _swift_getTupleTypeMetadata (from libswiftCore)
                 (undefined) external _swift_getTupleTypeMetadata2 (from libswiftCore)
                 (undefined) external _swift_getTypeByMangledNameInContext (from libswiftCore)
                 (undefined) external _swift_getTypeByMangledNameInContext2 (from libswiftCore)
                 (undefined) external _swift_getTypeByMangledNameInContextInMetadataState2 (from libswiftCore)
                 (undefined) external _swift_getTypeName (from libswiftCore)
                 (undefined) external _swift_getWitnessTable (from libswiftCore)
                 (undefined) external _swift_initStackObject (from libswiftCore)
                 (undefined) external _swift_isUniquelyReferencedNonObjC (from libswiftCore)
                 (undefined) external _swift_once (from libswiftCore)
                 (undefined) external _swift_release (from libswiftCore)
                 (undefined) external _swift_retain (from libswiftCore)
                 (undefined) external _swift_slowAlloc (from libswiftCore)
                 (undefined) external _swift_slowDealloc (from libswiftCore)
                 (undefined) external _swift_unknownObjectRelease (from libswiftCore)
                 (undefined) external _swift_willThrow (from libswiftCore)
00000001acf19578 (__TEXT,__swift5_typeref) non-external (was a private external) _symbolic $s14AttributeGraph01_A4BodyP
00000001acf19596 (__TEXT,__swift5_typeref) non-external (was a private external) _symbolic $s14AttributeGraph08ObservedA0P
00000001acf195b6 (__TEXT,__swift5_typeref) non-external (was a private external) _symbolic $s14AttributeGraph0A11BodyVisitorP
00000001acf19540 (__TEXT,__swift5_typeref) non-external (was a private external) _symbolic $s14AttributeGraph12StatefulRuleP
00000001acf19508 (__TEXT,__swift5_typeref) non-external (was a private external) _symbolic $s14AttributeGraph4RuleP
00000001acf19656 (__TEXT,__swift5_typeref) non-external (was a private external) _symbolic $sST
00000001acf193de (__TEXT,__swift5_typeref) non-external (was a private external) _symbolic $sSY
00000001acf1965c (__TEXT,__swift5_typeref) non-external (was a private external) _symbolic $sSt
00000001acf19440 (__TEXT,__swift5_typeref) non-external (was a private external) _symbolic $ss10SetAlgebraP
00000001acf193f4 (__TEXT,__swift5_typeref) non-external (was a private external) _symbolic $ss21_ObjectiveCBridgeableP
00000001acf19410 (__TEXT,__swift5_typeref) non-external (was a private external) _symbolic $ss25ExpressibleByArrayLiteralP
00000001acf194a0 (__TEXT,__swift5_typeref) non-external (was a private external) _symbolic $ss9OptionSetP
00000001acf1952a (__TEXT,__swift5_typeref) non-external (was a private external) _symbolic B0
00000001acf1953c (__TEXT,__swift5_typeref) non-external (was a private external) _symbolic B1
00000001acf195fc (__TEXT,__swift5_typeref) non-external (was a private external) _symbolic SDySSypG
00000001acf1938c (__TEXT,__swift5_typeref) non-external (was a private external) _symbolic SPy_____G So15AGSwiftMetadataV
00000001acf19370 (__TEXT,__swift5_typeref) non-external (was a private external) _symbolic SPy_____G So18_AGAttributeVTableV
00000001acf1937a (__TEXT,__swift5_typeref) non-external (was a private external) _symbolic SPy_____GSg s5UInt8V
00000001acf193da (__TEXT,__swift5_typeref) non-external (was a private external) _symbolic SS
00000001acf194b8 (__TEXT,__swift5_typeref) non-external (was a private external) _symbolic SV
00000001acf194bc (__TEXT,__swift5_typeref) non-external (was a private external) _symbolic SVSg
00000001acf193d6 (__TEXT,__swift5_typeref) non-external (was a private external) _symbolic Si
00000001acf19462 (__TEXT,__swift5_typeref) non-external (was a private external) _symbolic So8NSNumberC
00000001acf19344 (__TEXT,__swift5_typeref) non-external (was a private external) _symbolic So8NSStringC
00000001acf193b4 (__TEXT,__swift5_typeref) non-external (was a private external) _symbolic Su
00000001acf196f0 (__TEXT,__swift5_typeref) non-external (was a private external) _symbolic _____ 14AttributeGraph011AnyOptionalA0V
00000001acf19332 (__TEXT,__swift5_typeref) non-external (was a private external) _symbolic _____ 14AttributeGraph04WeakA0V
00000001acf19648 (__TEXT,__swift5_typeref) non-external (was a private external) _symbolic _____ 14AttributeGraph08IndirectA0V
00000001acf196f6 (__TEXT,__swift5_typeref) non-external (was a private external) _symbolic _____ 14AttributeGraph08OptionalA0V
00000001acf19572 (__TEXT,__swift5_typeref) non-external (was a private external) _symbolic _____ 14AttributeGraph0A0V
00000001acf196a2 (__TEXT,__swift5_typeref) non-external (was a private external) _symbolic _____ 14AttributeGraph11RuleContextV
00000001acf196da (__TEXT,__swift5_typeref) non-external (was a private external) _symbolic _____ 14AttributeGraph13PointerOffsetV
00000001acf1969c (__TEXT,__swift5_typeref) non-external (was a private external) _symbolic _____ 14AttributeGraph14AnyRuleContextV
00000001acf196bc (__TEXT,__swift5_typeref) non-external (was a private external) _symbolic _____ 14AttributeGraph3MapV
00000001acf196b6 (__TEXT,__swift5_typeref) non-external (was a private external) _symbolic _____ 14AttributeGraph5FocusV
00000001acf196c2 (__TEXT,__swift5_typeref) non-external (was a private external) _symbolic _____ 14AttributeGraph8ExternalV
00000001acf193a8 (__TEXT,__swift5_typeref) non-external (was a private external) _symbolic _____ So11AGAttributea
00000001acf193b8 (__TEXT,__swift5_typeref) non-external (was a private external) _symbolic _____ So11AGTreeValuea
00000001acf193ca (__TEXT,__swift5_typeref) non-external (was a private external) _symbolic _____ So13AGTreeElementa
00000001acf19502 (__TEXT,__swift5_typeref) non-external (was a private external) _symbolic _____ So15AGSwiftMetadataV
00000001acf19396 (__TEXT,__swift5_typeref) non-external (was a private external) _symbolic _____ So15AGTypeSignatureV
00000001acf19338 (__TEXT,__swift5_typeref) non-external (was a private external) _symbolic _____ So15AGWeakAttributea
00000001acf19386 (__TEXT,__swift5_typeref) non-external (was a private external) _symbolic _____ So15AGWeakAttributea25__Unnamed_struct__detailsV
00000001acf1935e (__TEXT,__swift5_typeref) non-external (was a private external) _symbolic _____ So16_AGAttributeTypeV
00000001acf1936a (__TEXT,__swift5_typeref) non-external (was a private external) _symbolic _____ So17_AGClosureStorageV
00000001acf194c2 (__TEXT,__swift5_typeref) non-external (was a private external) _symbolic _____ So18_AGAttributeVTableV
00000001acf1933e (__TEXT,__swift5_typeref) non-external (was a private external) _symbolic _____ So19AGDescriptionOptiona
00000001acf19352 (__TEXT,__swift5_typeref) non-external (was a private external) _symbolic _____ So20AGAttributeTypeFlagsV
00000001acf193ae (__TEXT,__swift5_typeref) non-external (was a private external) _symbolic _____ So25AGTreeElementNodeIteratora
00000001acf193d0 (__TEXT,__swift5_typeref) non-external (was a private external) _symbolic _____ So26AGTreeElementChildIteratora
00000001acf193c4 (__TEXT,__swift5_typeref) non-external (was a private external) _symbolic _____ So26AGTreeElementValueIteratora
00000001acf19364 (__TEXT,__swift5_typeref) non-external (was a private external) _symbolic _____ So8AGTypeIDa
00000001acf193be (__TEXT,__swift5_typeref) non-external (was a private external) _symbolic _____ s13OpaquePointerV
00000001acf19358 (__TEXT,__swift5_typeref) non-external (was a private external) _symbolic _____ s6UInt32V
00000001acf1939c (__TEXT,__swift5_typeref) non-external (was a private external) _symbolic ______A19At s5UInt8V
00000001acf19620 (__TEXT,__swift5_typeref) non-external (was a private external) _symbolic ______p s23CustomStringConvertibleP
00000001acf19628 (__TEXT,__swift5_typeref) non-external (was a private external) _symbolic ______pSg s23CustomStringConvertibleP
00000001acf19616 (__TEXT,__swift5_typeref) non-external (was a private external) _symbolic ______ypt So19AGDescriptionOptiona
00000001acf19672 (__TEXT,__swift5_typeref) non-external (was a private external) _symbolic _____y_____G s23_ContiguousArrayStorageC So11AGAttributea
00000001acf19680 (__TEXT,__swift5_typeref) non-external (was a private external) _symbolic _____y_____G s23_ContiguousArrayStorageC So11AGTreeValuea
00000001acf1968e (__TEXT,__swift5_typeref) non-external (was a private external) _symbolic _____y_____G s23_ContiguousArrayStorageC So13AGTreeElementa
00000001acf195e4 (__TEXT,__swift5_typeref) non-external (was a private external) _symbolic _____y______yptG s23_ContiguousArrayStorageC So19AGDescriptionOptiona
00000001acf19606 (__TEXT,__swift5_typeref) non-external (was a private external) _symbolic _____y_____ypG s18_DictionaryStorageC So19AGDescriptionOptiona
00000001acf196a8 (__TEXT,__swift5_typeref) non-external (was a private external) _symbolic _____yxG 14AttributeGraph0A0V
00000001acf196c8 (__TEXT,__swift5_typeref) non-external (was a private external) _symbolic _____yxq_G s7KeyPathC
00000001acf195da (__TEXT,__swift5_typeref) non-external (was a private external) _symbolic _____yypG s23_ContiguousArrayStorageC
00000001acf196b2 (__TEXT,__swift5_typeref) non-external (was a private external) _symbolic q_
00000001acf196d4 (__TEXT,__swift5_typeref) non-external (was a private external) _symbolic q_xc
00000001acf19536 (__TEXT,__swift5_typeref) non-external (was a private external) _symbolic qd__
00000001acf1952e (__TEXT,__swift5_typeref) non-external (was a private external) _symbolic qd__XMT
00000001acf19522 (__TEXT,__swift5_typeref) non-external (was a private external) _symbolic x
00000001acf19524 (__TEXT,__swift5_typeref) non-external (was a private external) _symbolic xXMT
00000001acf194d8 (__TEXT,__swift5_typeref) non-external (was a private external) _symbolic ySPy_____G_SvtXCSg So16_AGAttributeTypeV
00000001acf194c8 (__TEXT,__swift5_typeref) non-external (was a private external) _symbolic ySpy_____GXCSg So16_AGAttributeTypeV
00000001acf195f6 (__TEXT,__swift5_typeref) non-external (was a private external) _symbolic ypSg
00000001acf194ec (__TEXT,__swift5_typeref) non-external (was a private external) _symbolic ypSgSPy_____G_SVtXCSg So16_AGAttributeTypeV
00000001acf19632 (__TEXT,__swift5_typeref) non-external (was a private external) _symbolic ypXp
                 (undefined) external _unlink (from libSystem)
                 (undefined) external _uuid_compare (from libSystem)
                 (undefined) external _uuid_copy (from libSystem)
                 (undefined) external _uuid_generate (from libSystem)
                 (undefined) external _uuid_is_null (from libSystem)
                 (undefined) external _uuid_unparse (from libSystem)
                 (undefined) external _vasprintf (from libSystem)
                 (undefined) external _vfprintf (from libSystem)
                 (undefined) external _vm_page_mask (from libSystem)
                 (undefined) external _vm_remap (from libSystem)
                 (undefined) external _write (from libSystem)
