                 (undefined) external __DefaultRuneLocale (from libSystem)
000000018059bc24 (__TEXT,__text) non-external __GLOBAL__sub_I_stdlib_typed_new.cpp
000000018059b860 (__TEXT,__text) non-external __ZL17operator_new_implm
000000018059ba90 (__TEXT,__text) non-external __ZL25__typed_operator_new_implB8fn190102mSt19__type_descriptor_t
000000018059b8d0 (__TEXT,__text) non-external __ZL25operator_new_aligned_implmSt11align_val_t
0000000180588990 (__TEXT,__text) non-external __ZL28demangling_terminate_handlerv
00000001805889a8 (__TEXT,__text) non-external __ZL29demangling_unexpected_handlerv
0000000182bcc0b0 (__AUTH,__data) non-external __ZL8__vtable.0
0000000182bcc0b8 (__AUTH,__data) non-external __ZL8__vtable.1
0000000182bcc0c0 (__AUTH,__data) non-external __ZL8__vtable.2
0000000182bcc0c8 (__AUTH,__data) non-external __ZL8__vtable.3
0000000180599f10 (__TEXT,__text) non-external __ZL8is_equalPKSt9type_infoS1_b
000000018059acf8 (__TEXT,__text) non-external __ZN10__cxxabiv112_GLOBAL__N_113dyn_cast_slowEPKvS2_PKNS_17__class_type_infoES5_S5_l
000000018059aba0 (__TEXT,__text) non-external __ZN10__cxxabiv112_GLOBAL__N_119dyn_cast_to_derivedEPKvS2_PKNS_17__class_type_infoES5_llb
000000018059ac48 (__TEXT,__text) non-external __ZN10__cxxabiv112_GLOBAL__N_121dyn_cast_try_downcastEPKvS2_PKNS_17__class_type_infoES5_lb
000000018059ab80 (__TEXT,__text) non-external __ZN10__cxxabiv112_GLOBAL__N_125dyn_cast_get_derived_infoEPNS0_19derived_object_infoEPKv
0000000180599350 (__TEXT,__text) non-external __ZN10__cxxabiv112_GLOBAL__N_126throw_bad_array_new_lengthEv
0000000180599d54 (__TEXT,__text) non-external (was a private external) __ZN10__cxxabiv116__enum_type_infoD0Ev
0000000180599d50 (__TEXT,__text) non-external (was a private external) __ZN10__cxxabiv116__enum_type_infoD1Ev
0000000180599d4c (__TEXT,__text) non-external (was a private external) __ZN10__cxxabiv116__enum_type_infoD2Ev
0000000180599c80 (__TEXT,__text) non-external (was a private external) __ZN10__cxxabiv116__shim_type_infoD0Ev
0000000180599c7c (__TEXT,__text) non-external (was a private external) __ZN10__cxxabiv116__shim_type_infoD1Ev
0000000180599c78 (__TEXT,__text) non-external (was a private external) __ZN10__cxxabiv116__shim_type_infoD2Ev
0000000180599cd4 (__TEXT,__text) non-external (was a private external) __ZN10__cxxabiv117__array_type_infoD0Ev
0000000180599cd0 (__TEXT,__text) non-external (was a private external) __ZN10__cxxabiv117__array_type_infoD1Ev
0000000180599ccc (__TEXT,__text) non-external (was a private external) __ZN10__cxxabiv117__array_type_infoD2Ev
0000000180599d94 (__TEXT,__text) non-external (was a private external) __ZN10__cxxabiv117__class_type_infoD0Ev
0000000180599d90 (__TEXT,__text) non-external (was a private external) __ZN10__cxxabiv117__class_type_infoD1Ev
0000000180599d8c (__TEXT,__text) non-external (was a private external) __ZN10__cxxabiv117__class_type_infoD2Ev
0000000180599e54 (__TEXT,__text) non-external (was a private external) __ZN10__cxxabiv117__pbase_type_infoD0Ev
0000000180599e50 (__TEXT,__text) non-external (was a private external) __ZN10__cxxabiv117__pbase_type_infoD1Ev
0000000180599e4c (__TEXT,__text) non-external (was a private external) __ZN10__cxxabiv117__pbase_type_infoD2Ev
000000018059bde0 (__TEXT,__text) non-external (was a private external) __ZN10__cxxabiv119__getExceptionClassEPK17_Unwind_Exception
0000000180599e94 (__TEXT,__text) non-external (was a private external) __ZN10__cxxabiv119__pointer_type_infoD0Ev
0000000180599e90 (__TEXT,__text) non-external (was a private external) __ZN10__cxxabiv119__pointer_type_infoD1Ev
0000000180599e8c (__TEXT,__text) non-external (was a private external) __ZN10__cxxabiv119__pointer_type_infoD2Ev
000000018059bde8 (__TEXT,__text) non-external (was a private external) __ZN10__cxxabiv119__setExceptionClassEP17_Unwind_Exceptiony
0000000180599c54 (__TEXT,__text) non-external (was a private external) __ZN10__cxxabiv120__free_with_fallbackEPv
0000000180599d14 (__TEXT,__text) non-external (was a private external) __ZN10__cxxabiv120__function_type_infoD0Ev
0000000180599d10 (__TEXT,__text) non-external (was a private external) __ZN10__cxxabiv120__function_type_infoD1Ev
0000000180599d0c (__TEXT,__text) non-external (was a private external) __ZN10__cxxabiv120__function_type_infoD2Ev
0000000180599dd4 (__TEXT,__text) non-external (was a private external) __ZN10__cxxabiv120__si_class_type_infoD0Ev
0000000180599dd0 (__TEXT,__text) non-external (was a private external) __ZN10__cxxabiv120__si_class_type_infoD1Ev
0000000180599dcc (__TEXT,__text) non-external (was a private external) __ZN10__cxxabiv120__si_class_type_infoD2Ev
000000018059bdec (__TEXT,__text) non-external (was a private external) __ZN10__cxxabiv121__isOurExceptionClassEPK17_Unwind_Exception
0000000180599e14 (__TEXT,__text) non-external (was a private external) __ZN10__cxxabiv121__vmi_class_type_infoD0Ev
0000000180599e10 (__TEXT,__text) non-external (was a private external) __ZN10__cxxabiv121__vmi_class_type_infoD1Ev
0000000180599e0c (__TEXT,__text) non-external (was a private external) __ZN10__cxxabiv121__vmi_class_type_infoD2Ev
0000000180599b1c (__TEXT,__text) non-external (was a private external) __ZN10__cxxabiv122__calloc_with_fallbackEmm
0000000180599c94 (__TEXT,__text) non-external (was a private external) __ZN10__cxxabiv123__fundamental_type_infoD0Ev
0000000180599c90 (__TEXT,__text) non-external (was a private external) __ZN10__cxxabiv123__fundamental_type_infoD1Ev
0000000180599c8c (__TEXT,__text) non-external (was a private external) __ZN10__cxxabiv123__fundamental_type_infoD2Ev
0000000180599b70 (__TEXT,__text) non-external (was a private external) __ZN10__cxxabiv128__aligned_free_with_fallbackEPv
0000000180599ed4 (__TEXT,__text) non-external (was a private external) __ZN10__cxxabiv129__pointer_to_member_type_infoD0Ev
0000000180599ed0 (__TEXT,__text) non-external (was a private external) __ZN10__cxxabiv129__pointer_to_member_type_infoD1Ev
0000000180599ecc (__TEXT,__text) non-external (was a private external) __ZN10__cxxabiv129__pointer_to_member_type_infoD2Ev
0000000180599974 (__TEXT,__text) non-external (was a private external) __ZN10__cxxabiv130__aligned_malloc_with_fallbackEm
0000000182ba41f0 (__DATA,__bss) non-external __ZN10__cxxabiv1L10eh_globalsE
000000018059a060 (__TEXT,__text) non-external __ZN10__cxxabiv1L13is_class_typeEPKNS_16__shim_type_infoE
0000000180599b94 (__TEXT,__text) non-external __ZN12_GLOBAL__N_113fallback_freeEPv
00000001805999dc (__TEXT,__text) non-external __ZN12_GLOBAL__N_115fallback_mallocEm
000000018059520c (__TEXT,__text) non-external __ZN12_GLOBAL__N_116itanium_demangle10AbiTagAttrD0Ev
0000000180595208 (__TEXT,__text) non-external __ZN12_GLOBAL__N_116itanium_demangle10AbiTagAttrD1Ev
0000000180590530 (__TEXT,__text) non-external __ZN12_GLOBAL__N_116itanium_demangle10BinaryExprD0Ev
000000018059052c (__TEXT,__text) non-external __ZN12_GLOBAL__N_116itanium_demangle10BinaryExprD1Ev
0000000180597c04 (__TEXT,__text) non-external __ZN12_GLOBAL__N_116itanium_demangle10BitIntTypeD0Ev
0000000180597c00 (__TEXT,__text) non-external __ZN12_GLOBAL__N_116itanium_demangle10BitIntTypeD1Ev
0000000180593984 (__TEXT,__text) non-external __ZN12_GLOBAL__N_116itanium_demangle10BracedExprD0Ev
0000000180593980 (__TEXT,__text) non-external __ZN12_GLOBAL__N_116itanium_demangle10BracedExprD1Ev
0000000180590c30 (__TEXT,__text) non-external __ZN12_GLOBAL__N_116itanium_demangle10DeleteExprD0Ev
0000000180590c2c (__TEXT,__text) non-external __ZN12_GLOBAL__N_116itanium_demangle10DeleteExprD1Ev
00000001805931c8 (__TEXT,__text) non-external __ZN12_GLOBAL__N_116itanium_demangle10LambdaExprD0Ev
00000001805931c4 (__TEXT,__text) non-external __ZN12_GLOBAL__N_116itanium_demangle10LambdaExprD1Ev
0000000180590890 (__TEXT,__text) non-external __ZN12_GLOBAL__N_116itanium_demangle10MemberExprD0Ev
000000018059088c (__TEXT,__text) non-external __ZN12_GLOBAL__N_116itanium_demangle10MemberExprD1Ev
000000018058c16c (__TEXT,__text) non-external __ZN12_GLOBAL__N_116itanium_demangle10ModuleNameD0Ev
000000018058c168 (__TEXT,__text) non-external __ZN12_GLOBAL__N_116itanium_demangle10ModuleNameD1Ev
0000000180595680 (__TEXT,__text) non-external __ZN12_GLOBAL__N_116itanium_demangle10NestedNameD0Ev
000000018059567c (__TEXT,__text) non-external __ZN12_GLOBAL__N_116itanium_demangle10NestedNameD1Ev
0000000180590690 (__TEXT,__text) non-external __ZN12_GLOBAL__N_116itanium_demangle10PrefixExprD0Ev
000000018059068c (__TEXT,__text) non-external __ZN12_GLOBAL__N_116itanium_demangle10PrefixExprD1Ev
0000000180597ed4 (__TEXT,__text) non-external __ZN12_GLOBAL__N_116itanium_demangle10VectorTypeD0Ev
0000000180597ed0 (__TEXT,__text) non-external __ZN12_GLOBAL__N_116itanium_demangle10VectorTypeD1Ev
0000000180593304 (__TEXT,__text) non-external __ZN12_GLOBAL__N_116itanium_demangle11EnumLiteralD0Ev
0000000180593300 (__TEXT,__text) non-external __ZN12_GLOBAL__N_116itanium_demangle11EnumLiteralD1Ev
0000000180598868 (__TEXT,__text) non-external __ZN12_GLOBAL__N_116itanium_demangle11PointerTypeD0Ev
0000000180598864 (__TEXT,__text) non-external __ZN12_GLOBAL__N_116itanium_demangle11PointerTypeD1Ev
0000000180590720 (__TEXT,__text) non-external __ZN12_GLOBAL__N_116itanium_demangle11PostfixExprD0Ev
000000018059071c (__TEXT,__text) non-external __ZN12_GLOBAL__N_116itanium_demangle11PostfixExprD1Ev
000000018058bd94 (__TEXT,__text) non-external __ZN12_GLOBAL__N_116itanium_demangle11SpecialNameD0Ev
000000018058bd90 (__TEXT,__text) non-external __ZN12_GLOBAL__N_116itanium_demangle11SpecialNameD1Ev
0000000180597ae4 (__TEXT,__text) non-external __ZN12_GLOBAL__N_116itanium_demangle12BinaryFPTypeD0Ev
0000000180597ae0 (__TEXT,__text) non-external __ZN12_GLOBAL__N_116itanium_demangle12BinaryFPTypeD1Ev
0000000180595478 (__TEXT,__text) non-external __ZN12_GLOBAL__N_116itanium_demangle12CtorDtorNameD0Ev
0000000180595474 (__TEXT,__text) non-external __ZN12_GLOBAL__N_116itanium_demangle12CtorDtorNameD1Ev
0000000180595d60 (__TEXT,__text) non-external __ZN12_GLOBAL__N_116itanium_demangle12EnableIfAttrD0Ev
0000000180595d5c (__TEXT,__text) non-external __ZN12_GLOBAL__N_116itanium_demangle12EnableIfAttrD1Ev
00000001805975d4 (__TEXT,__text) non-external __ZN12_GLOBAL__N_116itanium_demangle12FunctionTypeD0Ev
00000001805975d0 (__TEXT,__text) non-external __ZN12_GLOBAL__N_116itanium_demangle12FunctionTypeD1Ev
0000000180593b44 (__TEXT,__text) non-external __ZN12_GLOBAL__N_116itanium_demangle12InitListExprD0Ev
0000000180593b40 (__TEXT,__text) non-external __ZN12_GLOBAL__N_116itanium_demangle12InitListExprD1Ev
000000018059551c (__TEXT,__text) non-external __ZN12_GLOBAL__N_116itanium_demangle12ModuleEntityD0Ev
0000000180595518 (__TEXT,__text) non-external __ZN12_GLOBAL__N_116itanium_demangle12ModuleEntityD1Ev
0000000180597230 (__TEXT,__text) non-external __ZN12_GLOBAL__N_116itanium_demangle12NoexceptSpecD0Ev
000000018059722c (__TEXT,__text) non-external __ZN12_GLOBAL__N_116itanium_demangle12NoexceptSpecD1Ev
0000000180588ff0 (__TEXT,__text) non-external __ZN12_GLOBAL__N_116itanium_demangle12OutputBuffer4growEm
00000001805940c0 (__TEXT,__text) non-external __ZN12_GLOBAL__N_116itanium_demangle12RequiresExprD0Ev
00000001805940bc (__TEXT,__text) non-external __ZN12_GLOBAL__N_116itanium_demangle12RequiresExprD1Ev
0000000180595bf8 (__TEXT,__text) non-external __ZN12_GLOBAL__N_116itanium_demangle12TemplateArgsD0Ev
0000000180595bf4 (__TEXT,__text) non-external __ZN12_GLOBAL__N_116itanium_demangle12TemplateArgsD1Ev
000000018059113c (__TEXT,__text) non-external __ZN12_GLOBAL__N_116itanium_demangle13EnclosingExprD0Ev
0000000180591138 (__TEXT,__text) non-external __ZN12_GLOBAL__N_116itanium_demangle13EnclosingExprD1Ev
0000000180593410 (__TEXT,__text) non-external __ZN12_GLOBAL__N_116itanium_demangle13FunctionParamD0Ev
000000018059340c (__TEXT,__text) non-external __ZN12_GLOBAL__N_116itanium_demangle13FunctionParamD1Ev
000000018059438c (__TEXT,__text) non-external __ZN12_GLOBAL__N_116itanium_demangle13NodeArrayNodeD0Ev
0000000180594388 (__TEXT,__text) non-external __ZN12_GLOBAL__N_116itanium_demangle13NodeArrayNodeD1Ev
00000001805976a0 (__TEXT,__text) non-external __ZN12_GLOBAL__N_116itanium_demangle13ObjCProtoNameD0Ev
000000018059769c (__TEXT,__text) non-external __ZN12_GLOBAL__N_116itanium_demangle13ObjCProtoNameD1Ev
0000000180595b54 (__TEXT,__text) non-external __ZN12_GLOBAL__N_116itanium_demangle13ParameterPackD0Ev
0000000180595b50 (__TEXT,__text) non-external __ZN12_GLOBAL__N_116itanium_demangle13ParameterPackD1Ev
00000001805947e4 (__TEXT,__text) non-external __ZN12_GLOBAL__N_116itanium_demangle13QualifiedNameD0Ev
00000001805947e0 (__TEXT,__text) non-external __ZN12_GLOBAL__N_116itanium_demangle13QualifiedNameD1Ev
0000000180598c34 (__TEXT,__text) non-external __ZN12_GLOBAL__N_116itanium_demangle13ReferenceTypeD0Ev
0000000180598c30 (__TEXT,__text) non-external __ZN12_GLOBAL__N_116itanium_demangle13ReferenceTypeD1Ev
0000000180591fbc (__TEXT,__text) non-external __ZN12_GLOBAL__N_116itanium_demangle13StringLiteralD0Ev
0000000180591fb8 (__TEXT,__text) non-external __ZN12_GLOBAL__N_116itanium_demangle13StringLiteralD1Ev
0000000180594254 (__TEXT,__text) non-external __ZN12_GLOBAL__N_116itanium_demangle13SubobjectExprD0Ev
0000000180594250 (__TEXT,__text) non-external __ZN12_GLOBAL__N_116itanium_demangle13SubobjectExprD1Ev
0000000180590ddc (__TEXT,__text) non-external __ZN12_GLOBAL__N_116itanium_demangle14ConversionExprD0Ev
0000000180590dd8 (__TEXT,__text) non-external __ZN12_GLOBAL__N_116itanium_demangle14ConversionExprD1Ev
0000000180591a08 (__TEXT,__text) non-external __ZN12_GLOBAL__N_116itanium_demangle14IntegerLiteralD0Ev
0000000180591a04 (__TEXT,__text) non-external __ZN12_GLOBAL__N_116itanium_demangle14IntegerLiteralD1Ev
000000018058af64 (__TEXT,__text) non-external __ZN12_GLOBAL__N_116itanium_demangle14PODSmallVectorIPNS0_4NodeELm32EE9push_backERKS3_
00000001805927e0 (__TEXT,__text) non-external __ZN12_GLOBAL__N_116itanium_demangle14PODSmallVectorIPNS0_4NodeELm8EE9push_backERKS3_
000000018058b384 (__TEXT,__text) non-external __ZN12_GLOBAL__N_116itanium_demangle14PODSmallVectorIPNS0_4NodeELm8EEaSEOS4_
000000018058d15c (__TEXT,__text) non-external __ZN12_GLOBAL__N_116itanium_demangle14PODSmallVectorIPNS1_IPNS0_4NodeELm8EEELm4EE9push_backERKS5_
000000018058b29c (__TEXT,__text) non-external __ZN12_GLOBAL__N_116itanium_demangle14PODSmallVectorIPNS1_IPNS0_4NodeELm8EEELm4EEaSEOS6_
0000000180593aac (__TEXT,__text) non-external __ZN12_GLOBAL__N_116itanium_demangle15BracedRangeExprD0Ev
0000000180593aa8 (__TEXT,__text) non-external __ZN12_GLOBAL__N_116itanium_demangle15BracedRangeExprD1Ev
0000000180592f54 (__TEXT,__text) non-external __ZN12_GLOBAL__N_116itanium_demangle15ClosureTypeNameD0Ev
0000000180592f50 (__TEXT,__text) non-external __ZN12_GLOBAL__N_116itanium_demangle15ClosureTypeNameD1Ev
0000000180590ec4 (__TEXT,__text) non-external __ZN12_GLOBAL__N_116itanium_demangle15ConditionalExprD0Ev
0000000180590ec0 (__TEXT,__text) non-external __ZN12_GLOBAL__N_116itanium_demangle15ConditionalExprD1Ev
0000000180593dc8 (__TEXT,__text) non-external __ZN12_GLOBAL__N_116itanium_demangle15ExprRequirementD0Ev
0000000180593dc4 (__TEXT,__text) non-external __ZN12_GLOBAL__N_116itanium_demangle15ExprRequirementD1Ev
0000000180594c28 (__TEXT,__text) non-external __ZN12_GLOBAL__N_116itanium_demangle15LiteralOperatorD0Ev
0000000180594c24 (__TEXT,__text) non-external __ZN12_GLOBAL__N_116itanium_demangle15LiteralOperatorD1Ev
0000000180597e2c (__TEXT,__text) non-external __ZN12_GLOBAL__N_116itanium_demangle15PixelVectorTypeD0Ev
0000000180597e28 (__TEXT,__text) non-external __ZN12_GLOBAL__N_116itanium_demangle15PixelVectorTypeD1Ev
0000000180597a5c (__TEXT,__text) non-external __ZN12_GLOBAL__N_116itanium_demangle15TransformedTypeD0Ev
0000000180597a58 (__TEXT,__text) non-external __ZN12_GLOBAL__N_116itanium_demangle15TransformedTypeD1Ev
0000000180593e68 (__TEXT,__text) non-external __ZN12_GLOBAL__N_116itanium_demangle15TypeRequirementD0Ev
0000000180593e64 (__TEXT,__text) non-external __ZN12_GLOBAL__N_116itanium_demangle15TypeRequirementD1Ev
0000000180592760 (__TEXT,__text) non-external __ZN12_GLOBAL__N_116itanium_demangle15UnnamedTypeNameD0Ev
000000018059275c (__TEXT,__text) non-external __ZN12_GLOBAL__N_116itanium_demangle15UnnamedTypeNameD1Ev
0000000180591da4 (__TEXT,__text) non-external __ZN12_GLOBAL__N_116itanium_demangle16FloatLiteralImplIdED0Ev
0000000180591da0 (__TEXT,__text) non-external __ZN12_GLOBAL__N_116itanium_demangle16FloatLiteralImplIdED1Ev
0000000180591f2c (__TEXT,__text) non-external __ZN12_GLOBAL__N_116itanium_demangle16FloatLiteralImplIeED0Ev
0000000180591f28 (__TEXT,__text) non-external __ZN12_GLOBAL__N_116itanium_demangle16FloatLiteralImplIeED1Ev
0000000180591c20 (__TEXT,__text) non-external __ZN12_GLOBAL__N_116itanium_demangle16FloatLiteralImplIfED0Ev
0000000180591c1c (__TEXT,__text) non-external __ZN12_GLOBAL__N_116itanium_demangle16FloatLiteralImplIfED1Ev
0000000180596154 (__TEXT,__text) non-external __ZN12_GLOBAL__N_116itanium_demangle16FunctionEncodingD0Ev
0000000180596150 (__TEXT,__text) non-external __ZN12_GLOBAL__N_116itanium_demangle16FunctionEncodingD1Ev
0000000180593f08 (__TEXT,__text) non-external __ZN12_GLOBAL__N_116itanium_demangle17NestedRequirementD0Ev
0000000180593f04 (__TEXT,__text) non-external __ZN12_GLOBAL__N_116itanium_demangle17NestedRequirementD1Ev
0000000180597774 (__TEXT,__text) non-external __ZN12_GLOBAL__N_116itanium_demangle17VendorExtQualTypeD0Ev
0000000180597770 (__TEXT,__text) non-external __ZN12_GLOBAL__N_116itanium_demangle17VendorExtQualTypeD1Ev
00000001805907dc (__TEXT,__text) non-external __ZN12_GLOBAL__N_116itanium_demangle18ArraySubscriptExprD0Ev
00000001805907d8 (__TEXT,__text) non-external __ZN12_GLOBAL__N_116itanium_demangle18ArraySubscriptExprD1Ev
0000000180594cc8 (__TEXT,__text) non-external __ZN12_GLOBAL__N_116itanium_demangle19GlobalQualifiedNameD0Ev
0000000180594cc4 (__TEXT,__text) non-external __ZN12_GLOBAL__N_116itanium_demangle19GlobalQualifiedNameD1Ev
00000001805983e8 (__TEXT,__text) non-external __ZN12_GLOBAL__N_116itanium_demangle19PointerToMemberTypeD0Ev
00000001805983e4 (__TEXT,__text) non-external __ZN12_GLOBAL__N_116itanium_demangle19PointerToMemberTypeD1Ev
000000018059436c (__TEXT,__text) non-external __ZN12_GLOBAL__N_116itanium_demangle19SizeofParamPackExprD0Ev
0000000180594368 (__TEXT,__text) non-external __ZN12_GLOBAL__N_116itanium_demangle19SizeofParamPackExprD1Ev
0000000180594ee0 (__TEXT,__text) non-external __ZN12_GLOBAL__N_116itanium_demangle19SpecialSubstitutionD0Ev
0000000180594edc (__TEXT,__text) non-external __ZN12_GLOBAL__N_116itanium_demangle19SpecialSubstitutionD1Ev
0000000180595694 (__TEXT,__text) non-external __ZN12_GLOBAL__N_116itanium_demangle19parse_discriminatorEPKcS2_
0000000180597304 (__TEXT,__text) non-external __ZN12_GLOBAL__N_116itanium_demangle20DynamicExceptionSpecD0Ev
0000000180597300 (__TEXT,__text) non-external __ZN12_GLOBAL__N_116itanium_demangle20DynamicExceptionSpecD1Ev
00000001805955d8 (__TEXT,__text) non-external __ZN12_GLOBAL__N_116itanium_demangle20MemberLikeFriendNameD0Ev
00000001805955d4 (__TEXT,__text) non-external __ZN12_GLOBAL__N_116itanium_demangle20MemberLikeFriendNameD1Ev
0000000180595c7c (__TEXT,__text) non-external __ZN12_GLOBAL__N_116itanium_demangle20NameWithTemplateArgsD0Ev
0000000180595c78 (__TEXT,__text) non-external __ZN12_GLOBAL__N_116itanium_demangle20NameWithTemplateArgsD1Ev
0000000180597ca8 (__TEXT,__text) non-external __ZN12_GLOBAL__N_116itanium_demangle20PostfixQualifiedTypeD0Ev
0000000180597ca4 (__TEXT,__text) non-external __ZN12_GLOBAL__N_116itanium_demangle20PostfixQualifiedTypeD1Ev
0000000180595c9c (__TEXT,__text) non-external __ZN12_GLOBAL__N_116itanium_demangle20TemplateArgumentPackD0Ev
0000000180595c98 (__TEXT,__text) non-external __ZN12_GLOBAL__N_116itanium_demangle20TemplateArgumentPackD1Ev
000000018058be54 (__TEXT,__text) non-external __ZN12_GLOBAL__N_116itanium_demangle21CtorVtableSpecialNameD0Ev
000000018058be50 (__TEXT,__text) non-external __ZN12_GLOBAL__N_116itanium_demangle21CtorVtableSpecialNameD1Ev
00000001805952ac (__TEXT,__text) non-external __ZN12_GLOBAL__N_116itanium_demangle21StructuredBindingNameD0Ev
00000001805952a8 (__TEXT,__text) non-external __ZN12_GLOBAL__N_116itanium_demangle21StructuredBindingNameD1Ev
0000000180592e64 (__TEXT,__text) non-external __ZN12_GLOBAL__N_116itanium_demangle21TemplateParamPackDeclD0Ev
0000000180592e60 (__TEXT,__text) non-external __ZN12_GLOBAL__N_116itanium_demangle21TemplateParamPackDeclD1Ev
0000000180592aa8 (__TEXT,__text) non-external __ZN12_GLOBAL__N_116itanium_demangle21TypeTemplateParamDeclD0Ev
0000000180592aa4 (__TEXT,__text) non-external __ZN12_GLOBAL__N_116itanium_demangle21TypeTemplateParamDeclD1Ev
000000018058ba04 (__TEXT,__text) non-external __ZN12_GLOBAL__N_116itanium_demangle22AbstractManglingParserINS0_14ManglingParserINS_16DefaultAllocatorEEES3_E10parseSeqIdEPm
00000001805898d0 (__TEXT,__text) non-external __ZN12_GLOBAL__N_116itanium_demangle22AbstractManglingParserINS0_14ManglingParserINS_16DefaultAllocatorEEES3_E11parseNumberEb
0000000180594cdc (__TEXT,__text) non-external __ZN12_GLOBAL__N_116itanium_demangle22AbstractManglingParserINS0_14ManglingParserINS_16DefaultAllocatorEEES3_E12parseAbiTagsEPNS0_4NodeE
000000018058c93c (__TEXT,__text) non-external __ZN12_GLOBAL__N_116itanium_demangle22AbstractManglingParserINS0_14ManglingParserINS_16DefaultAllocatorEEES3_E13parseDecltypeEv
00000001805890c0 (__TEXT,__text) non-external __ZN12_GLOBAL__N_116itanium_demangle22AbstractManglingParserINS0_14ManglingParserINS_16DefaultAllocatorEEES3_E13parseEncodingEb
00000001805944c4 (__TEXT,__text) non-external __ZN12_GLOBAL__N_116itanium_demangle22AbstractManglingParserINS0_14ManglingParserINS_16DefaultAllocatorEEES3_E13parseSimpleIdEv
000000018058f28c (__TEXT,__text) non-external __ZN12_GLOBAL__N_116itanium_demangle22AbstractManglingParserINS0_14ManglingParserINS_16DefaultAllocatorEEES3_E15parseBracedExprEv
000000018058b6d8 (__TEXT,__text) non-external __ZN12_GLOBAL__N_116itanium_demangle22AbstractManglingParserINS0_14ManglingParserINS_16DefaultAllocatorEEES3_E15parseCallOffsetEv
000000018058e508 (__TEXT,__text) non-external __ZN12_GLOBAL__N_116itanium_demangle22AbstractManglingParserINS0_14ManglingParserINS_16DefaultAllocatorEEES3_E15parsePrefixExprENSt3__117basic_string_viewIcNS6_11char_traitsIcEEEENS0_4Node4PrecE
000000018058be68 (__TEXT,__text) non-external __ZN12_GLOBAL__N_116itanium_demangle22AbstractManglingParserINS0_14ManglingParserINS_16DefaultAllocatorEEES3_E15parseSourceNameEPNS5_9NameStateE
0000000180596c20 (__TEXT,__text) non-external __ZN12_GLOBAL__N_116itanium_demangle22AbstractManglingParserINS0_14ManglingParserINS_16DefaultAllocatorEEES3_E15parseVectorTypeEv
000000018058e9c0 (__TEXT,__text) non-external __ZN12_GLOBAL__N_116itanium_demangle22AbstractManglingParserINS0_14ManglingParserINS_16DefaultAllocatorEEES3_E16parseExprPrimaryEv
000000018058ad08 (__TEXT,__text) non-external __ZN12_GLOBAL__N_116itanium_demangle22AbstractManglingParserINS0_14ManglingParserINS_16DefaultAllocatorEEES3_E16parseTemplateArgEv
000000018058c5c8 (__TEXT,__text) non-external __ZN12_GLOBAL__N_116itanium_demangle22AbstractManglingParserINS0_14ManglingParserINS_16DefaultAllocatorEEES3_E17parseCVQualifiersEv
0000000180596234 (__TEXT,__text) non-external __ZN12_GLOBAL__N_116itanium_demangle22AbstractManglingParserINS0_14ManglingParserINS_16DefaultAllocatorEEES3_E17parseFunctionTypeEv
00000001805947f8 (__TEXT,__text) non-external __ZN12_GLOBAL__N_116itanium_demangle22AbstractManglingParserINS0_14ManglingParserINS_16DefaultAllocatorEEES3_E17parseOperatorNameEPNS5_9NameStateE
000000018058f65c (__TEXT,__text) non-external __ZN12_GLOBAL__N_116itanium_demangle22AbstractManglingParserINS0_14ManglingParserINS_16DefaultAllocatorEEES3_E17parseRequiresExprEv
000000018058cab4 (__TEXT,__text) non-external __ZN12_GLOBAL__N_116itanium_demangle22AbstractManglingParserINS0_14ManglingParserINS_16DefaultAllocatorEEES3_E17parseSubstitutionEv
000000018058c25c (__TEXT,__text) non-external __ZN12_GLOBAL__N_116itanium_demangle22AbstractManglingParserINS0_14ManglingParserINS_16DefaultAllocatorEEES3_E17parseTemplateArgsEb
000000018058c180 (__TEXT,__text) non-external __ZN12_GLOBAL__N_116itanium_demangle22AbstractManglingParserINS0_14ManglingParserINS_16DefaultAllocatorEEES3_E17parseUnscopedNameEPNS5_9NameStateEPb
000000018058a75c (__TEXT,__text) non-external __ZN12_GLOBAL__N_116itanium_demangle22AbstractManglingParserINS0_14ManglingParserINS_16DefaultAllocatorEEES3_E18SaveTemplateParamsC1EPS5_
000000018058b230 (__TEXT,__text) non-external __ZN12_GLOBAL__N_116itanium_demangle22AbstractManglingParserINS0_14ManglingParserINS_16DefaultAllocatorEEES3_E18SaveTemplateParamsD1Ev
0000000180596e54 (__TEXT,__text) non-external __ZN12_GLOBAL__N_116itanium_demangle22AbstractManglingParserINS0_14ManglingParserINS_16DefaultAllocatorEEES3_E18parseClassEnumTypeEv
000000018058f0e4 (__TEXT,__text) non-external __ZN12_GLOBAL__N_116itanium_demangle22AbstractManglingParserINS0_14ManglingParserINS_16DefaultAllocatorEEES3_E18parseFunctionParamEv
000000018058bb14 (__TEXT,__text) non-external __ZN12_GLOBAL__N_116itanium_demangle22AbstractManglingParserINS0_14ManglingParserINS_16DefaultAllocatorEEES3_E18parseModuleNameOptERPNS0_10ModuleNameE
0000000180596598 (__TEXT,__text) non-external __ZN12_GLOBAL__N_116itanium_demangle22AbstractManglingParserINS0_14ManglingParserINS_16DefaultAllocatorEEES3_E18parseQualifiedTypeEv
000000018058f9b0 (__TEXT,__text) non-external __ZN12_GLOBAL__N_116itanium_demangle22AbstractManglingParserINS0_14ManglingParserINS_16DefaultAllocatorEEES3_E18parseSubobjectExprEv
000000018058c63c (__TEXT,__text) non-external __ZN12_GLOBAL__N_116itanium_demangle22AbstractManglingParserINS0_14ManglingParserINS_16DefaultAllocatorEEES3_E18parseTemplateParamEv
0000000180591fd0 (__TEXT,__text) non-external __ZN12_GLOBAL__N_116itanium_demangle22AbstractManglingParserINS0_14ManglingParserINS_16DefaultAllocatorEEES3_E19isTemplateParamDeclEv
0000000180595094 (__TEXT,__text) non-external __ZN12_GLOBAL__N_116itanium_demangle22AbstractManglingParserINS0_14ManglingParserINS_16DefaultAllocatorEEES3_E19parseBareSourceNameEv
0000000180591150 (__TEXT,__text) non-external __ZN12_GLOBAL__N_116itanium_demangle22AbstractManglingParserINS0_14ManglingParserINS_16DefaultAllocatorEEES3_E19parseIntegerLiteralENSt3__117basic_string_viewIcNS6_11char_traitsIcEEEE
000000018058fea8 (__TEXT,__text) non-external __ZN12_GLOBAL__N_116itanium_demangle22AbstractManglingParserINS0_14ManglingParserINS_16DefaultAllocatorEEES3_E19parseUnresolvedNameEb
0000000180594428 (__TEXT,__text) non-external __ZN12_GLOBAL__N_116itanium_demangle22AbstractManglingParserINS0_14ManglingParserINS_16DefaultAllocatorEEES3_E19parseUnresolvedTypeEv
000000018058bf5c (__TEXT,__text) non-external __ZN12_GLOBAL__N_116itanium_demangle22AbstractManglingParserINS0_14ManglingParserINS_16DefaultAllocatorEEES3_E20parsePositiveIntegerEPm
0000000180591368 (__TEXT,__text) non-external __ZN12_GLOBAL__N_116itanium_demangle22AbstractManglingParserINS0_14ManglingParserINS_16DefaultAllocatorEEES3_E20parseUnnamedTypeNameEPNS5_9NameStateE
000000018058cc90 (__TEXT,__text) non-external __ZN12_GLOBAL__N_116itanium_demangle22AbstractManglingParserINS0_14ManglingParserINS_16DefaultAllocatorEEES3_E20parseUnqualifiedNameEPNS5_9NameStateEPNS0_4NodeEPNS0_10ModuleNameE
000000018058b094 (__TEXT,__text) non-external __ZN12_GLOBAL__N_116itanium_demangle22AbstractManglingParserINS0_14ManglingParserINS_16DefaultAllocatorEEES3_E20popTrailingNodeArrayEm
000000018058e394 (__TEXT,__text) non-external __ZN12_GLOBAL__N_116itanium_demangle22AbstractManglingParserINS0_14ManglingParserINS_16DefaultAllocatorEEES3_E21parseOperatorEncodingEv
0000000180592048 (__TEXT,__text) non-external __ZN12_GLOBAL__N_116itanium_demangle22AbstractManglingParserINS0_14ManglingParserINS_16DefaultAllocatorEEES3_E22parseTemplateParamDeclEPNS0_14PODSmallVectorIPNS0_4NodeELm8EEE
000000018059261c (__TEXT,__text) non-external __ZN12_GLOBAL__N_116itanium_demangle22AbstractManglingParserINS0_14ManglingParserINS_16DefaultAllocatorEEES3_E23ScopedTemplateParamListD1Ev
000000018059457c (__TEXT,__text) non-external __ZN12_GLOBAL__N_116itanium_demangle22AbstractManglingParserINS0_14ManglingParserINS_16DefaultAllocatorEEES3_E23parseBaseUnresolvedNameEv
000000018058f4fc (__TEXT,__text) non-external __ZN12_GLOBAL__N_116itanium_demangle22AbstractManglingParserINS0_14ManglingParserINS_16DefaultAllocatorEEES3_E34parsePointerToMemberConversionExprENS0_4Node4PrecE
0000000180b8f058 (__DATA_CONST,__const) non-external __ZN12_GLOBAL__N_116itanium_demangle22AbstractManglingParserINS0_14ManglingParserINS_16DefaultAllocatorEEES3_E3OpsE
00000001805902cc (__TEXT,__text) non-external __ZN12_GLOBAL__N_116itanium_demangle22AbstractManglingParserINS0_14ManglingParserINS_16DefaultAllocatorEEES3_E4makeINS0_10BinaryExprEJRPNS0_4NodeERNSt3__117basic_string_viewIcNSB_11char_traitsIcEEEESA_RNS8_4PrecEEEES9_DpOT0_
0000000180596b28 (__TEXT,__text) non-external __ZN12_GLOBAL__N_116itanium_demangle22AbstractManglingParserINS0_14ManglingParserINS_16DefaultAllocatorEEES3_E4makeINS0_10BitIntTypeEJRPNS0_4NodeERbEEES9_DpOT0_
0000000180591784 (__TEXT,__text) non-external __ZN12_GLOBAL__N_116itanium_demangle22AbstractManglingParserINS0_14ManglingParserINS_16DefaultAllocatorEEES3_E4makeINS0_10LambdaExprEJRPNS0_4NodeEEEES9_DpOT0_
000000018058e628 (__TEXT,__text) non-external __ZN12_GLOBAL__N_116itanium_demangle22AbstractManglingParserINS0_14ManglingParserINS_16DefaultAllocatorEEES3_E4makeINS0_10MemberExprEJRPNS0_4NodeERNSt3__117basic_string_viewIcNSB_11char_traitsIcEEEESA_NS8_4PrecEEEES9_DpOT0_
0000000180597d28 (__TEXT,__text) non-external __ZN12_GLOBAL__N_116itanium_demangle22AbstractManglingParserINS0_14ManglingParserINS_16DefaultAllocatorEEES3_E4makeINS0_10VectorTypeEJRPNS0_4NodeESA_EEES9_DpOT0_
00000001805917f0 (__TEXT,__text) non-external __ZN12_GLOBAL__N_116itanium_demangle22AbstractManglingParserINS0_14ManglingParserINS_16DefaultAllocatorEEES3_E4makeINS0_11EnumLiteralEJRPNS0_4NodeERNSt3__117basic_string_viewIcNSB_11char_traitsIcEEEEEEES9_DpOT0_
0000000180596f74 (__TEXT,__text) non-external __ZN12_GLOBAL__N_116itanium_demangle22AbstractManglingParserINS0_14ManglingParserINS_16DefaultAllocatorEEES3_E4makeINS0_11PointerTypeEJRPNS0_4NodeEEEES9_DpOT0_
000000018058b4e8 (__TEXT,__text) non-external __ZN12_GLOBAL__N_116itanium_demangle22AbstractManglingParserINS0_14ManglingParserINS_16DefaultAllocatorEEES3_E4makeINS0_11SpecialNameEJRA12_KcRPNS0_4NodeEEEESC_DpOT0_
000000018058b5e0 (__TEXT,__text) non-external __ZN12_GLOBAL__N_116itanium_demangle22AbstractManglingParserINS0_14ManglingParserINS_16DefaultAllocatorEEES3_E4makeINS0_11SpecialNameEJRA14_KcRPNS0_4NodeEEEESC_DpOT0_
000000018058b910 (__TEXT,__text) non-external __ZN12_GLOBAL__N_116itanium_demangle22AbstractManglingParserINS0_14ManglingParserINS_16DefaultAllocatorEEES3_E4makeINS0_11SpecialNameEJRA18_KcRPNS0_4NodeEEEESC_DpOT0_
000000018058b65c (__TEXT,__text) non-external __ZN12_GLOBAL__N_116itanium_demangle22AbstractManglingParserINS0_14ManglingParserINS_16DefaultAllocatorEEES3_E4makeINS0_11SpecialNameEJRA19_KcRPNS0_4NodeEEEESC_DpOT0_
000000018058b98c (__TEXT,__text) non-external __ZN12_GLOBAL__N_116itanium_demangle22AbstractManglingParserINS0_14ManglingParserINS_16DefaultAllocatorEEES3_E4makeINS0_11SpecialNameEJRA22_KcRPNS0_4NodeEEEESC_DpOT0_
000000018058ba98 (__TEXT,__text) non-external __ZN12_GLOBAL__N_116itanium_demangle22AbstractManglingParserINS0_14ManglingParserINS_16DefaultAllocatorEEES3_E4makeINS0_11SpecialNameEJRA25_KcRPNS0_4NodeEEEESC_DpOT0_
000000018058b7a4 (__TEXT,__text) non-external __ZN12_GLOBAL__N_116itanium_demangle22AbstractManglingParserINS0_14ManglingParserINS_16DefaultAllocatorEEES3_E4makeINS0_11SpecialNameEJRA27_KcRPNS0_4NodeEEEESC_DpOT0_
000000018058b46c (__TEXT,__text) non-external __ZN12_GLOBAL__N_116itanium_demangle22AbstractManglingParserINS0_14ManglingParserINS_16DefaultAllocatorEEES3_E4makeINS0_11SpecialNameEJRA31_KcRPNS0_4NodeEEEESC_DpOT0_
0000000180589968 (__TEXT,__text) non-external __ZN12_GLOBAL__N_116itanium_demangle22AbstractManglingParserINS0_14ManglingParserINS_16DefaultAllocatorEEES3_E4makeINS0_11SpecialNameEJRA34_KcRPNS0_4NodeEEEESC_DpOT0_
000000018058b894 (__TEXT,__text) non-external __ZN12_GLOBAL__N_116itanium_demangle22AbstractManglingParserINS0_14ManglingParserINS_16DefaultAllocatorEEES3_E4makeINS0_11SpecialNameEJRA41_KcRPNS0_4NodeEEEESC_DpOT0_
000000018058b564 (__TEXT,__text) non-external __ZN12_GLOBAL__N_116itanium_demangle22AbstractManglingParserINS0_14ManglingParserINS_16DefaultAllocatorEEES3_E4makeINS0_11SpecialNameEJRA9_KcRPNS0_4NodeEEEESC_DpOT0_
0000000180596abc (__TEXT,__text) non-external __ZN12_GLOBAL__N_116itanium_demangle22AbstractManglingParserINS0_14ManglingParserINS_16DefaultAllocatorEEES3_E4makeINS0_12BinaryFPTypeEJRPNS0_4NodeEEEES9_DpOT0_
0000000180595330 (__TEXT,__text) non-external __ZN12_GLOBAL__N_116itanium_demangle22AbstractManglingParserINS0_14ManglingParserINS_16DefaultAllocatorEEES3_E4makeINS0_12CtorDtorNameEJRPNS0_4NodeEbRiEEES9_DpOT0_
000000018058b028 (__TEXT,__text) non-external __ZN12_GLOBAL__N_116itanium_demangle22AbstractManglingParserINS0_14ManglingParserINS_16DefaultAllocatorEEES3_E4makeINS0_12EnableIfAttrEJNS0_9NodeArrayEEEEPNS0_4NodeEDpOT0_
000000018058f48c (__TEXT,__text) non-external __ZN12_GLOBAL__N_116itanium_demangle22AbstractManglingParserINS0_14ManglingParserINS_16DefaultAllocatorEEES3_E4makeINS0_12InitListExprEJDnNS0_9NodeArrayEEEEPNS0_4NodeEDpOT0_
000000018058fd4c (__TEXT,__text) non-external __ZN12_GLOBAL__N_116itanium_demangle22AbstractManglingParserINS0_14ManglingParserINS_16DefaultAllocatorEEES3_E4makeINS0_12InitListExprEJRPNS0_4NodeENS0_9NodeArrayEEEES9_DpOT0_
000000018058f5d0 (__TEXT,__text) non-external __ZN12_GLOBAL__N_116itanium_demangle22AbstractManglingParserINS0_14ManglingParserINS_16DefaultAllocatorEEES3_E4makeINS0_13EnclosingExprEJRA10_KcRPNS0_4NodeENSB_4PrecEEEESC_DpOT0_
000000018058fc64 (__TEXT,__text) non-external __ZN12_GLOBAL__N_116itanium_demangle22AbstractManglingParserINS0_14ManglingParserINS_16DefaultAllocatorEEES3_E4makeINS0_13EnclosingExprEJRA11_KcRPNS0_4NodeEEEESC_DpOT0_
0000000180593318 (__TEXT,__text) non-external __ZN12_GLOBAL__N_116itanium_demangle22AbstractManglingParserINS0_14ManglingParserINS_16DefaultAllocatorEEES3_E4makeINS0_13FunctionParamEJRNSt3__117basic_string_viewIcNS8_11char_traitsIcEEEEEEEPNS0_4NodeEDpOT0_
000000018058fce4 (__TEXT,__text) non-external __ZN12_GLOBAL__N_116itanium_demangle22AbstractManglingParserINS0_14ManglingParserINS_16DefaultAllocatorEEES3_E4makeINS0_13NodeArrayNodeEJNS0_9NodeArrayEEEEPNS0_4NodeEDpOT0_
0000000180596fec (__TEXT,__text) non-external __ZN12_GLOBAL__N_116itanium_demangle22AbstractManglingParserINS0_14ManglingParserINS_16DefaultAllocatorEEES3_E4makeINS0_13ReferenceTypeEJRPNS0_4NodeENS0_13ReferenceKindEEEES9_DpOT0_
0000000180591284 (__TEXT,__text) non-external __ZN12_GLOBAL__N_116itanium_demangle22AbstractManglingParserINS0_14ManglingParserINS_16DefaultAllocatorEEES3_E4makeINS0_13StringLiteralEJRPNS0_4NodeEEEES9_DpOT0_
000000018058e80c (__TEXT,__text) non-external __ZN12_GLOBAL__N_116itanium_demangle22AbstractManglingParserINS0_14ManglingParserINS_16DefaultAllocatorEEES3_E4makeINS0_14ConversionExprEJRPNS0_4NodeERNS0_9NodeArrayENS8_4PrecEEEES9_DpOT0_
0000000180592570 (__TEXT,__text) non-external __ZN12_GLOBAL__N_116itanium_demangle22AbstractManglingParserINS0_14ManglingParserINS_16DefaultAllocatorEEES3_E4makeINS0_15ClosureTypeNameEJRNS0_9NodeArrayERPNS0_4NodeES9_SC_RNSt3__117basic_string_viewIcNSD_11char_traitsIcEEEEEEESB_DpOT0_
000000018058e898 (__TEXT,__text) non-external __ZN12_GLOBAL__N_116itanium_demangle22AbstractManglingParserINS0_14ManglingParserINS_16DefaultAllocatorEEES3_E4makeINS0_15ConditionalExprEJRPNS0_4NodeESA_SA_NS8_4PrecEEEES9_DpOT0_
0000000180597cbc (__TEXT,__text) non-external __ZN12_GLOBAL__N_116itanium_demangle22AbstractManglingParserINS0_14ManglingParserINS_16DefaultAllocatorEEES3_E4makeINS0_15PixelVectorTypeEJRPNS0_4NodeEEEES9_DpOT0_
0000000180596a44 (__TEXT,__text) non-external __ZN12_GLOBAL__N_116itanium_demangle22AbstractManglingParserINS0_14ManglingParserINS_16DefaultAllocatorEEES3_E4makeINS0_15TransformedTypeEJRNSt3__117basic_string_viewIcNS8_11char_traitsIcEEEERPNS0_4NodeEEEESF_DpOT0_
000000018058b170 (__TEXT,__text) non-external __ZN12_GLOBAL__N_116itanium_demangle22AbstractManglingParserINS0_14ManglingParserINS_16DefaultAllocatorEEES3_E4makeINS0_16FunctionEncodingEJRPNS0_4NodeESA_RNS0_9NodeArrayESA_SA_RNS0_10QualifiersERNS0_15FunctionRefQualEEEES9_DpOT0_
000000018058e5a0 (__TEXT,__text) non-external __ZN12_GLOBAL__N_116itanium_demangle22AbstractManglingParserINS0_14ManglingParserINS_16DefaultAllocatorEEES3_E4makeINS0_18ArraySubscriptExprEJRPNS0_4NodeESA_NS8_4PrecEEEES9_DpOT0_
00000001805980cc (__TEXT,__text) non-external __ZN12_GLOBAL__N_116itanium_demangle22AbstractManglingParserINS0_14ManglingParserINS_16DefaultAllocatorEEES3_E4makeINS0_19PointerToMemberTypeEJRPNS0_4NodeESA_EEES9_DpOT0_
000000018058fbf8 (__TEXT,__text) non-external __ZN12_GLOBAL__N_116itanium_demangle22AbstractManglingParserINS0_14ManglingParserINS_16DefaultAllocatorEEES3_E4makeINS0_19SizeofParamPackExprEJRPNS0_4NodeEEEES9_DpOT0_
000000018058c554 (__TEXT,__text) non-external __ZN12_GLOBAL__N_116itanium_demangle22AbstractManglingParserINS0_14ManglingParserINS_16DefaultAllocatorEEES3_E4makeINS0_20NameWithTemplateArgsEJRPNS0_4NodeESA_EEES9_DpOT0_
00000001805970f0 (__TEXT,__text) non-external __ZN12_GLOBAL__N_116itanium_demangle22AbstractManglingParserINS0_14ManglingParserINS_16DefaultAllocatorEEES3_E4makeINS0_20PostfixQualifiedTypeEJRPNS0_4NodeERA11_KcEEES9_DpOT0_
0000000180597074 (__TEXT,__text) non-external __ZN12_GLOBAL__N_116itanium_demangle22AbstractManglingParserINS0_14ManglingParserINS_16DefaultAllocatorEEES3_E4makeINS0_20PostfixQualifiedTypeEJRPNS0_4NodeERA9_KcEEES9_DpOT0_
0000000180596ba8 (__TEXT,__text) non-external __ZN12_GLOBAL__N_116itanium_demangle22AbstractManglingParserINS0_14ManglingParserINS_16DefaultAllocatorEEES3_E4makeINS0_20PostfixQualifiedTypeEJRPNS0_4NodeERNSt3__117basic_string_viewIcNSB_11char_traitsIcEEEEEEES9_DpOT0_
000000018058b820 (__TEXT,__text) non-external __ZN12_GLOBAL__N_116itanium_demangle22AbstractManglingParserINS0_14ManglingParserINS_16DefaultAllocatorEEES3_E4makeINS0_21CtorVtableSpecialNameEJRPNS0_4NodeESA_EEES9_DpOT0_
0000000180592774 (__TEXT,__text) non-external __ZN12_GLOBAL__N_116itanium_demangle22AbstractManglingParserINS0_14ManglingParserINS_16DefaultAllocatorEEES3_E4makeINS0_21TemplateParamPackDeclEJRPNS0_4NodeEEEES9_DpOT0_
0000000180594ab4 (__TEXT,__text) non-external __ZN12_GLOBAL__N_116itanium_demangle22AbstractManglingParserINS0_14ManglingParserINS_16DefaultAllocatorEEES3_E4makeINS0_22ConversionOperatorTypeEJRPNS0_4NodeEEEES9_DpOT0_
000000018058fb8c (__TEXT,__text) non-external __ZN12_GLOBAL__N_116itanium_demangle22AbstractManglingParserINS0_14ManglingParserINS_16DefaultAllocatorEEES3_E4makeINS0_22ParameterPackExpansionEJRPNS0_4NodeEEEES9_DpOT0_
00000001805952c0 (__TEXT,__text) non-external __ZN12_GLOBAL__N_116itanium_demangle22AbstractManglingParserINS0_14ManglingParserINS_16DefaultAllocatorEEES3_E4makeINS0_27ExpandedSpecialSubstitutionEJPNS0_19SpecialSubstitutionEEEEPNS0_4NodeEDpOT0_
000000018058e6c0 (__TEXT,__text) non-external __ZN12_GLOBAL__N_116itanium_demangle22AbstractManglingParserINS0_14ManglingParserINS_16DefaultAllocatorEEES3_E4makeINS0_7NewExprEJRNS0_9NodeArrayERPNS0_4NodeES9_RbbNSA_4PrecEEEESB_DpOT0_
0000000180591210 (__TEXT,__text) non-external __ZN12_GLOBAL__N_116itanium_demangle22AbstractManglingParserINS0_14ManglingParserINS_16DefaultAllocatorEEES3_E4makeINS0_8BoolExprEJiEEEPNS0_4NodeEDpOT0_
000000018058e780 (__TEXT,__text) non-external __ZN12_GLOBAL__N_116itanium_demangle22AbstractManglingParserINS0_14ManglingParserINS_16DefaultAllocatorEEES3_E4makeINS0_8CallExprEJRPNS0_4NodeENS0_9NodeArrayENS8_4PrecEEEES9_DpOT0_
000000018058e92c (__TEXT,__text) non-external __ZN12_GLOBAL__N_116itanium_demangle22AbstractManglingParserINS0_14ManglingParserINS_16DefaultAllocatorEEES3_E4makeINS0_8CastExprEJRNSt3__117basic_string_viewIcNS8_11char_traitsIcEEEERPNS0_4NodeESG_NSE_4PrecEEEESF_DpOT0_
000000018058d0f0 (__TEXT,__text) non-external __ZN12_GLOBAL__N_116itanium_demangle22AbstractManglingParserINS0_14ManglingParserINS_16DefaultAllocatorEEES3_E4makeINS0_8NameTypeEJNSt3__117basic_string_viewIcNS8_11char_traitsIcEEEEEEEPNS0_4NodeEDpOT0_
00000001805968dc (__TEXT,__text) non-external __ZN12_GLOBAL__N_116itanium_demangle22AbstractManglingParserINS0_14ManglingParserINS_16DefaultAllocatorEEES3_E4makeINS0_8NameTypeEJRA10_KcEEEPNS0_4NodeEDpOT0_
00000001805969cc (__TEXT,__text) non-external __ZN12_GLOBAL__N_116itanium_demangle22AbstractManglingParserINS0_14ManglingParserINS_16DefaultAllocatorEEES3_E4makeINS0_8NameTypeEJRA11_KcEEEPNS0_4NodeEDpOT0_
00000001805967ec (__TEXT,__text) non-external __ZN12_GLOBAL__N_116itanium_demangle22AbstractManglingParserINS0_14ManglingParserINS_16DefaultAllocatorEEES3_E4makeINS0_8NameTypeEJRA12_KcEEEPNS0_4NodeEDpOT0_
0000000180596864 (__TEXT,__text) non-external __ZN12_GLOBAL__N_116itanium_demangle22AbstractManglingParserINS0_14ManglingParserINS_16DefaultAllocatorEEES3_E4makeINS0_8NameTypeEJRA14_KcEEEPNS0_4NodeEDpOT0_
000000018059575c (__TEXT,__text) non-external __ZN12_GLOBAL__N_116itanium_demangle22AbstractManglingParserINS0_14ManglingParserINS_16DefaultAllocatorEEES3_E4makeINS0_8NameTypeEJRA15_KcEEEPNS0_4NodeEDpOT0_
000000018058ca3c (__TEXT,__text) non-external __ZN12_GLOBAL__N_116itanium_demangle22AbstractManglingParserINS0_14ManglingParserINS_16DefaultAllocatorEEES3_E4makeINS0_8NameTypeEJRA4_KcEEEPNS0_4NodeEDpOT0_
000000018058d220 (__TEXT,__text) non-external __ZN12_GLOBAL__N_116itanium_demangle22AbstractManglingParserINS0_14ManglingParserINS_16DefaultAllocatorEEES3_E4makeINS0_8NameTypeEJRA5_KcEEEPNS0_4NodeEDpOT0_
000000018058fdc4 (__TEXT,__text) non-external __ZN12_GLOBAL__N_116itanium_demangle22AbstractManglingParserINS0_14ManglingParserINS_16DefaultAllocatorEEES3_E4makeINS0_8NameTypeEJRA6_KcEEEPNS0_4NodeEDpOT0_
00000001805912f0 (__TEXT,__text) non-external __ZN12_GLOBAL__N_116itanium_demangle22AbstractManglingParserINS0_14ManglingParserINS_16DefaultAllocatorEEES3_E4makeINS0_8NameTypeEJRA8_KcEEEPNS0_4NodeEDpOT0_
0000000180596954 (__TEXT,__text) non-external __ZN12_GLOBAL__N_116itanium_demangle22AbstractManglingParserINS0_14ManglingParserINS_16DefaultAllocatorEEES3_E4makeINS0_8NameTypeEJRA9_KcEEEPNS0_4NodeEDpOT0_
000000018058bfd8 (__TEXT,__text) non-external __ZN12_GLOBAL__N_116itanium_demangle22AbstractManglingParserINS0_14ManglingParserINS_16DefaultAllocatorEEES3_E4makeINS0_8NameTypeEJRNSt3__117basic_string_viewIcNS8_11char_traitsIcEEEEEEEPNS0_4NodeEDpOT0_
0000000180597ee8 (__TEXT,__text) non-external __ZN12_GLOBAL__N_116itanium_demangle22AbstractManglingParserINS0_14ManglingParserINS_16DefaultAllocatorEEES3_E4makeINS0_9ArrayTypeEJRPNS0_4NodeESA_EEES9_DpOT0_
00000001805957d4 (__TEXT,__text) non-external __ZN12_GLOBAL__N_116itanium_demangle22AbstractManglingParserINS0_14ManglingParserINS_16DefaultAllocatorEEES3_E4makeINS0_9LocalNameEJRPNS0_4NodeESA_EEES9_DpOT0_
000000018058fe3c (__TEXT,__text) non-external __ZN12_GLOBAL__N_116itanium_demangle22AbstractManglingParserINS0_14ManglingParserINS_16DefaultAllocatorEEES3_E4makeINS0_9ThrowExprEJRPNS0_4NodeEEEES9_DpOT0_
0000000180589058 (__TEXT,__text) non-external __ZN12_GLOBAL__N_116itanium_demangle22AbstractManglingParserINS0_14ManglingParserINS_16DefaultAllocatorEEES3_E9consumeIfENSt3__117basic_string_viewIcNS6_11char_traitsIcEEEE
000000018058d54c (__TEXT,__text) non-external __ZN12_GLOBAL__N_116itanium_demangle22AbstractManglingParserINS0_14ManglingParserINS_16DefaultAllocatorEEES3_E9parseExprEv
000000018058a7ec (__TEXT,__text) non-external __ZN12_GLOBAL__N_116itanium_demangle22AbstractManglingParserINS0_14ManglingParserINS_16DefaultAllocatorEEES3_E9parseNameEPNS5_9NameStateE
00000001805899f4 (__TEXT,__text) non-external __ZN12_GLOBAL__N_116itanium_demangle22AbstractManglingParserINS0_14ManglingParserINS_16DefaultAllocatorEEES3_E9parseTypeEv
0000000180594b98 (__TEXT,__text) non-external __ZN12_GLOBAL__N_116itanium_demangle22ConversionOperatorTypeD0Ev
0000000180594b94 (__TEXT,__text) non-external __ZN12_GLOBAL__N_116itanium_demangle22ConversionOperatorTypeD1Ev
000000018059849c (__TEXT,__text) non-external __ZN12_GLOBAL__N_116itanium_demangle22ElaboratedTypeSpefTypeD0Ev
0000000180598498 (__TEXT,__text) non-external __ZN12_GLOBAL__N_116itanium_demangle22ElaboratedTypeSpefTypeD1Ev
0000000180593874 (__TEXT,__text) non-external __ZN12_GLOBAL__N_116itanium_demangle22ParameterPackExpansionD0Ev
0000000180593788 (__TEXT,__text) non-external __ZN12_GLOBAL__N_116itanium_demangle22ParameterPackExpansionD1Ev
0000000180595de8 (__TEXT,__text) non-external __ZN12_GLOBAL__N_116itanium_demangle23ExplicitObjectParameterD0Ev
0000000180595de4 (__TEXT,__text) non-external __ZN12_GLOBAL__N_116itanium_demangle23ExplicitObjectParameterD1Ev
000000018058d538 (__TEXT,__text) non-external __ZN12_GLOBAL__N_116itanium_demangle24ForwardTemplateReferenceD0Ev
000000018058d534 (__TEXT,__text) non-external __ZN12_GLOBAL__N_116itanium_demangle24ForwardTemplateReferenceD1Ev
0000000180592c4c (__TEXT,__text) non-external __ZN12_GLOBAL__N_116itanium_demangle24NonTypeTemplateParamDeclD0Ev
0000000180592c48 (__TEXT,__text) non-external __ZN12_GLOBAL__N_116itanium_demangle24NonTypeTemplateParamDeclD1Ev
0000000180595cbc (__TEXT,__text) non-external __ZN12_GLOBAL__N_116itanium_demangle25TemplateParamQualifiedArgD0Ev
0000000180595cb8 (__TEXT,__text) non-external __ZN12_GLOBAL__N_116itanium_demangle25TemplateParamQualifiedArgD1Ev
0000000180592dac (__TEXT,__text) non-external __ZN12_GLOBAL__N_116itanium_demangle25TemplateTemplateParamDeclD0Ev
0000000180592da8 (__TEXT,__text) non-external __ZN12_GLOBAL__N_116itanium_demangle25TemplateTemplateParamDeclD1Ev
0000000180592a30 (__TEXT,__text) non-external __ZN12_GLOBAL__N_116itanium_demangle26SyntheticTemplateParamNameD0Ev
0000000180592a2c (__TEXT,__text) non-external __ZN12_GLOBAL__N_116itanium_demangle26SyntheticTemplateParamNameD1Ev
0000000180595080 (__TEXT,__text) non-external __ZN12_GLOBAL__N_116itanium_demangle27ExpandedSpecialSubstitutionD0Ev
000000018059507c (__TEXT,__text) non-external __ZN12_GLOBAL__N_116itanium_demangle27ExpandedSpecialSubstitutionD1Ev
0000000180593c48 (__TEXT,__text) non-external __ZN12_GLOBAL__N_116itanium_demangle29PointerToMemberConversionExprD0Ev
0000000180593c44 (__TEXT,__text) non-external __ZN12_GLOBAL__N_116itanium_demangle29PointerToMemberConversionExprD1Ev
0000000180592b14 (__TEXT,__text) non-external __ZN12_GLOBAL__N_116itanium_demangle32ConstrainedTypeTemplateParamDeclD0Ev
0000000180592b10 (__TEXT,__text) non-external __ZN12_GLOBAL__N_116itanium_demangle32ConstrainedTypeTemplateParamDeclD1Ev
0000000180590a64 (__TEXT,__text) non-external __ZN12_GLOBAL__N_116itanium_demangle7NewExprD0Ev
0000000180590a60 (__TEXT,__text) non-external __ZN12_GLOBAL__N_116itanium_demangle7NewExprD1Ev
0000000180591a98 (__TEXT,__text) non-external __ZN12_GLOBAL__N_116itanium_demangle8BoolExprD0Ev
0000000180591a94 (__TEXT,__text) non-external __ZN12_GLOBAL__N_116itanium_demangle8BoolExprD1Ev
0000000180590cd8 (__TEXT,__text) non-external __ZN12_GLOBAL__N_116itanium_demangle8CallExprD0Ev
0000000180590cd4 (__TEXT,__text) non-external __ZN12_GLOBAL__N_116itanium_demangle8CallExprD1Ev
0000000180591024 (__TEXT,__text) non-external __ZN12_GLOBAL__N_116itanium_demangle8CastExprD0Ev
0000000180591020 (__TEXT,__text) non-external __ZN12_GLOBAL__N_116itanium_demangle8CastExprD1Ev
0000000180594aa0 (__TEXT,__text) non-external __ZN12_GLOBAL__N_116itanium_demangle8DtorNameD0Ev
0000000180594a9c (__TEXT,__text) non-external __ZN12_GLOBAL__N_116itanium_demangle8DtorNameD1Ev
0000000180593774 (__TEXT,__text) non-external __ZN12_GLOBAL__N_116itanium_demangle8FoldExprD0Ev
0000000180593770 (__TEXT,__text) non-external __ZN12_GLOBAL__N_116itanium_demangle8FoldExprD1Ev
000000018058c0b4 (__TEXT,__text) non-external __ZN12_GLOBAL__N_116itanium_demangle8NameTypeD0Ev
000000018058c0b0 (__TEXT,__text) non-external __ZN12_GLOBAL__N_116itanium_demangle8NameTypeD1Ev
0000000180597994 (__TEXT,__text) non-external __ZN12_GLOBAL__N_116itanium_demangle8QualTypeD0Ev
0000000180597990 (__TEXT,__text) non-external __ZN12_GLOBAL__N_116itanium_demangle8QualTypeD1Ev
00000001805980b8 (__TEXT,__text) non-external __ZN12_GLOBAL__N_116itanium_demangle9ArrayTypeD0Ev
00000001805980b4 (__TEXT,__text) non-external __ZN12_GLOBAL__N_116itanium_demangle9ArrayTypeD1Ev
0000000180596220 (__TEXT,__text) non-external __ZN12_GLOBAL__N_116itanium_demangle9DotSuffixD0Ev
000000018059621c (__TEXT,__text) non-external __ZN12_GLOBAL__N_116itanium_demangle9DotSuffixD1Ev
00000001805958b4 (__TEXT,__text) non-external __ZN12_GLOBAL__N_116itanium_demangle9LocalNameD0Ev
00000001805958b0 (__TEXT,__text) non-external __ZN12_GLOBAL__N_116itanium_demangle9LocalNameD1Ev
0000000180594414 (__TEXT,__text) non-external __ZN12_GLOBAL__N_116itanium_demangle9ThrowExprD0Ev
0000000180594410 (__TEXT,__text) non-external __ZN12_GLOBAL__N_116itanium_demangle9ThrowExprD1Ev
000000018058bc30 (__TEXT,__text) non-external __ZN12_GLOBAL__N_120BumpPointerAllocator8allocateEm
0000000182ba4210 (__DATA,__bss) non-external __ZN12_GLOBAL__N_14heapE
0000000182ba4200 (__DATA,__bss) non-external __ZN12_GLOBAL__N_18freelistE
000000018059bbc4 (__TEXT,__text) non-external __ZN3$_18__invokeEmSt19__type_descriptor_t
000000018059bbdc (__TEXT,__text) non-external __ZN3$_28__invokeEmSt19__type_descriptor_t
000000018059bbf4 (__TEXT,__text) non-external __ZN3$_38__invokeEmRKSt9nothrow_tSt19__type_descriptor_t
000000018059bc0c (__TEXT,__text) non-external __ZN3$_48__invokeEmRKSt9nothrow_tSt19__type_descriptor_t
0000000180599f78 (__TEXT,__text) non-external (was a private external) __ZNK10__cxxabiv116__enum_type_info9can_catchEPKNS_16__shim_type_infoERPv
0000000180599c84 (__TEXT,__text) non-external (was a private external) __ZNK10__cxxabiv116__shim_type_info5noop1Ev
0000000180599c88 (__TEXT,__text) non-external (was a private external) __ZNK10__cxxabiv116__shim_type_info5noop2Ev
0000000180599f68 (__TEXT,__text) non-external (was a private external) __ZNK10__cxxabiv117__array_type_info9can_catchEPKNS_16__shim_type_infoERPv
000000018059b778 (__TEXT,__text) non-external (was a private external) __ZNK10__cxxabiv117__class_type_info16search_above_dstEPNS_19__dynamic_cast_infoEPKvS4_ib
000000018059b3c0 (__TEXT,__text) non-external (was a private external) __ZNK10__cxxabiv117__class_type_info16search_below_dstEPNS_19__dynamic_cast_infoEPKvib
000000018059a0d8 (__TEXT,__text) non-external (was a private external) __ZNK10__cxxabiv117__class_type_info24process_found_base_classEPNS_19__dynamic_cast_infoEPvi
000000018059a144 (__TEXT,__text) non-external (was a private external) __ZNK10__cxxabiv117__class_type_info27has_unambiguous_public_baseEPNS_19__dynamic_cast_infoEPvi
000000018059adcc (__TEXT,__text) non-external (was a private external) __ZNK10__cxxabiv117__class_type_info29process_static_type_above_dstEPNS_19__dynamic_cast_infoEPKvS4_i
000000018059ae5c (__TEXT,__text) non-external (was a private external) __ZNK10__cxxabiv117__class_type_info29process_static_type_below_dstEPNS_19__dynamic_cast_infoEPKvi
0000000180599f7c (__TEXT,__text) non-external (was a private external) __ZNK10__cxxabiv117__class_type_info9can_catchEPKNS_16__shim_type_infoERPv
000000018059a38c (__TEXT,__text) non-external (was a private external) __ZNK10__cxxabiv117__pbase_type_info9can_catchEPKNS_16__shim_type_infoERPv
000000018059a820 (__TEXT,__text) non-external (was a private external) __ZNK10__cxxabiv119__pointer_type_info16can_catch_nestedEPKNS_16__shim_type_infoE
000000018059a568 (__TEXT,__text) non-external (was a private external) __ZNK10__cxxabiv119__pointer_type_info9can_catchEPKNS_16__shim_type_infoERPv
0000000180599f70 (__TEXT,__text) non-external (was a private external) __ZNK10__cxxabiv120__function_type_info9can_catchEPKNS_16__shim_type_infoERPv
000000018059b694 (__TEXT,__text) non-external (was a private external) __ZNK10__cxxabiv120__si_class_type_info16search_above_dstEPNS_19__dynamic_cast_infoEPKvS4_ib
000000018059b1f4 (__TEXT,__text) non-external (was a private external) __ZNK10__cxxabiv120__si_class_type_info16search_below_dstEPNS_19__dynamic_cast_infoEPKvib
000000018059a1ac (__TEXT,__text) non-external (was a private external) __ZNK10__cxxabiv120__si_class_type_info27has_unambiguous_public_baseEPNS_19__dynamic_cast_infoEPvi
000000018059b4e8 (__TEXT,__text) non-external (was a private external) __ZNK10__cxxabiv121__vmi_class_type_info16search_above_dstEPNS_19__dynamic_cast_infoEPKvS4_ib
000000018059ae80 (__TEXT,__text) non-external (was a private external) __ZNK10__cxxabiv121__vmi_class_type_info16search_below_dstEPNS_19__dynamic_cast_infoEPKvib
000000018059a2bc (__TEXT,__text) non-external (was a private external) __ZNK10__cxxabiv121__vmi_class_type_info27has_unambiguous_public_baseEPNS_19__dynamic_cast_infoEPvi
000000018059b174 (__TEXT,__text) non-external (was a private external) __ZNK10__cxxabiv122__base_class_type_info16search_above_dstEPNS_19__dynamic_cast_infoEPKvS4_ib
000000018059b1b4 (__TEXT,__text) non-external (was a private external) __ZNK10__cxxabiv122__base_class_type_info16search_below_dstEPNS_19__dynamic_cast_infoEPKvib
000000018059a248 (__TEXT,__text) non-external (was a private external) __ZNK10__cxxabiv122__base_class_type_info27has_unambiguous_public_baseEPNS_19__dynamic_cast_infoEPvi
0000000180599f0c (__TEXT,__text) non-external (was a private external) __ZNK10__cxxabiv123__fundamental_type_info9can_catchEPKNS_16__shim_type_infoERPv
000000018059a970 (__TEXT,__text) non-external (was a private external) __ZNK10__cxxabiv129__pointer_to_member_type_info16can_catch_nestedEPKNS_16__shim_type_infoE
000000018059aa24 (__TEXT,__text) non-external (was a private external) __ZNK10__cxxabiv129__pointer_to_member_type_info9can_catchEPKNS_16__shim_type_infoERPv
00000001805951e0 (__TEXT,__text) non-external __ZNK12_GLOBAL__N_116itanium_demangle10AbiTagAttr11getBaseNameEv
00000001805950fc (__TEXT,__text) non-external __ZNK12_GLOBAL__N_116itanium_demangle10AbiTagAttr9printLeftERNS0_12OutputBufferE
0000000180590364 (__TEXT,__text) non-external __ZNK12_GLOBAL__N_116itanium_demangle10BinaryExpr9printLeftERNS0_12OutputBufferE
0000000180597af8 (__TEXT,__text) non-external __ZNK12_GLOBAL__N_116itanium_demangle10BitIntType9printLeftERNS0_12OutputBufferE
0000000180593888 (__TEXT,__text) non-external __ZNK12_GLOBAL__N_116itanium_demangle10BracedExpr9printLeftERNS0_12OutputBufferE
0000000180590b3c (__TEXT,__text) non-external __ZNK12_GLOBAL__N_116itanium_demangle10DeleteExpr9printLeftERNS0_12OutputBufferE
0000000180593130 (__TEXT,__text) non-external __ZNK12_GLOBAL__N_116itanium_demangle10LambdaExpr9printLeftERNS0_12OutputBufferE
00000001805907f0 (__TEXT,__text) non-external __ZNK12_GLOBAL__N_116itanium_demangle10MemberExpr9printLeftERNS0_12OutputBufferE
000000018058c0c8 (__TEXT,__text) non-external __ZNK12_GLOBAL__N_116itanium_demangle10ModuleName9printLeftERNS0_12OutputBufferE
0000000180595654 (__TEXT,__text) non-external __ZNK12_GLOBAL__N_116itanium_demangle10NestedName11getBaseNameEv
00000001805955ec (__TEXT,__text) non-external __ZNK12_GLOBAL__N_116itanium_demangle10NestedName9printLeftERNS0_12OutputBufferE
0000000180590604 (__TEXT,__text) non-external __ZNK12_GLOBAL__N_116itanium_demangle10PrefixExpr9printLeftERNS0_12OutputBufferE
0000000180597e40 (__TEXT,__text) non-external __ZNK12_GLOBAL__N_116itanium_demangle10VectorType9printLeftERNS0_12OutputBufferE
00000001805931dc (__TEXT,__text) non-external __ZNK12_GLOBAL__N_116itanium_demangle11EnumLiteral9printLeftERNS0_12OutputBufferE
0000000180598720 (__TEXT,__text) non-external __ZNK12_GLOBAL__N_116itanium_demangle11PointerType10printRightERNS0_12OutputBufferE
00000001805984b0 (__TEXT,__text) non-external __ZNK12_GLOBAL__N_116itanium_demangle11PointerType19hasRHSComponentSlowERNS0_12OutputBufferE
00000001805984f4 (__TEXT,__text) non-external __ZNK12_GLOBAL__N_116itanium_demangle11PointerType9printLeftERNS0_12OutputBufferE
00000001805906a4 (__TEXT,__text) non-external __ZNK12_GLOBAL__N_116itanium_demangle11PostfixExpr9printLeftERNS0_12OutputBufferE
000000018058bd04 (__TEXT,__text) non-external __ZNK12_GLOBAL__N_116itanium_demangle11SpecialName9printLeftERNS0_12OutputBufferE
0000000180597a70 (__TEXT,__text) non-external __ZNK12_GLOBAL__N_116itanium_demangle12BinaryFPType9printLeftERNS0_12OutputBufferE
00000001805953bc (__TEXT,__text) non-external __ZNK12_GLOBAL__N_116itanium_demangle12CtorDtorName9printLeftERNS0_12OutputBufferE
0000000180595cd0 (__TEXT,__text) non-external __ZNK12_GLOBAL__N_116itanium_demangle12EnableIfAttr9printLeftERNS0_12OutputBufferE
0000000180597394 (__TEXT,__text) non-external __ZNK12_GLOBAL__N_116itanium_demangle12FunctionType10printRightERNS0_12OutputBufferE
0000000180597320 (__TEXT,__text) non-external __ZNK12_GLOBAL__N_116itanium_demangle12FunctionType15hasFunctionSlowERNS0_12OutputBufferE
0000000180597318 (__TEXT,__text) non-external __ZNK12_GLOBAL__N_116itanium_demangle12FunctionType19hasRHSComponentSlowERNS0_12OutputBufferE
0000000180597328 (__TEXT,__text) non-external __ZNK12_GLOBAL__N_116itanium_demangle12FunctionType9printLeftERNS0_12OutputBufferE
0000000180593ac0 (__TEXT,__text) non-external __ZNK12_GLOBAL__N_116itanium_demangle12InitListExpr9printLeftERNS0_12OutputBufferE
00000001805954f0 (__TEXT,__text) non-external __ZNK12_GLOBAL__N_116itanium_demangle12ModuleEntity11getBaseNameEv
000000018059548c (__TEXT,__text) non-external __ZNK12_GLOBAL__N_116itanium_demangle12ModuleEntity9printLeftERNS0_12OutputBufferE
000000018059716c (__TEXT,__text) non-external __ZNK12_GLOBAL__N_116itanium_demangle12NoexceptSpec9printLeftERNS0_12OutputBufferE
0000000180593f1c (__TEXT,__text) non-external __ZNK12_GLOBAL__N_116itanium_demangle12RequiresExpr9printLeftERNS0_12OutputBufferE
0000000180595b68 (__TEXT,__text) non-external __ZNK12_GLOBAL__N_116itanium_demangle12TemplateArgs9printLeftERNS0_12OutputBufferE
0000000180591038 (__TEXT,__text) non-external __ZNK12_GLOBAL__N_116itanium_demangle13EnclosingExpr9printLeftERNS0_12OutputBufferE
0000000180593384 (__TEXT,__text) non-external __ZNK12_GLOBAL__N_116itanium_demangle13FunctionParam9printLeftERNS0_12OutputBufferE
0000000180594380 (__TEXT,__text) non-external __ZNK12_GLOBAL__N_116itanium_demangle13NodeArrayNode9printLeftERNS0_12OutputBufferE
000000018059887c (__TEXT,__text) non-external __ZNK12_GLOBAL__N_116itanium_demangle13ObjCProtoName12isObjCObjectEv
00000001805975e8 (__TEXT,__text) non-external __ZNK12_GLOBAL__N_116itanium_demangle13ObjCProtoName9printLeftERNS0_12OutputBufferE
0000000180595af4 (__TEXT,__text) non-external __ZNK12_GLOBAL__N_116itanium_demangle13ParameterPack10printRightERNS0_12OutputBufferE
0000000180595944 (__TEXT,__text) non-external __ZNK12_GLOBAL__N_116itanium_demangle13ParameterPack12hasArraySlowERNS0_12OutputBufferE
0000000180595a3c (__TEXT,__text) non-external __ZNK12_GLOBAL__N_116itanium_demangle13ParameterPack13getSyntaxNodeERNS0_12OutputBufferE
00000001805959c0 (__TEXT,__text) non-external __ZNK12_GLOBAL__N_116itanium_demangle13ParameterPack15hasFunctionSlowERNS0_12OutputBufferE
00000001805958c8 (__TEXT,__text) non-external __ZNK12_GLOBAL__N_116itanium_demangle13ParameterPack19hasRHSComponentSlowERNS0_12OutputBufferE
0000000180595a98 (__TEXT,__text) non-external __ZNK12_GLOBAL__N_116itanium_demangle13ParameterPack9printLeftERNS0_12OutputBufferE
00000001805947b8 (__TEXT,__text) non-external __ZNK12_GLOBAL__N_116itanium_demangle13QualifiedName11getBaseNameEv
0000000180594750 (__TEXT,__text) non-external __ZNK12_GLOBAL__N_116itanium_demangle13QualifiedName9printLeftERNS0_12OutputBufferE
0000000180598b08 (__TEXT,__text) non-external __ZNK12_GLOBAL__N_116itanium_demangle13ReferenceType10printRightERNS0_12OutputBufferE
00000001805988dc (__TEXT,__text) non-external __ZNK12_GLOBAL__N_116itanium_demangle13ReferenceType19hasRHSComponentSlowERNS0_12OutputBufferE
0000000180598c48 (__TEXT,__text) non-external __ZNK12_GLOBAL__N_116itanium_demangle13ReferenceType8collapseERNS0_12OutputBufferE
0000000180598920 (__TEXT,__text) non-external __ZNK12_GLOBAL__N_116itanium_demangle13ReferenceType9printLeftERNS0_12OutputBufferE
0000000180591f40 (__TEXT,__text) non-external __ZNK12_GLOBAL__N_116itanium_demangle13StringLiteral9printLeftERNS0_12OutputBufferE
00000001805940d4 (__TEXT,__text) non-external __ZNK12_GLOBAL__N_116itanium_demangle13SubobjectExpr9printLeftERNS0_12OutputBufferE
0000000180590cec (__TEXT,__text) non-external __ZNK12_GLOBAL__N_116itanium_demangle14ConversionExpr9printLeftERNS0_12OutputBufferE
0000000180591868 (__TEXT,__text) non-external __ZNK12_GLOBAL__N_116itanium_demangle14IntegerLiteral9printLeftERNS0_12OutputBufferE
0000000180593998 (__TEXT,__text) non-external __ZNK12_GLOBAL__N_116itanium_demangle15BracedRangeExpr9printLeftERNS0_12OutputBufferE
0000000180592f68 (__TEXT,__text) non-external __ZNK12_GLOBAL__N_116itanium_demangle15ClosureTypeName15printDeclaratorERNS0_12OutputBufferE
0000000180592e78 (__TEXT,__text) non-external __ZNK12_GLOBAL__N_116itanium_demangle15ClosureTypeName9printLeftERNS0_12OutputBufferE
0000000180590df0 (__TEXT,__text) non-external __ZNK12_GLOBAL__N_116itanium_demangle15ConditionalExpr9printLeftERNS0_12OutputBufferE
0000000180593c5c (__TEXT,__text) non-external __ZNK12_GLOBAL__N_116itanium_demangle15ExprRequirement9printLeftERNS0_12OutputBufferE
0000000180594bac (__TEXT,__text) non-external __ZNK12_GLOBAL__N_116itanium_demangle15LiteralOperator9printLeftERNS0_12OutputBufferE
0000000180597d9c (__TEXT,__text) non-external __ZNK12_GLOBAL__N_116itanium_demangle15PixelVectorType9printLeftERNS0_12OutputBufferE
00000001805979a8 (__TEXT,__text) non-external __ZNK12_GLOBAL__N_116itanium_demangle15TransformedType9printLeftERNS0_12OutputBufferE
0000000180593ddc (__TEXT,__text) non-external __ZNK12_GLOBAL__N_116itanium_demangle15TypeRequirement9printLeftERNS0_12OutputBufferE
00000001805926a4 (__TEXT,__text) non-external __ZNK12_GLOBAL__N_116itanium_demangle15UnnamedTypeName9printLeftERNS0_12OutputBufferE
0000000180591c34 (__TEXT,__text) non-external __ZNK12_GLOBAL__N_116itanium_demangle16FloatLiteralImplIdE9printLeftERNS0_12OutputBufferE
0000000180591db8 (__TEXT,__text) non-external __ZNK12_GLOBAL__N_116itanium_demangle16FloatLiteralImplIeE9printLeftERNS0_12OutputBufferE
0000000180591aac (__TEXT,__text) non-external __ZNK12_GLOBAL__N_116itanium_demangle16FloatLiteralImplIfE9printLeftERNS0_12OutputBufferE
0000000180595ee8 (__TEXT,__text) non-external __ZNK12_GLOBAL__N_116itanium_demangle16FunctionEncoding10printRightERNS0_12OutputBufferE
0000000180595e04 (__TEXT,__text) non-external __ZNK12_GLOBAL__N_116itanium_demangle16FunctionEncoding15hasFunctionSlowERNS0_12OutputBufferE
0000000180595dfc (__TEXT,__text) non-external __ZNK12_GLOBAL__N_116itanium_demangle16FunctionEncoding19hasRHSComponentSlowERNS0_12OutputBufferE
0000000180595e0c (__TEXT,__text) non-external __ZNK12_GLOBAL__N_116itanium_demangle16FunctionEncoding9printLeftERNS0_12OutputBufferE
0000000180593e7c (__TEXT,__text) non-external __ZNK12_GLOBAL__N_116itanium_demangle17NestedRequirement9printLeftERNS0_12OutputBufferE
00000001805976b4 (__TEXT,__text) non-external __ZNK12_GLOBAL__N_116itanium_demangle17VendorExtQualType9printLeftERNS0_12OutputBufferE
0000000180590734 (__TEXT,__text) non-external __ZNK12_GLOBAL__N_116itanium_demangle18ArraySubscriptExpr9printLeftERNS0_12OutputBufferE
0000000180594c9c (__TEXT,__text) non-external __ZNK12_GLOBAL__N_116itanium_demangle19GlobalQualifiedName11getBaseNameEv
0000000180594c3c (__TEXT,__text) non-external __ZNK12_GLOBAL__N_116itanium_demangle19GlobalQualifiedName9printLeftERNS0_12OutputBufferE
00000001805982d8 (__TEXT,__text) non-external __ZNK12_GLOBAL__N_116itanium_demangle19PointerToMemberType10printRightERNS0_12OutputBufferE
000000018059814c (__TEXT,__text) non-external __ZNK12_GLOBAL__N_116itanium_demangle19PointerToMemberType19hasRHSComponentSlowERNS0_12OutputBufferE
0000000180598190 (__TEXT,__text) non-external __ZNK12_GLOBAL__N_116itanium_demangle19PointerToMemberType9printLeftERNS0_12OutputBufferE
0000000180594268 (__TEXT,__text) non-external __ZNK12_GLOBAL__N_116itanium_demangle19SizeofParamPackExpr9printLeftERNS0_12OutputBufferE
0000000180594e50 (__TEXT,__text) non-external __ZNK12_GLOBAL__N_116itanium_demangle19SpecialSubstitution11getBaseNameEv
0000000180594db4 (__TEXT,__text) non-external __ZNK12_GLOBAL__N_116itanium_demangle19SpecialSubstitution9printLeftERNS0_12OutputBufferE
0000000180597244 (__TEXT,__text) non-external __ZNK12_GLOBAL__N_116itanium_demangle20DynamicExceptionSpec9printLeftERNS0_12OutputBufferE
00000001805955ac (__TEXT,__text) non-external __ZNK12_GLOBAL__N_116itanium_demangle20MemberLikeFriendName11getBaseNameEv
0000000180595530 (__TEXT,__text) non-external __ZNK12_GLOBAL__N_116itanium_demangle20MemberLikeFriendName9printLeftERNS0_12OutputBufferE
0000000180595c50 (__TEXT,__text) non-external __ZNK12_GLOBAL__N_116itanium_demangle20NameWithTemplateArgs11getBaseNameEv
0000000180595c0c (__TEXT,__text) non-external __ZNK12_GLOBAL__N_116itanium_demangle20NameWithTemplateArgs9printLeftERNS0_12OutputBufferE
0000000180597c18 (__TEXT,__text) non-external __ZNK12_GLOBAL__N_116itanium_demangle20PostfixQualifiedType9printLeftERNS0_12OutputBufferE
0000000180595c90 (__TEXT,__text) non-external __ZNK12_GLOBAL__N_116itanium_demangle20TemplateArgumentPack9printLeftERNS0_12OutputBufferE
000000018058bda8 (__TEXT,__text) non-external __ZNK12_GLOBAL__N_116itanium_demangle21CtorVtableSpecialName9printLeftERNS0_12OutputBufferE
0000000180595220 (__TEXT,__text) non-external __ZNK12_GLOBAL__N_116itanium_demangle21StructuredBindingName9printLeftERNS0_12OutputBufferE
0000000180592e38 (__TEXT,__text) non-external __ZNK12_GLOBAL__N_116itanium_demangle21TemplateParamPackDecl10printRightERNS0_12OutputBufferE
0000000180592dc0 (__TEXT,__text) non-external __ZNK12_GLOBAL__N_116itanium_demangle21TemplateParamPackDecl9printLeftERNS0_12OutputBufferE
0000000180592a9c (__TEXT,__text) non-external __ZNK12_GLOBAL__N_116itanium_demangle21TypeTemplateParamDecl10printRightERNS0_12OutputBufferE
0000000180592a44 (__TEXT,__text) non-external __ZNK12_GLOBAL__N_116itanium_demangle21TypeTemplateParamDecl9printLeftERNS0_12OutputBufferE
000000018058e444 (__TEXT,__text) non-external __ZNK12_GLOBAL__N_116itanium_demangle22AbstractManglingParserINS0_14ManglingParserINS_16DefaultAllocatorEEES3_E12OperatorInfo9getSymbolEv
0000000180594b20 (__TEXT,__text) non-external __ZNK12_GLOBAL__N_116itanium_demangle22ConversionOperatorType9printLeftERNS0_12OutputBufferE
00000001805983fc (__TEXT,__text) non-external __ZNK12_GLOBAL__N_116itanium_demangle22ElaboratedTypeSpefType9printLeftERNS0_12OutputBufferE
000000018059378c (__TEXT,__text) non-external __ZNK12_GLOBAL__N_116itanium_demangle22ParameterPackExpansion9printLeftERNS0_12OutputBufferE
0000000180595d74 (__TEXT,__text) non-external __ZNK12_GLOBAL__N_116itanium_demangle23ExplicitObjectParameter9printLeftERNS0_12OutputBufferE
000000018058d4d8 (__TEXT,__text) non-external __ZNK12_GLOBAL__N_116itanium_demangle24ForwardTemplateReference10printRightERNS0_12OutputBufferE
000000018058d318 (__TEXT,__text) non-external __ZNK12_GLOBAL__N_116itanium_demangle24ForwardTemplateReference12hasArraySlowERNS0_12OutputBufferE
000000018058d418 (__TEXT,__text) non-external __ZNK12_GLOBAL__N_116itanium_demangle24ForwardTemplateReference13getSyntaxNodeERNS0_12OutputBufferE
000000018058d398 (__TEXT,__text) non-external __ZNK12_GLOBAL__N_116itanium_demangle24ForwardTemplateReference15hasFunctionSlowERNS0_12OutputBufferE
000000018058d298 (__TEXT,__text) non-external __ZNK12_GLOBAL__N_116itanium_demangle24ForwardTemplateReference19hasRHSComponentSlowERNS0_12OutputBufferE
000000018058d47c (__TEXT,__text) non-external __ZNK12_GLOBAL__N_116itanium_demangle24ForwardTemplateReference9printLeftERNS0_12OutputBufferE
0000000180592be4 (__TEXT,__text) non-external __ZNK12_GLOBAL__N_116itanium_demangle24NonTypeTemplateParamDecl10printRightERNS0_12OutputBufferE
0000000180592b28 (__TEXT,__text) non-external __ZNK12_GLOBAL__N_116itanium_demangle24NonTypeTemplateParamDecl9printLeftERNS0_12OutputBufferE
0000000180595cb0 (__TEXT,__text) non-external __ZNK12_GLOBAL__N_116itanium_demangle25TemplateParamQualifiedArg9printLeftERNS0_12OutputBufferE
0000000180592d18 (__TEXT,__text) non-external __ZNK12_GLOBAL__N_116itanium_demangle25TemplateTemplateParamDecl10printRightERNS0_12OutputBufferE
0000000180592c60 (__TEXT,__text) non-external __ZNK12_GLOBAL__N_116itanium_demangle25TemplateTemplateParamDecl9printLeftERNS0_12OutputBufferE
00000001805928a4 (__TEXT,__text) non-external __ZNK12_GLOBAL__N_116itanium_demangle26SyntheticTemplateParamName9printLeftERNS0_12OutputBufferE
000000018059505c (__TEXT,__text) non-external __ZNK12_GLOBAL__N_116itanium_demangle27ExpandedSpecialSubstitution11getBaseNameEv
0000000180594ef4 (__TEXT,__text) non-external __ZNK12_GLOBAL__N_116itanium_demangle27ExpandedSpecialSubstitution9printLeftERNS0_12OutputBufferE
0000000180593b58 (__TEXT,__text) non-external __ZNK12_GLOBAL__N_116itanium_demangle29PointerToMemberConversionExpr9printLeftERNS0_12OutputBufferE
0000000180592b08 (__TEXT,__text) non-external __ZNK12_GLOBAL__N_116itanium_demangle32ConstrainedTypeTemplateParamDecl10printRightERNS0_12OutputBufferE
0000000180592abc (__TEXT,__text) non-external __ZNK12_GLOBAL__N_116itanium_demangle32ConstrainedTypeTemplateParamDecl9printLeftERNS0_12OutputBufferE
000000018058bd80 (__TEXT,__text) non-external __ZNK12_GLOBAL__N_116itanium_demangle4Node10printRightERNS0_12OutputBufferE
000000018058bd84 (__TEXT,__text) non-external __ZNK12_GLOBAL__N_116itanium_demangle4Node11getBaseNameEv
000000018058bcf0 (__TEXT,__text) non-external __ZNK12_GLOBAL__N_116itanium_demangle4Node12hasArraySlowERNS0_12OutputBufferE
000000018058bd00 (__TEXT,__text) non-external __ZNK12_GLOBAL__N_116itanium_demangle4Node13getSyntaxNodeERNS0_12OutputBufferE
0000000180590544 (__TEXT,__text) non-external __ZNK12_GLOBAL__N_116itanium_demangle4Node14printAsOperandERNS0_12OutputBufferENS1_4PrecEb
000000018058bcf8 (__TEXT,__text) non-external __ZNK12_GLOBAL__N_116itanium_demangle4Node15hasFunctionSlowERNS0_12OutputBufferE
000000018058bce8 (__TEXT,__text) non-external __ZNK12_GLOBAL__N_116itanium_demangle4Node19hasRHSComponentSlowERNS0_12OutputBufferE
0000000180588f54 (__TEXT,__text) non-external __ZNK12_GLOBAL__N_116itanium_demangle4Node5printERNS0_12OutputBufferE
00000001805908a4 (__TEXT,__text) non-external __ZNK12_GLOBAL__N_116itanium_demangle7NewExpr9printLeftERNS0_12OutputBufferE
0000000180591a1c (__TEXT,__text) non-external __ZNK12_GLOBAL__N_116itanium_demangle8BoolExpr9printLeftERNS0_12OutputBufferE
0000000180590c44 (__TEXT,__text) non-external __ZNK12_GLOBAL__N_116itanium_demangle8CallExpr9printLeftERNS0_12OutputBufferE
0000000180590ed8 (__TEXT,__text) non-external __ZNK12_GLOBAL__N_116itanium_demangle8CastExpr9printLeftERNS0_12OutputBufferE
0000000180594a1c (__TEXT,__text) non-external __ZNK12_GLOBAL__N_116itanium_demangle8DtorName9printLeftERNS0_12OutputBufferE
0000000180593424 (__TEXT,__text) non-external __ZNK12_GLOBAL__N_116itanium_demangle8FoldExpr9printLeftERNS0_12OutputBufferE
000000018058c0a4 (__TEXT,__text) non-external __ZNK12_GLOBAL__N_116itanium_demangle8NameType11getBaseNameEv
000000018058c044 (__TEXT,__text) non-external __ZNK12_GLOBAL__N_116itanium_demangle8NameType9printLeftERNS0_12OutputBufferE
0000000180597968 (__TEXT,__text) non-external __ZNK12_GLOBAL__N_116itanium_demangle8QualType10printRightERNS0_12OutputBufferE
00000001805977cc (__TEXT,__text) non-external __ZNK12_GLOBAL__N_116itanium_demangle8QualType12hasArraySlowERNS0_12OutputBufferE
0000000180597810 (__TEXT,__text) non-external __ZNK12_GLOBAL__N_116itanium_demangle8QualType15hasFunctionSlowERNS0_12OutputBufferE
0000000180597788 (__TEXT,__text) non-external __ZNK12_GLOBAL__N_116itanium_demangle8QualType19hasRHSComponentSlowERNS0_12OutputBufferE
0000000180597854 (__TEXT,__text) non-external __ZNK12_GLOBAL__N_116itanium_demangle8QualType9printLeftERNS0_12OutputBufferE
0000000180597f90 (__TEXT,__text) non-external __ZNK12_GLOBAL__N_116itanium_demangle9ArrayType10printRightERNS0_12OutputBufferE
0000000180597f60 (__TEXT,__text) non-external __ZNK12_GLOBAL__N_116itanium_demangle9ArrayType12hasArraySlowERNS0_12OutputBufferE
0000000180597f58 (__TEXT,__text) non-external __ZNK12_GLOBAL__N_116itanium_demangle9ArrayType19hasRHSComponentSlowERNS0_12OutputBufferE
0000000180597f68 (__TEXT,__text) non-external __ZNK12_GLOBAL__N_116itanium_demangle9ArrayType9printLeftERNS0_12OutputBufferE
0000000180596168 (__TEXT,__text) non-external __ZNK12_GLOBAL__N_116itanium_demangle9DotSuffix9printLeftERNS0_12OutputBufferE
0000000180595848 (__TEXT,__text) non-external __ZNK12_GLOBAL__N_116itanium_demangle9LocalName9printLeftERNS0_12OutputBufferE
0000000180590a78 (__TEXT,__text) non-external __ZNK12_GLOBAL__N_116itanium_demangle9NodeArray14printWithCommaERNS0_12OutputBufferE
00000001805943a0 (__TEXT,__text) non-external __ZNK12_GLOBAL__N_116itanium_demangle9ThrowExpr9printLeftERNS0_12OutputBufferE
0000000180599908 (__TEXT,__text) external __ZNKSt10bad_typeid4whatEv
0000000180599564 (__TEXT,__text) external __ZNKSt11logic_error4whatEv
00000001805993dc (__TEXT,__text) external __ZNKSt13bad_exception4whatEv
0000000180599618 (__TEXT,__text) external __ZNKSt13runtime_error4whatEv
00000001805994ac (__TEXT,__text) external __ZNKSt20bad_array_new_length4whatEv
000000018059987c (__TEXT,__text) external __ZNKSt8bad_cast4whatEv
0000000180599444 (__TEXT,__text) external __ZNKSt9bad_alloc4whatEv
00000001805993b4 (__TEXT,__text) external __ZNKSt9exception4whatEv
000000018059b80c (__TEXT,__text) non-external (was a private external) __ZNKSt9type_infoeqB8fn190102ERKS_
00000001805998a8 (__TEXT,__text) external __ZNSt10bad_typeidC1Ev
0000000180599888 (__TEXT,__text) external __ZNSt10bad_typeidC2Ev
00000001805998d0 (__TEXT,__text) external __ZNSt10bad_typeidD0Ev
00000001805998cc (__TEXT,__text) external __ZNSt10bad_typeidD1Ev
00000001805998c8 (__TEXT,__text) external __ZNSt10bad_typeidD2Ev
000000018059952c (__TEXT,__text) external __ZNSt11logic_errorD0Ev
0000000180599528 (__TEXT,__text) external __ZNSt11logic_errorD1Ev
00000001805994b8 (__TEXT,__text) external __ZNSt11logic_errorD2Ev
0000000180599728 (__TEXT,__text) external __ZNSt11range_errorD0Ev
0000000180599724 (__TEXT,__text) external __ZNSt11range_errorD1Ev
0000000180599720 (__TEXT,__text) external __ZNSt11range_errorD2Ev
0000000180599628 (__TEXT,__text) external __ZNSt12domain_errorD0Ev
0000000180599624 (__TEXT,__text) external __ZNSt12domain_errorD1Ev
0000000180599620 (__TEXT,__text) external __ZNSt12domain_errorD2Ev
00000001805996a8 (__TEXT,__text) external __ZNSt12length_errorD0Ev
00000001805996a4 (__TEXT,__text) external __ZNSt12length_errorD1Ev
00000001805996a0 (__TEXT,__text) external __ZNSt12length_errorD2Ev
00000001805996e8 (__TEXT,__text) external __ZNSt12out_of_rangeD0Ev
00000001805996e4 (__TEXT,__text) external __ZNSt12out_of_rangeD1Ev
00000001805996e0 (__TEXT,__text) external __ZNSt12out_of_rangeD2Ev
00000001805993c8 (__TEXT,__text) external __ZNSt13bad_exceptionD0Ev
00000001805993c4 (__TEXT,__text) external __ZNSt13bad_exceptionD1Ev
00000001805993c0 (__TEXT,__text) external __ZNSt13bad_exceptionD2Ev
00000001805995e0 (__TEXT,__text) external __ZNSt13runtime_errorD0Ev
00000001805995dc (__TEXT,__text) external __ZNSt13runtime_errorD1Ev
000000018059956c (__TEXT,__text) external __ZNSt13runtime_errorD2Ev
0000000180599768 (__TEXT,__text) external __ZNSt14overflow_errorD0Ev
0000000180599764 (__TEXT,__text) external __ZNSt14overflow_errorD1Ev
0000000180599760 (__TEXT,__text) external __ZNSt14overflow_errorD2Ev
00000001805997a8 (__TEXT,__text) external __ZNSt15underflow_errorD0Ev
00000001805997a4 (__TEXT,__text) external __ZNSt15underflow_errorD1Ev
00000001805997a0 (__TEXT,__text) external __ZNSt15underflow_errorD2Ev
0000000180599668 (__TEXT,__text) external __ZNSt16invalid_argumentD0Ev
0000000180599664 (__TEXT,__text) external __ZNSt16invalid_argumentD1Ev
0000000180599660 (__TEXT,__text) external __ZNSt16invalid_argumentD2Ev
0000000180599470 (__TEXT,__text) external __ZNSt20bad_array_new_lengthC1Ev
0000000180599450 (__TEXT,__text) external __ZNSt20bad_array_new_lengthC2Ev
0000000180599498 (__TEXT,__text) external __ZNSt20bad_array_new_lengthD0Ev
0000000180599494 (__TEXT,__text) external __ZNSt20bad_array_new_lengthD1Ev
0000000180599490 (__TEXT,__text) external __ZNSt20bad_array_new_lengthD2Ev
000000018059981c (__TEXT,__text) external __ZNSt8bad_castC1Ev
00000001805997fc (__TEXT,__text) external __ZNSt8bad_castC2Ev
0000000180599844 (__TEXT,__text) external __ZNSt8bad_castD0Ev
0000000180599840 (__TEXT,__text) external __ZNSt8bad_castD1Ev
000000018059983c (__TEXT,__text) external __ZNSt8bad_castD2Ev
0000000180599408 (__TEXT,__text) external __ZNSt9bad_allocC1Ev
00000001805993e8 (__TEXT,__text) external __ZNSt9bad_allocC2Ev
0000000180599430 (__TEXT,__text) external __ZNSt9bad_allocD0Ev
000000018059942c (__TEXT,__text) external __ZNSt9bad_allocD1Ev
0000000180599428 (__TEXT,__text) external __ZNSt9bad_allocD2Ev
00000001805993a0 (__TEXT,__text) external __ZNSt9exceptionD0Ev
000000018059939c (__TEXT,__text) external __ZNSt9exceptionD1Ev
0000000180599398 (__TEXT,__text) external __ZNSt9exceptionD2Ev
00000001805997e8 (__TEXT,__text) external __ZNSt9type_infoD0Ev
00000001805997e4 (__TEXT,__text) external __ZNSt9type_infoD1Ev
00000001805997e0 (__TEXT,__text) external __ZNSt9type_infoD2Ev
0000000180598e80 (__TEXT,__text) external __ZSt10unexpectedv
0000000180598eac (__TEXT,__text) non-external (was a private external) __ZSt11__terminatePFvvE
0000000180598e60 (__TEXT,__text) non-external (was a private external) __ZSt12__unexpectedPFvvE
0000000180598e9c (__TEXT,__text) external __ZSt13get_terminatev
00000001805889e0 (__TEXT,__text) external __ZSt13set_terminatePFvvE
0000000180598e50 (__TEXT,__text) external __ZSt14get_unexpectedv
00000001805889b8 (__TEXT,__text) external __ZSt14set_unexpectedPFvvE
0000000180598ee8 (__TEXT,__text) external __ZSt15get_new_handlerv
0000000180588a08 (__TEXT,__text) external __ZSt15set_new_handlerPFvvE
0000000180598ecc (__TEXT,__text) external __ZSt9terminatev
0000000182c2cc78 (__AUTH_CONST,__const) external __ZTIDh
0000000182c2cea8 (__AUTH_CONST,__const) external __ZTIDi
0000000182c2c778 (__AUTH_CONST,__const) external __ZTIDn
0000000182c2ce58 (__AUTH_CONST,__const) external __ZTIDs
0000000182c2ce08 (__AUTH_CONST,__const) external __ZTIDu
0000000182c2cfb8 (__AUTH_CONST,__const) external __ZTIN10__cxxabiv116__enum_type_infoE
0000000182c2c628 (__AUTH_CONST,__const) external __ZTIN10__cxxabiv116__shim_type_infoE
0000000182c2cf30 (__AUTH_CONST,__const) external __ZTIN10__cxxabiv117__array_type_infoE
0000000182c2d020 (__AUTH_CONST,__const) external __ZTIN10__cxxabiv117__class_type_infoE
0000000182c2c640 (__AUTH_CONST,__const) external __ZTIN10__cxxabiv117__pbase_type_infoE
0000000182c2c670 (__AUTH_CONST,__const) external __ZTIN10__cxxabiv119__pointer_type_infoE
0000000182c2c658 (__AUTH_CONST,__const) external __ZTIN10__cxxabiv120__function_type_infoE
0000000182c2d088 (__AUTH_CONST,__const) external __ZTIN10__cxxabiv120__si_class_type_infoE
0000000182c2d0f0 (__AUTH_CONST,__const) external __ZTIN10__cxxabiv121__vmi_class_type_infoE
0000000182c2c710 (__AUTH_CONST,__const) external __ZTIN10__cxxabiv123__fundamental_type_infoE
0000000182c2c688 (__AUTH_CONST,__const) external __ZTIN10__cxxabiv129__pointer_to_member_type_infoE
0000000182c2b428 (__AUTH_CONST,__const) non-external __ZTIN12_GLOBAL__N_116itanium_demangle10AbiTagAttrE
0000000182c29e48 (__AUTH_CONST,__const) non-external __ZTIN12_GLOBAL__N_116itanium_demangle10BinaryExprE
0000000182c2bea8 (__AUTH_CONST,__const) non-external __ZTIN12_GLOBAL__N_116itanium_demangle10BitIntTypeE
0000000182c2abd8 (__AUTH_CONST,__const) non-external __ZTIN12_GLOBAL__N_116itanium_demangle10BracedExprE
0000000182c2a0e8 (__AUTH_CONST,__const) non-external __ZTIN12_GLOBAL__N_116itanium_demangle10DeleteExprE
0000000182c2a9a8 (__AUTH_CONST,__const) non-external __ZTIN12_GLOBAL__N_116itanium_demangle10LambdaExprE
0000000182c2a008 (__AUTH_CONST,__const) non-external __ZTIN12_GLOBAL__N_116itanium_demangle10MemberExprE
0000000182c29d68 (__AUTH_CONST,__const) non-external __ZTIN12_GLOBAL__N_116itanium_demangle10ModuleNameE
0000000182c2b658 (__AUTH_CONST,__const) non-external __ZTIN12_GLOBAL__N_116itanium_demangle10NestedNameE
0000000182c29eb8 (__AUTH_CONST,__const) non-external __ZTIN12_GLOBAL__N_116itanium_demangle10PrefixExprE
0000000182c2bff8 (__AUTH_CONST,__const) non-external __ZTIN12_GLOBAL__N_116itanium_demangle10VectorTypeE
0000000182c2aa18 (__AUTH_CONST,__const) non-external __ZTIN12_GLOBAL__N_116itanium_demangle11EnumLiteralE
0000000182c2c1b8 (__AUTH_CONST,__const) non-external __ZTIN12_GLOBAL__N_116itanium_demangle11PointerTypeE
0000000182c29f28 (__AUTH_CONST,__const) non-external __ZTIN12_GLOBAL__N_116itanium_demangle11PostfixExprE
0000000182c29c18 (__AUTH_CONST,__const) non-external __ZTIN12_GLOBAL__N_116itanium_demangle11SpecialNameE
0000000182c2be38 (__AUTH_CONST,__const) non-external __ZTIN12_GLOBAL__N_116itanium_demangle12BinaryFPTypeE
0000000182c2b508 (__AUTH_CONST,__const) non-external __ZTIN12_GLOBAL__N_116itanium_demangle12CtorDtorNameE
0000000182c2b968 (__AUTH_CONST,__const) non-external __ZTIN12_GLOBAL__N_116itanium_demangle12EnableIfAttrE
0000000182c2bc08 (__AUTH_CONST,__const) non-external __ZTIN12_GLOBAL__N_116itanium_demangle12FunctionTypeE
0000000182c2acb8 (__AUTH_CONST,__const) non-external __ZTIN12_GLOBAL__N_116itanium_demangle12InitListExprE
0000000182c2b578 (__AUTH_CONST,__const) non-external __ZTIN12_GLOBAL__N_116itanium_demangle12ModuleEntityE
0000000182c2bb28 (__AUTH_CONST,__const) non-external __ZTIN12_GLOBAL__N_116itanium_demangle12NoexceptSpecE
0000000182c2aee8 (__AUTH_CONST,__const) non-external __ZTIN12_GLOBAL__N_116itanium_demangle12RequiresExprE
0000000182c2b7a8 (__AUTH_CONST,__const) non-external __ZTIN12_GLOBAL__N_116itanium_demangle12TemplateArgsE
0000000182c2a318 (__AUTH_CONST,__const) non-external __ZTIN12_GLOBAL__N_116itanium_demangle13EnclosingExprE
0000000182c2aa88 (__AUTH_CONST,__const) non-external __ZTIN12_GLOBAL__N_116itanium_demangle13FunctionParamE
0000000182c2b038 (__AUTH_CONST,__const) non-external __ZTIN12_GLOBAL__N_116itanium_demangle13NodeArrayNodeE
0000000182c2bc78 (__AUTH_CONST,__const) non-external __ZTIN12_GLOBAL__N_116itanium_demangle13ObjCProtoNameE
0000000182c2b738 (__AUTH_CONST,__const) non-external __ZTIN12_GLOBAL__N_116itanium_demangle13ParameterPackE
0000000182c2b118 (__AUTH_CONST,__const) non-external __ZTIN12_GLOBAL__N_116itanium_demangle13QualifiedNameE
0000000182c2c228 (__AUTH_CONST,__const) non-external __ZTIN12_GLOBAL__N_116itanium_demangle13ReferenceTypeE
0000000182c2a5b8 (__AUTH_CONST,__const) non-external __ZTIN12_GLOBAL__N_116itanium_demangle13StringLiteralE
0000000182c2af58 (__AUTH_CONST,__const) non-external __ZTIN12_GLOBAL__N_116itanium_demangle13SubobjectExprE
0000000182c2a1c8 (__AUTH_CONST,__const) non-external __ZTIN12_GLOBAL__N_116itanium_demangle14ConversionExprE
0000000182c2a388 (__AUTH_CONST,__const) non-external __ZTIN12_GLOBAL__N_116itanium_demangle14IntegerLiteralE
0000000182c2ac48 (__AUTH_CONST,__const) non-external __ZTIN12_GLOBAL__N_116itanium_demangle15BracedRangeExprE
0000000182c2a938 (__AUTH_CONST,__const) non-external __ZTIN12_GLOBAL__N_116itanium_demangle15ClosureTypeNameE
0000000182c2a238 (__AUTH_CONST,__const) non-external __ZTIN12_GLOBAL__N_116itanium_demangle15ConditionalExprE
0000000182c2ad98 (__AUTH_CONST,__const) non-external __ZTIN12_GLOBAL__N_116itanium_demangle15ExprRequirementE
0000000182c2b268 (__AUTH_CONST,__const) non-external __ZTIN12_GLOBAL__N_116itanium_demangle15LiteralOperatorE
0000000182c2bf88 (__AUTH_CONST,__const) non-external __ZTIN12_GLOBAL__N_116itanium_demangle15PixelVectorTypeE
0000000182c2bdc8 (__AUTH_CONST,__const) non-external __ZTIN12_GLOBAL__N_116itanium_demangle15TransformedTypeE
0000000182c2ae08 (__AUTH_CONST,__const) non-external __ZTIN12_GLOBAL__N_116itanium_demangle15TypeRequirementE
0000000182c2a628 (__AUTH_CONST,__const) non-external __ZTIN12_GLOBAL__N_116itanium_demangle15UnnamedTypeNameE
0000000182c2a4d8 (__AUTH_CONST,__const) non-external __ZTIN12_GLOBAL__N_116itanium_demangle16FloatLiteralImplIdEE
0000000182c2a548 (__AUTH_CONST,__const) non-external __ZTIN12_GLOBAL__N_116itanium_demangle16FloatLiteralImplIeEE
0000000182c2a468 (__AUTH_CONST,__const) non-external __ZTIN12_GLOBAL__N_116itanium_demangle16FloatLiteralImplIfEE
0000000182c2ba48 (__AUTH_CONST,__const) non-external __ZTIN12_GLOBAL__N_116itanium_demangle16FunctionEncodingE
0000000182c2ae78 (__AUTH_CONST,__const) non-external __ZTIN12_GLOBAL__N_116itanium_demangle17NestedRequirementE
0000000182c2bce8 (__AUTH_CONST,__const) non-external __ZTIN12_GLOBAL__N_116itanium_demangle17VendorExtQualTypeE
0000000182c29f98 (__AUTH_CONST,__const) non-external __ZTIN12_GLOBAL__N_116itanium_demangle18ArraySubscriptExprE
0000000182c2b2d8 (__AUTH_CONST,__const) non-external __ZTIN12_GLOBAL__N_116itanium_demangle19GlobalQualifiedNameE
0000000182c2c0d8 (__AUTH_CONST,__const) non-external __ZTIN12_GLOBAL__N_116itanium_demangle19PointerToMemberTypeE
0000000182c2afc8 (__AUTH_CONST,__const) non-external __ZTIN12_GLOBAL__N_116itanium_demangle19SizeofParamPackExprE
0000000182c2b360 (__AUTH_CONST,__const) non-external __ZTIN12_GLOBAL__N_116itanium_demangle19SpecialSubstitutionE
0000000182c2bb98 (__AUTH_CONST,__const) non-external __ZTIN12_GLOBAL__N_116itanium_demangle20DynamicExceptionSpecE
0000000182c2b5e8 (__AUTH_CONST,__const) non-external __ZTIN12_GLOBAL__N_116itanium_demangle20MemberLikeFriendNameE
0000000182c2b818 (__AUTH_CONST,__const) non-external __ZTIN12_GLOBAL__N_116itanium_demangle20NameWithTemplateArgsE
0000000182c2bf18 (__AUTH_CONST,__const) non-external __ZTIN12_GLOBAL__N_116itanium_demangle20PostfixQualifiedTypeE
0000000182c2b888 (__AUTH_CONST,__const) non-external __ZTIN12_GLOBAL__N_116itanium_demangle20TemplateArgumentPackE
0000000182c29c88 (__AUTH_CONST,__const) non-external __ZTIN12_GLOBAL__N_116itanium_demangle21CtorVtableSpecialNameE
0000000182c2b498 (__AUTH_CONST,__const) non-external __ZTIN12_GLOBAL__N_116itanium_demangle21StructuredBindingNameE
0000000182c2a8c8 (__AUTH_CONST,__const) non-external __ZTIN12_GLOBAL__N_116itanium_demangle21TemplateParamPackDeclE
0000000182c2a708 (__AUTH_CONST,__const) non-external __ZTIN12_GLOBAL__N_116itanium_demangle21TypeTemplateParamDeclE
0000000182c2b1f8 (__AUTH_CONST,__const) non-external __ZTIN12_GLOBAL__N_116itanium_demangle22ConversionOperatorTypeE
0000000182c2c148 (__AUTH_CONST,__const) non-external __ZTIN12_GLOBAL__N_116itanium_demangle22ElaboratedTypeSpefTypeE
0000000182c2ab68 (__AUTH_CONST,__const) non-external __ZTIN12_GLOBAL__N_116itanium_demangle22ParameterPackExpansionE
0000000182c2b9d8 (__AUTH_CONST,__const) non-external __ZTIN12_GLOBAL__N_116itanium_demangle23ExplicitObjectParameterE
0000000182c29dd8 (__AUTH_CONST,__const) non-external __ZTIN12_GLOBAL__N_116itanium_demangle24ForwardTemplateReferenceE
0000000182c2a7e8 (__AUTH_CONST,__const) non-external __ZTIN12_GLOBAL__N_116itanium_demangle24NonTypeTemplateParamDeclE
0000000182c2b8f8 (__AUTH_CONST,__const) non-external __ZTIN12_GLOBAL__N_116itanium_demangle25TemplateParamQualifiedArgE
0000000182c2a858 (__AUTH_CONST,__const) non-external __ZTIN12_GLOBAL__N_116itanium_demangle25TemplateTemplateParamDeclE
0000000182c2a698 (__AUTH_CONST,__const) non-external __ZTIN12_GLOBAL__N_116itanium_demangle26SyntheticTemplateParamNameE
0000000182c2b348 (__AUTH_CONST,__const) non-external __ZTIN12_GLOBAL__N_116itanium_demangle27ExpandedSpecialSubstitutionE
0000000182c2ad28 (__AUTH_CONST,__const) non-external __ZTIN12_GLOBAL__N_116itanium_demangle29PointerToMemberConversionExprE
0000000182c2a778 (__AUTH_CONST,__const) non-external __ZTIN12_GLOBAL__N_116itanium_demangle32ConstrainedTypeTemplateParamDeclE
0000000182c29c08 (__AUTH_CONST,__const) non-external __ZTIN12_GLOBAL__N_116itanium_demangle4NodeE
0000000182c2a078 (__AUTH_CONST,__const) non-external __ZTIN12_GLOBAL__N_116itanium_demangle7NewExprE
0000000182c2a3f8 (__AUTH_CONST,__const) non-external __ZTIN12_GLOBAL__N_116itanium_demangle8BoolExprE
0000000182c2a158 (__AUTH_CONST,__const) non-external __ZTIN12_GLOBAL__N_116itanium_demangle8CallExprE
0000000182c2a2a8 (__AUTH_CONST,__const) non-external __ZTIN12_GLOBAL__N_116itanium_demangle8CastExprE
0000000182c2b188 (__AUTH_CONST,__const) non-external __ZTIN12_GLOBAL__N_116itanium_demangle8DtorNameE
0000000182c2aaf8 (__AUTH_CONST,__const) non-external __ZTIN12_GLOBAL__N_116itanium_demangle8FoldExprE
0000000182c29cf8 (__AUTH_CONST,__const) non-external __ZTIN12_GLOBAL__N_116itanium_demangle8NameTypeE
0000000182c2bd58 (__AUTH_CONST,__const) non-external __ZTIN12_GLOBAL__N_116itanium_demangle8QualTypeE
0000000182c2c068 (__AUTH_CONST,__const) non-external __ZTIN12_GLOBAL__N_116itanium_demangle9ArrayTypeE
0000000182c2bab8 (__AUTH_CONST,__const) non-external __ZTIN12_GLOBAL__N_116itanium_demangle9DotSuffixE
0000000182c2b6c8 (__AUTH_CONST,__const) non-external __ZTIN12_GLOBAL__N_116itanium_demangle9LocalNameE
0000000182c2b0a8 (__AUTH_CONST,__const) non-external __ZTIN12_GLOBAL__N_116itanium_demangle9ThrowExprE
0000000182c2cc88 (__AUTH_CONST,__const) external __ZTIPDh
0000000182c2ceb8 (__AUTH_CONST,__const) external __ZTIPDi
0000000182c2c788 (__AUTH_CONST,__const) external __ZTIPDn
0000000182c2ce68 (__AUTH_CONST,__const) external __ZTIPDs
0000000182c2ce18 (__AUTH_CONST,__const) external __ZTIPDu
0000000182c2cca8 (__AUTH_CONST,__const) external __ZTIPKDh
0000000182c2ced8 (__AUTH_CONST,__const) external __ZTIPKDi
0000000182c2c7a8 (__AUTH_CONST,__const) external __ZTIPKDn
0000000182c2ce88 (__AUTH_CONST,__const) external __ZTIPKDs
0000000182c2ce38 (__AUTH_CONST,__const) external __ZTIPKDu
0000000182c2c938 (__AUTH_CONST,__const) external __ZTIPKa
0000000182c2c7f8 (__AUTH_CONST,__const) external __ZTIPKb
0000000182c2c898 (__AUTH_CONST,__const) external __ZTIPKc
0000000182c2cd48 (__AUTH_CONST,__const) external __ZTIPKd
0000000182c2cd98 (__AUTH_CONST,__const) external __ZTIPKe
0000000182c2ccf8 (__AUTH_CONST,__const) external __ZTIPKf
0000000182c2cde8 (__AUTH_CONST,__const) external __ZTIPKg
0000000182c2c8e8 (__AUTH_CONST,__const) external __ZTIPKh
0000000182c2ca28 (__AUTH_CONST,__const) external __ZTIPKi
0000000182c2ca78 (__AUTH_CONST,__const) external __ZTIPKj
0000000182c2cac8 (__AUTH_CONST,__const) external __ZTIPKl
0000000182c2cb18 (__AUTH_CONST,__const) external __ZTIPKm
0000000182c2cc08 (__AUTH_CONST,__const) external __ZTIPKn
0000000182c2cc58 (__AUTH_CONST,__const) external __ZTIPKo
0000000182c2c988 (__AUTH_CONST,__const) external __ZTIPKs
0000000182c2c9d8 (__AUTH_CONST,__const) external __ZTIPKt
0000000182c2c758 (__AUTH_CONST,__const) external __ZTIPKv
0000000182c2c848 (__AUTH_CONST,__const) external __ZTIPKw
0000000182c2cb68 (__AUTH_CONST,__const) external __ZTIPKx
0000000182c2cbb8 (__AUTH_CONST,__const) external __ZTIPKy
0000000182c2c918 (__AUTH_CONST,__const) external __ZTIPa
0000000182c2c7d8 (__AUTH_CONST,__const) external __ZTIPb
0000000182c2c878 (__AUTH_CONST,__const) external __ZTIPc
0000000182c2cd28 (__AUTH_CONST,__const) external __ZTIPd
0000000182c2cd78 (__AUTH_CONST,__const) external __ZTIPe
0000000182c2ccd8 (__AUTH_CONST,__const) external __ZTIPf
0000000182c2cdc8 (__AUTH_CONST,__const) external __ZTIPg
0000000182c2c8c8 (__AUTH_CONST,__const) external __ZTIPh
0000000182c2ca08 (__AUTH_CONST,__const) external __ZTIPi
0000000182c2ca58 (__AUTH_CONST,__const) external __ZTIPj
0000000182c2caa8 (__AUTH_CONST,__const) external __ZTIPl
0000000182c2caf8 (__AUTH_CONST,__const) external __ZTIPm
0000000182c2cbe8 (__AUTH_CONST,__const) external __ZTIPn
0000000182c2cc38 (__AUTH_CONST,__const) external __ZTIPo
0000000182c2c968 (__AUTH_CONST,__const) external __ZTIPs
0000000182c2c9b8 (__AUTH_CONST,__const) external __ZTIPt
0000000182c2c738 (__AUTH_CONST,__const) external __ZTIPv
0000000182c2c828 (__AUTH_CONST,__const) external __ZTIPw
0000000182c2cb48 (__AUTH_CONST,__const) external __ZTIPx
0000000182c2cb98 (__AUTH_CONST,__const) external __ZTIPy
0000000182c2c610 (__AUTH_CONST,__const) external __ZTISt10bad_typeid
0000000182c2c3b0 (__AUTH_CONST,__const) external __ZTISt11logic_error
0000000182c2c4e0 (__AUTH_CONST,__const) weak external __ZTISt11range_error
0000000182c2c3c8 (__AUTH_CONST,__const) weak external __ZTISt12domain_error
0000000182c2c448 (__AUTH_CONST,__const) weak external __ZTISt12length_error
0000000182c2c488 (__AUTH_CONST,__const) weak external __ZTISt12out_of_range
0000000182c2c2f0 (__AUTH_CONST,__const) external __ZTISt13bad_exception
0000000182c2c4c8 (__AUTH_CONST,__const) external __ZTISt13runtime_error
0000000182c2c520 (__AUTH_CONST,__const) weak external __ZTISt14overflow_error
0000000182c2c560 (__AUTH_CONST,__const) weak external __ZTISt15underflow_error
0000000182c2c408 (__AUTH_CONST,__const) weak external __ZTISt16invalid_argument
0000000182c2c320 (__AUTH_CONST,__const) external __ZTISt20bad_array_new_length
0000000182c2c5f8 (__AUTH_CONST,__const) external __ZTISt8bad_cast
0000000182c2c308 (__AUTH_CONST,__const) external __ZTISt9bad_alloc
0000000182c2c2b8 (__AUTH_CONST,__const) external __ZTISt9exception
0000000182c2c5e8 (__AUTH_CONST,__const) external __ZTISt9type_info
0000000182c2c908 (__AUTH_CONST,__const) external __ZTIa
0000000182c2c7c8 (__AUTH_CONST,__const) external __ZTIb
0000000182c2c868 (__AUTH_CONST,__const) external __ZTIc
0000000182c2cd18 (__AUTH_CONST,__const) external __ZTId
0000000182c2cd68 (__AUTH_CONST,__const) external __ZTIe
0000000182c2ccc8 (__AUTH_CONST,__const) external __ZTIf
0000000182c2cdb8 (__AUTH_CONST,__const) external __ZTIg
0000000182c2c8b8 (__AUTH_CONST,__const) external __ZTIh
0000000182c2c9f8 (__AUTH_CONST,__const) external __ZTIi
0000000182c2ca48 (__AUTH_CONST,__const) external __ZTIj
0000000182c2ca98 (__AUTH_CONST,__const) external __ZTIl
0000000182c2cae8 (__AUTH_CONST,__const) external __ZTIm
0000000182c2cbd8 (__AUTH_CONST,__const) external __ZTIn
0000000182c2cc28 (__AUTH_CONST,__const) external __ZTIo
0000000182c2c958 (__AUTH_CONST,__const) external __ZTIs
0000000182c2c9a8 (__AUTH_CONST,__const) external __ZTIt
0000000182c2c728 (__AUTH_CONST,__const) external __ZTIv
0000000182c2c818 (__AUTH_CONST,__const) external __ZTIw
0000000182c2cb38 (__AUTH_CONST,__const) external __ZTIx
0000000182c2cb88 (__AUTH_CONST,__const) external __ZTIy
000000018059eeb4 (__TEXT,__const) external __ZTSDh
000000018059eefc (__TEXT,__const) external __ZTSDi
000000018059ee21 (__TEXT,__const) external __ZTSDn
000000018059eef0 (__TEXT,__const) external __ZTSDs
000000018059eee4 (__TEXT,__const) external __ZTSDu
000000018059ef2a (__TEXT,__const) external __ZTSN10__cxxabiv116__enum_type_infoE
000000018059ed18 (__TEXT,__const) external __ZTSN10__cxxabiv116__shim_type_infoE
000000018059ef08 (__TEXT,__const) external __ZTSN10__cxxabiv117__array_type_infoE
000000018059ef4b (__TEXT,__const) external __ZTSN10__cxxabiv117__class_type_infoE
000000018059ed39 (__TEXT,__const) external __ZTSN10__cxxabiv117__pbase_type_infoE
000000018059ed80 (__TEXT,__const) external __ZTSN10__cxxabiv119__pointer_type_infoE
000000018059ed5b (__TEXT,__const) external __ZTSN10__cxxabiv120__function_type_infoE
000000018059ef6d (__TEXT,__const) external __ZTSN10__cxxabiv120__si_class_type_infoE
000000018059ef92 (__TEXT,__const) external __ZTSN10__cxxabiv121__vmi_class_type_infoE
000000018059edf0 (__TEXT,__const) external __ZTSN10__cxxabiv123__fundamental_type_infoE
000000018059eda4 (__TEXT,__const) external __ZTSN10__cxxabiv129__pointer_to_member_type_infoE
000000018059e530 (__TEXT,__const) non-external __ZTSN12_GLOBAL__N_116itanium_demangle10AbiTagAttrE
000000018059dafa (__TEXT,__const) non-external __ZTSN12_GLOBAL__N_116itanium_demangle10BinaryExprE
000000018059ea06 (__TEXT,__const) non-external __ZTSN12_GLOBAL__N_116itanium_demangle10BitIntTypeE
000000018059e145 (__TEXT,__const) non-external __ZTSN12_GLOBAL__N_116itanium_demangle10BracedExprE
000000018059dc19 (__TEXT,__const) non-external __ZTSN12_GLOBAL__N_116itanium_demangle10DeleteExprE
000000018059e04d (__TEXT,__const) non-external __ZTSN12_GLOBAL__N_116itanium_demangle10LambdaExprE
000000018059dbbf (__TEXT,__const) non-external __ZTSN12_GLOBAL__N_116itanium_demangle10MemberExprE
000000018059da8e (__TEXT,__const) non-external __ZTSN12_GLOBAL__N_116itanium_demangle10ModuleNameE
000000018059e634 (__TEXT,__const) non-external __ZTSN12_GLOBAL__N_116itanium_demangle10NestedNameE
000000018059db29 (__TEXT,__const) non-external __ZTSN12_GLOBAL__N_116itanium_demangle10PrefixExprE
000000018059eaa2 (__TEXT,__const) non-external __ZTSN12_GLOBAL__N_116itanium_demangle10VectorTypeE
000000018059e07c (__TEXT,__const) non-external __ZTSN12_GLOBAL__N_116itanium_demangle11EnumLiteralE
000000018059eb71 (__TEXT,__const) non-external __ZTSN12_GLOBAL__N_116itanium_demangle11PointerTypeE
000000018059db58 (__TEXT,__const) non-external __ZTSN12_GLOBAL__N_116itanium_demangle11PostfixExprE
000000018059d9d0 (__TEXT,__const) non-external __ZTSN12_GLOBAL__N_116itanium_demangle11SpecialNameE
000000018059e9d5 (__TEXT,__const) non-external __ZTSN12_GLOBAL__N_116itanium_demangle12BinaryFPTypeE
000000018059e599 (__TEXT,__const) non-external __ZTSN12_GLOBAL__N_116itanium_demangle12CtorDtorNameE
000000018059e7a3 (__TEXT,__const) non-external __ZTSN12_GLOBAL__N_116itanium_demangle12EnableIfAttrE
000000018059e8dc (__TEXT,__const) non-external __ZTSN12_GLOBAL__N_116itanium_demangle12FunctionTypeE
000000018059e1a8 (__TEXT,__const) non-external __ZTSN12_GLOBAL__N_116itanium_demangle12InitListExprE
000000018059e5ca (__TEXT,__const) non-external __ZTSN12_GLOBAL__N_116itanium_demangle12ModuleEntityE
000000018059e872 (__TEXT,__const) non-external __ZTSN12_GLOBAL__N_116itanium_demangle12NoexceptSpecE
000000018059e2b9 (__TEXT,__const) non-external __ZTSN12_GLOBAL__N_116itanium_demangle12RequiresExprE
000000018059e6c2 (__TEXT,__const) non-external __ZTSN12_GLOBAL__N_116itanium_demangle12TemplateArgsE
000000018059dd07 (__TEXT,__const) non-external __ZTSN12_GLOBAL__N_116itanium_demangle13EnclosingExprE
000000018059e0ac (__TEXT,__const) non-external __ZTSN12_GLOBAL__N_116itanium_demangle13FunctionParamE
000000018059e354 (__TEXT,__const) non-external __ZTSN12_GLOBAL__N_116itanium_demangle13NodeArrayNodeE
000000018059e90d (__TEXT,__const) non-external __ZTSN12_GLOBAL__N_116itanium_demangle13ObjCProtoNameE
000000018059e690 (__TEXT,__const) non-external __ZTSN12_GLOBAL__N_116itanium_demangle13ParameterPackE
000000018059e3b3 (__TEXT,__const) non-external __ZTSN12_GLOBAL__N_116itanium_demangle13QualifiedNameE
000000018059eba1 (__TEXT,__const) non-external __ZTSN12_GLOBAL__N_116itanium_demangle13ReferenceTypeE
000000018059de40 (__TEXT,__const) non-external __ZTSN12_GLOBAL__N_116itanium_demangle13StringLiteralE
000000018059e2ea (__TEXT,__const) non-external __ZTSN12_GLOBAL__N_116itanium_demangle13SubobjectExprE
000000018059dc74 (__TEXT,__const) non-external __ZTSN12_GLOBAL__N_116itanium_demangle14ConversionExprE
000000018059dd39 (__TEXT,__const) non-external __ZTSN12_GLOBAL__N_116itanium_demangle14IntegerLiteralE
000000018059e174 (__TEXT,__const) non-external __ZTSN12_GLOBAL__N_116itanium_demangle15BracedRangeExprE
000000018059e019 (__TEXT,__const) non-external __ZTSN12_GLOBAL__N_116itanium_demangle15ClosureTypeNameE
000000018059dca7 (__TEXT,__const) non-external __ZTSN12_GLOBAL__N_116itanium_demangle15ConditionalExprE
000000018059e21b (__TEXT,__const) non-external __ZTSN12_GLOBAL__N_116itanium_demangle15ExprRequirementE
000000018059e44c (__TEXT,__const) non-external __ZTSN12_GLOBAL__N_116itanium_demangle15LiteralOperatorE
000000018059ea6e (__TEXT,__const) non-external __ZTSN12_GLOBAL__N_116itanium_demangle15PixelVectorTypeE
000000018059e9a1 (__TEXT,__const) non-external __ZTSN12_GLOBAL__N_116itanium_demangle15TransformedTypeE
000000018059e24f (__TEXT,__const) non-external __ZTSN12_GLOBAL__N_116itanium_demangle15TypeRequirementE
000000018059de72 (__TEXT,__const) non-external __ZTSN12_GLOBAL__N_116itanium_demangle15UnnamedTypeNameE
000000018059ddd0 (__TEXT,__const) non-external __ZTSN12_GLOBAL__N_116itanium_demangle16FloatLiteralImplIdEE
000000018059de08 (__TEXT,__const) non-external __ZTSN12_GLOBAL__N_116itanium_demangle16FloatLiteralImplIeEE
000000018059dd98 (__TEXT,__const) non-external __ZTSN12_GLOBAL__N_116itanium_demangle16FloatLiteralImplIfEE
000000018059e810 (__TEXT,__const) non-external __ZTSN12_GLOBAL__N_116itanium_demangle16FunctionEncodingE
000000018059e283 (__TEXT,__const) non-external __ZTSN12_GLOBAL__N_116itanium_demangle17NestedRequirementE
000000018059e93f (__TEXT,__const) non-external __ZTSN12_GLOBAL__N_116itanium_demangle17VendorExtQualTypeE
000000018059db88 (__TEXT,__const) non-external __ZTSN12_GLOBAL__N_116itanium_demangle18ArraySubscriptExprE
000000018059e480 (__TEXT,__const) non-external __ZTSN12_GLOBAL__N_116itanium_demangle19GlobalQualifiedNameE
000000018059eafe (__TEXT,__const) non-external __ZTSN12_GLOBAL__N_116itanium_demangle19PointerToMemberTypeE
000000018059e31c (__TEXT,__const) non-external __ZTSN12_GLOBAL__N_116itanium_demangle19SizeofParamPackExprE
000000018059e4b8 (__TEXT,__const) non-external __ZTSN12_GLOBAL__N_116itanium_demangle19SpecialSubstitutionE
000000018059e8a3 (__TEXT,__const) non-external __ZTSN12_GLOBAL__N_116itanium_demangle20DynamicExceptionSpecE
000000018059e5fb (__TEXT,__const) non-external __ZTSN12_GLOBAL__N_116itanium_demangle20MemberLikeFriendNameE
000000018059e6f3 (__TEXT,__const) non-external __ZTSN12_GLOBAL__N_116itanium_demangle20NameWithTemplateArgsE
000000018059ea35 (__TEXT,__const) non-external __ZTSN12_GLOBAL__N_116itanium_demangle20PostfixQualifiedTypeE
000000018059e72c (__TEXT,__const) non-external __ZTSN12_GLOBAL__N_116itanium_demangle20TemplateArgumentPackE
000000018059da28 (__TEXT,__const) non-external __ZTSN12_GLOBAL__N_116itanium_demangle21CtorVtableSpecialNameE
000000018059e55f (__TEXT,__const) non-external __ZTSN12_GLOBAL__N_116itanium_demangle21StructuredBindingNameE
000000018059dfdf (__TEXT,__const) non-external __ZTSN12_GLOBAL__N_116itanium_demangle21TemplateParamPackDeclE
000000018059dee5 (__TEXT,__const) non-external __ZTSN12_GLOBAL__N_116itanium_demangle21TypeTemplateParamDeclE
000000018059e411 (__TEXT,__const) non-external __ZTSN12_GLOBAL__N_116itanium_demangle22ConversionOperatorTypeE
000000018059eb36 (__TEXT,__const) non-external __ZTSN12_GLOBAL__N_116itanium_demangle22ElaboratedTypeSpefTypeE
000000018059e10a (__TEXT,__const) non-external __ZTSN12_GLOBAL__N_116itanium_demangle22ParameterPackExpansionE
000000018059e7d4 (__TEXT,__const) non-external __ZTSN12_GLOBAL__N_116itanium_demangle23ExplicitObjectParameterE
000000018059dabd (__TEXT,__const) non-external __ZTSN12_GLOBAL__N_116itanium_demangle24ForwardTemplateReferenceE
000000018059df64 (__TEXT,__const) non-external __ZTSN12_GLOBAL__N_116itanium_demangle24NonTypeTemplateParamDeclE
000000018059e765 (__TEXT,__const) non-external __ZTSN12_GLOBAL__N_116itanium_demangle25TemplateParamQualifiedArgE
000000018059dfa1 (__TEXT,__const) non-external __ZTSN12_GLOBAL__N_116itanium_demangle25TemplateTemplateParamDeclE
000000018059dea6 (__TEXT,__const) non-external __ZTSN12_GLOBAL__N_116itanium_demangle26SyntheticTemplateParamNameE
000000018059e4f0 (__TEXT,__const) non-external __ZTSN12_GLOBAL__N_116itanium_demangle27ExpandedSpecialSubstitutionE
000000018059e1d9 (__TEXT,__const) non-external __ZTSN12_GLOBAL__N_116itanium_demangle29PointerToMemberConversionExprE
000000018059df1f (__TEXT,__const) non-external __ZTSN12_GLOBAL__N_116itanium_demangle32ConstrainedTypeTemplateParamDeclE
000000018059da00 (__TEXT,__const) non-external __ZTSN12_GLOBAL__N_116itanium_demangle4NodeE
000000018059dbee (__TEXT,__const) non-external __ZTSN12_GLOBAL__N_116itanium_demangle7NewExprE
000000018059dd6c (__TEXT,__const) non-external __ZTSN12_GLOBAL__N_116itanium_demangle8BoolExprE
000000018059dc48 (__TEXT,__const) non-external __ZTSN12_GLOBAL__N_116itanium_demangle8CallExprE
000000018059dcdb (__TEXT,__const) non-external __ZTSN12_GLOBAL__N_116itanium_demangle8CastExprE
000000018059e3e5 (__TEXT,__const) non-external __ZTSN12_GLOBAL__N_116itanium_demangle8DtorNameE
000000018059e0de (__TEXT,__const) non-external __ZTSN12_GLOBAL__N_116itanium_demangle8FoldExprE
000000018059da62 (__TEXT,__const) non-external __ZTSN12_GLOBAL__N_116itanium_demangle8NameTypeE
000000018059e975 (__TEXT,__const) non-external __ZTSN12_GLOBAL__N_116itanium_demangle8QualTypeE
000000018059ead1 (__TEXT,__const) non-external __ZTSN12_GLOBAL__N_116itanium_demangle9ArrayTypeE
000000018059e845 (__TEXT,__const) non-external __ZTSN12_GLOBAL__N_116itanium_demangle9DotSuffixE
000000018059e663 (__TEXT,__const) non-external __ZTSN12_GLOBAL__N_116itanium_demangle9LocalNameE
000000018059e386 (__TEXT,__const) non-external __ZTSN12_GLOBAL__N_116itanium_demangle9ThrowExprE
000000018059eeb7 (__TEXT,__const) external __ZTSPDh
000000018059eeff (__TEXT,__const) external __ZTSPDi
000000018059ee24 (__TEXT,__const) external __ZTSPDn
000000018059eef3 (__TEXT,__const) external __ZTSPDs
000000018059eee7 (__TEXT,__const) external __ZTSPDu
000000018059eebb (__TEXT,__const) external __ZTSPKDh
000000018059ef03 (__TEXT,__const) external __ZTSPKDi
000000018059ee28 (__TEXT,__const) external __ZTSPKDn
000000018059eef7 (__TEXT,__const) external __ZTSPKDs
000000018059eeeb (__TEXT,__const) external __ZTSPKDu
000000018059ee56 (__TEXT,__const) external __ZTSPKa
000000018059ee32 (__TEXT,__const) external __ZTSPKb
000000018059ee44 (__TEXT,__const) external __ZTSPKc
000000018059eece (__TEXT,__const) external __ZTSPKd
000000018059eed7 (__TEXT,__const) external __ZTSPKe
000000018059eec5 (__TEXT,__const) external __ZTSPKf
000000018059eee0 (__TEXT,__const) external __ZTSPKg
000000018059ee4d (__TEXT,__const) external __ZTSPKh
000000018059ee71 (__TEXT,__const) external __ZTSPKi
000000018059ee7a (__TEXT,__const) external __ZTSPKj
000000018059ee83 (__TEXT,__const) external __ZTSPKl
000000018059ee8c (__TEXT,__const) external __ZTSPKm
000000018059eea7 (__TEXT,__const) external __ZTSPKn
000000018059eeb0 (__TEXT,__const) external __ZTSPKo
000000018059ee5f (__TEXT,__const) external __ZTSPKs
000000018059ee68 (__TEXT,__const) external __ZTSPKt
000000018059ee1d (__TEXT,__const) external __ZTSPKv
000000018059ee3b (__TEXT,__const) external __ZTSPKw
000000018059ee95 (__TEXT,__const) external __ZTSPKx
000000018059ee9e (__TEXT,__const) external __ZTSPKy
000000018059ee53 (__TEXT,__const) external __ZTSPa
000000018059ee2f (__TEXT,__const) external __ZTSPb
000000018059ee41 (__TEXT,__const) external __ZTSPc
000000018059eecb (__TEXT,__const) external __ZTSPd
000000018059eed4 (__TEXT,__const) external __ZTSPe
000000018059eec2 (__TEXT,__const) external __ZTSPf
000000018059eedd (__TEXT,__const) external __ZTSPg
000000018059ee4a (__TEXT,__const) external __ZTSPh
000000018059ee6e (__TEXT,__const) external __ZTSPi
000000018059ee77 (__TEXT,__const) external __ZTSPj
000000018059ee80 (__TEXT,__const) external __ZTSPl
000000018059ee89 (__TEXT,__const) external __ZTSPm
000000018059eea4 (__TEXT,__const) external __ZTSPn
000000018059eead (__TEXT,__const) external __ZTSPo
000000018059ee5c (__TEXT,__const) external __ZTSPs
000000018059ee65 (__TEXT,__const) external __ZTSPt
000000018059ee1a (__TEXT,__const) external __ZTSPv
000000018059ee38 (__TEXT,__const) external __ZTSPw
000000018059ee92 (__TEXT,__const) external __ZTSPx
000000018059ee9b (__TEXT,__const) external __ZTSPy
000000018059ed07 (__TEXT,__const) external __ZTSSt10bad_typeid
000000018059ec5e (__TEXT,__const) external __ZTSSt11logic_error
000000018059eca5 (__TEXT,__const) external __ZTSSt11range_error
000000018059ec4d (__TEXT,__const) external __ZTSSt12domain_error
000000018059ec83 (__TEXT,__const) external __ZTSSt12length_error
000000018059ec94 (__TEXT,__const) external __ZTSSt12out_of_range
000000018059ec15 (__TEXT,__const) external __ZTSSt13bad_exception
000000018059ecb5 (__TEXT,__const) external __ZTSSt13runtime_error
000000018059ecc7 (__TEXT,__const) external __ZTSSt14overflow_error
000000018059ecda (__TEXT,__const) external __ZTSSt15underflow_error
000000018059ec6e (__TEXT,__const) external __ZTSSt16invalid_argument
000000018059ec34 (__TEXT,__const) external __ZTSSt20bad_array_new_length
000000018059ecfb (__TEXT,__const) external __ZTSSt8bad_cast
000000018059ec27 (__TEXT,__const) external __ZTSSt9bad_alloc
000000018059ec08 (__TEXT,__const) external __ZTSSt9exception
000000018059ecee (__TEXT,__const) external __ZTSSt9type_info
000000018059ee51 (__TEXT,__const) external __ZTSa
000000018059ee2d (__TEXT,__const) external __ZTSb
000000018059ee3f (__TEXT,__const) external __ZTSc
000000018059eec9 (__TEXT,__const) external __ZTSd
000000018059eed2 (__TEXT,__const) external __ZTSe
000000018059eec0 (__TEXT,__const) external __ZTSf
000000018059eedb (__TEXT,__const) external __ZTSg
000000018059ee48 (__TEXT,__const) external __ZTSh
000000018059ee6c (__TEXT,__const) external __ZTSi
000000018059ee75 (__TEXT,__const) external __ZTSj
000000018059ee7e (__TEXT,__const) external __ZTSl
000000018059ee87 (__TEXT,__const) external __ZTSm
000000018059eea2 (__TEXT,__const) external __ZTSn
000000018059eeab (__TEXT,__const) external __ZTSo
000000018059ee5a (__TEXT,__const) external __ZTSs
000000018059ee63 (__TEXT,__const) external __ZTSt
000000018059ee18 (__TEXT,__const) external __ZTSv
000000018059ee36 (__TEXT,__const) external __ZTSw
000000018059ee90 (__TEXT,__const) external __ZTSx
000000018059ee99 (__TEXT,__const) external __ZTSy
0000000182c2cf80 (__AUTH_CONST,__const) external __ZTVN10__cxxabiv116__enum_type_infoE
0000000182c2c6a0 (__AUTH_CONST,__const) external __ZTVN10__cxxabiv116__shim_type_infoE
0000000182c2cef8 (__AUTH_CONST,__const) external __ZTVN10__cxxabiv117__array_type_infoE
0000000182c2cfd0 (__AUTH_CONST,__const) external __ZTVN10__cxxabiv117__class_type_infoE
0000000182c2d108 (__AUTH_CONST,__const) external __ZTVN10__cxxabiv117__pbase_type_infoE
0000000182c2d140 (__AUTH_CONST,__const) external __ZTVN10__cxxabiv119__pointer_type_infoE
0000000182c2cf48 (__AUTH_CONST,__const) external __ZTVN10__cxxabiv120__function_type_infoE
0000000182c2d038 (__AUTH_CONST,__const) external __ZTVN10__cxxabiv120__si_class_type_infoE
0000000182c2d0a0 (__AUTH_CONST,__const) external __ZTVN10__cxxabiv121__vmi_class_type_infoE
0000000182c2c6d8 (__AUTH_CONST,__const) external __ZTVN10__cxxabiv123__fundamental_type_infoE
0000000182c2d178 (__AUTH_CONST,__const) external __ZTVN10__cxxabiv129__pointer_to_member_type_infoE
0000000182c2b3d0 (__AUTH_CONST,__const) non-external __ZTVN12_GLOBAL__N_116itanium_demangle10AbiTagAttrE
0000000182c29df0 (__AUTH_CONST,__const) non-external __ZTVN12_GLOBAL__N_116itanium_demangle10BinaryExprE
0000000182c2be50 (__AUTH_CONST,__const) non-external __ZTVN12_GLOBAL__N_116itanium_demangle10BitIntTypeE
0000000182c2ab80 (__AUTH_CONST,__const) non-external __ZTVN12_GLOBAL__N_116itanium_demangle10BracedExprE
0000000182c2a090 (__AUTH_CONST,__const) non-external __ZTVN12_GLOBAL__N_116itanium_demangle10DeleteExprE
0000000182c2a950 (__AUTH_CONST,__const) non-external __ZTVN12_GLOBAL__N_116itanium_demangle10LambdaExprE
0000000182c29fb0 (__AUTH_CONST,__const) non-external __ZTVN12_GLOBAL__N_116itanium_demangle10MemberExprE
0000000182c29d10 (__AUTH_CONST,__const) non-external __ZTVN12_GLOBAL__N_116itanium_demangle10ModuleNameE
0000000182c2b600 (__AUTH_CONST,__const) non-external __ZTVN12_GLOBAL__N_116itanium_demangle10NestedNameE
0000000182c29e60 (__AUTH_CONST,__const) non-external __ZTVN12_GLOBAL__N_116itanium_demangle10PrefixExprE
0000000182c2bfa0 (__AUTH_CONST,__const) non-external __ZTVN12_GLOBAL__N_116itanium_demangle10VectorTypeE
0000000182c2a9c0 (__AUTH_CONST,__const) non-external __ZTVN12_GLOBAL__N_116itanium_demangle11EnumLiteralE
0000000182c2c160 (__AUTH_CONST,__const) non-external __ZTVN12_GLOBAL__N_116itanium_demangle11PointerTypeE
0000000182c29ed0 (__AUTH_CONST,__const) non-external __ZTVN12_GLOBAL__N_116itanium_demangle11PostfixExprE
0000000182c29bb0 (__AUTH_CONST,__const) non-external __ZTVN12_GLOBAL__N_116itanium_demangle11SpecialNameE
0000000182c2bde0 (__AUTH_CONST,__const) non-external __ZTVN12_GLOBAL__N_116itanium_demangle12BinaryFPTypeE
0000000182c2b4b0 (__AUTH_CONST,__const) non-external __ZTVN12_GLOBAL__N_116itanium_demangle12CtorDtorNameE
0000000182c2b910 (__AUTH_CONST,__const) non-external __ZTVN12_GLOBAL__N_116itanium_demangle12EnableIfAttrE
0000000182c2bbb0 (__AUTH_CONST,__const) non-external __ZTVN12_GLOBAL__N_116itanium_demangle12FunctionTypeE
0000000182c2ac60 (__AUTH_CONST,__const) non-external __ZTVN12_GLOBAL__N_116itanium_demangle12InitListExprE
0000000182c2b520 (__AUTH_CONST,__const) non-external __ZTVN12_GLOBAL__N_116itanium_demangle12ModuleEntityE
0000000182c2bad0 (__AUTH_CONST,__const) non-external __ZTVN12_GLOBAL__N_116itanium_demangle12NoexceptSpecE
0000000182c2ae90 (__AUTH_CONST,__const) non-external __ZTVN12_GLOBAL__N_116itanium_demangle12RequiresExprE
0000000182c2b750 (__AUTH_CONST,__const) non-external __ZTVN12_GLOBAL__N_116itanium_demangle12TemplateArgsE
0000000182c2a2c0 (__AUTH_CONST,__const) non-external __ZTVN12_GLOBAL__N_116itanium_demangle13EnclosingExprE
0000000182c2aa30 (__AUTH_CONST,__const) non-external __ZTVN12_GLOBAL__N_116itanium_demangle13FunctionParamE
0000000182c2afe0 (__AUTH_CONST,__const) non-external __ZTVN12_GLOBAL__N_116itanium_demangle13NodeArrayNodeE
0000000182c2bc20 (__AUTH_CONST,__const) non-external __ZTVN12_GLOBAL__N_116itanium_demangle13ObjCProtoNameE
0000000182c2b6e0 (__AUTH_CONST,__const) non-external __ZTVN12_GLOBAL__N_116itanium_demangle13ParameterPackE
0000000182c2b0c0 (__AUTH_CONST,__const) non-external __ZTVN12_GLOBAL__N_116itanium_demangle13QualifiedNameE
0000000182c2c1d0 (__AUTH_CONST,__const) non-external __ZTVN12_GLOBAL__N_116itanium_demangle13ReferenceTypeE
0000000182c2a560 (__AUTH_CONST,__const) non-external __ZTVN12_GLOBAL__N_116itanium_demangle13StringLiteralE
0000000182c2af00 (__AUTH_CONST,__const) non-external __ZTVN12_GLOBAL__N_116itanium_demangle13SubobjectExprE
0000000182c2a170 (__AUTH_CONST,__const) non-external __ZTVN12_GLOBAL__N_116itanium_demangle14ConversionExprE
0000000182c2a330 (__AUTH_CONST,__const) non-external __ZTVN12_GLOBAL__N_116itanium_demangle14IntegerLiteralE
0000000182c2abf0 (__AUTH_CONST,__const) non-external __ZTVN12_GLOBAL__N_116itanium_demangle15BracedRangeExprE
0000000182c2a8e0 (__AUTH_CONST,__const) non-external __ZTVN12_GLOBAL__N_116itanium_demangle15ClosureTypeNameE
0000000182c2a1e0 (__AUTH_CONST,__const) non-external __ZTVN12_GLOBAL__N_116itanium_demangle15ConditionalExprE
0000000182c2ad40 (__AUTH_CONST,__const) non-external __ZTVN12_GLOBAL__N_116itanium_demangle15ExprRequirementE
0000000182c2b210 (__AUTH_CONST,__const) non-external __ZTVN12_GLOBAL__N_116itanium_demangle15LiteralOperatorE
0000000182c2bf30 (__AUTH_CONST,__const) non-external __ZTVN12_GLOBAL__N_116itanium_demangle15PixelVectorTypeE
0000000182c2bd70 (__AUTH_CONST,__const) non-external __ZTVN12_GLOBAL__N_116itanium_demangle15TransformedTypeE
0000000182c2adb0 (__AUTH_CONST,__const) non-external __ZTVN12_GLOBAL__N_116itanium_demangle15TypeRequirementE
0000000182c2a5d0 (__AUTH_CONST,__const) non-external __ZTVN12_GLOBAL__N_116itanium_demangle15UnnamedTypeNameE
0000000182c2a480 (__AUTH_CONST,__const) non-external __ZTVN12_GLOBAL__N_116itanium_demangle16FloatLiteralImplIdEE
0000000182c2a4f0 (__AUTH_CONST,__const) non-external __ZTVN12_GLOBAL__N_116itanium_demangle16FloatLiteralImplIeEE
0000000182c2a410 (__AUTH_CONST,__const) non-external __ZTVN12_GLOBAL__N_116itanium_demangle16FloatLiteralImplIfEE
0000000182c2b9f0 (__AUTH_CONST,__const) non-external __ZTVN12_GLOBAL__N_116itanium_demangle16FunctionEncodingE
0000000182c2ae20 (__AUTH_CONST,__const) non-external __ZTVN12_GLOBAL__N_116itanium_demangle17NestedRequirementE
0000000182c2bc90 (__AUTH_CONST,__const) non-external __ZTVN12_GLOBAL__N_116itanium_demangle17VendorExtQualTypeE
0000000182c29f40 (__AUTH_CONST,__const) non-external __ZTVN12_GLOBAL__N_116itanium_demangle18ArraySubscriptExprE
0000000182c2b280 (__AUTH_CONST,__const) non-external __ZTVN12_GLOBAL__N_116itanium_demangle19GlobalQualifiedNameE
0000000182c2c080 (__AUTH_CONST,__const) non-external __ZTVN12_GLOBAL__N_116itanium_demangle19PointerToMemberTypeE
0000000182c2af70 (__AUTH_CONST,__const) non-external __ZTVN12_GLOBAL__N_116itanium_demangle19SizeofParamPackExprE
0000000182c2b2f0 (__AUTH_CONST,__const) non-external __ZTVN12_GLOBAL__N_116itanium_demangle19SpecialSubstitutionE
0000000182c2bb40 (__AUTH_CONST,__const) non-external __ZTVN12_GLOBAL__N_116itanium_demangle20DynamicExceptionSpecE
0000000182c2b590 (__AUTH_CONST,__const) non-external __ZTVN12_GLOBAL__N_116itanium_demangle20MemberLikeFriendNameE
0000000182c2b7c0 (__AUTH_CONST,__const) non-external __ZTVN12_GLOBAL__N_116itanium_demangle20NameWithTemplateArgsE
0000000182c2bec0 (__AUTH_CONST,__const) non-external __ZTVN12_GLOBAL__N_116itanium_demangle20PostfixQualifiedTypeE
0000000182c2b830 (__AUTH_CONST,__const) non-external __ZTVN12_GLOBAL__N_116itanium_demangle20TemplateArgumentPackE
0000000182c29c30 (__AUTH_CONST,__const) non-external __ZTVN12_GLOBAL__N_116itanium_demangle21CtorVtableSpecialNameE
0000000182c2b440 (__AUTH_CONST,__const) non-external __ZTVN12_GLOBAL__N_116itanium_demangle21StructuredBindingNameE
0000000182c2a870 (__AUTH_CONST,__const) non-external __ZTVN12_GLOBAL__N_116itanium_demangle21TemplateParamPackDeclE
0000000182c2a6b0 (__AUTH_CONST,__const) non-external __ZTVN12_GLOBAL__N_116itanium_demangle21TypeTemplateParamDeclE
0000000182c2b1a0 (__AUTH_CONST,__const) non-external __ZTVN12_GLOBAL__N_116itanium_demangle22ConversionOperatorTypeE
0000000182c2c0f0 (__AUTH_CONST,__const) non-external __ZTVN12_GLOBAL__N_116itanium_demangle22ElaboratedTypeSpefTypeE
0000000182c2ab10 (__AUTH_CONST,__const) non-external __ZTVN12_GLOBAL__N_116itanium_demangle22ParameterPackExpansionE
0000000182c2b980 (__AUTH_CONST,__const) non-external __ZTVN12_GLOBAL__N_116itanium_demangle23ExplicitObjectParameterE
0000000182c29d80 (__AUTH_CONST,__const) non-external __ZTVN12_GLOBAL__N_116itanium_demangle24ForwardTemplateReferenceE
0000000182c2a790 (__AUTH_CONST,__const) non-external __ZTVN12_GLOBAL__N_116itanium_demangle24NonTypeTemplateParamDeclE
0000000182c2b8a0 (__AUTH_CONST,__const) non-external __ZTVN12_GLOBAL__N_116itanium_demangle25TemplateParamQualifiedArgE
0000000182c2a800 (__AUTH_CONST,__const) non-external __ZTVN12_GLOBAL__N_116itanium_demangle25TemplateTemplateParamDeclE
0000000182c2a640 (__AUTH_CONST,__const) non-external __ZTVN12_GLOBAL__N_116itanium_demangle26SyntheticTemplateParamNameE
0000000182c2b378 (__AUTH_CONST,__const) non-external __ZTVN12_GLOBAL__N_116itanium_demangle27ExpandedSpecialSubstitutionE
0000000182c2acd0 (__AUTH_CONST,__const) non-external __ZTVN12_GLOBAL__N_116itanium_demangle29PointerToMemberConversionExprE
0000000182c2a720 (__AUTH_CONST,__const) non-external __ZTVN12_GLOBAL__N_116itanium_demangle32ConstrainedTypeTemplateParamDeclE
0000000182c2a020 (__AUTH_CONST,__const) non-external __ZTVN12_GLOBAL__N_116itanium_demangle7NewExprE
0000000182c2a3a0 (__AUTH_CONST,__const) non-external __ZTVN12_GLOBAL__N_116itanium_demangle8BoolExprE
0000000182c2a100 (__AUTH_CONST,__const) non-external __ZTVN12_GLOBAL__N_116itanium_demangle8CallExprE
0000000182c2a250 (__AUTH_CONST,__const) non-external __ZTVN12_GLOBAL__N_116itanium_demangle8CastExprE
0000000182c2b130 (__AUTH_CONST,__const) non-external __ZTVN12_GLOBAL__N_116itanium_demangle8DtorNameE
0000000182c2aaa0 (__AUTH_CONST,__const) non-external __ZTVN12_GLOBAL__N_116itanium_demangle8FoldExprE
0000000182c29ca0 (__AUTH_CONST,__const) non-external __ZTVN12_GLOBAL__N_116itanium_demangle8NameTypeE
0000000182c2bd00 (__AUTH_CONST,__const) non-external __ZTVN12_GLOBAL__N_116itanium_demangle8QualTypeE
0000000182c2c010 (__AUTH_CONST,__const) non-external __ZTVN12_GLOBAL__N_116itanium_demangle9ArrayTypeE
0000000182c2ba60 (__AUTH_CONST,__const) non-external __ZTVN12_GLOBAL__N_116itanium_demangle9DotSuffixE
0000000182c2b670 (__AUTH_CONST,__const) non-external __ZTVN12_GLOBAL__N_116itanium_demangle9LocalNameE
0000000182c2b050 (__AUTH_CONST,__const) non-external __ZTVN12_GLOBAL__N_116itanium_demangle9ThrowExprE
0000000182c2c5a0 (__AUTH_CONST,__const) external __ZTVSt10bad_typeid
0000000182c2c338 (__AUTH_CONST,__const) external __ZTVSt11logic_error
0000000182c2c4a0 (__AUTH_CONST,__const) external __ZTVSt11range_error
0000000182c2c388 (__AUTH_CONST,__const) external __ZTVSt12domain_error
0000000182c2c420 (__AUTH_CONST,__const) external __ZTVSt12length_error
0000000182c2c460 (__AUTH_CONST,__const) external __ZTVSt12out_of_range
0000000182c2c2c8 (__AUTH_CONST,__const) external __ZTVSt13bad_exception
0000000182c2c360 (__AUTH_CONST,__const) external __ZTVSt13runtime_error
0000000182c2c4f8 (__AUTH_CONST,__const) external __ZTVSt14overflow_error
0000000182c2c538 (__AUTH_CONST,__const) external __ZTVSt15underflow_error
0000000182c2c3e0 (__AUTH_CONST,__const) external __ZTVSt16invalid_argument
0000000182c2c268 (__AUTH_CONST,__const) external __ZTVSt20bad_array_new_length
0000000182c2c578 (__AUTH_CONST,__const) external __ZTVSt8bad_cast
0000000182c2c240 (__AUTH_CONST,__const) external __ZTVSt9bad_alloc
0000000182c2c290 (__AUTH_CONST,__const) external __ZTVSt9exception
0000000182c2c5c8 (__AUTH_CONST,__const) external __ZTVSt9type_info
000000018059edd8 (__TEXT,__const) non-external __ZZNK10__cxxabiv129__pointer_to_member_type_info9can_catchEPKNS_16__shim_type_infoERPvE12null_ptr_rep
000000018059ede8 (__TEXT,__const) non-external __ZZNK10__cxxabiv129__pointer_to_member_type_info9can_catchEPKNS_16__shim_type_infoERPvE12null_ptr_rep_0
000000018059bb10 (__TEXT,__text) non-external __ZZNK3$_0clEvENUlmRKSt9nothrow_tSt19__type_descriptor_tE0_8__invokeEmS2_S3_
000000018059bb68 (__TEXT,__text) non-external __ZZNK3$_0clEvENUlmRKSt9nothrow_tSt19__type_descriptor_tE1_8__invokeEmS2_S3_
000000018059bb6c (__TEXT,__text) non-external __ZZNK3$_0clEvENUlmRKSt9nothrow_tSt19__type_descriptor_tE2_8__invokeEmS2_S3_
000000018059bb0c (__TEXT,__text) non-external __ZZNK3$_0clEvENUlmRKSt9nothrow_tSt19__type_descriptor_tE_8__invokeEmS2_S3_
000000018059ba68 (__TEXT,__text) non-external __ZZNK3$_0clEvENUlmSt19__type_descriptor_tE0_8__invokeEmS0_
000000018059bae0 (__TEXT,__text) non-external __ZZNK3$_0clEvENUlmSt19__type_descriptor_tE1_8__invokeEmS0_
000000018059bae4 (__TEXT,__text) non-external __ZZNK3$_0clEvENUlmSt19__type_descriptor_tE2_8__invokeEmS0_
000000018059ba64 (__TEXT,__text) non-external __ZZNK3$_0clEvENUlmSt19__type_descriptor_tE_8__invokeEmS0_
000000018059b8c4 (__TEXT,__text) weak external __ZdaPv
000000018059b8c8 (__TEXT,__text) weak external __ZdaPvRKSt9nothrow_t
000000018059ba60 (__TEXT,__text) weak external __ZdaPvRKSt9nothrow_tSt19__type_descriptor_t
000000018059b9fc (__TEXT,__text) weak external __ZdaPvSt11align_val_t
000000018059ba00 (__TEXT,__text) weak external __ZdaPvSt11align_val_tRKSt9nothrow_t
000000018059ba54 (__TEXT,__text) weak external __ZdaPvSt19__type_descriptor_t
000000018059b8cc (__TEXT,__text) weak external __ZdaPvm
000000018059ba04 (__TEXT,__text) weak external __ZdaPvmSt11align_val_t
000000018059ba58 (__TEXT,__text) weak external __ZdaPvmSt19__type_descriptor_t
000000018059b8b8 (__TEXT,__text) weak external __ZdlPv
000000018059b8bc (__TEXT,__text) weak external __ZdlPvRKSt9nothrow_t
000000018059ba5c (__TEXT,__text) weak external __ZdlPvRKSt9nothrow_tSt19__type_descriptor_t
000000018059b9ec (__TEXT,__text) weak external __ZdlPvSt11align_val_t
000000018059b9f0 (__TEXT,__text) weak external __ZdlPvSt11align_val_tRKSt9nothrow_t
000000018059ba4c (__TEXT,__text) weak external __ZdlPvSt19__type_descriptor_t
000000018059b8c0 (__TEXT,__text) weak external __ZdlPvm
000000018059b9f4 (__TEXT,__text) weak external __ZdlPvmSt11align_val_t
000000018059ba50 (__TEXT,__text) weak external __ZdlPvmSt19__type_descriptor_t
000000018059bed0 (__TEXT,__lcxx_override) weak external __Znam
000000018059bed4 (__TEXT,__lcxx_override) weak external __ZnamRKSt9nothrow_t
000000018059ba3c (__TEXT,__text) weak external __ZnamRKSt9nothrow_tSt19__type_descriptor_t
000000018059bf50 (__TEXT,__lcxx_override) weak external __ZnamSt11align_val_t
000000018059b998 (__TEXT,__text) weak external __ZnamSt11align_val_tRKSt9nothrow_t
000000018059ba1c (__TEXT,__text) weak external __ZnamSt19__type_descriptor_t
000000018059be54 (__TEXT,__lcxx_override) weak external __Znwm
000000018059be7c (__TEXT,__lcxx_override) weak external __ZnwmRKSt9nothrow_t
000000018059ba2c (__TEXT,__text) weak external __ZnwmRKSt9nothrow_tSt19__type_descriptor_t
000000018059bf28 (__TEXT,__lcxx_override) weak external __ZnwmSt11align_val_t
000000018059b944 (__TEXT,__text) weak external __ZnwmSt11align_val_tRKSt9nothrow_t
000000018059ba0c (__TEXT,__text) weak external __ZnwmSt19__type_descriptor_t
0000000180588988 (__TEXT,__text) non-external (was a private external) ___cxa_atexit
0000000180588958 (__TEXT,__text) external ___cxa_bad_cast
0000000180588968 (__TEXT,__text) external ___cxa_bad_typeid
000000018059bdb0 (__TEXT,__text) external ___cxa_current_primary_exception
000000018059bd98 (__TEXT,__text) external ___cxa_decrement_exception_refcount
0000000180599380 (__TEXT,__text) external ___cxa_deleted_virtual
0000000180588a1c (__TEXT,__text) external ___cxa_demangle
0000000180598e38 (__TEXT,__text) external ___cxa_get_globals
0000000180598e44 (__TEXT,__text) external ___cxa_get_globals_fast
000000018059be4c (__TEXT,__text) external ___cxa_guard_abort
000000018059bdf4 (__TEXT,__text) external ___cxa_guard_acquire
000000018059be40 (__TEXT,__text) external ___cxa_guard_release
000000018059bd80 (__TEXT,__text) external ___cxa_increment_exception_refcount
0000000182ba41e0 (__DATA,__common) external ___cxa_new_handler
0000000180599368 (__TEXT,__text) external ___cxa_pure_virtual
000000018059bdb8 (__TEXT,__text) external ___cxa_rethrow_primary_exception
0000000182bcc0a0 (__AUTH,__data) external ___cxa_terminate_handler
0000000180588978 (__TEXT,__text) external ___cxa_throw_bad_array_new_length
000000018059bdd0 (__TEXT,__text) external ___cxa_uncaught_exception
000000018059bdd8 (__TEXT,__text) external ___cxa_uncaught_exceptions
0000000182bcc0a8 (__AUTH,__data) external ___cxa_unexpected_handler
00000001805990a0 (__TEXT,__text) external ___cxa_vec_cctor
000000018059917c (__TEXT,__text) external ___cxa_vec_cleanup
0000000180598fac (__TEXT,__text) external ___cxa_vec_ctor
00000001805991d8 (__TEXT,__text) external ___cxa_vec_delete
00000001805991f0 (__TEXT,__text) external ___cxa_vec_delete2
0000000180599294 (__TEXT,__text) external ___cxa_vec_delete3
000000018059910c (__TEXT,__text) external ___cxa_vec_dtor
0000000180598ef8 (__TEXT,__text) external ___cxa_vec_new
0000000180598f10 (__TEXT,__text) external ___cxa_vec_new2
0000000180599004 (__TEXT,__text) external ___cxa_vec_new3
000000018059a464 (__TEXT,__text) external ___dynamic_cast
                 (undefined) external ___stack_chk_fail (from libSystem)
                 (undefined) external ___stack_chk_guard (from libSystem)
                 (undefined) external ___stderrp (from libSystem)
                 (undefined) external _abort (from libSystem)
0000000180599914 (__TEXT,__text) non-external (was a private external) _abort_message
                 (undefined) external _bzero (from libSystem)
                 (undefined) external _fputc (from libSystem)
                 (undefined) external _free (from libSystem)
                 (undefined) external _fwrite (from libSystem)
                 (undefined) external _malloc_type_aligned_alloc (from libSystem)
                 (undefined) external _malloc_type_calloc (from libSystem)
                 (undefined) external _malloc_type_malloc (from libSystem)
                 (undefined) external _malloc_type_realloc (from libSystem)
                 (undefined) external _memchr (from libSystem)
                 (undefined) external _memcmp (from libSystem)
                 (undefined) external _memcpy (from libSystem)
                 (undefined) external _memmove (from libSystem)
                 (undefined) external _snprintf (from libSystem)
                 (undefined) external _strcmp (from libSystem)
                 (undefined) external _strlen (from libSystem)
                 (undefined) external _vfprintf (from libSystem)
