00000002335b3ffc (__TEXT,__gcc_except_tab) non-external GCC_except_table0
00000002335b4080 (__TEXT,__gcc_except_tab) non-external GCC_except_table10
00000002335b4018 (__TEXT,__gcc_except_tab) non-external GCC_except_table2
00000002335b4104 (__TEXT,__gcc_except_tab) non-external GCC_except_table25
00000002335b404c (__TEXT,__gcc_except_tab) non-external GCC_except_table3
00000002335b4114 (__TEXT,__gcc_except_tab) non-external GCC_except_table30
00000002335b4138 (__TEXT,__gcc_except_tab) non-external GCC_except_table34
00000002335b4168 (__TEXT,__gcc_except_tab) non-external GCC_except_table42
00000002335b4190 (__TEXT,__gcc_except_tab) non-external GCC_except_table46
00000002335b41bc (__TEXT,__gcc_except_tab) non-external GCC_except_table49
00000002335b4060 (__TEXT,__gcc_except_tab) non-external GCC_except_table5
00000002335b41f8 (__TEXT,__gcc_except_tab) non-external GCC_except_table53
00000002335b4228 (__TEXT,__gcc_except_tab) non-external GCC_except_table57
00000002335b4250 (__TEXT,__gcc_except_tab) non-external GCC_except_table65
00000002335b4284 (__TEXT,__gcc_except_tab) non-external GCC_except_table68
00000002335b42ac (__TEXT,__gcc_except_tab) non-external GCC_except_table70
00000002335b42dc (__TEXT,__gcc_except_tab) non-external GCC_except_table77
00000002335b42ec (__TEXT,__gcc_except_tab) non-external GCC_except_table79
00000002335b4070 (__TEXT,__gcc_except_tab) non-external GCC_except_table8
00000002335ad348 (__TEXT,__text) non-external (was a private external) _AllocateCopyPool
00000002335ad22c (__TEXT,__text) non-external (was a private external) _AllocatePool
00000002335ad20c (__TEXT,__text) non-external (was a private external) _AppendDevicePath
00000002335aca34 (__TEXT,__text) non-external (was a private external) _AsciiSPrint
00000002335ab430 (__TEXT,__text) non-external (was a private external) _AsciiStrLen
00000002335aa9d4 (__TEXT,__text) non-external (was a private external) _AsciiStrnLenS
00000002335aaea8 (__TEXT,__text) non-external (was a private external) _AsciiStrnToUnicodeStrS
00000002335aca04 (__TEXT,__text) non-external (was a private external) _AsciiVSPrint
00000002335ac9cc (__TEXT,__text) non-external (was a private external) _BasePrintLibSPrint
00000002335ab9c8 (__TEXT,__text) non-external (was a private external) _BasePrintLibSPrintMarker
                 (undefined) external _CNCRC (from libSystem)
00000002335ab670 (__TEXT,__text) non-external (was a private external) _CopyMem
00000002335ad3fc (__TEXT,__text) external _CreateEfiVariableStoreRuntimeFromMemory
00000002335adc20 (__TEXT,__text) external _CreateEfiVariableStoreRuntimeFromPath
00000002335ae98c (__TEXT,__text) non-external _CreateSystem
00000002335b21a0 (__TEXT,__text) non-external (was a private external) _DebugAssert
00000002335b223c (__TEXT,__text) non-external (was a private external) _DebugAssertEnabled
00000002335b20c4 (__TEXT,__text) non-external (was a private external) _DebugPrint
00000002335b223c (__TEXT,__text) non-external (was a private external) _DebugPrintEnabled
00000002335b223c (__TEXT,__text) non-external (was a private external) _DebugPrintLevelEnabled
00000002335ae1c8 (__TEXT,__text) external _DestroyEfiVariableStoreRuntime
00000002335ad180 (__TEXT,__text) non-external (was a private external) _DevicePathFromHandle
00000002335accb0 (__TEXT,__text) non-external (was a private external) _DevicePathNodeLength
00000002335acd58 (__TEXT,__text) non-external (was a private external) _DevicePathSubType
00000002335acd08 (__TEXT,__text) non-external (was a private external) _DevicePathType
00000002335aa8d0 (__TEXT,__text) non-external (was a private external) _DivU64x32Remainder
00000002335ad1ec (__TEXT,__text) non-external (was a private external) _DuplicateDevicePath
00000002335ae49c (__TEXT,__text) external _EdkiiVariableLockRequestToLock
00000002335ae4f8 (__TEXT,__text) external _EdkiiVariablePolicyDisableVariablePolicy
00000002335ae5c8 (__TEXT,__text) external _EdkiiVariablePolicyDumpVariablePolicy
00000002335ae52c (__TEXT,__text) external _EdkiiVariablePolicyIsVariablePolicyEnabled
00000002335ae5fc (__TEXT,__text) external _EdkiiVariablePolicyLockVariablePolicy
00000002335ae594 (__TEXT,__text) external _EdkiiVariablePolicyRegisterVariablePolicy
00000002335ae4d8 (__TEXT,__text) external _EdkiiVariablePolicyRevision
00000002335acb20 (__TEXT,__text) non-external (was a private external) _EfiEventEmptyFunction
00000002335aca7c (__TEXT,__text) non-external (was a private external) _EfiEventGroupSignal
00000002335b35f0 (__TEXT,__const) non-external (was a private external) _EfiSupportVersionNumber
00000002335b35b8 (__TEXT,__const) non-external (was a private external) _EfiSupportVersionString
00000002335ae3e8 (__TEXT,__text) external _EfiVariableGetNextVariableName
00000002335ae3ac (__TEXT,__text) external _EfiVariableGetVariable
00000002335ae460 (__TEXT,__text) external _EfiVariableQueryVariableInfo
00000002335ae424 (__TEXT,__text) external _EfiVariableSetVariable
00000002335ae630 (__TEXT,__text) external _EfiVariableStoreEnrollDefaultKeys
00000002335ad0d0 (__TEXT,__text) non-external (was a private external) _FileDevicePath
00000002335ad374 (__TEXT,__text) non-external (was a private external) _FreePool
00000002335ae300 (__TEXT,__text) external _GetCurrentEfiVariableStoreRuntimeState
00000002335ad1cc (__TEXT,__text) non-external (was a private external) _GetDevicePathSize
00000002335ab8b0 (__TEXT,__text) non-external (was a private external) _GetPcdProtocol
00000002335ad278 (__TEXT,__text) non-external (was a private external) _InternalAllocateCopyPool
00000002335ab64c (__TEXT,__text) non-external (was a private external) _InternalMathDivRemU64x32
00000002335ab720 (__TEXT,__text) non-external (was a private external) _InternalMemCopyMem
00000002335acc48 (__TEXT,__text) non-external (was a private external) _IsDevicePathEnd
00000002335ace00 (__TEXT,__text) non-external (was a private external) _IsDevicePathEndType
00000002335acb2c (__TEXT,__text) non-external (was a private external) _IsDevicePathValid
00000002335ab988 (__TEXT,__text) non-external (was a private external) _LibPcdSet64S
00000002335af6dc (__TEXT,__text) non-external _LocalFileDevicePath
00000002335acda8 (__TEXT,__text) non-external (was a private external) _NextDevicePathNode
00000002335ab4f4 (__TEXT,__text) non-external (was a private external) _ReadUnaligned16
00000002335ab5c8 (__TEXT,__text) non-external (was a private external) _ReadUnaligned32
00000002335acee8 (__TEXT,__text) non-external (was a private external) _SetDevicePathEndNode
00000002335ace5c (__TEXT,__text) non-external (was a private external) _SetDevicePathNodeLength
00000002335ae30c (__TEXT,__text) external _SetEfiVariableStoreRuntimeState
00000002335ab320 (__TEXT,__text) non-external (was a private external) _StrLen
00000002335ab408 (__TEXT,__text) non-external (was a private external) _StrSize
00000002335aa93c (__TEXT,__text) non-external (was a private external) _StrnLenS
00000002335acffc (__TEXT,__text) non-external (was a private external) _UefiDevicePathLibAppendDevicePath
00000002335acfc4 (__TEXT,__text) non-external (was a private external) _UefiDevicePathLibDuplicateDevicePath
00000002335acf48 (__TEXT,__text) non-external (was a private external) _UefiDevicePathLibGetDevicePathSize
00000002335aaa2c (__TEXT,__text) non-external (was a private external) _UnicodeStrnToAsciiStrS
00000002335ab568 (__TEXT,__text) non-external (was a private external) _WriteUnaligned16
                 (undefined) external __Unwind_Resume (from libSystem)
00000002335ad588 (__TEXT,__text) non-external __ZL13LoadEfiModulePKcP4GUIDPv
000000027f1a9080 (__DATA,__bss) non-external __ZL13mCurrentState
000000027f1a9070 (__DATA,__bss) non-external __ZL13mVariableLock
000000027a6d6038 (__DATA_CONST,__const) non-external __ZL15mEventGroupList
000000027f1a9078 (__DATA,__bss) non-external __ZL15mVariablePolicy
00000002335ad6bc (__TEXT,__text) non-external __ZL22GetEfiModuleDevicePathPKc
00000002335ae7f0 (__TEXT,__text) non-external __ZN3Efi3Dxe6System11DxeServices28HostGetMemorySpaceDescriptorEyP31EFI_GCD_MEMORY_SPACE_DESCRIPTOR
00000002335b1c38 (__TEXT,__text) non-external __ZN3Efi3Dxe6System11LoadedImage10InitializeEPvS3_P24EFI_DEVICE_PATH_PROTOCOL
00000002335b1e18 (__TEXT,__text) non-external __ZN3Efi3Dxe6System11LoadedImage14ReadRawSectionEyPPKvPy
00000002335b1be4 (__TEXT,__text) non-external __ZN3Efi3Dxe6System11LoadedImageD1Ev
00000002335b224c (__TEXT,__text) non-external __ZN3Efi3Dxe6System13SimpleTextOut16HostOutputStringEP32_EFI_SIMPLE_TEXT_OUTPUT_PROTOCOLPt
00000002335b1a98 (__TEXT,__text) non-external __ZN3Efi3Dxe6System15EfiBootServices12HostFreePoolEPv
00000002335b1bb8 (__TEXT,__text) non-external __ZN3Efi3Dxe6System15EfiBootServices12HostRaiseTPLEy
00000002335b1098 (__TEXT,__text) non-external __ZN3Efi3Dxe6System15EfiBootServices13HostLoadImageEhPvP24EFI_DEVICE_PATH_PROTOCOLS3_yPS3_
00000002335b02e8 (__TEXT,__text) non-external __ZN3Efi3Dxe6System15EfiBootServices14HostCloseEventEPv
00000002335b1b9c (__TEXT,__text) non-external __ZN3Efi3Dxe6System15EfiBootServices14HostRestoreTPLEy
00000002335b0fec (__TEXT,__text) non-external __ZN3Efi3Dxe6System15EfiBootServices14HostStartImageEPvPyPPt
00000002335b1a70 (__TEXT,__text) non-external __ZN3Efi3Dxe6System15EfiBootServices15HostCreateEventEjyPU6ms_abiFvPvS3_ES3_PS3_
00000002335b0084 (__TEXT,__text) non-external __ZN3Efi3Dxe6System15EfiBootServices15HostSignalEventEPv
00000002335b0aa0 (__TEXT,__text) non-external __ZN3Efi3Dxe6System15EfiBootServices15HostUnloadImageEPv
00000002335b0738 (__TEXT,__text) non-external __ZN3Efi3Dxe6System15EfiBootServices16HostAllocatePoolE15EFI_MEMORY_TYPEyPPv
00000002335b178c (__TEXT,__text) non-external __ZN3Efi3Dxe6System15EfiBootServices16HostLocateHandleE22EFI_LOCATE_SEARCH_TYPEP4GUIDPvPyPS6_
00000002335b08fc (__TEXT,__text) non-external __ZN3Efi3Dxe6System15EfiBootServices16HostOpenProtocolEPvP4GUIDPS3_S3_S3_j
00000002335b19ec (__TEXT,__text) non-external __ZN3Efi3Dxe6System15EfiBootServices16HostWaitForEventEyPPvPy
00000002335b08ec (__TEXT,__text) non-external __ZN3Efi3Dxe6System15EfiBootServices17HostCloseProtocolEPvP4GUIDS3_S3_
00000002335af950 (__TEXT,__text) non-external __ZN3Efi3Dxe6System15EfiBootServices17HostCreateEventExEjyPU6ms_abiFvPvS3_EPKvPK4GUIDPS3_
00000002335af8d8 (__TEXT,__text) non-external __ZN3Efi3Dxe6System15EfiBootServices18HostCalculateCrc32EPvyPj
00000002335b19c0 (__TEXT,__text) non-external __ZN3Efi3Dxe6System15EfiBootServices18HostHandleProtocolEPvP4GUIDPS3_
00000002335b03dc (__TEXT,__text) non-external __ZN3Efi3Dxe6System15EfiBootServices18HostLocateProtocolEP4GUIDPvPS5_
00000002335b04c8 (__TEXT,__text) non-external __ZN3Efi3Dxe6System15EfiBootServices22HostLocateHandleBufferE22EFI_LOCATE_SEARCH_TYPEP4GUIDPvPyPPS6_
00000002335afff4 (__TEXT,__text) non-external __ZN3Efi3Dxe6System15EfiBootServices26HostRegisterProtocolNotifyEP4GUIDPvPS5_
00000002335afbec (__TEXT,__text) non-external __ZN3Efi3Dxe6System15EfiBootServices28HostInstallProtocolInterfaceEPPvP4GUID18EFI_INTERFACE_TYPES3_
00000002335b1550 (__TEXT,__text) non-external __ZN3Efi3Dxe6System15EfiBootServices29HostInstallConfigurationTableEP4GUIDPv
00000002335afb64 (__TEXT,__text) non-external __ZN3Efi3Dxe6System15EfiBootServices37HostInstallMultipleProtocolInterfacesEPPvz
00000002335b0a30 (__TEXT,__text) non-external __ZN3Efi3Dxe6System15EfiBootServices9HostStallEy
00000002335ae810 (__TEXT,__text) non-external __ZN3Efi3Dxe6System15FirmwareVolume215HostReadSectionEPK30_EFI_FIRMWARE_VOLUME2_PROTOCOLPK4GUIDhyPPvPyPj
00000002335b23b8 (__TEXT,__text) non-external __ZN3Efi3Dxe6System18EfiRuntimeServices11HostGetTimeEP8EFI_TIMEP21EFI_TIME_CAPABILITIES
00000002335b2388 (__TEXT,__text) non-external __ZN3Efi3Dxe6System18EfiRuntimeServices18HostConvertPointerEyPPv
00000002335b245c (__TEXT,__text) non-external __ZN3Efi3Dxe6System5NvRam10InitializeEPcm
00000002335b259c (__TEXT,__text) non-external __ZN3Efi3Dxe6System5NvRam15HostEraseBlocksEPK35_EFI_FIRMWARE_VOLUME_BLOCK_PROTOCOLz
00000002335b2814 (__TEXT,__text) non-external __ZN3Efi3Dxe6System5NvRam16HostGetBlockSizeEPK35_EFI_FIRMWARE_VOLUME_BLOCK_PROTOCOLyPyS6_
00000002335b28fc (__TEXT,__text) non-external __ZN3Efi3Dxe6System5NvRam17HostGetAttributesEPK35_EFI_FIRMWARE_VOLUME_BLOCK_PROTOCOLPj
00000002335b28c0 (__TEXT,__text) non-external __ZN3Efi3Dxe6System5NvRam17HostSetAttributesEPK35_EFI_FIRMWARE_VOLUME_BLOCK_PROTOCOLPj
00000002335b2878 (__TEXT,__text) non-external __ZN3Efi3Dxe6System5NvRam22HostGetPhysicalAddressEPK35_EFI_FIRMWARE_VOLUME_BLOCK_PROTOCOLPy
00000002335b275c (__TEXT,__text) non-external __ZN3Efi3Dxe6System5NvRam8HostReadEPK35_EFI_FIRMWARE_VOLUME_BLOCK_PROTOCOLyyPyPh
00000002335b26a4 (__TEXT,__text) non-external __ZN3Efi3Dxe6System5NvRam9HostWriteEPK35_EFI_FIRMWARE_VOLUME_BLOCK_PROTOCOLyyPyPh
000000027f1a9098 (__DATA,__bss) non-external __ZN3Efi3Dxe6System7gSystemE
                 (undefined) external __ZNKSt11logic_error4whatEv (from libc++)
00000002335adad8 (__TEXT,__text) non-external __ZNKSt3__112basic_stringIcNS_11char_traitsIcEENS_9allocatorIcEEE20__throw_length_errorB8ne190102Ev
00000002335adb80 (__TEXT,__text) non-external __ZNKSt3__112basic_stringIcNS_11char_traitsIcEENS_9allocatorIcEEE20__throw_out_of_rangeB8ne190102Ev
                 (undefined) external __ZNKSt3__14__fs10filesystem4path10__filenameEv (from libc++)
00000002335aff28 (__TEXT,__text) non-external __ZNKSt3__16__treeINS_12__value_typeI4GUIDPvEENS_19__map_value_compareIS2_S4_NS_4lessIS2_EELb1EEENS_9allocatorIS4_EEE4findIS2_EENS_21__tree_const_iteratorIS4_PNS_11__tree_nodeIS4_S3_EElEERKT_
00000002335b03c4 (__TEXT,__text) non-external __ZNKSt3__16vectorI23EFI_CONFIGURATION_TABLENS_9allocatorIS1_EEE20__throw_length_errorB8ne190102Ev
00000002335b03c4 (__TEXT,__text) non-external __ZNKSt3__16vectorINS_10unique_ptrIN3Efi3Dxe6System8EfiEventENS_14default_deleteIS5_EEEENS_9allocatorIS8_EEE20__throw_length_errorB8ne190102Ev
00000002335b03c4 (__TEXT,__text) non-external __ZNKSt3__16vectorINS_5tupleIJPU6ms_abiFvPvS2_ES2_S2_EEENS_9allocatorIS5_EEE20__throw_length_errorB8ne190102Ev
00000002335b03c4 (__TEXT,__text) non-external __ZNKSt3__16vectorIPvNS_9allocatorIS1_EEE20__throw_length_errorB8ne190102Ev
                 (undefined) external __ZNSt11logic_errorC2EPKc (from libc++)
00000002335adb4c (__TEXT,__text) non-external __ZNSt12length_errorC1B8ne190102EPKc
                 (undefined) external __ZNSt12length_errorD0Ev (from libc++)
                 (undefined) external __ZNSt12length_errorD1Ev (from libc++)
00000002335adbe4 (__TEXT,__text) non-external __ZNSt12out_of_rangeC1B8ne190102EPKc
                 (undefined) external __ZNSt12out_of_rangeD0Ev (from libc++)
                 (undefined) external __ZNSt12out_of_rangeD1Ev (from libc++)
                 (undefined) external __ZNSt20bad_array_new_lengthC1Ev (from libc++)
                 (undefined) external __ZNSt20bad_array_new_lengthD1Ev (from libc++)
00000002335af888 (__TEXT,__text) non-external __ZNSt3__110unique_ptrIN3Efi3Dxe6System10AllocationENS_14default_deleteIS4_EEE5resetB8ne190102EPS4_
00000002335af6a0 (__TEXT,__text) non-external __ZNSt3__110unique_ptrIN3Efi3Dxe6System11LoadedImageENS_14default_deleteIS4_EEE5resetB8ne190102EPS4_
00000002335af268 (__TEXT,__text) non-external __ZNSt3__110unique_ptrIN3Efi3Dxe6System5NvRamENS_14default_deleteIS4_EEE5resetB8ne190102EPS4_
00000002335af07c (__TEXT,__text) non-external __ZNSt3__110unique_ptrIN3Efi3Dxe6System9EfiHandleENS_14default_deleteIS4_EEE5resetB8ne190102EPS4_
                 (undefined) external __ZNSt3__111this_thread9sleep_forERKNS_6chrono8durationIxNS_5ratioILl1ELl1000000000EEEEE (from libc++)
00000002335b2e24 (__TEXT,__text) non-external __ZNSt3__112basic_stringIcNS_11char_traitsIcEENS_9allocatorIcEEE17__assign_externalEPKcm
                 (undefined) external __ZNSt3__112basic_stringIcNS_11char_traitsIcEENS_9allocatorIcEEE21__grow_by_and_replaceEmmmmmmPKc (from libc++)
                 (undefined) external __ZNSt3__112basic_stringIcNS_11char_traitsIcEENS_9allocatorIcEEE5eraseEmm (from libc++)
00000002335ad920 (__TEXT,__text) non-external __ZNSt3__112basic_stringIcNS_11char_traitsIcEENS_9allocatorIcEEE6appendB8ne190102IPKcLi0EEERS5_T_SA_
                 (undefined) external __ZNSt3__112basic_stringIcNS_11char_traitsIcEENS_9allocatorIcEEE6appendEPKcm (from libc++)
                 (undefined) external __ZNSt3__112basic_stringIcNS_11char_traitsIcEENS_9allocatorIcEEE6insertEmPKcm (from libc++)
                 (undefined) external __ZNSt3__112basic_stringIcNS_11char_traitsIcEENS_9allocatorIcEEE9__grow_byEmmmmmm (from libc++)
                 (undefined) external __ZNSt3__112basic_stringIcNS_11char_traitsIcEENS_9allocatorIcEEE9push_backEc (from libc++)
00000002335b0c74 (__TEXT,__text) non-external __ZNSt3__113__tree_removeB8ne190102IPNS_16__tree_node_baseIPvEEEEvT_S5_
                 (undefined) external __ZNSt3__113basic_filebufIcNS_11char_traitsIcEEE4openEPKcj (from libc++)
                 (undefined) external __ZNSt3__113basic_filebufIcNS_11char_traitsIcEEEC1Ev (from libc++)
                 (undefined) external __ZNSt3__113basic_filebufIcNS_11char_traitsIcEEED1Ev (from libc++)
00000002335b2d74 (__TEXT,__text) non-external __ZNSt3__113basic_fstreamIcNS_11char_traitsIcEEED0Ev
00000002335b2a0c (__TEXT,__text) non-external __ZNSt3__113basic_fstreamIcNS_11char_traitsIcEEED1Ev
                 (undefined) external __ZNSt3__113basic_istreamIcNS_11char_traitsIcEEE4readEPcl (from libc++)
                 (undefined) external __ZNSt3__113basic_istreamIcNS_11char_traitsIcEEE5seekgENS_4fposI11__mbstate_tEE (from libc++)
                 (undefined) external __ZNSt3__113basic_istreamIcNS_11char_traitsIcEEE5seekgExNS_8ios_base7seekdirE (from libc++)
                 (undefined) external __ZNSt3__113basic_istreamIcNS_11char_traitsIcEEE5tellgEv (from libc++)
                 (undefined) external __ZNSt3__113basic_istreamIcNS_11char_traitsIcEEED0Ev (from libc++)
                 (undefined) external __ZNSt3__113basic_istreamIcNS_11char_traitsIcEEED1Ev (from libc++)
                 (undefined) external __ZNSt3__113basic_ostreamIcNS_11char_traitsIcEEE5writeEPKcl (from libc++)
                 (undefined) external __ZNSt3__113basic_ostreamIcNS_11char_traitsIcEEED0Ev (from libc++)
                 (undefined) external __ZNSt3__113basic_ostreamIcNS_11char_traitsIcEEED1Ev (from libc++)
                 (undefined) external __ZNSt3__113basic_ostreamIcNS_11char_traitsIcEEED2Ev (from libc++)
                 (undefined) external __ZNSt3__114basic_iostreamIcNS_11char_traitsIcEEED0Ev (from libc++)
                 (undefined) external __ZNSt3__114basic_iostreamIcNS_11char_traitsIcEEED1Ev (from libc++)
                 (undefined) external __ZNSt3__114basic_iostreamIcNS_11char_traitsIcEEED2Ev (from libc++)
00000002335adaf0 (__TEXT,__text) non-external __ZNSt3__120__throw_length_errorB8ne190102EPKc
00000002335adb90 (__TEXT,__text) non-external __ZNSt3__120__throw_out_of_rangeB8ne190102EPKc
00000002335af0cc (__TEXT,__text) non-external __ZNSt3__127__tree_balance_after_insertB8ne190102IPNS_16__tree_node_baseIPvEEEEvT_S5_
00000002335af7e0 (__TEXT,__text) non-external __ZNSt3__16__treeINS_10unique_ptrIN3Efi3Dxe6System10AllocationENS_14default_deleteIS5_EEEENS4_14AllocationLessENS_9allocatorIS8_EEE7destroyEPNS_11__tree_nodeIS8_PvEE
00000002335aefac (__TEXT,__text) non-external __ZNSt3__16__treeINS_10unique_ptrIN3Efi3Dxe6System9EfiHandleENS_14default_deleteIS5_EEEENS4_13EfiHandleLessENS_9allocatorIS8_EEE25__emplace_unique_key_argsIS8_JS8_EEENS_4pairINS_15__tree_iteratorIS8_PNS_11__tree_nodeIS8_PvEElEEbEERKT_DpOT0_
00000002335b0be0 (__TEXT,__text) non-external __ZNSt3__16__treeINS_10unique_ptrIN3Efi3Dxe6System9EfiHandleENS_14default_deleteIS5_EEEENS4_13EfiHandleLessENS_9allocatorIS8_EEE5eraseENS_21__tree_const_iteratorIS8_PNS_11__tree_nodeIS8_PvEElEE
00000002335af834 (__TEXT,__text) non-external __ZNSt3__16__treeINS_10unique_ptrIN3Efi3Dxe6System9EfiHandleENS_14default_deleteIS5_EEEENS4_13EfiHandleLessENS_9allocatorIS8_EEE7destroyEPNS_11__tree_nodeIS8_PvEE
00000002335aff28 (__TEXT,__text) non-external __ZNSt3__16__treeINS_12__value_typeI4GUIDPvEENS_19__map_value_compareIS2_S4_NS_4lessIS2_EELb1EEENS_9allocatorIS4_EEE4findIS2_EENS_15__tree_iteratorIS4_PNS_11__tree_nodeIS4_S3_EElEERKT_
00000002335ae7a4 (__TEXT,__text) non-external __ZNSt3__16__treeINS_12__value_typeI4GUIDPvEENS_19__map_value_compareIS2_S4_NS_4lessIS2_EELb1EEENS_9allocatorIS4_EEE7destroyEPNS_11__tree_nodeIS4_S3_EE
00000002335b1478 (__TEXT,__text) non-external __ZNSt3__16__treeINS_12__value_typeIPvNS_10unique_ptrIN3Efi3Dxe6System11LoadedImageENS_14default_deleteIS7_EEEEEENS_19__map_value_compareIS2_SB_NS_4lessIS2_EELb1EEENS_9allocatorISB_EEE25__emplace_unique_key_argsIS2_JNS_4pairIS2_PS7_EEEEENSK_INS_15__tree_iteratorISB_PNS_11__tree_nodeISB_S2_EElEEbEERKT_DpOT0_
00000002335af64c (__TEXT,__text) non-external __ZNSt3__16__treeINS_12__value_typeIPvNS_10unique_ptrIN3Efi3Dxe6System11LoadedImageENS_14default_deleteIS7_EEEEEENS_19__map_value_compareIS2_SB_NS_4lessIS2_EELb1EEENS_9allocatorISB_EEE7destroyEPNS_11__tree_nodeISB_S2_EE
00000002335ae920 (__TEXT,__text) non-external __ZNSt3__17find_ifB8ne190102INS_14__map_iteratorINS_15__tree_iteratorINS_12__value_typeIPvNS_10unique_ptrIN3Efi3Dxe6System11LoadedImageENS_14default_deleteIS9_EEEEEEPNS_11__tree_nodeISD_S4_EElEEEEZNS8_15FirmwareVolume215HostReadSectionEPK30_EFI_FIRMWARE_VOLUME2_PROTOCOLPK4GUIDhyPS4_PyPjE3$_0EET_SU_SU_T0_
                 (undefined) external __ZNSt3__18ios_base4initEPv (from libc++)
                 (undefined) external __ZNSt3__18ios_base5clearEj (from libc++)
00000002335b2944 (__TEXT,__text) non-external __ZNSt3__18optionalINS_12basic_stringIcNS_11char_traitsIcEENS_9allocatorIcEEEEEaSB8ne190102IRNS_17basic_string_viewIcS3_EEvEERS7_OT_
00000002335b0700 (__TEXT,__text) non-external __ZNSt3__19allocatorIPvE17allocate_at_leastB8ne190102Em
                 (undefined) external __ZNSt3__19basic_iosIcNS_11char_traitsIcEEED2Ev (from libc++)
                 (undefined) external __ZNSt3__19to_stringEy (from libc++)
                 (undefined) external __ZNSt9bad_allocC1Ev (from libc++)
                 (undefined) external __ZNSt9bad_allocD1Ev (from libc++)
                 (undefined) external __ZNSt9exceptionD2Ev (from libc++)
00000002335afb30 (__TEXT,__text) non-external __ZSt28__throw_bad_array_new_lengthB8ne190102v
                 (undefined) external __ZSt9terminatev (from libc++)
000000028390f348 (__AUTH_CONST,__const) non-external __ZTCNSt3__113basic_fstreamIcNS_11char_traitsIcEEEE0_NS_13basic_istreamIcS2_EE
000000028390f2d0 (__AUTH_CONST,__const) non-external __ZTCNSt3__113basic_fstreamIcNS_11char_traitsIcEEEE0_NS_14basic_iostreamIcS2_EE
000000028390f398 (__AUTH_CONST,__const) non-external __ZTCNSt3__113basic_fstreamIcNS_11char_traitsIcEEEE16_NS_13basic_ostreamIcS2_EE
000000028390f3e8 (__AUTH_CONST,__const) non-external __ZTINSt3__113basic_fstreamIcNS_11char_traitsIcEEEE
                 (undefined) external __ZTINSt3__113basic_istreamIcNS_11char_traitsIcEEEE (from libc++)
                 (undefined) external __ZTINSt3__113basic_ostreamIcNS_11char_traitsIcEEEE (from libc++)
                 (undefined) external __ZTINSt3__114basic_iostreamIcNS_11char_traitsIcEEEE (from libc++)
                 (undefined) external __ZTISt12length_error (from libc++)
                 (undefined) external __ZTISt12out_of_range (from libc++)
                 (undefined) external __ZTISt20bad_array_new_length (from libc++)
                 (undefined) external __ZTISt9bad_alloc (from libc++)
                 (undefined) external __ZTISt9exception (from libc++)
00000002335b3604 (__TEXT,__const) non-external __ZTSNSt3__113basic_fstreamIcNS_11char_traitsIcEEEE
000000028390f280 (__AUTH_CONST,__const) non-external __ZTTNSt3__113basic_fstreamIcNS_11char_traitsIcEEEE
                 (undefined) external __ZTTNSt3__114basic_ofstreamIcNS_11char_traitsIcEEEE (from libc++)
                 (undefined) external __ZTVN10__cxxabiv120__si_class_type_infoE (from libc++)
000000028390f208 (__AUTH_CONST,__const) non-external __ZTVNSt3__113basic_fstreamIcNS_11char_traitsIcEEEE
                 (undefined) external __ZTVNSt3__114basic_ofstreamIcNS_11char_traitsIcEEEE (from libc++)
                 (undefined) external __ZTVSt12length_error (from libc++)
                 (undefined) external __ZTVSt12out_of_range (from libc++)
00000002335b2c2c (__TEXT,__text) non-external __ZThn16_NSt3__113basic_fstreamIcNS_11char_traitsIcEEED0Ev
00000002335b2cd4 (__TEXT,__text) non-external __ZThn16_NSt3__113basic_fstreamIcNS_11char_traitsIcEEED1Ev
                 (undefined) external __ZThn16_NSt3__114basic_iostreamIcNS_11char_traitsIcEEED0Ev (from libc++)
                 (undefined) external __ZThn16_NSt3__114basic_iostreamIcNS_11char_traitsIcEEED1Ev (from libc++)
00000002335b2aac (__TEXT,__text) non-external __ZTv0_n24_NSt3__113basic_fstreamIcNS_11char_traitsIcEEED0Ev
00000002335b2b70 (__TEXT,__text) non-external __ZTv0_n24_NSt3__113basic_fstreamIcNS_11char_traitsIcEEED1Ev
                 (undefined) external __ZTv0_n24_NSt3__113basic_istreamIcNS_11char_traitsIcEEED0Ev (from libc++)
                 (undefined) external __ZTv0_n24_NSt3__113basic_istreamIcNS_11char_traitsIcEEED1Ev (from libc++)
                 (undefined) external __ZTv0_n24_NSt3__113basic_ostreamIcNS_11char_traitsIcEEED0Ev (from libc++)
                 (undefined) external __ZTv0_n24_NSt3__113basic_ostreamIcNS_11char_traitsIcEEED1Ev (from libc++)
                 (undefined) external __ZTv0_n24_NSt3__114basic_iostreamIcNS_11char_traitsIcEEED0Ev (from libc++)
                 (undefined) external __ZTv0_n24_NSt3__114basic_iostreamIcNS_11char_traitsIcEEED1Ev (from libc++)
                 (undefined) external __ZdlPv (from libc++)
                 (undefined) external __Znwm (from libc++)
                 (undefined) external ___chkstk_darwin (from libSystem)
00000002335b153c (__TEXT,__text) non-external ___clang_call_terminate
                 (undefined) external ___cxa_allocate_exception (from libc++)
                 (undefined) external ___cxa_begin_catch (from libc++)
                 (undefined) external ___cxa_end_catch (from libc++)
                 (undefined) external ___cxa_free_exception (from libc++)
                 (undefined) external ___cxa_throw (from libc++)
                 (undefined) external ___gxx_personality_v0 (from libc++)
                 (undefined) external ___stack_chk_fail (from libSystem)
                 (undefined) external ___stack_chk_guard (from libSystem)
00000002335b35fc (__TEXT,__const) non-external (was a private external) __gPcd_FixedAtBuild_PcdMaximumAsciiStringLength
00000002335b35f8 (__TEXT,__const) non-external (was a private external) __gPcd_FixedAtBuild_PcdMaximumDevicePathNodeCount
00000002335b3600 (__TEXT,__const) non-external (was a private external) __gPcd_FixedAtBuild_PcdMaximumUnicodeStringLength
                 (undefined) external __os_crash (from libSystem)
                 (undefined) external __os_log_debug_impl (from libSystem)
                 (undefined) external __os_log_default (from libSystem)
                 (undefined) external _dladdr (from libSystem)
                 (undefined) external _dlclose (from libSystem)
                 (undefined) external _dlerror (from libSystem)
                 (undefined) external _dlopen (from libSystem)
                 (undefined) external _dlsym (from libSystem)
                 (undefined) external _free (from libSystem)
000000027f1a90d8 (__DATA,__common) non-external (was a private external) _gBS
000000027f1a90c0 (__DATA,__common) non-external (was a private external) _gDS
000000027f1a8fd0 (__DATA,__data) non-external _gEdkiiVariableLockProtocolGuid
000000027f1a8fe0 (__DATA,__data) non-external _gEdkiiVariablePolicyProtocolGuid
000000027f1a8ff0 (__DATA,__data) non-external (was a private external) _gEfiDevicePathProtocolGuid
000000027f1a8f80 (__DATA,__data) non-external _gEfiDxeServicesTableGuid
000000027f1a8f90 (__DATA,__data) non-external _gEfiEndOfDxeEventGroupGuid
000000027f1a8fa0 (__DATA,__data) non-external _gEfiEventExitBootServicesGuid
000000027f1a8fb0 (__DATA,__data) non-external _gEfiEventReadyToBootGuid
000000027f1a8fc0 (__DATA,__data) non-external _gEfiEventVirtualAddressChangeGuid
000000027f1a9000 (__DATA,__data) non-external _gEfiFirmwareVolume2ProtocolGuid
000000027f1a9060 (__DATA,__data) non-external _gEfiFirmwareVolumeBlockProtocolGuid
000000027f1a9050 (__DATA,__data) non-external _gEfiHobListGuid
000000027f1a9030 (__DATA,__data) non-external _gEfiLoadedImageProtocolGuid
000000027f1a9010 (__DATA,__data) non-external _gEfiShellParametersProtocolGuid
000000027f1a9040 (__DATA,__data) non-external _gEfiSimpleTextOutProtocolGuid
000000027f1a90c8 (__DATA,__common) non-external (was a private external) _gImageHandle
000000027f1a9020 (__DATA,__data) non-external (was a private external) _gPcdProtocolGuid
000000027f1a90e0 (__DATA,__common) non-external (was a private external) _gRT
000000027f1a90d0 (__DATA,__common) non-external (was a private external) _gST
000000027f1a9084 (__DATA,__bss) non-external _gZeroGuid
                 (undefined) external _gmtime_r (from libSystem)
00000002335b32c6 (__TEXT,__const) non-external (was a private external) _mErrorString
00000002335b3220 (__TEXT,__const) non-external (was a private external) _mHexStr
000000027f1a90a0 (__DATA,__common) non-external (was a private external) _mPcd
000000027f1a90b0 (__DATA,__common) non-external (was a private external) _mPcdInfo
000000027f1a90a8 (__DATA,__common) non-external (was a private external) _mPiPcd
000000027f1a90b8 (__DATA,__common) non-external (was a private external) _mPiPcdInfo
00000002335b357b (__TEXT,__const) non-external (was a private external) _mUefiDevicePathLibEndDevicePath
00000002335b3230 (__TEXT,__const) non-external (was a private external) _mWarningString
                 (undefined) external _malloc (from libSystem)
                 (undefined) external _memcmp (from libSystem)
                 (undefined) external _memcpy (from libSystem)
                 (undefined) external _memmove (from libSystem)
                 (undefined) external _memset (from libSystem)
                 (undefined) external _os_log_type_enabled (from libSystem)
                 (undefined) external _strlen (from libSystem)
                 (undefined) external _time (from libSystem)
